ccopy_reg
_reconstructor
p1
(cmojom.parse.ast
Mojom
p2
c__builtin__
object
p3
NtRp4
(dp5
S'import_list'
p6
g1
(cmojom.parse.ast
ImportList
p7
g3
NtRp8
(dp9
S'items'
p10
(lp11
g1
(cmojom.parse.ast
Import
p12
g3
NtRp13
(dp14
S'attribute_list'
p15
NsS'lineno'
p16
I7
sS'import_filename'
p17
S'mojo/public/mojom/base/time.mojom'
p18
sS'filename'
p19
S'../../ui/latency/mojo/latency_info.mojom'
p20
sbag1
(g12
g3
NtRp21
(dp22
g15
Nsg16
I8
sg17
S'ui/gfx/geometry/mojo/geometry.mojom'
p23
sg19
g20
sbasg16
I7
sg19
g20
sbsS'definition_list'
p24
(lp25
g1
(cmojom.parse.ast
Enum
p26
g3
NtRp27
(dp28
g15
NsS'enum_value_list'
p29
g1
(cmojom.parse.ast
EnumValueList
p30
g3
NtRp31
(dp32
g10
(lp33
g1
(cmojom.parse.ast
EnumValue
p34
g3
NtRp35
(dp36
g15
NsS'value'
p37
Nsg16
I14
sS'mojom_name'
p38
S'INPUT_EVENT_LATENCY_BEGIN_RWH_COMPONENT'
p39
sg19
g20
sbag1
(g34
g3
NtRp40
(dp41
g15
Nsg37
Nsg16
I18
sg38
S'LATENCY_BEGIN_SCROLL_LISTENER_UPDATE_MAIN_COMPONENT'
p42
sg19
g20
sbag1
(g34
g3
NtRp43
(dp44
g15
Nsg37
Nsg16
I20
sg38
S'LATENCY_BEGIN_FRAME_RENDERER_MAIN_COMPONENT'
p45
sg19
g20
sbag1
(g34
g3
NtRp46
(dp47
g15
Nsg37
Nsg16
I21
sg38
S'LATENCY_BEGIN_FRAME_RENDERER_INVALIDATE_COMPONENT'
p48
sg19
g20
sbag1
(g34
g3
NtRp49
(dp50
g15
Nsg37
Nsg16
I22
sg38
S'LATENCY_BEGIN_FRAME_RENDERER_COMPOSITOR_COMPONENT'
p51
sg19
g20
sbag1
(g34
g3
NtRp52
(dp53
g15
Nsg37
Nsg16
I23
sg38
S'LATENCY_BEGIN_FRAME_UI_MAIN_COMPONENT'
p54
sg19
g20
sbag1
(g34
g3
NtRp55
(dp56
g15
Nsg37
Nsg16
I24
sg38
S'LATENCY_BEGIN_FRAME_UI_COMPOSITOR_COMPONENT'
p57
sg19
g20
sbag1
(g34
g3
NtRp58
(dp59
g15
Nsg37
Nsg16
I25
sg38
S'LATENCY_BEGIN_FRAME_DISPLAY_COMPOSITOR_COMPONENT'
p60
sg19
g20
sbag1
(g34
g3
NtRp61
(dp62
g15
Nsg37
Nsg16
I28
sg38
S'INPUT_EVENT_LATENCY_SCROLL_UPDATE_ORIGINAL_COMPONENT'
p63
sg19
g20
sbag1
(g34
g3
NtRp64
(dp65
g15
Nsg37
Nsg16
I31
sg38
S'INPUT_EVENT_LATENCY_FIRST_SCROLL_UPDATE_ORIGINAL_COMPONENT'
p66
sg19
g20
sbag1
(g34
g3
NtRp67
(dp68
g15
Nsg37
Nsg16
I33
sg38
S'INPUT_EVENT_LATENCY_ORIGINAL_COMPONENT'
p69
sg19
g20
sbag1
(g34
g3
NtRp70
(dp71
g15
Nsg37
Nsg16
I35
sg38
S'INPUT_EVENT_LATENCY_UI_COMPONENT'
p72
sg19
g20
sbag1
(g34
g3
NtRp73
(dp74
g15
Nsg37
Nsg16
I37
sg38
S'INPUT_EVENT_LATENCY_RENDERER_MAIN_COMPONENT'
p75
sg19
g20
sbag1
(g34
g3
NtRp76
(dp77
g15
Nsg37
Nsg16
I40
sg38
S'INPUT_EVENT_LATENCY_RENDERING_SCHEDULED_MAIN_COMPONENT'
p78
sg19
g20
sbag1
(g34
g3
NtRp79
(dp80
g15
Nsg37
Nsg16
I43
sg38
S'INPUT_EVENT_LATENCY_RENDERING_SCHEDULED_IMPL_COMPONENT'
p81
sg19
g20
sbag1
(g34
g3
NtRp82
(dp83
g15
Nsg37
Nsg16
I45
sg38
S'INPUT_EVENT_LATENCY_FORWARD_SCROLL_UPDATE_TO_MAIN_COMPONENT'
p84
sg19
g20
sbag1
(g34
g3
NtRp85
(dp86
g15
Nsg37
Nsg16
I47
sg38
S'INPUT_EVENT_LATENCY_ACK_RWH_COMPONENT'
p87
sg19
g20
sbag1
(g34
g3
NtRp88
(dp89
g15
Nsg37
Nsg16
I49
sg38
S'TAB_SHOW_COMPONENT'
p90
sg19
g20
sbag1
(g34
g3
NtRp91
(dp92
g15
Nsg37
Nsg16
I51
sg38
S'INPUT_EVENT_LATENCY_RENDERER_SWAP_COMPONENT'
p93
sg19
g20
sbag1
(g34
g3
NtRp94
(dp95
g15
Nsg37
Nsg16
I54
sg38
S'DISPLAY_COMPOSITOR_RECEIVED_FRAME_COMPONENT'
p96
sg19
g20
sbag1
(g34
g3
NtRp97
(dp98
g15
Nsg37
Nsg16
I57
sg38
S'INPUT_EVENT_GPU_SWAP_BUFFER_COMPONENT'
p99
sg19
g20
sbag1
(g34
g3
NtRp100
(dp101
g15
Nsg37
Nsg16
I60
sg38
S'INPUT_EVENT_LATENCY_GENERATE_SCROLL_UPDATE_FROM_MOUSE_WHEEL'
p102
sg19
g20
sbag1
(g34
g3
NtRp103
(dp104
g15
Nsg37
Nsg16
I65
sg38
S'INPUT_EVENT_LATENCY_TERMINATED_NO_SWAP_COMPONENT'
p105
sg19
g20
sbag1
(g34
g3
NtRp106
(dp107
g15
Nsg37
Nsg16
I68
sg38
S'INPUT_EVENT_LATENCY_TERMINATED_FRAME_SWAP_COMPONENT'
p108
sg19
g20
sbag1
(g34
g3
NtRp109
(dp110
g15
Nsg37
Nsg16
I71
sg38
S'INPUT_EVENT_LATENCY_TERMINATED_COMMIT_FAILED_COMPONENT'
p111
sg19
g20
sbag1
(g34
g3
NtRp112
(dp113
g15
Nsg37
Nsg16
I74
sg38
S'INPUT_EVENT_LATENCY_TERMINATED_COMMIT_NO_UPDATE_COMPONENT'
p114
sg19
g20
sbag1
(g34
g3
NtRp115
(dp116
g15
Nsg37
Nsg16
I77
sg38
S'INPUT_EVENT_LATENCY_TERMINATED_SWAP_FAILED_COMPONENT'
p117
sg19
g20
sbag1
(g34
g3
NtRp118
(dp119
g15
Nsg37
(S'IDENTIFIER'
p120
S'INPUT_EVENT_LATENCY_TERMINATED_SWAP_FAILED_COMPONENT'
tp121
sg16
I78
sg38
S'LATENCY_COMPONENT_TYPE_LAST'
p122
sg19
g20
sbasg16
I14
sg19
g20
sbsg16
I10
sg38
S'LatencyComponentType'
p123
sg19
g20
sbag1
(g26
g3
NtRp124
(dp125
g15
Nsg29
g1
(g30
g3
NtRp126
(dp127
g10
(lp128
g1
(g34
g3
NtRp129
(dp130
g15
Nsg37
Nsg16
I83
sg38
S'UNKNOWN'
p131
sg19
g20
sbag1
(g34
g3
NtRp132
(dp133
g15
Nsg37
Nsg16
I84
sg38
S'WHEEL'
p134
sg19
g20
sbag1
(g34
g3
NtRp135
(dp136
g15
Nsg37
Nsg16
I85
sg38
S'MOUSE'
p137
sg19
g20
sbag1
(g34
g3
NtRp138
(dp139
g15
Nsg37
Nsg16
I86
sg38
S'TOUCH'
p140
sg19
g20
sbag1
(g34
g3
NtRp141
(dp142
g15
Nsg37
Nsg16
I87
sg38
S'INERTIAL'
p143
sg19
g20
sbag1
(g34
g3
NtRp144
(dp145
g15
Nsg37
Nsg16
I88
sg38
S'KEY_PRESS'
p146
sg19
g20
sbag1
(g34
g3
NtRp147
(dp148
g15
Nsg37
Nsg16
I89
sg38
S'FRAME'
p149
sg19
g20
sbag1
(g34
g3
NtRp150
(dp151
g15
Nsg37
Nsg16
I90
sg38
S'OTHER'
p152
sg19
g20
sbag1
(g34
g3
NtRp153
(dp154
g15
Nsg37
(g120
S'OTHER'
tp155
sg16
I91
sg38
S'SOURCE_EVENT_TYPE_LAST'
p156
sg19
g20
sbasg16
I83
sg19
g20
sbsg16
I82
sg38
S'SourceEventType'
p157
sg19
g20
sbag1
(cmojom.parse.ast
Struct
p158
g3
NtRp159
(dp160
S'body'
p161
g1
(cmojom.parse.ast
StructBody
p162
g3
NtRp163
(dp164
g10
(lp165
g1
(cmojom.parse.ast
StructField
p166
g3
NtRp167
(dp168
S'ordinal'
p169
NsS'default_value'
p170
Nsg38
S'type'
p171
sg15
Nsg19
NsS'typename'
p172
S'LatencyComponentType'
p173
sg16
Nsbag1
(g166
g3
NtRp174
(dp175
g169
Nsg170
Nsg38
S'id'
p176
sg15
Nsg19
Nsg172
S'int64'
p177
sg16
Nsbasg16
Nsg19
Nsbsg15
Nsg16
Nsg38
S'LatencyComponentId'
p178
sg19
Nsbag1
(g158
g3
NtRp179
(dp180
g161
g1
(g162
g3
NtRp181
(dp182
g10
(lp183
g1
(g166
g3
NtRp184
(dp185
g169
Nsg170
Nsg38
S'event_time'
p186
sg15
Nsg19
Nsg172
S'mojo_base.mojom.TimeTicks'
p187
sg16
Nsbag1
(g166
g3
NtRp188
(dp189
g169
Nsg170
Nsg38
S'event_count'
p190
sg15
Nsg19
Nsg172
S'uint32'
p191
sg16
Nsbag1
(g166
g3
NtRp192
(dp193
g169
Nsg170
Nsg38
S'first_event_time'
p194
sg15
Nsg19
Nsg172
S'mojo_base.mojom.TimeTicks'
p195
sg16
Nsbag1
(g166
g3
NtRp196
(dp197
g169
Nsg170
Nsg38
S'last_event_time'
p198
sg15
Nsg19
Nsg172
S'mojo_base.mojom.TimeTicks'
p199
sg16
Nsbasg16
Nsg19
Nsbsg15
Nsg16
Nsg38
S'LatencyComponent'
p200
sg19
Nsbag1
(g158
g3
NtRp201
(dp202
g161
g1
(g162
g3
NtRp203
(dp204
g10
(lp205
g1
(g166
g3
NtRp206
(dp207
g169
Nsg170
Nsg38
S'key'
p208
sg15
Nsg19
Nsg172
S'LatencyComponentId'
p209
sg16
Nsbag1
(g166
g3
NtRp210
(dp211
g169
Nsg170
Nsg38
S'value'
p212
sg15
Nsg19
Nsg172
S'LatencyComponent'
p213
sg16
Nsbasg16
Nsg19
Nsbsg15
Nsg16
Nsg38
S'LatencyComponentPair'
p214
sg19
Nsbag1
(g158
g3
NtRp215
(dp216
g161
g1
(g162
g3
NtRp217
(dp218
g10
(lp219
g1
(g166
g3
NtRp220
(dp221
g169
Nsg170
Nsg38
S'trace_name'
p222
sg15
Nsg19
Nsg172
S'string'
p223
sg16
Nsbag1
(g166
g3
NtRp224
(dp225
g169
Nsg170
Nsg38
S'latency_components'
p226
sg15
Nsg19
Nsg172
S'LatencyComponentPair[]'
p227
sg16
Nsbag1
(g166
g3
NtRp228
(dp229
g169
Nsg170
Nsg38
S'trace_id'
p230
sg15
Nsg19
Nsg172
S'int64'
p231
sg16
Nsbag1
(g166
g3
NtRp232
(dp233
g169
Nsg170
Nsg38
S'snapshots'
p234
sg15
Nsg19
Nsg172
S'int64{int64}'
p235
sg16
Nsbag1
(g166
g3
NtRp236
(dp237
g169
Nsg170
Nsg38
S'ukm_source_id'
p238
sg15
Nsg19
Nsg172
S'int64'
p239
sg16
Nsbag1
(g166
g3
NtRp240
(dp241
g169
Nsg170
Nsg38
S'coalesced'
p242
sg15
Nsg19
Nsg172
S'bool'
p243
sg16
Nsbag1
(g166
g3
NtRp244
(dp245
g169
Nsg170
Nsg38
S'began'
p246
sg15
Nsg19
Nsg172
S'bool'
p247
sg16
Nsbag1
(g166
g3
NtRp248
(dp249
g169
Nsg170
Nsg38
S'terminated'
p250
sg15
Nsg19
Nsg172
S'bool'
p251
sg16
Nsbag1
(g166
g3
NtRp252
(dp253
g169
Nsg170
Nsg38
S'source_event_type'
p254
sg15
Nsg19
Nsg172
S'SourceEventType'
p255
sg16
Nsbasg16
Nsg19
Nsbsg15
Nsg16
Nsg38
S'LatencyInfo'
p256
sg19
Nsbasg16
NsS'module'
p257
g1
(cmojom.parse.ast
Module
p258
g3
NtRp259
(dp260
S'mojom_namespace'
p261
(g120
S'ui.mojom'
tp262
sg16
I5
sg15
Nsg19
g20
sbsg19
Nsb.