ccopy_reg
_reconstructor
p1
(cmojom.parse.ast
Mojom
p2
c__builtin__
object
p3
NtRp4
(dp5
S'import_list'
p6
g1
(cmojom.parse.ast
ImportList
p7
g3
NtRp8
(dp9
S'items'
p10
(lp11
g1
(cmojom.parse.ast
Import
p12
g3
NtRp13
(dp14
S'attribute_list'
p15
NsS'lineno'
p16
I7
sS'import_filename'
p17
S'content/common/service_worker/dispatch_fetch_event_params.mojom'
p18
sS'filename'
p19
S'../../content/common/service_worker/controller_service_worker.mojom'
p20
sbag1
(g12
g3
NtRp21
(dp22
g15
Nsg16
I8
sg17
S'content/common/service_worker/service_worker_event_dispatcher.mojom'
p23
sg19
g20
sbag1
(g12
g3
NtRp24
(dp25
g15
Nsg16
I9
sg17
S'content/common/service_worker/service_worker_fetch_response_callback.mojom'
p26
sg19
g20
sbag1
(g12
g3
NtRp27
(dp28
g15
Nsg16
I10
sg17
S'mojo/public/mojom/base/time.mojom'
p29
sg19
g20
sbag1
(g12
g3
NtRp30
(dp31
g15
Nsg16
I11
sg17
S'services/network/public/mojom/url_loader.mojom'
p32
sg19
g20
sbag1
(g12
g3
NtRp33
(dp34
g15
Nsg16
I12
sg17
S'third_party/blink/public/mojom/service_worker/service_worker_event_status.mojom'
p35
sg19
g20
sbag1
(g12
g3
NtRp36
(dp37
g15
Nsg16
I13
sg17
S'third_party/blink/public/mojom/service_worker/service_worker_object.mojom'
p38
sg19
g20
sbag1
(g12
g3
NtRp39
(dp40
g15
Nsg16
I14
sg17
S'third_party/blink/public/platform/modules/fetch/fetch_api_request.mojom'
p41
sg19
g20
sbasg16
I7
sg19
g20
sbsS'definition_list'
p42
(lp43
g1
(cmojom.parse.ast
Interface
p44
g3
NtRp45
(dp46
S'body'
p47
g1
(cmojom.parse.ast
InterfaceBody
p48
g3
NtRp49
(dp50
g10
(lp51
g1
(cmojom.parse.ast
Method
p52
g3
NtRp53
(dp54
S'ordinal'
p55
NsS'mojom_name'
p56
S'DispatchFetchEvent'
p57
sS'parameter_list'
p58
g1
(cmojom.parse.ast
ParameterList
p59
g3
NtRp60
(dp61
g10
(lp62
g1
(cmojom.parse.ast
Parameter
p63
g3
NtRp64
(dp65
g55
Nsg56
S'params'
p66
sg15
Nsg19
g20
sS'typename'
p67
S'DispatchFetchEventParams'
p68
sg16
I41
sbag1
(g63
g3
NtRp69
(dp70
g55
Nsg56
S'response_callback'
p71
sg15
Nsg19
g20
sg67
S'ServiceWorkerFetchResponseCallback'
p72
sg16
I42
sbasg16
I41
sg19
g20
sbsg15
Nsg19
Nsg16
NsS'response_parameter_list'
p73
g1
(g59
g3
NtRp74
(dp75
g10
(lp76
g1
(g63
g3
NtRp77
(dp78
g55
Nsg56
S'status'
p79
sg15
Nsg19
g20
sg67
S'blink.mojom.ServiceWorkerEventStatus'
p80
sg16
I43
sbag1
(g63
g3
NtRp81
(dp82
g55
Nsg56
S'dispatch_event_time'
p83
sg15
Nsg19
g20
sg67
S'mojo_base.mojom.Time'
p84
sg16
I44
sbasg16
I43
sg19
g20
sbsbag1
(g52
g3
NtRp85
(dp86
g55
Nsg56
S'Clone'
p87
sg58
g1
(g59
g3
NtRp88
(dp89
g10
(lp90
g1
(g63
g3
NtRp91
(dp92
g55
Nsg56
S'controller'
p93
sg15
Nsg19
g20
sg67
S'ControllerServiceWorker&'
p94
sg16
I49
sbasg16
I49
sg19
g20
sbsg15
Nsg19
Nsg16
Nsg73
Nsbasg16
Nsg19
Nsbsg15
Nsg16
Nsg56
S'ControllerServiceWorker'
p95
sg19
Nsbag1
(cmojom.parse.ast
Struct
p96
g3
NtRp97
(dp98
g47
g1
(cmojom.parse.ast
StructBody
p99
g3
NtRp100
(dp101
g10
(lp102
g1
(cmojom.parse.ast
StructField
p103
g3
NtRp104
(dp105
g55
NsS'default_value'
p106
Nsg56
S'endpoint'
p107
sg15
Nsg19
Nsg67
S'ControllerServiceWorker?'
p108
sg16
Nsbag1
(g103
g3
NtRp109
(dp110
g55
Nsg106
Nsg56
S'client_id'
p111
sg15
Nsg19
Nsg67
S'string'
p112
sg16
Nsbag1
(g103
g3
NtRp113
(dp114
g55
Nsg106
Nsg56
S'object_info'
p115
sg15
Nsg19
Nsg67
S'blink.mojom.ServiceWorkerObjectInfo?'
p116
sg16
Nsbasg16
Nsg19
Nsbsg15
Nsg16
Nsg56
S'ControllerServiceWorkerInfo'
p117
sg19
Nsbasg16
NsS'module'
p118
g1
(cmojom.parse.ast
Module
p119
g3
NtRp120
(dp121
S'mojom_namespace'
p122
(S'IDENTIFIER'
p123
S'content.mojom'
tp124
sg16
I5
sg15
Nsg19
g20
sbsg19
Nsb.