ccopy_reg
_reconstructor
p1
(cmojom.parse.ast
Mojom
p2
c__builtin__
object
p3
NtRp4
(dp5
S'import_list'
p6
g1
(cmojom.parse.ast
ImportList
p7
g3
NtRp8
(dp9
S'items'
p10
(lp11
g1
(cmojom.parse.ast
Import
p12
g3
NtRp13
(dp14
S'attribute_list'
p15
NsS'lineno'
p16
I7
sS'import_filename'
p17
S'content/common/native_types.mojom'
p18
sS'filename'
p19
S'../../content/common/service_worker/embedded_worker.mojom'
p20
sbag1
(g12
g3
NtRp21
(dp22
g15
Nsg16
I8
sg17
S'content/common/service_worker/controller_service_worker.mojom'
p23
sg19
g20
sbag1
(g12
g3
NtRp24
(dp25
g15
Nsg16
I9
sg17
S'content/common/service_worker/service_worker_event_dispatcher.mojom'
p26
sg19
g20
sbag1
(g12
g3
NtRp27
(dp28
g15
Nsg16
I10
sg17
S'content/common/service_worker/service_worker_provider.mojom'
p29
sg19
g20
sbag1
(g12
g3
NtRp30
(dp31
g15
Nsg16
I11
sg17
S'mojo/public/mojom/base/string16.mojom'
p32
sg19
g20
sbag1
(g12
g3
NtRp33
(dp34
g15
Nsg16
I12
sg17
S'mojo/public/mojom/base/time.mojom'
p35
sg19
g20
sbag1
(g12
g3
NtRp36
(dp37
g15
Nsg16
I13
sg17
S'mojo/public/mojom/base/unguessable_token.mojom'
p38
sg19
g20
sbag1
(g12
g3
NtRp39
(dp40
g15
Nsg16
I14
sg17
S'services/service_manager/public/mojom/interface_provider.mojom'
p41
sg19
g20
sbag1
(g12
g3
NtRp42
(dp43
g15
Nsg16
I15
sg17
S'third_party/blink/public/mojom/service_worker/service_worker_installed_scripts_manager.mojom'
p44
sg19
g20
sbag1
(g12
g3
NtRp45
(dp46
g15
Nsg16
I16
sg17
S'third_party/blink/public/platform/web_feature.mojom'
p47
sg19
g20
sbag1
(g12
g3
NtRp48
(dp49
g15
Nsg16
I17
sg17
S'third_party/blink/public/web/console_message.mojom'
p50
sg19
g20
sbag1
(g12
g3
NtRp51
(dp52
g15
Nsg16
I18
sg17
S'third_party/blink/public/web/devtools_agent.mojom'
p53
sg19
g20
sbag1
(g12
g3
NtRp54
(dp55
g15
Nsg16
I19
sg17
S'third_party/blink/public/web/worker_content_settings_proxy.mojom'
p56
sg19
g20
sbag1
(g12
g3
NtRp57
(dp58
g15
Nsg16
I20
sg17
S'url/mojom/url.mojom'
p59
sg19
g20
sbasg16
I7
sg19
g20
sbsS'definition_list'
p60
(lp61
g1
(cmojom.parse.ast
Struct
p62
g3
NtRp63
(dp64
S'body'
p65
g1
(cmojom.parse.ast
StructBody
p66
g3
NtRp67
(dp68
g10
(lp69
g1
(cmojom.parse.ast
StructField
p70
g3
NtRp71
(dp72
S'ordinal'
p73
NsS'default_value'
p74
NsS'mojom_name'
p75
S'embedded_worker_id'
p76
sg15
Nsg19
NsS'typename'
p77
S'int32'
p78
sg16
Nsbag1
(g70
g3
NtRp79
(dp80
g73
Nsg74
Nsg75
S'service_worker_version_id'
p81
sg15
Nsg19
Nsg77
S'int64'
p82
sg16
Nsbag1
(g70
g3
NtRp83
(dp84
g73
Nsg74
Nsg75
S'scope'
p85
sg15
Nsg19
Nsg77
S'url.mojom.Url'
p86
sg16
Nsbag1
(g70
g3
NtRp87
(dp88
g73
Nsg74
Nsg75
S'script_url'
p89
sg15
Nsg19
Nsg77
S'url.mojom.Url'
p90
sg16
Nsbag1
(g70
g3
NtRp91
(dp92
g73
Nsg74
Nsg75
S'worker_devtools_agent_route_id'
p93
sg15
Nsg19
Nsg77
S'int32'
p94
sg16
Nsbag1
(g70
g3
NtRp95
(dp96
g73
Nsg74
Nsg75
S'devtools_worker_token'
p97
sg15
Nsg19
Nsg77
S'mojo_base.mojom.UnguessableToken'
p98
sg16
Nsbag1
(g70
g3
NtRp99
(dp100
g73
Nsg74
Nsg75
S'pause_after_download'
p101
sg15
Nsg19
Nsg77
S'bool'
p102
sg16
Nsbag1
(g70
g3
NtRp103
(dp104
g73
Nsg74
Nsg75
S'wait_for_debugger'
p105
sg15
Nsg19
Nsg77
S'bool'
p106
sg16
Nsbag1
(g70
g3
NtRp107
(dp108
g73
Nsg74
Nsg75
S'is_installed'
p109
sg15
Nsg19
Nsg77
S'bool'
p110
sg16
Nsbag1
(g70
g3
NtRp111
(dp112
g73
Nsg74
Nsg75
S'v8_cache_options'
p113
sg15
Nsg19
Nsg77
S'V8CacheOptions'
p114
sg16
Nsbag1
(g70
g3
NtRp115
(dp116
g73
Nsg74
Nsg75
S'data_saver_enabled'
p117
sg15
Nsg19
Nsg77
S'bool'
p118
sg16
Nsbag1
(g70
g3
NtRp119
(dp120
g73
Nsg74
Nsg75
S'dispatcher_request'
p121
sg15
Nsg19
Nsg77
S'ServiceWorkerEventDispatcher&'
p122
sg16
Nsbag1
(g70
g3
NtRp123
(dp124
g73
Nsg74
Nsg75
S'controller_request'
p125
sg15
Nsg19
Nsg77
S'ControllerServiceWorker&'
p126
sg16
Nsbag1
(g70
g3
NtRp127
(dp128
g73
Nsg74
Nsg75
S'installed_scripts_info'
p129
sg15
Nsg19
Nsg77
S'blink.mojom.ServiceWorkerInstalledScriptsInfo?'
p130
sg16
Nsbag1
(g70
g3
NtRp131
(dp132
g73
Nsg74
Nsg75
S'instance_host'
p133
sg15
Nsg19
Nsg77
S'asso<EmbeddedWorkerInstanceHost>'
p134
sg16
Nsbag1
(g70
g3
NtRp135
(dp136
g73
Nsg74
Nsg75
S'provider_info'
p137
sg15
Nsg19
Nsg77
S'ServiceWorkerProviderInfoForStartWorker'
p138
sg16
Nsbag1
(g70
g3
NtRp139
(dp140
g73
Nsg74
Nsg75
S'content_settings_proxy'
p141
sg15
Nsg19
Nsg77
S'blink.mojom.WorkerContentSettingsProxy'
p142
sg16
Nsbasg16
Nsg19
Nsbsg15
Nsg16
Nsg75
S'EmbeddedWorkerStartParams'
p143
sg19
Nsbag1
(g62
g3
NtRp144
(dp145
g65
g1
(g66
g3
NtRp146
(dp147
g10
(lp148
g1
(g70
g3
NtRp149
(dp150
g73
Nsg74
Nsg75
S'blink_initialized_time'
p151
sg15
Nsg19
Nsg77
S'mojo_base.mojom.TimeTicks'
p152
sg16
Nsbag1
(g70
g3
NtRp153
(dp154
g73
Nsg74
Nsg75
S'start_worker_received_time'
p155
sg15
Nsg19
Nsg77
S'mojo_base.mojom.TimeTicks'
p156
sg16
Nsbasg16
Nsg19
Nsbsg15
Nsg16
Nsg75
S'EmbeddedWorkerStartTiming'
p157
sg19
Nsbag1
(cmojom.parse.ast
Interface
p158
g3
NtRp159
(dp160
g65
g1
(cmojom.parse.ast
InterfaceBody
p161
g3
NtRp162
(dp163
g10
(lp164
g1
(cmojom.parse.ast
Method
p165
g3
NtRp166
(dp167
g73
Nsg75
S'StartWorker'
p168
sS'parameter_list'
p169
g1
(cmojom.parse.ast
ParameterList
p170
g3
NtRp171
(dp172
g10
(lp173
g1
(cmojom.parse.ast
Parameter
p174
g3
NtRp175
(dp176
g73
Nsg75
S'params'
p177
sg15
Nsg19
g20
sg77
S'EmbeddedWorkerStartParams'
p178
sg16
I83
sbasg16
I83
sg19
g20
sbsg15
Nsg19
Nsg16
NsS'response_parameter_list'
p179
Nsbag1
(g165
g3
NtRp180
(dp181
g73
Nsg75
S'StopWorker'
p182
sg169
g1
(g170
g3
NtRp183
(dp184
g10
(lp185
sg16
Nsg19
Nsbsg15
Nsg19
Nsg16
Nsg179
Nsbag1
(g165
g3
NtRp186
(dp187
g73
Nsg75
S'ResumeAfterDownload'
p188
sg169
g1
(g170
g3
NtRp189
(dp190
g10
(lp191
sg16
Nsg19
Nsbsg15
Nsg19
Nsg16
Nsg179
Nsbag1
(g165
g3
NtRp192
(dp193
g73
Nsg75
S'AddMessageToConsole'
p194
sg169
g1
(g170
g3
NtRp195
(dp196
g10
(lp197
g1
(g174
g3
NtRp198
(dp199
g73
Nsg75
S'level'
p200
sg15
Nsg19
g20
sg77
S'blink.mojom.ConsoleMessageLevel'
p201
sg16
I87
sbag1
(g174
g3
NtRp202
(dp203
g73
Nsg75
S'message'
p204
sg15
Nsg19
g20
sg77
S'string'
p205
sg16
I87
sbasg16
I87
sg19
g20
sbsg15
Nsg19
Nsg16
Nsg179
Nsbag1
(g165
g3
NtRp206
(dp207
g73
Nsg75
S'BindDevToolsAgent'
p208
sg169
g1
(g170
g3
NtRp209
(dp210
g10
(lp211
g1
(g174
g3
NtRp212
(dp213
g73
Nsg75
S'devtools_agent'
p214
sg15
Nsg19
g20
sg77
S'asso<blink.mojom.DevToolsAgent&>'
p215
sg16
I90
sbasg16
I90
sg19
g20
sbsg15
Nsg19
Nsg16
Nsg179
Nsbasg16
Nsg19
Nsbsg15
Nsg16
Nsg75
S'EmbeddedWorkerInstanceClient'
p216
sg19
Nsbag1
(g158
g3
NtRp217
(dp218
g65
g1
(g161
g3
NtRp219
(dp220
g10
(lp221
g1
(g165
g3
NtRp222
(dp223
g73
Nsg75
S'RequestTermination'
p224
sg169
g1
(g170
g3
NtRp225
(dp226
g10
(lp227
sg16
Nsg19
Nsbsg15
Nsg19
Nsg16
Nsg179
Nsbag1
(g165
g3
NtRp228
(dp229
g73
Nsg75
S'CountFeature'
p230
sg169
g1
(g170
g3
NtRp231
(dp232
g10
(lp233
g1
(g174
g3
NtRp234
(dp235
g73
Nsg75
S'feature'
p236
sg15
Nsg19
g20
sg77
S'blink.mojom.WebFeature'
p237
sg16
I119
sbasg16
I119
sg19
g20
sbsg15
Nsg19
Nsg16
Nsg179
Nsbag1
(g165
g3
NtRp238
(dp239
g73
Nsg75
S'OnReadyForInspection'
p240
sg169
g1
(g170
g3
NtRp241
(dp242
g10
(lp243
sg16
Nsg19
Nsbsg15
Nsg19
Nsg16
Nsg179
Nsbag1
(g165
g3
NtRp244
(dp245
g73
Nsg75
S'OnScriptLoaded'
p246
sg169
g1
(g170
g3
NtRp247
(dp248
g10
(lp249
sg16
Nsg19
Nsbsg15
Nsg19
Nsg16
Nsg179
Nsbag1
(g165
g3
NtRp250
(dp251
g73
Nsg75
S'OnScriptLoadFailed'
p252
sg169
g1
(g170
g3
NtRp253
(dp254
g10
(lp255
sg16
Nsg19
Nsbsg15
Nsg19
Nsg16
Nsg179
Nsbag1
(g165
g3
NtRp256
(dp257
g73
Nsg75
S'OnThreadStarted'
p258
sg169
g1
(g170
g3
NtRp259
(dp260
g10
(lp261
g1
(g174
g3
NtRp262
(dp263
g73
Nsg75
S'thread_id'
p264
sg15
Nsg19
g20
sg77
S'int32'
p265
sg16
I130
sbasg16
I130
sg19
g20
sbsg15
Nsg19
Nsg16
Nsg179
Nsbag1
(g165
g3
NtRp266
(dp267
g73
Nsg75
S'OnScriptEvaluated'
p268
sg169
g1
(g170
g3
NtRp269
(dp270
g10
(lp271
g1
(g174
g3
NtRp272
(dp273
g73
Nsg75
S'success'
p274
sg15
Nsg19
g20
sg77
S'bool'
p275
sg16
I134
sbasg16
I134
sg19
g20
sbsg15
Nsg19
Nsg16
Nsg179
Nsbag1
(g165
g3
NtRp276
(dp277
g73
Nsg75
S'OnStarted'
p278
sg169
g1
(g170
g3
NtRp279
(dp280
g10
(lp281
g1
(g174
g3
NtRp282
(dp283
g73
Nsg75
S'start_timing'
p284
sg15
Nsg19
g20
sg77
S'EmbeddedWorkerStartTiming'
p285
sg16
I137
sbasg16
I137
sg19
g20
sbsg15
Nsg19
Nsg16
Nsg179
Nsbag1
(g165
g3
NtRp286
(dp287
g73
Nsg75
S'OnReportException'
p288
sg169
g1
(g170
g3
NtRp289
(dp290
g10
(lp291
g1
(g174
g3
NtRp292
(dp293
g73
Nsg75
S'error_message'
p294
sg15
Nsg19
g20
sg77
S'mojo_base.mojom.String16'
p295
sg16
I139
sbag1
(g174
g3
NtRp296
(dp297
g73
Nsg75
S'line_number'
p298
sg15
Nsg19
g20
sg77
S'int32'
p299
sg16
I139
sbag1
(g174
g3
NtRp300
(dp301
g73
Nsg75
S'column_number'
p302
sg15
Nsg19
g20
sg77
S'int32'
p303
sg16
I140
sbag1
(g174
g3
NtRp304
(dp305
g73
Nsg75
S'source_url'
p306
sg15
Nsg19
g20
sg77
S'url.mojom.Url'
p307
sg16
I140
sbasg16
I139
sg19
g20
sbsg15
Nsg19
Nsg16
Nsg179
Nsbag1
(g165
g3
NtRp308
(dp309
g73
Nsg75
S'OnReportConsoleMessage'
p310
sg169
g1
(g170
g3
NtRp311
(dp312
g10
(lp313
g1
(g174
g3
NtRp314
(dp315
g73
Nsg75
S'source_identifier'
p316
sg15
Nsg19
g20
sg77
S'int32'
p317
sg16
I142
sbag1
(g174
g3
NtRp318
(dp319
g73
Nsg75
S'message_level'
p320
sg15
Nsg19
g20
sg77
S'int32'
p321
sg16
I142
sbag1
(g174
g3
NtRp322
(dp323
g73
Nsg75
S'message'
p324
sg15
Nsg19
g20
sg77
S'mojo_base.mojom.String16'
p325
sg16
I143
sbag1
(g174
g3
NtRp326
(dp327
g73
Nsg75
S'line_number'
p328
sg15
Nsg19
g20
sg77
S'int32'
p329
sg16
I143
sbag1
(g174
g3
NtRp330
(dp331
g73
Nsg75
S'source_url'
p332
sg15
Nsg19
g20
sg77
S'url.mojom.Url'
p333
sg16
I144
sbasg16
I142
sg19
g20
sbsg15
Nsg19
Nsg16
Nsg179
Nsbag1
(g165
g3
NtRp334
(dp335
g73
Nsg75
S'OnStopped'
p336
sg169
g1
(g170
g3
NtRp337
(dp338
g10
(lp339
sg16
Nsg19
Nsbsg15
Nsg19
Nsg16
Nsg179
Nsbasg16
Nsg19
Nsbsg15
Nsg16
Nsg75
S'EmbeddedWorkerInstanceHost'
p340
sg19
Nsbasg16
NsS'module'
p341
g1
(cmojom.parse.ast
Module
p342
g3
NtRp343
(dp344
S'mojom_namespace'
p345
(S'IDENTIFIER'
p346
S'content.mojom'
tp347
sg16
I5
sg15
Nsg19
g20
sbsg19
Nsb.