ccopy_reg
_reconstructor
p1
(cmojom.parse.ast
Mojom
p2
c__builtin__
object
p3
NtRp4
(dp5
S'import_list'
p6
g1
(cmojom.parse.ast
ImportList
p7
g3
NtRp8
(dp9
S'items'
p10
(lp11
g1
(cmojom.parse.ast
Import
p12
g3
NtRp13
(dp14
S'attribute_list'
p15
NsS'lineno'
p16
I7
sS'import_filename'
p17
S'content/common/service_worker/controller_service_worker.mojom'
p18
sS'filename'
p19
S'../../content/common/service_worker/service_worker_container.mojom'
p20
sbag1
(g12
g3
NtRp21
(dp22
g15
Nsg16
I8
sg17
S'mojo/public/mojom/base/string16.mojom'
p23
sg19
g20
sbag1
(g12
g3
NtRp24
(dp25
g15
Nsg16
I9
sg17
S'third_party/blink/public/mojom/message_port/message_port.mojom'
p26
sg19
g20
sbag1
(g12
g3
NtRp27
(dp28
g15
Nsg16
I10
sg17
S'third_party/blink/public/mojom/service_worker/service_worker_error_type.mojom'
p29
sg19
g20
sbag1
(g12
g3
NtRp30
(dp31
g15
Nsg16
I11
sg17
S'third_party/blink/public/mojom/service_worker/service_worker_object.mojom'
p32
sg19
g20
sbag1
(g12
g3
NtRp33
(dp34
g15
Nsg16
I12
sg17
S'third_party/blink/public/mojom/service_worker/service_worker_registration.mojom'
p35
sg19
g20
sbag1
(g12
g3
NtRp36
(dp37
g15
Nsg16
I13
sg17
S'third_party/blink/public/platform/web_feature.mojom'
p38
sg19
g20
sbag1
(g12
g3
NtRp39
(dp40
g15
Nsg16
I14
sg17
S'url/mojom/url.mojom'
p41
sg19
g20
sbasg16
I7
sg19
g20
sbsS'definition_list'
p42
(lp43
g1
(cmojom.parse.ast
Enum
p44
g3
NtRp45
(dp46
g15
NsS'enum_value_list'
p47
g1
(cmojom.parse.ast
EnumValueList
p48
g3
NtRp49
(dp50
g10
(lp51
g1
(cmojom.parse.ast
EnumValue
p52
g3
NtRp53
(dp54
g15
NsS'value'
p55
Nsg16
I19
sS'mojom_name'
p56
S'FETCH_SUB_RESOURCE'
p57
sg19
g20
sbasg16
I19
sg19
g20
sbsg16
I18
sg56
S'ControllerServiceWorkerPurpose'
p58
sg19
g20
sbag1
(cmojom.parse.ast
Interface
p59
g3
NtRp60
(dp61
S'body'
p62
g1
(cmojom.parse.ast
InterfaceBody
p63
g3
NtRp64
(dp65
g10
(lp66
g1
(cmojom.parse.ast
Method
p67
g3
NtRp68
(dp69
S'ordinal'
p70
Nsg56
S'Register'
p71
sS'parameter_list'
p72
g1
(cmojom.parse.ast
ParameterList
p73
g3
NtRp74
(dp75
g10
(lp76
g1
(cmojom.parse.ast
Parameter
p77
g3
NtRp78
(dp79
g70
Nsg56
S'script_url'
p80
sg15
Nsg19
g20
sS'typename'
p81
S'url.mojom.Url'
p82
sg16
I30
sbag1
(g77
g3
NtRp83
(dp84
g70
Nsg56
S'options'
p85
sg15
Nsg19
g20
sg81
S'blink.mojom.ServiceWorkerRegistrationOptions'
p86
sg16
I31
sbasg16
I30
sg19
g20
sbsg15
Nsg19
Nsg16
NsS'response_parameter_list'
p87
g1
(g73
g3
NtRp88
(dp89
g10
(lp90
g1
(g77
g3
NtRp91
(dp92
g70
Nsg56
S'error'
p93
sg15
Nsg19
g20
sg81
S'blink.mojom.ServiceWorkerErrorType'
p94
sg16
I32
sbag1
(g77
g3
NtRp95
(dp96
g70
Nsg56
S'error_msg'
p97
sg15
Nsg19
g20
sg81
S'string?'
p98
sg16
I33
sbag1
(g77
g3
NtRp99
(dp100
g70
Nsg56
S'registration'
p101
sg15
Nsg19
g20
sg81
S'blink.mojom.ServiceWorkerRegistrationObjectInfo?'
p102
sg16
I34
sbasg16
I32
sg19
g20
sbsbag1
(g67
g3
NtRp103
(dp104
g70
Nsg56
S'GetRegistration'
p105
sg72
g1
(g73
g3
NtRp106
(dp107
g10
(lp108
g1
(g77
g3
NtRp109
(dp110
g70
Nsg56
S'client_url'
p111
sg15
Nsg19
g20
sg81
S'url.mojom.Url'
p112
sg16
I42
sbasg16
I42
sg19
g20
sbsg15
Nsg19
Nsg16
Nsg87
g1
(g73
g3
NtRp113
(dp114
g10
(lp115
g1
(g77
g3
NtRp116
(dp117
g70
Nsg56
S'error'
p118
sg15
Nsg19
g20
sg81
S'blink.mojom.ServiceWorkerErrorType'
p119
sg16
I43
sbag1
(g77
g3
NtRp120
(dp121
g70
Nsg56
S'error_msg'
p122
sg15
Nsg19
g20
sg81
S'string?'
p123
sg16
I44
sbag1
(g77
g3
NtRp124
(dp125
g70
Nsg56
S'registration'
p126
sg15
Nsg19
g20
sg81
S'blink.mojom.ServiceWorkerRegistrationObjectInfo?'
p127
sg16
I45
sbasg16
I43
sg19
g20
sbsbag1
(g67
g3
NtRp128
(dp129
g70
Nsg56
S'GetRegistrations'
p130
sg72
g1
(g73
g3
NtRp131
(dp132
g10
(lp133
sg16
Nsg19
Nsbsg15
Nsg19
Nsg16
Nsg87
g1
(g73
g3
NtRp134
(dp135
g10
(lp136
g1
(g77
g3
NtRp137
(dp138
g70
Nsg56
S'error'
p139
sg15
Nsg19
g20
sg81
S'blink.mojom.ServiceWorkerErrorType'
p140
sg16
I53
sbag1
(g77
g3
NtRp141
(dp142
g70
Nsg56
S'error_msg'
p143
sg15
Nsg19
g20
sg81
S'string?'
p144
sg16
I54
sbag1
(g77
g3
NtRp145
(dp146
g70
Nsg56
S'infos'
p147
sg15
Nsg19
g20
sg81
S'blink.mojom.ServiceWorkerRegistrationObjectInfo[]?'
p148
sg16
I55
sbasg16
I53
sg19
g20
sbsbag1
(g67
g3
NtRp149
(dp150
g70
Nsg56
S'GetRegistrationForReady'
p151
sg72
g1
(g73
g3
NtRp152
(dp153
g10
(lp154
sg16
Nsg19
Nsbsg15
Nsg19
Nsg16
Nsg87
g1
(g73
g3
NtRp155
(dp156
g10
(lp157
g1
(g77
g3
NtRp158
(dp159
g70
Nsg56
S'registration'
p160
sg15
Nsg19
g20
sg81
S'blink.mojom.ServiceWorkerRegistrationObjectInfo?'
p161
sg16
I62
sbasg16
I62
sg19
g20
sbsbag1
(g67
g3
NtRp162
(dp163
g70
Nsg56
S'EnsureControllerServiceWorker'
p164
sg72
g1
(g73
g3
NtRp165
(dp166
g10
(lp167
g1
(g77
g3
NtRp168
(dp169
g70
Nsg56
S'controller'
p170
sg15
Nsg19
g20
sg81
S'ControllerServiceWorker&'
p171
sg16
I74
sbag1
(g77
g3
NtRp172
(dp173
g70
Nsg56
S'purpose'
p174
sg15
Nsg19
g20
sg81
S'ControllerServiceWorkerPurpose'
p175
sg16
I75
sbasg16
I74
sg19
g20
sbsg15
Nsg19
Nsg16
Nsg87
Nsbag1
(g67
g3
NtRp176
(dp177
g70
Nsg56
S'CloneForWorker'
p178
sg72
g1
(g73
g3
NtRp179
(dp180
g10
(lp181
g1
(g77
g3
NtRp182
(dp183
g70
Nsg56
S'container_host_for_worker'
p184
sg15
Nsg19
g20
sg81
S'ServiceWorkerContainerHost&'
p185
sg16
I80
sbasg16
I80
sg19
g20
sbsg15
Nsg19
Nsg16
Nsg87
Nsbag1
(g67
g3
NtRp186
(dp187
g70
Nsg56
S'Ping'
p188
sg72
g1
(g73
g3
NtRp189
(dp190
g10
(lp191
sg16
Nsg19
Nsbsg15
Nsg19
Nsg16
Nsg87
g1
(g73
g3
NtRp192
(dp193
g10
(lp194
sg16
Nsg19
Nsbsbasg16
Nsg19
Nsbsg15
Nsg16
Nsg56
S'ServiceWorkerContainerHost'
p195
sg19
Nsbag1
(g59
g3
NtRp196
(dp197
g62
g1
(g63
g3
NtRp198
(dp199
g10
(lp200
g1
(g67
g3
NtRp201
(dp202
g70
Nsg56
S'SetController'
p203
sg72
g1
(g73
g3
NtRp204
(dp205
g10
(lp206
g1
(g77
g3
NtRp207
(dp208
g70
Nsg56
S'controller_info'
p209
sg15
Nsg19
g20
sg81
S'ControllerServiceWorkerInfo'
p210
sg16
I108
sbag1
(g77
g3
NtRp211
(dp212
g70
Nsg56
S'used_features'
p213
sg15
Nsg19
g20
sg81
S'blink.mojom.WebFeature[]'
p214
sg16
I109
sbag1
(g77
g3
NtRp215
(dp216
g70
Nsg56
S'should_notify_controllerchange'
p217
sg15
Nsg19
g20
sg81
S'bool'
p218
sg16
I110
sbasg16
I108
sg19
g20
sbsg15
Nsg19
Nsg16
Nsg87
Nsbag1
(g67
g3
NtRp219
(dp220
g70
Nsg56
S'PostMessageToClient'
p221
sg72
g1
(g73
g3
NtRp222
(dp223
g10
(lp224
g1
(g77
g3
NtRp225
(dp226
g70
Nsg56
S'source'
p227
sg15
Nsg19
g20
sg81
S'blink.mojom.ServiceWorkerObjectInfo'
p228
sg16
I115
sbag1
(g77
g3
NtRp229
(dp230
g70
Nsg56
S'message'
p231
sg15
Nsg19
g20
sg81
S'blink.mojom.TransferableMessage'
p232
sg16
I116
sbasg16
I115
sg19
g20
sbsg15
Nsg19
Nsg16
Nsg87
Nsbag1
(g67
g3
NtRp233
(dp234
g70
Nsg56
S'CountFeature'
p235
sg72
g1
(g73
g3
NtRp236
(dp237
g10
(lp238
g1
(g77
g3
NtRp239
(dp240
g70
Nsg56
S'feature'
p241
sg15
Nsg19
g20
sg81
S'blink.mojom.WebFeature'
p242
sg16
I120
sbasg16
I120
sg19
g20
sbsg15
Nsg19
Nsg16
Nsg87
Nsbasg16
Nsg19
Nsbsg15
Nsg16
Nsg56
S'ServiceWorkerContainer'
p243
sg19
Nsbasg16
NsS'module'
p244
g1
(cmojom.parse.ast
Module
p245
g3
NtRp246
(dp247
S'mojom_namespace'
p248
(S'IDENTIFIER'
p249
S'content.mojom'
tp250
sg16
I5
sg15
Nsg19
g20
sbsg19
Nsb.