ccopy_reg
_reconstructor
p1
(cmojom.parse.ast
Mojom
p2
c__builtin__
object
p3
NtRp4
(dp5
S'import_list'
p6
g1
(cmojom.parse.ast
ImportList
p7
g3
NtRp8
(dp9
S'items'
p10
(lp11
g1
(cmojom.parse.ast
Import
p12
g3
NtRp13
(dp14
S'attribute_list'
p15
NsS'lineno'
p16
I7
sS'import_filename'
p17
S'content/common/service_worker/dispatch_fetch_event_params.mojom'
p18
sS'filename'
p19
S'../../content/common/service_worker/service_worker_event_dispatcher.mojom'
p20
sbag1
(g12
g3
NtRp21
(dp22
g15
Nsg16
I8
sg17
S'content/common/service_worker/service_worker_fetch_response_callback.mojom'
p23
sg19
g20
sbag1
(g12
g3
NtRp24
(dp25
g15
Nsg16
I9
sg17
S'mojo/public/mojom/base/string16.mojom'
p26
sg19
g20
sbag1
(g12
g3
NtRp27
(dp28
g15
Nsg16
I10
sg17
S'mojo/public/mojom/base/time.mojom'
p29
sg19
g20
sbag1
(g12
g3
NtRp30
(dp31
g15
Nsg16
I11
sg17
S'services/network/public/mojom/cookie_manager.mojom'
p32
sg19
g20
sbag1
(g12
g3
NtRp33
(dp34
g15
Nsg16
I12
sg17
S'third_party/blink/public/platform/modules/fetch/fetch_api_request.mojom'
p35
sg19
g20
sbag1
(g12
g3
NtRp36
(dp37
g15
Nsg16
I13
sg17
S'third_party/blink/public/platform/modules/payments/payment_app.mojom'
p38
sg19
g20
sbag1
(g12
g3
NtRp39
(dp40
g15
Nsg16
I14
sg17
S'third_party/blink/public/mojom/message_port/message_port.mojom'
p41
sg19
g20
sbag1
(g12
g3
NtRp42
(dp43
g15
Nsg16
I15
sg17
S'third_party/blink/public/mojom/service_worker/service_worker.mojom'
p44
sg19
g20
sbag1
(g12
g3
NtRp45
(dp46
g15
Nsg16
I16
sg17
S'third_party/blink/public/mojom/service_worker/service_worker_client.mojom'
p47
sg19
g20
sbag1
(g12
g3
NtRp48
(dp49
g15
Nsg16
I17
sg17
S'third_party/blink/public/mojom/service_worker/service_worker_event_status.mojom'
p50
sg19
g20
sbag1
(g12
g3
NtRp51
(dp52
g15
Nsg16
I18
sg17
S'third_party/blink/public/mojom/service_worker/service_worker_object.mojom'
p53
sg19
g20
sbag1
(g12
g3
NtRp54
(dp55
g15
Nsg16
I19
sg17
S'third_party/blink/public/mojom/service_worker/service_worker_registration.mojom'
p56
sg19
g20
sbag1
(g12
g3
NtRp57
(dp58
g15
Nsg16
I20
sg17
S'url/mojom/origin.mojom'
p59
sg19
g20
sbag1
(g12
g3
NtRp60
(dp61
g15
Nsg16
I21
sg17
S'url/mojom/url.mojom'
p62
sg19
g20
sbasg16
I7
sg19
g20
sbsS'definition_list'
p63
(lp64
g1
(cmojom.parse.ast
Struct
p65
g3
NtRp66
(dp67
S'body'
p68
Nsg15
g1
(cmojom.parse.ast
AttributeList
p69
g3
NtRp70
(dp71
g10
(lp72
g1
(cmojom.parse.ast
Attribute
p73
g3
NtRp74
(dp75
S'value'
p76
I01
sg16
I23
sS'key'
p77
S'Native'
p78
sg19
g20
sbasg16
I23
sg19
g20
sbsg16
NsS'mojom_name'
p79
S'PlatformNotificationData'
p80
sg19
Nsbag1
(g65
g3
NtRp81
(dp82
g68
Nsg15
g1
(g69
g3
NtRp83
(dp84
g10
(lp85
g1
(g73
g3
NtRp86
(dp87
g76
I01
sg16
I26
sg77
S'Native'
p88
sg19
g20
sbasg16
I26
sg19
g20
sbsg16
Nsg79
S'PushEventPayload'
p89
sg19
Nsbag1
(g65
g3
NtRp90
(dp91
g68
Nsg15
g1
(g69
g3
NtRp92
(dp93
g10
(lp94
g1
(g73
g3
NtRp95
(dp96
g76
I01
sg16
I29
sg77
S'Native'
p97
sg19
g20
sbasg16
I29
sg19
g20
sbsg16
Nsg79
S'ServiceWorkerResponse'
p98
sg19
Nsbag1
(g65
g3
NtRp99
(dp100
g68
g1
(cmojom.parse.ast
StructBody
p101
g3
NtRp102
(dp103
g10
(lp104
g1
(cmojom.parse.ast
StructField
p105
g3
NtRp106
(dp107
S'ordinal'
p108
NsS'default_value'
p109
Nsg79
S'request'
p110
sg15
Nsg19
NsS'typename'
p111
S'blink.mojom.FetchAPIRequest'
p112
sg16
Nsbag1
(g105
g3
NtRp113
(dp114
g108
Nsg109
Nsg79
S'response'
p115
sg15
Nsg19
Nsg111
S'ServiceWorkerResponse'
p116
sg16
Nsbasg16
Nsg19
Nsbsg15
Nsg16
Nsg79
S'BackgroundFetchSettledFetch'
p117
sg19
Nsbag1
(cmojom.parse.ast
Enum
p118
g3
NtRp119
(dp120
g15
NsS'enum_value_list'
p121
g1
(cmojom.parse.ast
EnumValueList
p122
g3
NtRp123
(dp124
g10
(lp125
g1
(cmojom.parse.ast
EnumValue
p126
g3
NtRp127
(dp128
g15
Nsg76
Nsg16
I40
sg79
S'PENDING'
p129
sg19
g20
sbag1
(g126
g3
NtRp130
(dp131
g15
Nsg76
Nsg16
I41
sg79
S'SUCCEEDED'
p132
sg19
g20
sbag1
(g126
g3
NtRp133
(dp134
g15
Nsg76
Nsg16
I42
sg79
S'FAILED'
p135
sg19
g20
sbasg16
I40
sg19
g20
sbsg16
I39
sg79
S'BackgroundFetchState'
p136
sg19
g20
sbag1
(g65
g3
NtRp137
(dp138
g68
g1
(g101
g3
NtRp139
(dp140
g10
(lp141
g1
(g105
g3
NtRp142
(dp143
g108
Nsg109
Nsg79
S'message'
p144
sg15
Nsg19
Nsg111
S'blink.mojom.TransferableMessage'
p145
sg16
Nsbag1
(g105
g3
NtRp146
(dp147
g108
Nsg109
Nsg79
S'source_origin'
p148
sg15
Nsg19
Nsg111
S'url.mojom.Origin'
p149
sg16
Nsbag1
(g105
g3
NtRp150
(dp151
g108
Nsg109
Nsg79
S'source_info_for_client'
p152
sg15
Nsg19
Nsg111
S'blink.mojom.ServiceWorkerClientInfo?'
p153
sg16
Nsbag1
(g105
g3
NtRp154
(dp155
g108
Nsg109
Nsg79
S'source_info_for_service_worker'
p156
sg15
Nsg19
Nsg111
S'blink.mojom.ServiceWorkerObjectInfo?'
p157
sg16
Nsbasg16
Nsg19
Nsbsg15
Nsg16
Nsg79
S'ExtendableMessageEvent'
p158
sg19
Nsbag1
(cmojom.parse.ast
Const
p159
g3
NtRp160
(dp161
g79
S'kPushEventTimeoutSeconds'
p162
sg15
Nsg76
S'90'
p163
sg19
Nsg111
S'int32'
p164
sg16
Nsbag1
(cmojom.parse.ast
Interface
p165
g3
NtRp166
(dp167
g68
g1
(cmojom.parse.ast
InterfaceBody
p168
g3
NtRp169
(dp170
g10
(lp171
g1
(cmojom.parse.ast
Method
p172
g3
NtRp173
(dp174
g108
Nsg79
S'InitializeGlobalScope'
p175
sS'parameter_list'
p176
g1
(cmojom.parse.ast
ParameterList
p177
g3
NtRp178
(dp179
g10
(lp180
g1
(cmojom.parse.ast
Parameter
p181
g3
NtRp182
(dp183
g108
Nsg79
S'service_worker_host'
p184
sg15
Nsg19
g20
sg111
S'asso<blink.mojom.ServiceWorkerHost>'
p185
sg16
I77
sbag1
(g181
g3
NtRp186
(dp187
g108
Nsg79
S'registration_info'
p188
sg15
Nsg19
g20
sg111
S'blink.mojom.ServiceWorkerRegistrationObjectInfo'
p189
sg16
I78
sbasg16
I77
sg19
g20
sbsg15
Nsg19
Nsg16
NsS'response_parameter_list'
p190
Nsbag1
(g172
g3
NtRp191
(dp192
g108
Nsg79
S'DispatchInstallEvent'
p193
sg176
g1
(g177
g3
NtRp194
(dp195
g10
(lp196
sg16
Nsg19
Nsbsg15
Nsg19
Nsg16
Nsg190
g1
(g177
g3
NtRp197
(dp198
g10
(lp199
g1
(g181
g3
NtRp200
(dp201
g108
Nsg79
S'status'
p202
sg15
Nsg19
g20
sg111
S'blink.mojom.ServiceWorkerEventStatus'
p203
sg16
I81
sbag1
(g181
g3
NtRp204
(dp205
g108
Nsg79
S'has_fetch_handler'
p206
sg15
Nsg19
g20
sg111
S'bool'
p207
sg16
I82
sbag1
(g181
g3
NtRp208
(dp209
g108
Nsg79
S'dispatch_event_time'
p210
sg15
Nsg19
g20
sg111
S'mojo_base.mojom.Time'
p211
sg16
I83
sbasg16
I81
sg19
g20
sbsbag1
(g172
g3
NtRp212
(dp213
g108
Nsg79
S'DispatchActivateEvent'
p214
sg176
g1
(g177
g3
NtRp215
(dp216
g10
(lp217
sg16
Nsg19
Nsbsg15
Nsg19
Nsg16
Nsg190
g1
(g177
g3
NtRp218
(dp219
g10
(lp220
g1
(g181
g3
NtRp221
(dp222
g108
Nsg79
S'status'
p223
sg15
Nsg19
g20
sg111
S'blink.mojom.ServiceWorkerEventStatus'
p224
sg16
I85
sbag1
(g181
g3
NtRp225
(dp226
g108
Nsg79
S'dispatch_event_time'
p227
sg15
Nsg19
g20
sg111
S'mojo_base.mojom.Time'
p228
sg16
I86
sbasg16
I85
sg19
g20
sbsbag1
(g172
g3
NtRp229
(dp230
g108
Nsg79
S'DispatchBackgroundFetchAbortEvent'
p231
sg176
g1
(g177
g3
NtRp232
(dp233
g10
(lp234
g1
(g181
g3
NtRp235
(dp236
g108
Nsg79
S'developer_id'
p237
sg15
Nsg19
g20
sg111
S'string'
p238
sg16
I93
sbag1
(g181
g3
NtRp239
(dp240
g108
Nsg79
S'unique_id'
p241
sg15
Nsg19
g20
sg111
S'string'
p242
sg16
I94
sbag1
(g181
g3
NtRp243
(dp244
g108
Nsg79
S'fetches'
p245
sg15
Nsg19
g20
sg111
S'BackgroundFetchSettledFetch[]'
p246
sg16
I95
sbasg16
I93
sg19
g20
sbsg15
Nsg19
Nsg16
Nsg190
g1
(g177
g3
NtRp247
(dp248
g10
(lp249
g1
(g181
g3
NtRp250
(dp251
g108
Nsg79
S'status'
p252
sg15
Nsg19
g20
sg111
S'blink.mojom.ServiceWorkerEventStatus'
p253
sg16
I96
sbag1
(g181
g3
NtRp254
(dp255
g108
Nsg79
S'dispatch_event_time'
p256
sg15
Nsg19
g20
sg111
S'mojo_base.mojom.Time'
p257
sg16
I97
sbasg16
I96
sg19
g20
sbsbag1
(g172
g3
NtRp258
(dp259
g108
Nsg79
S'DispatchBackgroundFetchClickEvent'
p260
sg176
g1
(g177
g3
NtRp261
(dp262
g10
(lp263
g1
(g181
g3
NtRp264
(dp265
g108
Nsg79
S'developer_id'
p266
sg15
Nsg19
g20
sg111
S'string'
p267
sg16
I98
sbag1
(g181
g3
NtRp268
(dp269
g108
Nsg79
S'state'
p270
sg15
Nsg19
g20
sg111
S'BackgroundFetchState'
p271
sg16
I99
sbasg16
I98
sg19
g20
sbsg15
Nsg19
Nsg16
Nsg190
g1
(g177
g3
NtRp272
(dp273
g10
(lp274
g1
(g181
g3
NtRp275
(dp276
g108
Nsg79
S'status'
p277
sg15
Nsg19
g20
sg111
S'blink.mojom.ServiceWorkerEventStatus'
p278
sg16
I100
sbag1
(g181
g3
NtRp279
(dp280
g108
Nsg79
S'dispatch_event_time'
p281
sg15
Nsg19
g20
sg111
S'mojo_base.mojom.Time'
p282
sg16
I101
sbasg16
I100
sg19
g20
sbsbag1
(g172
g3
NtRp283
(dp284
g108
Nsg79
S'DispatchBackgroundFetchFailEvent'
p285
sg176
g1
(g177
g3
NtRp286
(dp287
g10
(lp288
g1
(g181
g3
NtRp289
(dp290
g108
Nsg79
S'developer_id'
p291
sg15
Nsg19
g20
sg111
S'string'
p292
sg16
I102
sbag1
(g181
g3
NtRp293
(dp294
g108
Nsg79
S'unique_id'
p295
sg15
Nsg19
g20
sg111
S'string'
p296
sg16
I103
sbag1
(g181
g3
NtRp297
(dp298
g108
Nsg79
S'fetches'
p299
sg15
Nsg19
g20
sg111
S'BackgroundFetchSettledFetch[]'
p300
sg16
I104
sbasg16
I102
sg19
g20
sbsg15
Nsg19
Nsg16
Nsg190
g1
(g177
g3
NtRp301
(dp302
g10
(lp303
g1
(g181
g3
NtRp304
(dp305
g108
Nsg79
S'status'
p306
sg15
Nsg19
g20
sg111
S'blink.mojom.ServiceWorkerEventStatus'
p307
sg16
I105
sbag1
(g181
g3
NtRp308
(dp309
g108
Nsg79
S'dispatch_event_time'
p310
sg15
Nsg19
g20
sg111
S'mojo_base.mojom.Time'
p311
sg16
I106
sbasg16
I105
sg19
g20
sbsbag1
(g172
g3
NtRp312
(dp313
g108
Nsg79
S'DispatchBackgroundFetchedEvent'
p314
sg176
g1
(g177
g3
NtRp315
(dp316
g10
(lp317
g1
(g181
g3
NtRp318
(dp319
g108
Nsg79
S'developer_id'
p320
sg15
Nsg19
g20
sg111
S'string'
p321
sg16
I107
sbag1
(g181
g3
NtRp322
(dp323
g108
Nsg79
S'unique_id'
p324
sg15
Nsg19
g20
sg111
S'string'
p325
sg16
I108
sbag1
(g181
g3
NtRp326
(dp327
g108
Nsg79
S'fetches'
p328
sg15
Nsg19
g20
sg111
S'BackgroundFetchSettledFetch[]'
p329
sg16
I109
sbasg16
I107
sg19
g20
sbsg15
Nsg19
Nsg16
Nsg190
g1
(g177
g3
NtRp330
(dp331
g10
(lp332
g1
(g181
g3
NtRp333
(dp334
g108
Nsg79
S'status'
p335
sg15
Nsg19
g20
sg111
S'blink.mojom.ServiceWorkerEventStatus'
p336
sg16
I110
sbag1
(g181
g3
NtRp337
(dp338
g108
Nsg79
S'dispatch_event_time'
p339
sg15
Nsg19
g20
sg111
S'mojo_base.mojom.Time'
p340
sg16
I111
sbasg16
I110
sg19
g20
sbsbag1
(g172
g3
NtRp341
(dp342
g108
Nsg79
S'DispatchCookieChangeEvent'
p343
sg176
g1
(g177
g3
NtRp344
(dp345
g10
(lp346
g1
(g181
g3
NtRp347
(dp348
g108
Nsg79
S'cookie'
p349
sg15
Nsg19
g20
sg111
S'network.mojom.CanonicalCookie'
p350
sg16
I118
sbag1
(g181
g3
NtRp351
(dp352
g108
Nsg79
S'cause'
p353
sg15
Nsg19
g20
sg111
S'network.mojom.CookieChangeCause'
p354
sg16
I119
sbasg16
I118
sg19
g20
sbsg15
Nsg19
Nsg16
Nsg190
g1
(g177
g3
NtRp355
(dp356
g10
(lp357
g1
(g181
g3
NtRp358
(dp359
g108
Nsg79
S'status'
p360
sg15
Nsg19
g20
sg111
S'blink.mojom.ServiceWorkerEventStatus'
p361
sg16
I120
sbag1
(g181
g3
NtRp362
(dp363
g108
Nsg79
S'dispatch_event_time'
p364
sg15
Nsg19
g20
sg111
S'mojo_base.mojom.Time'
p365
sg16
I121
sbasg16
I120
sg19
g20
sbsbag1
(g172
g3
NtRp366
(dp367
g108
Nsg79
S'DispatchFetchEvent'
p368
sg176
g1
(g177
g3
NtRp369
(dp370
g10
(lp371
g1
(g181
g3
NtRp372
(dp373
g108
Nsg79
S'params'
p374
sg15
Nsg19
g20
sg111
S'DispatchFetchEventParams'
p375
sg16
I128
sbag1
(g181
g3
NtRp376
(dp377
g108
Nsg79
S'response_callback'
p378
sg15
Nsg19
g20
sg111
S'ServiceWorkerFetchResponseCallback'
p379
sg16
I129
sbasg16
I128
sg19
g20
sbsg15
Nsg19
Nsg16
Nsg190
g1
(g177
g3
NtRp380
(dp381
g10
(lp382
g1
(g181
g3
NtRp383
(dp384
g108
Nsg79
S'status'
p385
sg15
Nsg19
g20
sg111
S'blink.mojom.ServiceWorkerEventStatus'
p386
sg16
I130
sbag1
(g181
g3
NtRp387
(dp388
g108
Nsg79
S'dispatch_event_time'
p389
sg15
Nsg19
g20
sg111
S'mojo_base.mojom.Time'
p390
sg16
I131
sbasg16
I130
sg19
g20
sbsbag1
(g172
g3
NtRp391
(dp392
g108
Nsg79
S'DispatchNotificationClickEvent'
p393
sg176
g1
(g177
g3
NtRp394
(dp395
g10
(lp396
g1
(g181
g3
NtRp397
(dp398
g108
Nsg79
S'notification_id'
p399
sg15
Nsg19
g20
sg111
S'string'
p400
sg16
I133
sbag1
(g181
g3
NtRp401
(dp402
g108
Nsg79
S'notification_data'
p403
sg15
Nsg19
g20
sg111
S'PlatformNotificationData'
p404
sg16
I134
sbag1
(g181
g3
NtRp405
(dp406
g108
Nsg79
S'action_index'
p407
sg15
Nsg19
g20
sg111
S'int32'
p408
sg16
I135
sbag1
(g181
g3
NtRp409
(dp410
g108
Nsg79
S'reply'
p411
sg15
Nsg19
g20
sg111
S'mojo_base.mojom.String16?'
p412
sg16
I136
sbasg16
I133
sg19
g20
sbsg15
Nsg19
Nsg16
Nsg190
g1
(g177
g3
NtRp413
(dp414
g10
(lp415
g1
(g181
g3
NtRp416
(dp417
g108
Nsg79
S'status'
p418
sg15
Nsg19
g20
sg111
S'blink.mojom.ServiceWorkerEventStatus'
p419
sg16
I137
sbag1
(g181
g3
NtRp420
(dp421
g108
Nsg79
S'dispatch_event_time'
p422
sg15
Nsg19
g20
sg111
S'mojo_base.mojom.Time'
p423
sg16
I138
sbasg16
I137
sg19
g20
sbsbag1
(g172
g3
NtRp424
(dp425
g108
Nsg79
S'DispatchNotificationCloseEvent'
p426
sg176
g1
(g177
g3
NtRp427
(dp428
g10
(lp429
g1
(g181
g3
NtRp430
(dp431
g108
Nsg79
S'notification_id'
p432
sg15
Nsg19
g20
sg111
S'string'
p433
sg16
I139
sbag1
(g181
g3
NtRp434
(dp435
g108
Nsg79
S'notification_data'
p436
sg15
Nsg19
g20
sg111
S'PlatformNotificationData'
p437
sg16
I140
sbasg16
I139
sg19
g20
sbsg15
Nsg19
Nsg16
Nsg190
g1
(g177
g3
NtRp438
(dp439
g10
(lp440
g1
(g181
g3
NtRp441
(dp442
g108
Nsg79
S'status'
p443
sg15
Nsg19
g20
sg111
S'blink.mojom.ServiceWorkerEventStatus'
p444
sg16
I141
sbag1
(g181
g3
NtRp445
(dp446
g108
Nsg79
S'dispatch_event_time'
p447
sg15
Nsg19
g20
sg111
S'mojo_base.mojom.Time'
p448
sg16
I142
sbasg16
I141
sg19
g20
sbsbag1
(g172
g3
NtRp449
(dp450
g108
Nsg79
S'DispatchPushEvent'
p451
sg176
g1
(g177
g3
NtRp452
(dp453
g10
(lp454
g1
(g181
g3
NtRp455
(dp456
g108
Nsg79
S'payload'
p457
sg15
Nsg19
g20
sg111
S'PushEventPayload'
p458
sg16
I143
sbasg16
I143
sg19
g20
sbsg15
Nsg19
Nsg16
Nsg190
g1
(g177
g3
NtRp459
(dp460
g10
(lp461
g1
(g181
g3
NtRp462
(dp463
g108
Nsg79
S'status'
p464
sg15
Nsg19
g20
sg111
S'blink.mojom.ServiceWorkerEventStatus'
p465
sg16
I144
sbag1
(g181
g3
NtRp466
(dp467
g108
Nsg79
S'dispatch_event_time'
p468
sg15
Nsg19
g20
sg111
S'mojo_base.mojom.Time'
p469
sg16
I145
sbasg16
I144
sg19
g20
sbsbag1
(g172
g3
NtRp470
(dp471
g108
Nsg79
S'DispatchSyncEvent'
p472
sg176
g1
(g177
g3
NtRp473
(dp474
g10
(lp475
g1
(g181
g3
NtRp476
(dp477
g108
Nsg79
S'id'
p478
sg15
Nsg19
g20
sg111
S'string'
p479
sg16
I151
sbag1
(g181
g3
NtRp480
(dp481
g108
Nsg79
S'last_chance'
p482
sg15
Nsg19
g20
sg111
S'bool'
p483
sg16
I152
sbag1
(g181
g3
NtRp484
(dp485
g108
Nsg79
S'timeout'
p486
sg15
Nsg19
g20
sg111
S'mojo_base.mojom.TimeDelta'
p487
sg16
I153
sbasg16
I151
sg19
g20
sbsg15
Nsg19
Nsg16
Nsg190
g1
(g177
g3
NtRp488
(dp489
g10
(lp490
g1
(g181
g3
NtRp491
(dp492
g108
Nsg79
S'status'
p493
sg15
Nsg19
g20
sg111
S'blink.mojom.ServiceWorkerEventStatus'
p494
sg16
I154
sbag1
(g181
g3
NtRp495
(dp496
g108
Nsg79
S'dispatch_event_time'
p497
sg15
Nsg19
g20
sg111
S'mojo_base.mojom.Time'
p498
sg16
I155
sbasg16
I154
sg19
g20
sbsbag1
(g172
g3
NtRp499
(dp500
g108
Nsg79
S'DispatchAbortPaymentEvent'
p501
sg176
g1
(g177
g3
NtRp502
(dp503
g10
(lp504
g1
(g181
g3
NtRp505
(dp506
g108
Nsg79
S'event_id'
p507
sg15
Nsg19
g20
sg111
S'int32'
p508
sg16
I157
sbag1
(g181
g3
NtRp509
(dp510
g108
Nsg79
S'result_of_abort_payment'
p511
sg15
Nsg19
g20
sg111
S'payments.mojom.PaymentHandlerResponseCallback'
p512
sg16
I158
sbasg16
I157
sg19
g20
sbsg15
Nsg19
Nsg16
Nsg190
g1
(g177
g3
NtRp513
(dp514
g10
(lp515
g1
(g181
g3
NtRp516
(dp517
g108
Nsg79
S'status'
p518
sg15
Nsg19
g20
sg111
S'blink.mojom.ServiceWorkerEventStatus'
p519
sg16
I159
sbag1
(g181
g3
NtRp520
(dp521
g108
Nsg79
S'dispatch_event_time'
p522
sg15
Nsg19
g20
sg111
S'mojo_base.mojom.Time'
p523
sg16
I160
sbasg16
I159
sg19
g20
sbsbag1
(g172
g3
NtRp524
(dp525
g108
Nsg79
S'DispatchCanMakePaymentEvent'
p526
sg176
g1
(g177
g3
NtRp527
(dp528
g10
(lp529
g1
(g181
g3
NtRp530
(dp531
g108
Nsg79
S'event_id'
p532
sg15
Nsg19
g20
sg111
S'int32'
p533
sg16
I162
sbag1
(g181
g3
NtRp534
(dp535
g108
Nsg79
S'event_data'
p536
sg15
Nsg19
g20
sg111
S'payments.mojom.CanMakePaymentEventData'
p537
sg16
I163
sbag1
(g181
g3
NtRp538
(dp539
g108
Nsg79
S'result_of_can_make_payment'
p540
sg15
Nsg19
g20
sg111
S'payments.mojom.PaymentHandlerResponseCallback'
p541
sg16
I164
sbasg16
I162
sg19
g20
sbsg15
Nsg19
Nsg16
Nsg190
g1
(g177
g3
NtRp542
(dp543
g10
(lp544
g1
(g181
g3
NtRp545
(dp546
g108
Nsg79
S'status'
p547
sg15
Nsg19
g20
sg111
S'blink.mojom.ServiceWorkerEventStatus'
p548
sg16
I165
sbag1
(g181
g3
NtRp549
(dp550
g108
Nsg79
S'dispatch_event_time'
p551
sg15
Nsg19
g20
sg111
S'mojo_base.mojom.Time'
p552
sg16
I166
sbasg16
I165
sg19
g20
sbsbag1
(g172
g3
NtRp553
(dp554
g108
Nsg79
S'DispatchPaymentRequestEvent'
p555
sg176
g1
(g177
g3
NtRp556
(dp557
g10
(lp558
g1
(g181
g3
NtRp559
(dp560
g108
Nsg79
S'payment_request_id'
p561
sg15
Nsg19
g20
sg111
S'int32'
p562
sg16
I168
sbag1
(g181
g3
NtRp563
(dp564
g108
Nsg79
S'request_data'
p565
sg15
Nsg19
g20
sg111
S'payments.mojom.PaymentRequestEventData'
p566
sg16
I169
sbag1
(g181
g3
NtRp567
(dp568
g108
Nsg79
S'response_callback'
p569
sg15
Nsg19
g20
sg111
S'payments.mojom.PaymentHandlerResponseCallback'
p570
sg16
I170
sbasg16
I168
sg19
g20
sbsg15
Nsg19
Nsg16
Nsg190
g1
(g177
g3
NtRp571
(dp572
g10
(lp573
g1
(g181
g3
NtRp574
(dp575
g108
Nsg79
S'status'
p576
sg15
Nsg19
g20
sg111
S'blink.mojom.ServiceWorkerEventStatus'
p577
sg16
I171
sbag1
(g181
g3
NtRp578
(dp579
g108
Nsg79
S'dispatch_event_time'
p580
sg15
Nsg19
g20
sg111
S'mojo_base.mojom.Time'
p581
sg16
I172
sbasg16
I171
sg19
g20
sbsbag1
(g172
g3
NtRp582
(dp583
g108
Nsg79
S'DispatchExtendableMessageEvent'
p584
sg176
g1
(g177
g3
NtRp585
(dp586
g10
(lp587
g1
(g181
g3
NtRp588
(dp589
g108
Nsg79
S'event'
p590
sg15
Nsg19
g20
sg111
S'ExtendableMessageEvent'
p591
sg16
I173
sbasg16
I173
sg19
g20
sbsg15
Nsg19
Nsg16
Nsg190
g1
(g177
g3
NtRp592
(dp593
g10
(lp594
g1
(g181
g3
NtRp595
(dp596
g108
Nsg79
S'status'
p597
sg15
Nsg19
g20
sg111
S'blink.mojom.ServiceWorkerEventStatus'
p598
sg16
I174
sbag1
(g181
g3
NtRp599
(dp600
g108
Nsg79
S'dispatch_event_time'
p601
sg15
Nsg19
g20
sg111
S'mojo_base.mojom.Time'
p602
sg16
I175
sbasg16
I174
sg19
g20
sbsbag1
(g172
g3
NtRp603
(dp604
g108
Nsg79
S'Ping'
p605
sg176
g1
(g177
g3
NtRp606
(dp607
g10
(lp608
sg16
Nsg19
Nsbsg15
Nsg19
Nsg16
Nsg190
g1
(g177
g3
NtRp609
(dp610
g10
(lp611
sg16
Nsg19
Nsbsbag1
(g172
g3
NtRp612
(dp613
g108
Nsg79
S'SetIdleTimerDelayToZero'
p614
sg176
g1
(g177
g3
NtRp615
(dp616
g10
(lp617
sg16
Nsg19
Nsbsg15
Nsg19
Nsg16
Nsg190
Nsbasg16
Nsg19
Nsbsg15
Nsg16
Nsg79
S'ServiceWorkerEventDispatcher'
p618
sg19
Nsbasg16
NsS'module'
p619
g1
(cmojom.parse.ast
Module
p620
g3
NtRp621
(dp622
S'mojom_namespace'
p623
(S'IDENTIFIER'
p624
S'content.mojom'
tp625
sg16
I5
sg15
Nsg19
g20
sbsg19
Nsb.