ccopy_reg
_reconstructor
p1
(cmojom.parse.ast
Mojom
p2
c__builtin__
object
p3
NtRp4
(dp5
S'import_list'
p6
g1
(cmojom.parse.ast
ImportList
p7
g3
NtRp8
(dp9
S'items'
p10
(lp11
g1
(cmojom.parse.ast
Import
p12
g3
NtRp13
(dp14
S'attribute_list'
p15
NsS'lineno'
p16
I7
sS'import_filename'
p17
S'mojo/public/mojom/base/time.mojom'
p18
sS'filename'
p19
S'../../content/common/service_worker/service_worker_fetch_response_callback.mojom'
p20
sbag1
(g12
g3
NtRp21
(dp22
g15
Nsg16
I8
sg17
S'third_party/blink/public/mojom/blob/blob.mojom'
p23
sg19
g20
sbag1
(g12
g3
NtRp24
(dp25
g15
Nsg16
I9
sg17
S'third_party/blink/public/mojom/service_worker/service_worker_stream_handle.mojom'
p26
sg19
g20
sbasg16
I7
sg19
g20
sbsS'definition_list'
p27
(lp28
g1
(cmojom.parse.ast
Struct
p29
g3
NtRp30
(dp31
S'body'
p32
Nsg15
g1
(cmojom.parse.ast
AttributeList
p33
g3
NtRp34
(dp35
g10
(lp36
g1
(cmojom.parse.ast
Attribute
p37
g3
NtRp38
(dp39
S'value'
p40
I01
sg16
I11
sS'key'
p41
S'Native'
p42
sg19
g20
sbasg16
I11
sg19
g20
sbsg16
NsS'mojom_name'
p43
S'ServiceWorkerResponse'
p44
sg19
Nsbag1
(cmojom.parse.ast
Interface
p45
g3
NtRp46
(dp47
g32
g1
(cmojom.parse.ast
InterfaceBody
p48
g3
NtRp49
(dp50
g10
(lp51
g1
(cmojom.parse.ast
Method
p52
g3
NtRp53
(dp54
S'ordinal'
p55
Nsg43
S'OnResponse'
p56
sS'parameter_list'
p57
g1
(cmojom.parse.ast
ParameterList
p58
g3
NtRp59
(dp60
g10
(lp61
g1
(cmojom.parse.ast
Parameter
p62
g3
NtRp63
(dp64
g55
Nsg43
S'response'
p65
sg15
Nsg19
g20
sS'typename'
p66
S'ServiceWorkerResponse'
p67
sg16
I20
sbag1
(g62
g3
NtRp68
(dp69
g55
Nsg43
S'dispatch_event_time'
p70
sg15
Nsg19
g20
sg66
S'mojo_base.mojom.Time'
p71
sg16
I21
sbasg16
I20
sg19
g20
sbsg15
Nsg19
Nsg16
NsS'response_parameter_list'
p72
Nsbag1
(g52
g3
NtRp73
(dp74
g55
Nsg43
S'OnResponseBlob'
p75
sg57
g1
(g58
g3
NtRp76
(dp77
g10
(lp78
g1
(g62
g3
NtRp79
(dp80
g55
Nsg43
S'response'
p81
sg15
Nsg19
g20
sg66
S'ServiceWorkerResponse'
p82
sg16
I25
sbag1
(g62
g3
NtRp83
(dp84
g55
Nsg43
S'body_as_blob'
p85
sg15
Nsg19
g20
sg66
S'blink.mojom.Blob'
p86
sg16
I26
sbag1
(g62
g3
NtRp87
(dp88
g55
Nsg43
S'dispatch_event_time'
p89
sg15
Nsg19
g20
sg66
S'mojo_base.mojom.Time'
p90
sg16
I27
sbasg16
I25
sg19
g20
sbsg15
Nsg19
Nsg16
Nsg72
Nsbag1
(g52
g3
NtRp91
(dp92
g55
Nsg43
S'OnResponseLegacyBlob'
p93
sg57
g1
(g58
g3
NtRp94
(dp95
g10
(lp96
g1
(g62
g3
NtRp97
(dp98
g55
Nsg43
S'response'
p99
sg15
Nsg19
g20
sg66
S'ServiceWorkerResponse'
p100
sg16
I32
sbag1
(g62
g3
NtRp101
(dp102
g55
Nsg43
S'dispatch_event_time'
p103
sg15
Nsg19
g20
sg66
S'mojo_base.mojom.Time'
p104
sg16
I33
sbasg16
I32
sg19
g20
sbsg15
Nsg19
Nsg16
Nsg72
g1
(g58
g3
NtRp105
(dp106
g10
(lp107
sg16
Nsg19
Nsbsbag1
(g52
g3
NtRp108
(dp109
g55
Nsg43
S'OnResponseStream'
p110
sg57
g1
(g58
g3
NtRp111
(dp112
g10
(lp113
g1
(g62
g3
NtRp114
(dp115
g55
Nsg43
S'response'
p116
sg15
Nsg19
g20
sg66
S'ServiceWorkerResponse'
p117
sg16
I35
sbag1
(g62
g3
NtRp118
(dp119
g55
Nsg43
S'body_as_stream'
p120
sg15
Nsg19
g20
sg66
S'blink.mojom.ServiceWorkerStreamHandle'
p121
sg16
I36
sbag1
(g62
g3
NtRp122
(dp123
g55
Nsg43
S'dispatch_event_time'
p124
sg15
Nsg19
g20
sg66
S'mojo_base.mojom.Time'
p125
sg16
I37
sbasg16
I35
sg19
g20
sbsg15
Nsg19
Nsg16
Nsg72
Nsbag1
(g52
g3
NtRp126
(dp127
g55
Nsg43
S'OnFallback'
p128
sg57
g1
(g58
g3
NtRp129
(dp130
g10
(lp131
g1
(g62
g3
NtRp132
(dp133
g55
Nsg43
S'dispatch_event_time'
p134
sg15
Nsg19
g20
sg66
S'mojo_base.mojom.Time'
p135
sg16
I40
sbasg16
I40
sg19
g20
sbsg15
Nsg19
Nsg16
Nsg72
Nsbasg16
Nsg19
Nsbsg15
Nsg16
Nsg43
S'ServiceWorkerFetchResponseCallback'
p136
sg19
Nsbasg16
NsS'module'
p137
g1
(cmojom.parse.ast
Module
p138
g3
NtRp139
(dp140
S'mojom_namespace'
p141
(S'IDENTIFIER'
p142
S'content.mojom'
tp143
sg16
I5
sg15
Nsg19
g20
sbsg19
Nsb.