ccopy_reg
_reconstructor
p1
(cmojom.parse.ast
Mojom
p2
c__builtin__
object
p3
NtRp4
(dp5
S'import_list'
p6
g1
(cmojom.parse.ast
ImportList
p7
g3
NtRp8
(dp9
S'items'
p10
(lp11
g1
(cmojom.parse.ast
Import
p12
g3
NtRp13
(dp14
S'attribute_list'
p15
NsS'lineno'
p16
I7
sS'import_filename'
p17
S'content/common/service_worker/service_worker_container.mojom'
p18
sS'filename'
p19
S'../../content/common/service_worker/service_worker_provider.mojom'
p20
sbag1
(g12
g3
NtRp21
(dp22
g15
Nsg16
I8
sg17
S'services/network/public/mojom/url_loader_factory.mojom'
p23
sg19
g20
sbag1
(g12
g3
NtRp24
(dp25
g15
Nsg16
I9
sg17
S'services/service_manager/public/mojom/interface_provider.mojom'
p26
sg19
g20
sbag1
(g12
g3
NtRp27
(dp28
g15
Nsg16
I10
sg17
S'third_party/blink/public/mojom/service_worker/service_worker_provider_type.mojom'
p29
sg19
g20
sbag1
(g12
g3
NtRp30
(dp31
g15
Nsg16
I11
sg17
S'third_party/blink/public/mojom/service_worker/service_worker_registration.mojom'
p32
sg19
g20
sbasg16
I7
sg19
g20
sbsS'definition_list'
p33
(lp34
g1
(cmojom.parse.ast
Const
p35
g3
NtRp36
(dp37
S'mojom_name'
p38
S'kNavigation_ServiceWorkerSpec'
p39
sg15
NsS'value'
p40
S'"navigation:service_worker"'
p41
sg19
NsS'typename'
p42
S'string'
p43
sg16
Nsbag1
(cmojom.parse.ast
Struct
p44
g3
NtRp45
(dp46
S'body'
p47
g1
(cmojom.parse.ast
StructBody
p48
g3
NtRp49
(dp50
g10
(lp51
g1
(cmojom.parse.ast
StructField
p52
g3
NtRp53
(dp54
S'ordinal'
p55
NsS'default_value'
p56
Nsg38
S'provider_id'
p57
sg15
Nsg19
Nsg42
S'int32'
p58
sg16
Nsbag1
(g52
g3
NtRp59
(dp60
g55
Nsg56
Nsg38
S'host_ptr_info'
p61
sg15
Nsg19
Nsg42
S'asso<ServiceWorkerContainerHost>'
p62
sg16
Nsbag1
(g52
g3
NtRp63
(dp64
g55
Nsg56
Nsg38
S'client_request'
p65
sg15
Nsg19
Nsg42
S'asso<ServiceWorkerContainer&>'
p66
sg16
Nsbasg16
Nsg19
Nsbsg15
Nsg16
Nsg38
S'ServiceWorkerProviderInfoForSharedWorker'
p67
sg19
Nsbag1
(g44
g3
NtRp68
(dp69
g47
g1
(g48
g3
NtRp70
(dp71
g10
(lp72
g1
(g52
g3
NtRp73
(dp74
g55
Nsg56
Nsg38
S'provider_id'
p75
sg15
Nsg19
Nsg42
S'int32'
p76
sg16
Nsbag1
(g52
g3
NtRp77
(dp78
g55
Nsg56
Nsg38
S'host_ptr_info'
p79
sg15
Nsg19
Nsg42
S'asso<ServiceWorkerContainerHost>'
p80
sg16
Nsbag1
(g52
g3
NtRp81
(dp82
g55
Nsg56
Nsg38
S'client_request'
p83
sg15
Nsg19
Nsg42
S'asso<ServiceWorkerContainer&>'
p84
sg16
Nsbag1
(g52
g3
NtRp85
(dp86
g55
Nsg56
Nsg38
S'script_loader_factory_ptr_info'
p87
sg15
Nsg19
Nsg42
S'asso<network.mojom.URLLoaderFactory>?'
p88
sg16
Nsbag1
(g52
g3
NtRp89
(dp90
g55
Nsg56
Nsg38
S'interface_provider'
p91
sg15
Nsg19
Nsg42
S'service_manager.mojom.InterfaceProvider'
p92
sg16
Nsbasg16
Nsg19
Nsbsg15
Nsg16
Nsg38
S'ServiceWorkerProviderInfoForStartWorker'
p93
sg19
Nsbag1
(g44
g3
NtRp94
(dp95
g47
g1
(g48
g3
NtRp96
(dp97
g10
(lp98
g1
(g52
g3
NtRp99
(dp100
g55
Nsg56
Nsg38
S'provider_id'
p101
sg15
Nsg19
Nsg42
S'int32'
p102
sg16
Nsbag1
(g52
g3
NtRp103
(dp104
g55
Nsg56
Nsg38
S'route_id'
p105
sg15
Nsg19
Nsg42
S'int32'
p106
sg16
Nsbag1
(g52
g3
NtRp107
(dp108
g55
Nsg56
Nsg38
S'type'
p109
sg15
Nsg19
Nsg42
S'blink.mojom.ServiceWorkerProviderType'
p110
sg16
Nsbag1
(g52
g3
NtRp111
(dp112
g55
Nsg56
Nsg38
S'is_parent_frame_secure'
p113
sg15
Nsg19
Nsg42
S'bool'
p114
sg16
Nsbag1
(g52
g3
NtRp115
(dp116
g55
Nsg56
Nsg38
S'host_request'
p117
sg15
Nsg19
Nsg42
S'asso<ServiceWorkerContainerHost&>'
p118
sg16
Nsbag1
(g52
g3
NtRp119
(dp120
g55
Nsg56
Nsg38
S'client_ptr_info'
p121
sg15
Nsg19
Nsg42
S'asso<ServiceWorkerContainer>'
p122
sg16
Nsbasg16
Nsg19
Nsbsg15
Nsg16
Nsg38
S'ServiceWorkerProviderHostInfo'
p123
sg19
Nsbag1
(cmojom.parse.ast
Interface
p124
g3
NtRp125
(dp126
g47
g1
(cmojom.parse.ast
InterfaceBody
p127
g3
NtRp128
(dp129
g10
(lp130
g1
(cmojom.parse.ast
Method
p131
g3
NtRp132
(dp133
g55
Nsg38
S'SetControllerServiceWorker'
p134
sS'parameter_list'
p135
g1
(cmojom.parse.ast
ParameterList
p136
g3
NtRp137
(dp138
g10
(lp139
g1
(cmojom.parse.ast
Parameter
p140
g3
NtRp141
(dp142
g55
Nsg38
S'controller_version_id'
p143
sg15
Nsg19
g20
sg42
S'int64'
p144
sg16
I73
sbasg16
I73
sg19
g20
sbsg15
Nsg19
Nsg16
NsS'response_parameter_list'
p145
Nsbasg16
Nsg19
Nsbsg15
Nsg16
Nsg38
S'ServiceWorkerWorkerClient'
p146
sg19
Nsbasg16
NsS'module'
p147
g1
(cmojom.parse.ast
Module
p148
g3
NtRp149
(dp150
S'mojom_namespace'
p151
(S'IDENTIFIER'
p152
S'content.mojom'
tp153
sg16
I5
sg15
Nsg19
g20
sbsg19
Nsb.