ccopy_reg
_reconstructor
p1
(cmojom.parse.ast
Mojom
p2
c__builtin__
object
p3
NtRp4
(dp5
S'import_list'
p6
g1
(cmojom.parse.ast
ImportList
p7
g3
NtRp8
(dp9
S'items'
p10
(lp11
g1
(cmojom.parse.ast
Import
p12
g3
NtRp13
(dp14
S'attribute_list'
p15
NsS'lineno'
p16
I7
sS'import_filename'
p17
S'ui/display/mojo/display_constants.mojom'
p18
sS'filename'
p19
S'../../ui/display/mojo/native_display_delegate.mojom'
p20
sbag1
(g12
g3
NtRp21
(dp22
g15
Nsg16
I8
sg17
S'ui/display/mojo/display_mode.mojom'
p23
sg19
g20
sbag1
(g12
g3
NtRp24
(dp25
g15
Nsg16
I9
sg17
S'ui/display/mojo/display_snapshot.mojom'
p26
sg19
g20
sbag1
(g12
g3
NtRp27
(dp28
g15
Nsg16
I10
sg17
S'ui/display/mojo/gamma_ramp_rgb_entry.mojom'
p29
sg19
g20
sbag1
(g12
g3
NtRp30
(dp31
g15
Nsg16
I11
sg17
S'ui/gfx/geometry/mojo/geometry.mojom'
p32
sg19
g20
sbasg16
I7
sg19
g20
sbsS'definition_list'
p33
(lp34
g1
(cmojom.parse.ast
Interface
p35
g3
NtRp36
(dp37
S'body'
p38
g1
(cmojom.parse.ast
InterfaceBody
p39
g3
NtRp40
(dp41
g10
(lp42
g1
(cmojom.parse.ast
Method
p43
g3
NtRp44
(dp45
S'ordinal'
p46
NsS'mojom_name'
p47
S'OnConfigurationChanged'
p48
sS'parameter_list'
p49
g1
(cmojom.parse.ast
ParameterList
p50
g3
NtRp51
(dp52
g10
(lp53
sg16
Nsg19
Nsbsg15
Nsg19
Nsg16
NsS'response_parameter_list'
p54
Nsbasg16
Nsg19
Nsbsg15
Nsg16
Nsg47
S'NativeDisplayObserver'
p55
sg19
Nsbag1
(g35
g3
NtRp56
(dp57
g38
g1
(g39
g3
NtRp58
(dp59
g10
(lp60
g1
(g43
g3
NtRp61
(dp62
g46
Nsg47
S'Initialize'
p63
sg49
g1
(g50
g3
NtRp64
(dp65
g10
(lp66
g1
(cmojom.parse.ast
Parameter
p67
g3
NtRp68
(dp69
g46
Nsg47
S'observer'
p70
sg15
Nsg19
g20
sS'typename'
p71
S'NativeDisplayObserver'
p72
sg16
I24
sbasg16
I24
sg19
g20
sbsg15
g1
(cmojom.parse.ast
AttributeList
p73
g3
NtRp74
(dp75
g10
(lp76
g1
(cmojom.parse.ast
Attribute
p77
g3
NtRp78
(dp79
S'value'
p80
I01
sg16
I23
sS'key'
p81
S'Sync'
p82
sg19
g20
sbasg16
I23
sg19
g20
sbsg19
Nsg16
Nsg54
g1
(g50
g3
NtRp83
(dp84
g10
(lp85
g1
(g67
g3
NtRp86
(dp87
g46
Nsg47
S'snapshots'
p88
sg15
Nsg19
g20
sg71
S'DisplaySnapshot[]'
p89
sg16
I25
sbasg16
I25
sg19
g20
sbsbag1
(g43
g3
NtRp90
(dp91
g46
Nsg47
S'TakeDisplayControl'
p92
sg49
g1
(g50
g3
NtRp93
(dp94
g10
(lp95
sg16
Nsg19
Nsbsg15
Nsg19
Nsg16
Nsg54
g1
(g50
g3
NtRp96
(dp97
g10
(lp98
g1
(g67
g3
NtRp99
(dp100
g46
Nsg47
S'result'
p101
sg15
Nsg19
g20
sg71
S'bool'
p102
sg16
I28
sbasg16
I28
sg19
g20
sbsbag1
(g43
g3
NtRp103
(dp104
g46
Nsg47
S'RelinquishDisplayControl'
p105
sg49
g1
(g50
g3
NtRp106
(dp107
g10
(lp108
sg16
Nsg19
Nsbsg15
Nsg19
Nsg16
Nsg54
g1
(g50
g3
NtRp109
(dp110
g10
(lp111
g1
(g67
g3
NtRp112
(dp113
g46
Nsg47
S'result'
p114
sg15
Nsg19
g20
sg71
S'bool'
p115
sg16
I31
sbasg16
I31
sg19
g20
sbsbag1
(g43
g3
NtRp116
(dp117
g46
Nsg47
S'GetDisplays'
p118
sg49
g1
(g50
g3
NtRp119
(dp120
g10
(lp121
sg16
Nsg19
Nsbsg15
Nsg19
Nsg16
Nsg54
g1
(g50
g3
NtRp122
(dp123
g10
(lp124
g1
(g67
g3
NtRp125
(dp126
g46
Nsg47
S'snapshots'
p127
sg15
Nsg19
g20
sg71
S'DisplaySnapshot[]'
p128
sg16
I34
sbasg16
I34
sg19
g20
sbsbag1
(g43
g3
NtRp129
(dp130
g46
Nsg47
S'Configure'
p131
sg49
g1
(g50
g3
NtRp132
(dp133
g10
(lp134
g1
(g67
g3
NtRp135
(dp136
g46
Nsg47
S'display_id'
p137
sg15
Nsg19
g20
sg71
S'int64'
p138
sg16
I39
sbag1
(g67
g3
NtRp139
(dp140
g46
Nsg47
S'mode'
p141
sg15
Nsg19
g20
sg71
S'DisplayMode?'
p142
sg16
I40
sbag1
(g67
g3
NtRp143
(dp144
g46
Nsg47
S'origin'
p145
sg15
Nsg19
g20
sg71
S'gfx.mojom.Point'
p146
sg16
I41
sbasg16
I39
sg19
g20
sbsg15
Nsg19
Nsg16
Nsg54
g1
(g50
g3
NtRp147
(dp148
g10
(lp149
g1
(g67
g3
NtRp150
(dp151
g46
Nsg47
S'status'
p152
sg15
Nsg19
g20
sg71
S'bool'
p153
sg16
I41
sbasg16
I41
sg19
g20
sbsbag1
(g43
g3
NtRp154
(dp155
g46
Nsg47
S'GetHDCPState'
p156
sg49
g1
(g50
g3
NtRp157
(dp158
g10
(lp159
g1
(g67
g3
NtRp160
(dp161
g46
Nsg47
S'display_id'
p162
sg15
Nsg19
g20
sg71
S'int64'
p163
sg16
I44
sbasg16
I44
sg19
g20
sbsg15
Nsg19
Nsg16
Nsg54
g1
(g50
g3
NtRp164
(dp165
g10
(lp166
g1
(g67
g3
NtRp167
(dp168
g46
Nsg47
S'status'
p169
sg15
Nsg19
g20
sg71
S'bool'
p170
sg16
I44
sbag1
(g67
g3
NtRp171
(dp172
g46
Nsg47
S'state'
p173
sg15
Nsg19
g20
sg71
S'HDCPState'
p174
sg16
I44
sbasg16
I44
sg19
g20
sbsbag1
(g43
g3
NtRp175
(dp176
g46
Nsg47
S'SetHDCPState'
p177
sg49
g1
(g50
g3
NtRp178
(dp179
g10
(lp180
g1
(g67
g3
NtRp181
(dp182
g46
Nsg47
S'display_id'
p183
sg15
Nsg19
g20
sg71
S'int64'
p184
sg16
I47
sbag1
(g67
g3
NtRp185
(dp186
g46
Nsg47
S'state'
p187
sg15
Nsg19
g20
sg71
S'HDCPState'
p188
sg16
I47
sbasg16
I47
sg19
g20
sbsg15
Nsg19
Nsg16
Nsg54
g1
(g50
g3
NtRp189
(dp190
g10
(lp191
g1
(g67
g3
NtRp192
(dp193
g46
Nsg47
S'status'
p194
sg15
Nsg19
g20
sg71
S'bool'
p195
sg16
I47
sbasg16
I47
sg19
g20
sbsbag1
(g43
g3
NtRp196
(dp197
g46
Nsg47
S'SetColorCorrection'
p198
sg49
g1
(g50
g3
NtRp199
(dp200
g10
(lp201
g1
(g67
g3
NtRp202
(dp203
g46
Nsg47
S'display_id'
p204
sg15
Nsg19
g20
sg71
S'int64'
p205
sg16
I50
sbag1
(g67
g3
NtRp206
(dp207
g46
Nsg47
S'degamma_lut'
p208
sg15
Nsg19
g20
sg71
S'GammaRampRGBEntry[]'
p209
sg16
I51
sbag1
(g67
g3
NtRp210
(dp211
g46
Nsg47
S'gamma_lut'
p212
sg15
Nsg19
g20
sg71
S'GammaRampRGBEntry[]'
p213
sg16
I52
sbag1
(g67
g3
NtRp214
(dp215
g46
Nsg47
S'correction_matrix'
p216
sg15
Nsg19
g20
sg71
S'float[]'
p217
sg16
I53
sbasg16
I50
sg19
g20
sbsg15
Nsg19
Nsg16
Nsg54
Nsbasg16
Nsg19
Nsbsg15
Nsg16
Nsg47
S'NativeDisplayDelegate'
p218
sg19
Nsbasg16
NsS'module'
p219
g1
(cmojom.parse.ast
Module
p220
g3
NtRp221
(dp222
S'mojom_namespace'
p223
(S'IDENTIFIER'
p224
S'display.mojom'
tp225
sg16
I5
sg15
Nsg19
g20
sbsg19
Nsb.