ccopy_reg
_reconstructor
p1
(cmojom.parse.ast
Mojom
p2
c__builtin__
object
p3
NtRp4
(dp5
S'import_list'
p6
g1
(cmojom.parse.ast
ImportList
p7
g3
NtRp8
(dp9
S'items'
p10
(lp11
sS'lineno'
p12
NsS'filename'
p13
NsbsS'definition_list'
p14
(lp15
g1
(cmojom.parse.ast
Struct
p16
g3
NtRp17
(dp18
S'body'
p19
g1
(cmojom.parse.ast
StructBody
p20
g3
NtRp21
(dp22
g10
(lp23
g1
(cmojom.parse.ast
StructField
p24
g3
NtRp25
(dp26
S'ordinal'
p27
NsS'default_value'
p28
NsS'mojom_name'
p29
S'x'
sS'attribute_list'
p30
Nsg13
NsS'typename'
p31
S'int32'
p32
sg12
Nsbag1
(g24
g3
NtRp33
(dp34
g27
Nsg28
Nsg29
S'y'
sg30
Nsg13
Nsg31
S'int32'
p35
sg12
Nsbasg12
Nsg13
Nsbsg30
Nsg12
Nsg29
S'Point'
p36
sg13
Nsbag1
(g16
g3
NtRp37
(dp38
g19
g1
(g20
g3
NtRp39
(dp40
g10
(lp41
g1
(g24
g3
NtRp42
(dp43
g27
Nsg28
Nsg29
S'x'
sg30
Nsg13
Nsg31
S'float'
p44
sg12
Nsbag1
(g24
g3
NtRp45
(dp46
g27
Nsg28
Nsg29
S'y'
sg30
Nsg13
Nsg31
S'float'
p47
sg12
Nsbasg12
Nsg13
Nsbsg30
Nsg12
Nsg29
S'PointF'
p48
sg13
Nsbag1
(g16
g3
NtRp49
(dp50
g19
g1
(g20
g3
NtRp51
(dp52
g10
(lp53
g1
(g24
g3
NtRp54
(dp55
g27
Nsg28
Nsg29
S'width'
p56
sg30
Nsg13
Nsg31
S'int32'
p57
sg12
Nsbag1
(g24
g3
NtRp58
(dp59
g27
Nsg28
Nsg29
S'height'
p60
sg30
Nsg13
Nsg31
S'int32'
p61
sg12
Nsbasg12
Nsg13
Nsbsg30
Nsg12
Nsg29
S'Size'
p62
sg13
Nsbag1
(g16
g3
NtRp63
(dp64
g19
g1
(g20
g3
NtRp65
(dp66
g10
(lp67
g1
(g24
g3
NtRp68
(dp69
g27
Nsg28
Nsg29
S'width'
p70
sg30
Nsg13
Nsg31
S'float'
p71
sg12
Nsbag1
(g24
g3
NtRp72
(dp73
g27
Nsg28
Nsg29
S'height'
p74
sg30
Nsg13
Nsg31
S'float'
p75
sg12
Nsbasg12
Nsg13
Nsbsg30
Nsg12
Nsg29
S'SizeF'
p76
sg13
Nsbag1
(g16
g3
NtRp77
(dp78
g19
g1
(g20
g3
NtRp79
(dp80
g10
(lp81
g1
(g24
g3
NtRp82
(dp83
g27
Nsg28
Nsg29
S'x'
sg30
Nsg13
Nsg31
S'int32'
p84
sg12
Nsbag1
(g24
g3
NtRp85
(dp86
g27
Nsg28
Nsg29
S'y'
sg30
Nsg13
Nsg31
S'int32'
p87
sg12
Nsbag1
(g24
g3
NtRp88
(dp89
g27
Nsg28
Nsg29
S'width'
p90
sg30
Nsg13
Nsg31
S'int32'
p91
sg12
Nsbag1
(g24
g3
NtRp92
(dp93
g27
Nsg28
Nsg29
S'height'
p94
sg30
Nsg13
Nsg31
S'int32'
p95
sg12
Nsbasg12
Nsg13
Nsbsg30
Nsg12
Nsg29
S'Rect'
p96
sg13
Nsbag1
(g16
g3
NtRp97
(dp98
g19
g1
(g20
g3
NtRp99
(dp100
g10
(lp101
g1
(g24
g3
NtRp102
(dp103
g27
Nsg28
Nsg29
S'x'
sg30
Nsg13
Nsg31
S'float'
p104
sg12
Nsbag1
(g24
g3
NtRp105
(dp106
g27
Nsg28
Nsg29
S'y'
sg30
Nsg13
Nsg31
S'float'
p107
sg12
Nsbag1
(g24
g3
NtRp108
(dp109
g27
Nsg28
Nsg29
S'width'
p110
sg30
Nsg13
Nsg31
S'float'
p111
sg12
Nsbag1
(g24
g3
NtRp112
(dp113
g27
Nsg28
Nsg29
S'height'
p114
sg30
Nsg13
Nsg31
S'float'
p115
sg12
Nsbasg12
Nsg13
Nsbsg30
Nsg12
Nsg29
S'RectF'
p116
sg13
Nsbag1
(g16
g3
NtRp117
(dp118
g19
g1
(g20
g3
NtRp119
(dp120
g10
(lp121
g1
(g24
g3
NtRp122
(dp123
g27
Nsg28
Nsg29
S'top'
p124
sg30
Nsg13
Nsg31
S'int32'
p125
sg12
Nsbag1
(g24
g3
NtRp126
(dp127
g27
Nsg28
Nsg29
S'left'
p128
sg30
Nsg13
Nsg31
S'int32'
p129
sg12
Nsbag1
(g24
g3
NtRp130
(dp131
g27
Nsg28
Nsg29
S'bottom'
p132
sg30
Nsg13
Nsg31
S'int32'
p133
sg12
Nsbag1
(g24
g3
NtRp134
(dp135
g27
Nsg28
Nsg29
S'right'
p136
sg30
Nsg13
Nsg31
S'int32'
p137
sg12
Nsbasg12
Nsg13
Nsbsg30
Nsg12
Nsg29
S'Insets'
p138
sg13
Nsbag1
(g16
g3
NtRp139
(dp140
g19
g1
(g20
g3
NtRp141
(dp142
g10
(lp143
g1
(g24
g3
NtRp144
(dp145
g27
Nsg28
Nsg29
S'top'
p146
sg30
Nsg13
Nsg31
S'float'
p147
sg12
Nsbag1
(g24
g3
NtRp148
(dp149
g27
Nsg28
Nsg29
S'left'
p150
sg30
Nsg13
Nsg31
S'float'
p151
sg12
Nsbag1
(g24
g3
NtRp152
(dp153
g27
Nsg28
Nsg29
S'bottom'
p154
sg30
Nsg13
Nsg31
S'float'
p155
sg12
Nsbag1
(g24
g3
NtRp156
(dp157
g27
Nsg28
Nsg29
S'right'
p158
sg30
Nsg13
Nsg31
S'float'
p159
sg12
Nsbasg12
Nsg13
Nsbsg30
Nsg12
Nsg29
S'InsetsF'
p160
sg13
Nsbag1
(g16
g3
NtRp161
(dp162
g19
g1
(g20
g3
NtRp163
(dp164
g10
(lp165
g1
(g24
g3
NtRp166
(dp167
g27
Nsg28
Nsg29
S'x'
sg30
Nsg13
Nsg31
S'int32'
p168
sg12
Nsbag1
(g24
g3
NtRp169
(dp170
g27
Nsg28
Nsg29
S'y'
sg30
Nsg13
Nsg31
S'int32'
p171
sg12
Nsbasg12
Nsg13
Nsbsg30
Nsg12
Nsg29
S'Vector2d'
p172
sg13
Nsbag1
(g16
g3
NtRp173
(dp174
g19
g1
(g20
g3
NtRp175
(dp176
g10
(lp177
g1
(g24
g3
NtRp178
(dp179
g27
Nsg28
Nsg29
S'x'
sg30
Nsg13
Nsg31
S'float'
p180
sg12
Nsbag1
(g24
g3
NtRp181
(dp182
g27
Nsg28
Nsg29
S'y'
sg30
Nsg13
Nsg31
S'float'
p183
sg12
Nsbasg12
Nsg13
Nsbsg30
Nsg12
Nsg29
S'Vector2dF'
p184
sg13
Nsbag1
(g16
g3
NtRp185
(dp186
g19
g1
(g20
g3
NtRp187
(dp188
g10
(lp189
g1
(g24
g3
NtRp190
(dp191
g27
Nsg28
Nsg29
S'x'
sg30
Nsg13
Nsg31
S'float'
p192
sg12
Nsbag1
(g24
g3
NtRp193
(dp194
g27
Nsg28
Nsg29
S'y'
sg30
Nsg13
Nsg31
S'float'
p195
sg12
Nsbasg12
Nsg13
Nsbsg30
Nsg12
Nsg29
S'ScrollOffset'
p196
sg13
Nsbasg12
NsS'module'
p197
g1
(cmojom.parse.ast
Module
p198
g3
NtRp199
(dp200
S'mojom_namespace'
p201
(S'IDENTIFIER'
p202
S'gfx.mojom'
tp203
sg12
I5
sg30
Nsg13
S'../../ui/gfx/geometry/mojo/geometry.mojom'
p204
sbsg13
Nsb.