ccopy_reg
_reconstructor
p1
(cmojom.parse.ast
Mojom
p2
c__builtin__
object
p3
NtRp4
(dp5
S'import_list'
p6
g1
(cmojom.parse.ast
ImportList
p7
g3
NtRp8
(dp9
S'items'
p10
(lp11
sS'lineno'
p12
NsS'filename'
p13
NsbsS'definition_list'
p14
(lp15
g1
(cmojom.parse.ast
Enum
p16
g3
NtRp17
(dp18
S'attribute_list'
p19
NsS'enum_value_list'
p20
g1
(cmojom.parse.ast
EnumValueList
p21
g3
NtRp22
(dp23
g10
(lp24
g1
(cmojom.parse.ast
EnumValue
p25
g3
NtRp26
(dp27
g19
NsS'value'
p28
Nsg12
I9
sS'mojom_name'
p29
S'ATC'
p30
sg13
S'../../ui/gfx/mojo/buffer_types.mojom'
p31
sbag1
(g25
g3
NtRp32
(dp33
g19
Nsg28
Nsg12
I10
sg29
S'ATCIA'
p34
sg13
g31
sbag1
(g25
g3
NtRp35
(dp36
g19
Nsg28
Nsg12
I11
sg29
S'DXT1'
p37
sg13
g31
sbag1
(g25
g3
NtRp38
(dp39
g19
Nsg28
Nsg12
I12
sg29
S'DXT5'
p40
sg13
g31
sbag1
(g25
g3
NtRp41
(dp42
g19
Nsg28
Nsg12
I13
sg29
S'ETC1'
p43
sg13
g31
sbag1
(g25
g3
NtRp44
(dp45
g19
Nsg28
Nsg12
I14
sg29
S'R_8'
p46
sg13
g31
sbag1
(g25
g3
NtRp47
(dp48
g19
Nsg28
Nsg12
I15
sg29
S'R_16'
p49
sg13
g31
sbag1
(g25
g3
NtRp50
(dp51
g19
Nsg28
Nsg12
I16
sg29
S'RG_88'
p52
sg13
g31
sbag1
(g25
g3
NtRp53
(dp54
g19
Nsg28
Nsg12
I17
sg29
S'BGR_565'
p55
sg13
g31
sbag1
(g25
g3
NtRp56
(dp57
g19
Nsg28
Nsg12
I18
sg29
S'RGBA_4444'
p58
sg13
g31
sbag1
(g25
g3
NtRp59
(dp60
g19
Nsg28
Nsg12
I19
sg29
S'RGBX_8888'
p61
sg13
g31
sbag1
(g25
g3
NtRp62
(dp63
g19
Nsg28
Nsg12
I20
sg29
S'RGBA_8888'
p64
sg13
g31
sbag1
(g25
g3
NtRp65
(dp66
g19
Nsg28
Nsg12
I21
sg29
S'BGRX_8888'
p67
sg13
g31
sbag1
(g25
g3
NtRp68
(dp69
g19
Nsg28
Nsg12
I22
sg29
S'BGRX_1010102'
p70
sg13
g31
sbag1
(g25
g3
NtRp71
(dp72
g19
Nsg28
Nsg12
I23
sg29
S'RGBX_1010102'
p73
sg13
g31
sbag1
(g25
g3
NtRp74
(dp75
g19
Nsg28
Nsg12
I24
sg29
S'BGRA_8888'
p76
sg13
g31
sbag1
(g25
g3
NtRp77
(dp78
g19
Nsg28
Nsg12
I25
sg29
S'RGBA_F16'
p79
sg13
g31
sbag1
(g25
g3
NtRp80
(dp81
g19
Nsg28
Nsg12
I26
sg29
S'YVU_420'
p82
sg13
g31
sbag1
(g25
g3
NtRp83
(dp84
g19
Nsg28
Nsg12
I27
sg29
S'YUV_420_BIPLANAR'
p85
sg13
g31
sbag1
(g25
g3
NtRp86
(dp87
g19
Nsg28
Nsg12
I28
sg29
S'UYVY_422'
p88
sg13
g31
sbag1
(g25
g3
NtRp89
(dp90
g19
Nsg28
(S'IDENTIFIER'
p91
S'UYVY_422'
tp92
sg12
I30
sg29
S'LAST'
p93
sg13
g31
sbasg12
I9
sg13
g31
sbsg12
I8
sg29
S'BufferFormat'
p94
sg13
g31
sbag1
(g16
g3
NtRp95
(dp96
g19
Nsg20
g1
(g21
g3
NtRp97
(dp98
g10
(lp99
g1
(g25
g3
NtRp100
(dp101
g19
Nsg28
Nsg12
I35
sg29
S'GPU_READ'
p102
sg13
g31
sbag1
(g25
g3
NtRp103
(dp104
g19
Nsg28
Nsg12
I36
sg29
S'SCANOUT'
p105
sg13
g31
sbag1
(g25
g3
NtRp106
(dp107
g19
Nsg28
Nsg12
I37
sg29
S'SCANOUT_CAMERA_READ_WRITE'
p108
sg13
g31
sbag1
(g25
g3
NtRp109
(dp110
g19
Nsg28
Nsg12
I38
sg29
S'CAMERA_AND_CPU_READ_WRITE'
p111
sg13
g31
sbag1
(g25
g3
NtRp112
(dp113
g19
Nsg28
Nsg12
I39
sg29
S'SCANOUT_CPU_READ_WRITE'
p114
sg13
g31
sbag1
(g25
g3
NtRp115
(dp116
g19
Nsg28
Nsg12
I40
sg29
S'SCANOUT_VDA_WRITE'
p117
sg13
g31
sbag1
(g25
g3
NtRp118
(dp119
g19
Nsg28
Nsg12
I41
sg29
S'GPU_READ_CPU_READ_WRITE'
p120
sg13
g31
sbag1
(g25
g3
NtRp121
(dp122
g19
Nsg28
Nsg12
I42
sg29
S'GPU_READ_CPU_READ_WRITE_PERSISTENT'
p123
sg13
g31
sbag1
(g25
g3
NtRp124
(dp125
g19
Nsg28
(g91
S'GPU_READ_CPU_READ_WRITE_PERSISTENT'
tp126
sg12
I44
sg29
S'LAST'
p127
sg13
g31
sbasg12
I35
sg13
g31
sbsg12
I34
sg29
S'BufferUsage'
p128
sg13
g31
sbag1
(cmojom.parse.ast
Struct
p129
g3
NtRp130
(dp131
S'body'
p132
g1
(cmojom.parse.ast
StructBody
p133
g3
NtRp134
(dp135
g10
(lp136
g1
(cmojom.parse.ast
StructField
p137
g3
NtRp138
(dp139
S'ordinal'
p140
NsS'default_value'
p141
Nsg29
S'usage'
p142
sg19
Nsg13
NsS'typename'
p143
S'BufferUsage'
p144
sg12
Nsbag1
(g137
g3
NtRp145
(dp146
g140
Nsg141
Nsg29
S'format'
p147
sg19
Nsg13
Nsg143
S'BufferFormat'
p148
sg12
Nsbasg12
Nsg13
Nsbsg19
Nsg12
Nsg29
S'BufferUsageAndFormat'
p149
sg13
Nsbag1
(g16
g3
NtRp150
(dp151
g19
Nsg20
g1
(g21
g3
NtRp152
(dp153
g10
(lp154
g1
(g25
g3
NtRp155
(dp156
g19
Nsg28
Nsg12
I54
sg29
S'EMPTY_BUFFER'
p157
sg13
g31
sbag1
(g25
g3
NtRp158
(dp159
g19
Nsg28
Nsg12
I55
sg29
S'SHARED_MEMORY_BUFFER'
p160
sg13
g31
sbag1
(g25
g3
NtRp161
(dp162
g19
Nsg28
Nsg12
I56
sg29
S'IO_SURFACE_BUFFER'
p163
sg13
g31
sbag1
(g25
g3
NtRp164
(dp165
g19
Nsg28
Nsg12
I57
sg29
S'NATIVE_PIXMAP'
p166
sg13
g31
sbag1
(g25
g3
NtRp167
(dp168
g19
Nsg28
Nsg12
I58
sg29
S'DXGI_SHARED_HANDLE'
p169
sg13
g31
sbag1
(g25
g3
NtRp170
(dp171
g19
Nsg28
Nsg12
I59
sg29
S'ANDROID_HARDWARE_BUFFER'
p172
sg13
g31
sbasg12
I54
sg13
g31
sbsg12
I53
sg29
S'GpuMemoryBufferType'
p173
sg13
g31
sbag1
(g129
g3
NtRp174
(dp175
g132
g1
(g133
g3
NtRp176
(dp177
g10
(lp178
g1
(g137
g3
NtRp179
(dp180
g140
Nsg141
Nsg29
S'id'
p181
sg19
Nsg13
Nsg143
S'int32'
p182
sg12
Nsbasg12
Nsg13
Nsbsg19
Nsg12
Nsg29
S'GpuMemoryBufferId'
p183
sg13
Nsbag1
(g129
g3
NtRp184
(dp185
g132
g1
(g133
g3
NtRp186
(dp187
g10
(lp188
g1
(g137
g3
NtRp189
(dp190
g140
Nsg141
Nsg29
S'stride'
p191
sg19
Nsg13
Nsg143
S'uint32'
p192
sg12
Nsbag1
(g137
g3
NtRp193
(dp194
g140
Nsg141
Nsg29
S'offset'
p195
sg19
Nsg13
Nsg143
S'int32'
p196
sg12
Nsbag1
(g137
g3
NtRp197
(dp198
g140
Nsg141
Nsg29
S'size'
p199
sg19
Nsg13
Nsg143
S'uint64'
p200
sg12
Nsbag1
(g137
g3
NtRp201
(dp202
g140
Nsg141
Nsg29
S'modifier'
p203
sg19
Nsg13
Nsg143
S'uint64'
p204
sg12
Nsbasg12
Nsg13
Nsbsg19
Nsg12
Nsg29
S'NativePixmapPlane'
p205
sg13
Nsbag1
(g129
g3
NtRp206
(dp207
g132
g1
(g133
g3
NtRp208
(dp209
g10
(lp210
g1
(g137
g3
NtRp211
(dp212
g140
Nsg141
Nsg29
S'fds'
p213
sg19
Nsg13
Nsg143
S'handle[]'
p214
sg12
Nsbag1
(g137
g3
NtRp215
(dp216
g140
Nsg141
Nsg29
S'planes'
p217
sg19
Nsg13
Nsg143
S'NativePixmapPlane[]'
p218
sg12
Nsbasg12
Nsg13
Nsbsg19
Nsg12
Nsg29
S'NativePixmapHandle'
p219
sg13
Nsbag1
(g129
g3
NtRp220
(dp221
g132
g1
(g133
g3
NtRp222
(dp223
g10
(lp224
g1
(g137
g3
NtRp225
(dp226
g140
Nsg141
Nsg29
S'type'
p227
sg19
Nsg13
Nsg143
S'GpuMemoryBufferType'
p228
sg12
Nsbag1
(g137
g3
NtRp229
(dp230
g140
Nsg141
Nsg29
S'id'
p231
sg19
Nsg13
Nsg143
S'GpuMemoryBufferId'
p232
sg12
Nsbag1
(g137
g3
NtRp233
(dp234
g140
Nsg141
Nsg29
S'shared_memory_handle'
p235
sg19
Nsg13
Nsg143
S'handle<shared_buffer>?'
p236
sg12
Nsbag1
(g137
g3
NtRp237
(dp238
g140
Nsg141
Nsg29
S'offset'
p239
sg19
Nsg13
Nsg143
S'uint32'
p240
sg12
Nsbag1
(g137
g3
NtRp241
(dp242
g140
Nsg141
Nsg29
S'stride'
p243
sg19
Nsg13
Nsg143
S'uint32'
p244
sg12
Nsbag1
(g137
g3
NtRp245
(dp246
g140
Nsg141
Nsg29
S'native_pixmap_handle'
p247
sg19
Nsg13
Nsg143
S'NativePixmapHandle?'
p248
sg12
Nsbag1
(g137
g3
NtRp249
(dp250
g140
Nsg141
Nsg29
S'mach_port'
p251
sg19
Nsg13
Nsg143
S'handle?'
p252
sg12
Nsbasg12
Nsg13
Nsbsg19
Nsg12
Nsg29
S'GpuMemoryBufferHandle'
p253
sg13
Nsbasg12
NsS'module'
p254
g1
(cmojom.parse.ast
Module
p255
g3
NtRp256
(dp257
S'mojom_namespace'
p258
(g91
S'gfx.mojom'
tp259
sg12
I5
sg19
Nsg13
g31
sbsg13
Nsb.