ccopy_reg
_reconstructor
p1
(cmojom.parse.ast
Mojom
p2
c__builtin__
object
p3
NtRp4
(dp5
S'import_list'
p6
g1
(cmojom.parse.ast
ImportList
p7
g3
NtRp8
(dp9
S'items'
p10
(lp11
g1
(cmojom.parse.ast
Import
p12
g3
NtRp13
(dp14
S'attribute_list'
p15
NsS'lineno'
p16
I7
sS'import_filename'
p17
S'ui/gfx/mojo/color_space.mojom'
p18
sS'filename'
p19
S'../../ui/gfx/mojo/icc_profile.mojom'
p20
sbasg16
I7
sg19
g20
sbsS'definition_list'
p21
(lp22
g1
(cmojom.parse.ast
Struct
p23
g3
NtRp24
(dp25
S'body'
p26
Nsg15
g1
(cmojom.parse.ast
AttributeList
p27
g3
NtRp28
(dp29
g10
(lp30
g1
(cmojom.parse.ast
Attribute
p31
g3
NtRp32
(dp33
S'value'
p34
I01
sg16
I9
sS'key'
p35
S'Native'
p36
sg19
g20
sbasg16
I9
sg19
g20
sbsg16
NsS'mojom_name'
p37
S'ICCProfile'
p38
sg19
Nsbasg16
NsS'module'
p39
g1
(cmojom.parse.ast
Module
p40
g3
NtRp41
(dp42
S'mojom_namespace'
p43
(S'IDENTIFIER'
p44
S'gfx.mojom'
tp45
sg16
I5
sg15
Nsg19
g20
sbsg19
Nsb.