ccopy_reg
_reconstructor
p1
(cmojom.parse.ast
Mojom
p2
c__builtin__
object
p3
NtRp4
(dp5
S'import_list'
p6
g1
(cmojom.parse.ast
ImportList
p7
g3
NtRp8
(dp9
S'items'
p10
(lp11
g1
(cmojom.parse.ast
Import
p12
g3
NtRp13
(dp14
S'attribute_list'
p15
NsS'lineno'
p16
I7
sS'import_filename'
p17
S'mojo/public/mojom/base/file.mojom'
p18
sS'filename'
p19
S'../../components/spellcheck/common/spellcheck.mojom'
p20
sbag1
(g12
g3
NtRp21
(dp22
g15
Nsg16
I8
sg17
S'mojo/public/mojom/base/string16.mojom'
p23
sg19
g20
sbasg16
I7
sg19
g20
sbsS'definition_list'
p24
(lp25
g1
(cmojom.parse.ast
Interface
p26
g3
NtRp27
(dp28
S'body'
p29
g1
(cmojom.parse.ast
InterfaceBody
p30
g3
NtRp31
(dp32
g10
(lp33
g1
(cmojom.parse.ast
Method
p34
g3
NtRp35
(dp36
S'ordinal'
p37
NsS'mojom_name'
p38
S'Initialize'
p39
sS'parameter_list'
p40
g1
(cmojom.parse.ast
ParameterList
p41
g3
NtRp42
(dp43
g10
(lp44
g1
(cmojom.parse.ast
Parameter
p45
g3
NtRp46
(dp47
g37
Nsg38
S'dictionaries'
p48
sg15
Nsg19
g20
sS'typename'
p49
S'SpellCheckBDictLanguage[]'
p50
sg16
I17
sbag1
(g45
g3
NtRp51
(dp52
g37
Nsg38
S'custom_words'
p53
sg15
Nsg19
g20
sg49
S'string[]'
p54
sg16
I18
sbag1
(g45
g3
NtRp55
(dp56
g37
Nsg38
S'enable'
p57
sg15
Nsg19
g20
sg49
S'bool'
p58
sg16
I19
sbasg16
I17
sg19
g20
sbsg15
Nsg19
Nsg16
NsS'response_parameter_list'
p59
Nsbag1
(g34
g3
NtRp60
(dp61
g37
Nsg38
S'CustomDictionaryChanged'
p62
sg40
g1
(g41
g3
NtRp63
(dp64
g10
(lp65
g1
(g45
g3
NtRp66
(dp67
g37
Nsg38
S'words_added'
p68
sg15
Nsg19
g20
sg49
S'string[]'
p69
sg16
I23
sbag1
(g45
g3
NtRp70
(dp71
g37
Nsg38
S'words_removed'
p72
sg15
Nsg19
g20
sg49
S'string[]'
p73
sg16
I24
sbasg16
I23
sg19
g20
sbsg15
Nsg19
Nsg16
Nsg59
Nsbasg16
Nsg19
Nsbsg15
Nsg16
Nsg38
S'SpellChecker'
p74
sg19
Nsbag1
(cmojom.parse.ast
Struct
p75
g3
NtRp76
(dp77
g29
g1
(cmojom.parse.ast
StructBody
p78
g3
NtRp79
(dp80
g10
(lp81
g1
(cmojom.parse.ast
StructField
p82
g3
NtRp83
(dp84
g37
NsS'default_value'
p85
Nsg38
S'file'
p86
sg15
Nsg19
Nsg49
S'mojo_base.mojom.File?'
p87
sg16
Nsbag1
(g82
g3
NtRp88
(dp89
g37
Nsg85
Nsg38
S'language'
p90
sg15
Nsg19
Nsg49
S'string'
p91
sg16
Nsbasg16
Nsg19
Nsbsg15
Nsg16
Nsg38
S'SpellCheckBDictLanguage'
p92
sg19
Nsbag1
(g26
g3
NtRp93
(dp94
g29
g1
(g30
g3
NtRp95
(dp96
g10
(lp97
g1
(g34
g3
NtRp98
(dp99
g37
Nsg38
S'RequestDictionary'
p100
sg40
g1
(g41
g3
NtRp101
(dp102
g10
(lp103
sg16
Nsg19
Nsbsg15
Nsg19
Nsg16
Nsg59
Nsbag1
(g34
g3
NtRp104
(dp105
g37
Nsg38
S'NotifyChecked'
p106
sg40
g1
(g41
g3
NtRp107
(dp108
g10
(lp109
g1
(g45
g3
NtRp110
(dp111
g37
Nsg38
S'word'
p112
sg15
Nsg19
g20
sg49
S'mojo_base.mojom.String16'
p113
sg16
I43
sbag1
(g45
g3
NtRp114
(dp115
g37
Nsg38
S'misspelled'
p116
sg15
Nsg19
g20
sg49
S'bool'
p117
sg16
I43
sbasg16
I43
sg19
g20
sbsg15
Nsg19
Nsg16
Nsg59
Nsbag1
(g34
g3
NtRp118
(dp119
g37
Nsg38
S'CallSpellingService'
p120
sg40
g1
(g41
g3
NtRp121
(dp122
g10
(lp123
g1
(g45
g3
NtRp124
(dp125
g37
Nsg38
S'text'
p126
sg15
Nsg19
g20
sg49
S'mojo_base.mojom.String16'
p127
sg16
I49
sbasg16
I49
sg19
g20
sbsg15
g1
(cmojom.parse.ast
AttributeList
p128
g3
NtRp129
(dp130
g10
(lp131
g1
(cmojom.parse.ast
Attribute
p132
g3
NtRp133
(dp134
S'value'
p135
S'USE_RENDERER_SPELLCHECKER'
p136
sg16
I48
sS'key'
p137
S'EnableIf'
p138
sg19
g20
sbasg16
I48
sg19
g20
sbsg19
Nsg16
Nsg59
g1
(g41
g3
NtRp139
(dp140
g10
(lp141
g1
(g45
g3
NtRp142
(dp143
g37
Nsg38
S'success'
p144
sg15
Nsg19
g20
sg49
S'bool'
p145
sg16
I50
sbag1
(g45
g3
NtRp146
(dp147
g37
Nsg38
S'results'
p148
sg15
Nsg19
g20
sg49
S'SpellCheckResult[]'
p149
sg16
I50
sbasg16
I50
sg19
g20
sbsbasg16
Nsg19
Nsbsg15
Nsg16
Nsg38
S'SpellCheckHost'
p150
sg19
Nsbag1
(cmojom.parse.ast
Enum
p151
g3
NtRp152
(dp153
g15
NsS'enum_value_list'
p154
g1
(cmojom.parse.ast
EnumValueList
p155
g3
NtRp156
(dp157
g10
(lp158
g1
(cmojom.parse.ast
EnumValue
p159
g3
NtRp160
(dp161
g15
Nsg135
Nsg16
I80
sg38
S'kSpelling'
p162
sg19
g20
sbag1
(g159
g3
NtRp163
(dp164
g15
Nsg135
Nsg16
I81
sg38
S'kGrammar'
p165
sg19
g20
sbasg16
I80
sg19
g20
sbsg16
I79
sg38
S'Decoration'
p166
sg19
g20
sbag1
(g75
g3
NtRp167
(dp168
g29
g1
(g78
g3
NtRp169
(dp170
g10
(lp171
g1
(g82
g3
NtRp172
(dp173
g37
Nsg85
Nsg38
S'decoration'
p174
sg15
Nsg19
Nsg49
S'Decoration'
p175
sg16
Nsbag1
(g82
g3
NtRp176
(dp177
g37
Nsg85
Nsg38
S'location'
p178
sg15
Nsg19
Nsg49
S'int32'
p179
sg16
Nsbag1
(g82
g3
NtRp180
(dp181
g37
Nsg85
Nsg38
S'length'
p182
sg15
Nsg19
Nsg49
S'int32'
p183
sg16
Nsbag1
(g82
g3
NtRp184
(dp185
g37
Nsg85
Nsg38
S'replacements'
p186
sg15
Nsg19
Nsg49
S'mojo_base.mojom.String16[]'
p187
sg16
Nsbasg16
Nsg19
Nsbsg15
Nsg16
Nsg38
S'SpellCheckResult'
p188
sg19
Nsbasg16
NsS'module'
p189
g1
(cmojom.parse.ast
Module
p190
g3
NtRp191
(dp192
S'mojom_namespace'
p193
(S'IDENTIFIER'
p194
S'spellcheck.mojom'
tp195
sg16
I5
sg15
Nsg19
g20
sbsg19
Nsb.