ccopy_reg
_reconstructor
p1
(cmojom.parse.ast
Mojom
p2
c__builtin__
object
p3
NtRp4
(dp5
S'import_list'
p6
g1
(cmojom.parse.ast
ImportList
p7
g3
NtRp8
(dp9
S'items'
p10
(lp11
g1
(cmojom.parse.ast
Import
p12
g3
NtRp13
(dp14
S'attribute_list'
p15
NsS'lineno'
p16
I7
sS'import_filename'
p17
S'third_party/blink/public/platform/referrer.mojom'
p18
sS'filename'
p19
S'../../components/pdf/common/pdf.mojom'
p20
sbag1
(g12
g3
NtRp21
(dp22
g15
Nsg16
I8
sg17
S'ui/gfx/geometry/mojo/geometry.mojom'
p23
sg19
g20
sbag1
(g12
g3
NtRp24
(dp25
g15
Nsg16
I9
sg17
S'url/mojom/url.mojom'
p26
sg19
g20
sbasg16
I7
sg19
g20
sbsS'definition_list'
p27
(lp28
g1
(cmojom.parse.ast
Interface
p29
g3
NtRp30
(dp31
S'body'
p32
g1
(cmojom.parse.ast
InterfaceBody
p33
g3
NtRp34
(dp35
g10
(lp36
g1
(cmojom.parse.ast
Method
p37
g3
NtRp38
(dp39
S'ordinal'
p40
NsS'mojom_name'
p41
S'SetCaretPosition'
p42
sS'parameter_list'
p43
g1
(cmojom.parse.ast
ParameterList
p44
g3
NtRp45
(dp46
g10
(lp47
g1
(cmojom.parse.ast
Parameter
p48
g3
NtRp49
(dp50
g40
Nsg41
S'position'
p51
sg15
Nsg19
g20
sS'typename'
p52
S'gfx.mojom.PointF'
p53
sg16
I13
sbasg16
I13
sg19
g20
sbsg15
Nsg19
Nsg16
NsS'response_parameter_list'
p54
Nsbag1
(g37
g3
NtRp55
(dp56
g40
Nsg41
S'MoveRangeSelectionExtent'
p57
sg43
g1
(g44
g3
NtRp58
(dp59
g10
(lp60
g1
(g48
g3
NtRp61
(dp62
g40
Nsg41
S'extent'
p63
sg15
Nsg19
g20
sg52
S'gfx.mojom.PointF'
p64
sg16
I16
sbasg16
I16
sg19
g20
sbsg15
Nsg19
Nsg16
Nsg54
Nsbag1
(g37
g3
NtRp65
(dp66
g40
Nsg41
S'SetSelectionBounds'
p67
sg43
g1
(g44
g3
NtRp68
(dp69
g10
(lp70
g1
(g48
g3
NtRp71
(dp72
g40
Nsg41
S'base'
p73
sg15
Nsg19
g20
sg52
S'gfx.mojom.PointF'
p74
sg16
I20
sbag1
(g48
g3
NtRp75
(dp76
g40
Nsg41
S'extent'
p77
sg15
Nsg19
g20
sg52
S'gfx.mojom.PointF'
p78
sg16
I20
sbasg16
I20
sg19
g20
sbsg15
Nsg19
Nsg16
Nsg54
Nsbasg16
Nsg19
Nsbsg15
Nsg16
Nsg41
S'PdfListener'
p79
sg19
Nsbag1
(g29
g3
NtRp80
(dp81
g32
g1
(g33
g3
NtRp82
(dp83
g10
(lp84
g1
(g37
g3
NtRp85
(dp86
g40
Nsg41
S'SetListener'
p87
sg43
g1
(g44
g3
NtRp88
(dp89
g10
(lp90
g1
(g48
g3
NtRp91
(dp92
g40
Nsg41
S'client'
p93
sg15
Nsg19
g20
sg52
S'PdfListener'
p94
sg16
I24
sbasg16
I24
sg19
g20
sbsg15
Nsg19
Nsg16
Nsg54
Nsbag1
(g37
g3
NtRp95
(dp96
g40
Nsg41
S'UpdateContentRestrictions'
p97
sg43
g1
(g44
g3
NtRp98
(dp99
g10
(lp100
g1
(g48
g3
NtRp101
(dp102
g40
Nsg41
S'restrictions'
p103
sg15
Nsg19
g20
sg52
S'int32'
p104
sg16
I27
sbasg16
I27
sg19
g20
sbsg15
Nsg19
Nsg16
Nsg54
Nsbag1
(g37
g3
NtRp105
(dp106
g40
Nsg41
S'HasUnsupportedFeature'
p107
sg43
g1
(g44
g3
NtRp108
(dp109
g10
(lp110
sg16
Nsg19
Nsbsg15
Nsg19
Nsg16
Nsg54
Nsbag1
(g37
g3
NtRp111
(dp112
g40
Nsg41
S'SaveUrlAs'
p113
sg43
g1
(g44
g3
NtRp114
(dp115
g10
(lp116
g1
(g48
g3
NtRp117
(dp118
g40
Nsg41
S'url'
p119
sg15
Nsg19
g20
sg52
S'url.mojom.Url'
p120
sg16
I33
sbag1
(g48
g3
NtRp121
(dp122
g40
Nsg41
S'referrer'
p123
sg15
Nsg19
g20
sg52
S'blink.mojom.Referrer'
p124
sg16
I33
sbasg16
I33
sg19
g20
sbsg15
Nsg19
Nsg16
Nsg54
Nsbag1
(g37
g3
NtRp125
(dp126
g40
Nsg41
S'SelectionChanged'
p127
sg43
g1
(g44
g3
NtRp128
(dp129
g10
(lp130
g1
(g48
g3
NtRp131
(dp132
g40
Nsg41
S'left'
p133
sg15
Nsg19
g20
sg52
S'gfx.mojom.PointF'
p134
sg16
I37
sbag1
(g48
g3
NtRp135
(dp136
g40
Nsg41
S'left_height'
p137
sg15
Nsg19
g20
sg52
S'int32'
p138
sg16
I37
sbag1
(g48
g3
NtRp139
(dp140
g40
Nsg41
S'right'
p141
sg15
Nsg19
g20
sg52
S'gfx.mojom.PointF'
p142
sg16
I38
sbag1
(g48
g3
NtRp143
(dp144
g40
Nsg41
S'right_height'
p145
sg15
Nsg19
g20
sg52
S'int32'
p146
sg16
I38
sbasg16
I37
sg19
g20
sbsg15
Nsg19
Nsg16
Nsg54
Nsbasg16
Nsg19
Nsbsg15
Nsg16
Nsg41
S'PdfService'
p147
sg19
Nsbasg16
NsS'module'
p148
g1
(cmojom.parse.ast
Module
p149
g3
NtRp150
(dp151
S'mojom_namespace'
p152
(S'IDENTIFIER'
p153
S'pdf.mojom'
tp154
sg16
I5
sg15
Nsg19
g20
sbsg19
Nsb.