ccopy_reg
_reconstructor
p1
(cmojom.parse.ast
Mojom
p2
c__builtin__
object
p3
NtRp4
(dp5
S'import_list'
p6
g1
(cmojom.parse.ast
ImportList
p7
g3
NtRp8
(dp9
S'items'
p10
(lp11
g1
(cmojom.parse.ast
Import
p12
g3
NtRp13
(dp14
S'attribute_list'
p15
NsS'lineno'
p16
I7
sS'import_filename'
p17
S'mojo/public/mojom/base/file.mojom'
p18
sS'filename'
p19
S'../../chrome/services/media_gallery_util/public/mojom/media_parser.mojom'
p20
sbag1
(g12
g3
NtRp21
(dp22
g15
Nsg16
I8
sg17
S'mojo/public/mojom/base/time.mojom'
p23
sg19
g20
sbag1
(g12
g3
NtRp24
(dp25
g15
Nsg16
I9
sg17
S'mojo/public/mojom/base/values.mojom'
p26
sg19
g20
sbasg16
I7
sg19
g20
sbsS'definition_list'
p27
(lp28
g1
(cmojom.parse.ast
Interface
p29
g3
NtRp30
(dp31
S'body'
p32
g1
(cmojom.parse.ast
InterfaceBody
p33
g3
NtRp34
(dp35
g10
(lp36
g1
(cmojom.parse.ast
Method
p37
g3
NtRp38
(dp39
S'ordinal'
p40
NsS'mojom_name'
p41
S'ParseMediaMetadata'
p42
sS'parameter_list'
p43
g1
(cmojom.parse.ast
ParameterList
p44
g3
NtRp45
(dp46
g10
(lp47
g1
(cmojom.parse.ast
Parameter
p48
g3
NtRp49
(dp50
g40
Nsg41
S'mime_type'
p51
sg15
Nsg19
g20
sS'typename'
p52
S'string'
p53
sg16
I16
sbag1
(g48
g3
NtRp54
(dp55
g40
Nsg41
S'total_size'
p56
sg15
Nsg19
g20
sg52
S'int64'
p57
sg16
I17
sbag1
(g48
g3
NtRp58
(dp59
g40
Nsg41
S'get_attached_images'
p60
sg15
Nsg19
g20
sg52
S'bool'
p61
sg16
I18
sbag1
(g48
g3
NtRp62
(dp63
g40
Nsg41
S'media_data_source'
p64
sg15
Nsg19
g20
sg52
S'MediaDataSource'
p65
sg16
I19
sbasg16
I16
sg19
g20
sbsg15
Nsg19
Nsg16
NsS'response_parameter_list'
p66
g1
(g44
g3
NtRp67
(dp68
g10
(lp69
g1
(g48
g3
NtRp70
(dp71
g40
Nsg41
S'parse_success'
p72
sg15
Nsg19
g20
sg52
S'bool'
p73
sg16
I20
sbag1
(g48
g3
NtRp74
(dp75
g40
Nsg41
S'metadata'
p76
sg15
Nsg19
g20
sg52
S'MediaMetadata'
p77
sg16
I21
sbag1
(g48
g3
NtRp78
(dp79
g40
Nsg41
S'attached_images'
p80
sg15
Nsg19
g20
sg52
S'AttachedImage[]'
p81
sg16
I22
sbasg16
I20
sg19
g20
sbsbag1
(g37
g3
NtRp82
(dp83
g40
Nsg41
S'CheckMediaFile'
p84
sg43
g1
(g44
g3
NtRp85
(dp86
g10
(lp87
g1
(g48
g3
NtRp88
(dp89
g40
Nsg41
S'decode_time'
p90
sg15
Nsg19
g20
sg52
S'mojo_base.mojom.TimeDelta'
p91
sg16
I29
sbag1
(g48
g3
NtRp92
(dp93
g40
Nsg41
S'file'
p94
sg15
Nsg19
g20
sg52
S'mojo_base.mojom.File'
p95
sg16
I30
sbasg16
I29
sg19
g20
sbsg15
Nsg19
Nsg16
Nsg66
g1
(g44
g3
NtRp96
(dp97
g10
(lp98
g1
(g48
g3
NtRp99
(dp100
g40
Nsg41
S'success'
p101
sg15
Nsg19
g20
sg52
S'bool'
p102
sg16
I31
sbasg16
I31
sg19
g20
sbsbag1
(g37
g3
NtRp103
(dp104
g40
Nsg41
S'GetCpuInfo'
p105
sg43
g1
(g44
g3
NtRp106
(dp107
g10
(lp108
sg16
Nsg19
Nsbsg15
Nsg19
Nsg16
Nsg66
g1
(g44
g3
NtRp109
(dp110
g10
(lp111
g1
(g48
g3
NtRp112
(dp113
g40
Nsg41
S'libyuv_cpu_flags'
p114
sg15
Nsg19
g20
sg52
S'int64'
p115
sg16
I35
sbag1
(g48
g3
NtRp116
(dp117
g40
Nsg41
S'ffmpeg_cpu_flags'
p118
sg15
Nsg19
g20
sg52
S'int64'
p119
sg16
I35
sbasg16
I35
sg19
g20
sbsbasg16
Nsg19
Nsbsg15
Nsg16
Nsg41
S'MediaParser'
p120
sg19
Nsbag1
(g29
g3
NtRp121
(dp122
g32
g1
(g33
g3
NtRp123
(dp124
g10
(lp125
g1
(g37
g3
NtRp126
(dp127
g40
Nsg41
S'CreateMediaParser'
p128
sg43
g1
(g44
g3
NtRp129
(dp130
g10
(lp131
g1
(g48
g3
NtRp132
(dp133
g40
Nsg41
S'libyuv_cpu_flags'
p134
sg15
Nsg19
g20
sg52
S'int64'
p135
sg16
I45
sbag1
(g48
g3
NtRp136
(dp137
g40
Nsg41
S'libavutil_cpu_flags'
p138
sg15
Nsg19
g20
sg52
S'int64'
p139
sg16
I45
sbasg16
I45
sg19
g20
sbsg15
Nsg19
Nsg16
Nsg66
g1
(g44
g3
NtRp140
(dp141
g10
(lp142
g1
(g48
g3
NtRp143
(dp144
g40
Nsg41
S'media_parser'
p145
sg15
Nsg19
g20
sg52
S'MediaParser'
p146
sg16
I46
sbasg16
I46
sg19
g20
sbsbasg16
Nsg19
Nsbsg15
Nsg16
Nsg41
S'MediaParserFactory'
p147
sg19
Nsbag1
(g29
g3
NtRp148
(dp149
g32
g1
(g33
g3
NtRp150
(dp151
g10
(lp152
g1
(g37
g3
NtRp153
(dp154
g40
Nsg41
S'Read'
p155
sg43
g1
(g44
g3
NtRp156
(dp157
g10
(lp158
g1
(g48
g3
NtRp159
(dp160
g40
Nsg41
S'position'
p161
sg15
Nsg19
g20
sg52
S'int64'
p162
sg16
I52
sbag1
(g48
g3
NtRp163
(dp164
g40
Nsg41
S'length'
p165
sg15
Nsg19
g20
sg52
S'int64'
p166
sg16
I52
sbasg16
I52
sg19
g20
sbsg15
Nsg19
Nsg16
Nsg66
g1
(g44
g3
NtRp167
(dp168
g10
(lp169
g1
(g48
g3
NtRp170
(dp171
g40
Nsg41
S'data'
p172
sg15
Nsg19
g20
sg52
S'uint8[]'
p173
sg16
I52
sbasg16
I52
sg19
g20
sbsbasg16
Nsg19
Nsbsg15
Nsg16
Nsg41
S'MediaDataSource'
p174
sg19
Nsbag1
(cmojom.parse.ast
Struct
p175
g3
NtRp176
(dp177
g32
g1
(cmojom.parse.ast
StructBody
p178
g3
NtRp179
(dp180
g10
(lp181
g1
(cmojom.parse.ast
StructField
p182
g3
NtRp183
(dp184
g40
NsS'default_value'
p185
Nsg41
S'type'
p186
sg15
Nsg19
Nsg52
S'string'
p187
sg16
Nsbag1
(g182
g3
NtRp188
(dp189
g40
Nsg185
Nsg41
S'additional_properties'
p190
sg15
Nsg19
Nsg52
S'mojo_base.mojom.DictionaryValue'
p191
sg16
Nsbasg16
Nsg19
Nsbsg15
Nsg16
Nsg41
S'MediaStreamInfo'
p192
sg19
Nsbag1
(g175
g3
NtRp193
(dp194
g32
g1
(g178
g3
NtRp195
(dp196
g10
(lp197
g1
(g182
g3
NtRp198
(dp199
g40
Nsg185
Nsg41
S'mime_type'
p200
sg15
Nsg19
Nsg52
S'string'
p201
sg16
Nsbag1
(g182
g3
NtRp202
(dp203
g40
Nsg185
S'-1'
p204
sg41
S'height'
p205
sg15
Nsg19
Nsg52
S'int32'
p206
sg16
Nsbag1
(g182
g3
NtRp207
(dp208
g40
Nsg185
S'-1'
p209
sg41
S'width'
p210
sg15
Nsg19
Nsg52
S'int32'
p211
sg16
Nsbag1
(g182
g3
NtRp212
(dp213
g40
Nsg185
S'-1'
p214
sg41
S'duration'
p215
sg15
Nsg19
Nsg52
S'double'
p216
sg16
Nsbag1
(g182
g3
NtRp217
(dp218
g40
Nsg185
Nsg41
S'rotation'
p219
sg15
Nsg19
Nsg52
S'int32'
p220
sg16
Nsbag1
(g182
g3
NtRp221
(dp222
g40
Nsg185
Nsg41
S'album'
p223
sg15
Nsg19
Nsg52
S'string'
p224
sg16
Nsbag1
(g182
g3
NtRp225
(dp226
g40
Nsg185
Nsg41
S'artist'
p227
sg15
Nsg19
Nsg52
S'string'
p228
sg16
Nsbag1
(g182
g3
NtRp229
(dp230
g40
Nsg185
Nsg41
S'comment'
p231
sg15
Nsg19
Nsg52
S'string'
p232
sg16
Nsbag1
(g182
g3
NtRp233
(dp234
g40
Nsg185
Nsg41
S'copyright'
p235
sg15
Nsg19
Nsg52
S'string'
p236
sg16
Nsbag1
(g182
g3
NtRp237
(dp238
g40
Nsg185
S'-1'
p239
sg41
S'disc'
p240
sg15
Nsg19
Nsg52
S'int32'
p241
sg16
Nsbag1
(g182
g3
NtRp242
(dp243
g40
Nsg185
Nsg41
S'genre'
p244
sg15
Nsg19
Nsg52
S'string'
p245
sg16
Nsbag1
(g182
g3
NtRp246
(dp247
g40
Nsg185
Nsg41
S'language'
p248
sg15
Nsg19
Nsg52
S'string'
p249
sg16
Nsbag1
(g182
g3
NtRp250
(dp251
g40
Nsg185
Nsg41
S'title'
p252
sg15
Nsg19
Nsg52
S'string'
p253
sg16
Nsbag1
(g182
g3
NtRp254
(dp255
g40
Nsg185
S'-1'
p256
sg41
S'track'
p257
sg15
Nsg19
Nsg52
S'int32'
p258
sg16
Nsbag1
(g182
g3
NtRp259
(dp260
g40
Nsg185
Nsg41
S'raw_tags'
p261
sg15
Nsg19
Nsg52
S'MediaStreamInfo[]'
p262
sg16
Nsbasg16
Nsg19
Nsbsg15
Nsg16
Nsg41
S'MediaMetadata'
p263
sg19
Nsbag1
(g175
g3
NtRp264
(dp265
g32
g1
(g178
g3
NtRp266
(dp267
g10
(lp268
g1
(g182
g3
NtRp269
(dp270
g40
Nsg185
Nsg41
S'type'
p271
sg15
Nsg19
Nsg52
S'string'
p272
sg16
Nsbag1
(g182
g3
NtRp273
(dp274
g40
Nsg185
Nsg41
S'data'
p275
sg15
Nsg19
Nsg52
S'uint8[]'
p276
sg16
Nsbasg16
Nsg19
Nsbsg15
Nsg16
Nsg41
S'AttachedImage'
p277
sg19
Nsbasg16
NsS'module'
p278
g1
(cmojom.parse.ast
Module
p279
g3
NtRp280
(dp281
S'mojom_namespace'
p282
(S'IDENTIFIER'
p283
S'chrome.mojom'
tp284
sg16
I5
sg15
Nsg19
g20
sbsg19
Nsb.