ccopy_reg
_reconstructor
p1
(cmojom.parse.ast
Mojom
p2
c__builtin__
object
p3
NtRp4
(dp5
S'import_list'
p6
g1
(cmojom.parse.ast
ImportList
p7
g3
NtRp8
(dp9
S'items'
p10
(lp11
g1
(cmojom.parse.ast
Import
p12
g3
NtRp13
(dp14
S'attribute_list'
p15
NsS'lineno'
p16
I7
sS'import_filename'
p17
S'content/common/input/synchronous_compositor.mojom'
p18
sS'filename'
p19
S'../../content/common/input/input_handler.mojom'
p20
sbag1
(g12
g3
NtRp21
(dp22
g15
Nsg16
I8
sg17
S'content/common/native_types.mojom'
p23
sg19
g20
sbag1
(g12
g3
NtRp24
(dp25
g15
Nsg16
I9
sg17
S'mojo/public/mojom/base/string16.mojom'
p26
sg19
g20
sbag1
(g12
g3
NtRp27
(dp28
g15
Nsg16
I10
sg17
S'mojo/public/mojom/base/time.mojom'
p29
sg19
g20
sbag1
(g12
g3
NtRp30
(dp31
g15
Nsg16
I11
sg17
S'services/ui/public/interfaces/ime/ime.mojom'
p32
sg19
g20
sbag1
(g12
g3
NtRp33
(dp34
g15
Nsg16
I12
sg17
S'third_party/blink/public/web/selection_menu_behavior.mojom'
p35
sg19
g20
sbag1
(g12
g3
NtRp36
(dp37
g15
Nsg16
I13
sg17
S'ui/events/mojo/event.mojom'
p38
sg19
g20
sbag1
(g12
g3
NtRp39
(dp40
g15
Nsg16
I14
sg17
S'ui/events/mojo/event_constants.mojom'
p41
sg19
g20
sbag1
(g12
g3
NtRp42
(dp43
g15
Nsg16
I15
sg17
S'ui/gfx/geometry/mojo/geometry.mojom'
p44
sg19
g20
sbag1
(g12
g3
NtRp45
(dp46
g15
Nsg16
I16
sg17
S'ui/gfx/range/mojo/range.mojom'
p47
sg19
g20
sbag1
(g12
g3
NtRp48
(dp49
g15
Nsg16
I17
sg17
S'ui/latency/mojo/latency_info.mojom'
p50
sg19
g20
sbasg16
I7
sg19
g20
sbsS'definition_list'
p51
(lp52
g1
(cmojom.parse.ast
Struct
p53
g3
NtRp54
(dp55
S'body'
p56
g1
(cmojom.parse.ast
StructBody
p57
g3
NtRp58
(dp59
g10
(lp60
g1
(cmojom.parse.ast
StructField
p61
g3
NtRp62
(dp63
S'ordinal'
p64
NsS'default_value'
p65
NsS'mojom_name'
p66
S'dom_key'
p67
sg15
Nsg19
NsS'typename'
p68
S'int32'
p69
sg16
Nsbag1
(g61
g3
NtRp70
(dp71
g64
Nsg65
Nsg66
S'dom_code'
p72
sg15
Nsg19
Nsg68
S'int32'
p73
sg16
Nsbag1
(g61
g3
NtRp74
(dp75
g64
Nsg65
Nsg66
S'windows_key_code'
p76
sg15
Nsg19
Nsg68
S'int32'
p77
sg16
Nsbag1
(g61
g3
NtRp78
(dp79
g64
Nsg65
Nsg66
S'native_key_code'
p80
sg15
Nsg19
Nsg68
S'int32'
p81
sg16
Nsbag1
(g61
g3
NtRp82
(dp83
g64
Nsg65
Nsg66
S'is_system_key'
p84
sg15
Nsg19
Nsg68
S'bool'
p85
sg16
Nsbag1
(g61
g3
NtRp86
(dp87
g64
Nsg65
Nsg66
S'is_browser_shortcut'
p88
sg15
Nsg19
Nsg68
S'bool'
p89
sg16
Nsbag1
(g61
g3
NtRp90
(dp91
g64
Nsg65
Nsg66
S'text'
p92
sg15
Nsg19
Nsg68
S'mojo_base.mojom.String16'
p93
sg16
Nsbag1
(g61
g3
NtRp94
(dp95
g64
Nsg65
Nsg66
S'unmodified_text'
p96
sg15
Nsg19
Nsg68
S'mojo_base.mojom.String16'
p97
sg16
Nsbasg16
Nsg19
Nsbsg15
Nsg16
Nsg66
S'KeyData'
p98
sg19
Nsbag1
(g53
g3
NtRp99
(dp100
g56
g1
(g57
g3
NtRp101
(dp102
g10
(lp103
g1
(g61
g3
NtRp104
(dp105
g64
Nsg65
Nsg66
S'pointer_id'
p106
sg15
Nsg19
Nsg68
S'int32'
p107
sg16
Nsbag1
(g61
g3
NtRp108
(dp109
g64
Nsg65
Nsg66
S'force'
p110
sg15
Nsg19
Nsg68
S'float'
p111
sg16
Nsbag1
(g61
g3
NtRp112
(dp113
g64
Nsg65
Nsg66
S'tilt_x'
p114
sg15
Nsg19
Nsg68
S'int32'
p115
sg16
Nsbag1
(g61
g3
NtRp116
(dp117
g64
Nsg65
Nsg66
S'tilt_y'
p118
sg15
Nsg19
Nsg68
S'int32'
p119
sg16
Nsbag1
(g61
g3
NtRp120
(dp121
g64
Nsg65
Nsg66
S'tangential_pressure'
p122
sg15
Nsg19
Nsg68
S'float'
p123
sg16
Nsbag1
(g61
g3
NtRp124
(dp125
g64
Nsg65
Nsg66
S'twist'
p126
sg15
Nsg19
Nsg68
S'int32'
p127
sg16
Nsbag1
(g61
g3
NtRp128
(dp129
g64
Nsg65
Nsg66
S'button'
p130
sg15
Nsg19
Nsg68
S'Button'
p131
sg16
Nsbag1
(g61
g3
NtRp132
(dp133
g64
Nsg65
Nsg66
S'pointer_type'
p134
sg15
Nsg19
Nsg68
S'PointerType'
p135
sg16
Nsbag1
(g61
g3
NtRp136
(dp137
g64
Nsg65
Nsg66
S'movement_x'
p138
sg15
Nsg19
Nsg68
S'int32'
p139
sg16
Nsbag1
(g61
g3
NtRp140
(dp141
g64
Nsg65
Nsg66
S'movement_y'
p142
sg15
Nsg19
Nsg68
S'int32'
p143
sg16
Nsbag1
(g61
g3
NtRp144
(dp145
g64
Nsg65
Nsg66
S'widget_position'
p146
sg15
Nsg19
Nsg68
S'gfx.mojom.PointF'
p147
sg16
Nsbag1
(g61
g3
NtRp148
(dp149
g64
Nsg65
Nsg66
S'screen_position'
p150
sg15
Nsg19
Nsg68
S'gfx.mojom.PointF'
p151
sg16
Nsbag1
(g61
g3
NtRp152
(dp153
g64
Nsg65
Nsg66
S'mouse_data'
p154
sg15
Nsg19
Nsg68
S'MouseData?'
p155
sg16
Nsbasg16
Nsg19
Nsbsg15
Nsg16
Nsg66
S'PointerData'
p156
sg19
Nsbag1
(g53
g3
NtRp157
(dp158
g56
g1
(g57
g3
NtRp159
(dp160
g10
(lp161
g1
(g61
g3
NtRp162
(dp163
g64
Nsg65
Nsg66
S'delta_x'
p164
sg15
Nsg19
Nsg68
S'float'
p165
sg16
Nsbag1
(g61
g3
NtRp166
(dp167
g64
Nsg65
Nsg66
S'delta_y'
p168
sg15
Nsg19
Nsg68
S'float'
p169
sg16
Nsbag1
(g61
g3
NtRp170
(dp171
g64
Nsg65
Nsg66
S'wheel_ticks_x'
p172
sg15
Nsg19
Nsg68
S'float'
p173
sg16
Nsbag1
(g61
g3
NtRp174
(dp175
g64
Nsg65
Nsg66
S'wheel_ticks_y'
p176
sg15
Nsg19
Nsg68
S'float'
p177
sg16
Nsbag1
(g61
g3
NtRp178
(dp179
g64
Nsg65
Nsg66
S'acceleration_ratio_x'
p180
sg15
Nsg19
Nsg68
S'float'
p181
sg16
Nsbag1
(g61
g3
NtRp182
(dp183
g64
Nsg65
Nsg66
S'acceleration_ratio_y'
p184
sg15
Nsg19
Nsg68
S'float'
p185
sg16
Nsbag1
(g61
g3
NtRp186
(dp187
g64
Nsg65
Nsg66
S'resending_plugin_id'
p188
sg15
Nsg19
Nsg68
S'int32'
p189
sg16
Nsbag1
(g61
g3
NtRp190
(dp191
g64
Nsg65
Nsg66
S'phase'
p192
sg15
Nsg19
Nsg68
S'uint8'
p193
sg16
Nsbag1
(g61
g3
NtRp194
(dp195
g64
Nsg65
Nsg66
S'momentum_phase'
p196
sg15
Nsg19
Nsg68
S'uint8'
p197
sg16
Nsbag1
(g61
g3
NtRp198
(dp199
g64
Nsg65
Nsg66
S'scroll_by_page'
p200
sg15
Nsg19
Nsg68
S'bool'
p201
sg16
Nsbag1
(g61
g3
NtRp202
(dp203
g64
Nsg65
Nsg66
S'has_precise_scrolling_deltas'
p204
sg15
Nsg19
Nsg68
S'bool'
p205
sg16
Nsbag1
(g61
g3
NtRp206
(dp207
g64
Nsg65
Nsg66
S'cancelable'
p208
sg15
Nsg19
Nsg68
S'Cancelability'
p209
sg16
Nsbasg16
Nsg19
Nsbsg15
Nsg16
Nsg66
S'WheelData'
p210
sg19
Nsbag1
(g53
g3
NtRp211
(dp212
g56
g1
(g57
g3
NtRp213
(dp214
g10
(lp215
g1
(g61
g3
NtRp216
(dp217
g64
Nsg65
Nsg66
S'click_count'
p218
sg15
Nsg19
Nsg68
S'int32'
p219
sg16
Nsbag1
(g61
g3
NtRp220
(dp221
g64
Nsg65
Nsg66
S'wheel_data'
p222
sg15
Nsg19
Nsg68
S'WheelData?'
p223
sg16
Nsbasg16
Nsg19
Nsbsg15
Nsg16
Nsg66
S'MouseData'
p224
sg19
Nsbag1
(g53
g3
NtRp225
(dp226
g56
g1
(g57
g3
NtRp227
(dp228
g10
(lp229
g1
(g61
g3
NtRp230
(dp231
g64
Nsg65
Nsg66
S'velocity_x'
p232
sg15
Nsg19
Nsg68
S'float'
p233
sg16
Nsbag1
(g61
g3
NtRp234
(dp235
g64
Nsg65
Nsg66
S'velocity_y'
p236
sg15
Nsg19
Nsg68
S'float'
p237
sg16
Nsbag1
(g61
g3
NtRp238
(dp239
g64
Nsg65
Nsg66
S'previous_update_in_sequence_prevented'
p240
sg15
Nsg19
Nsg68
S'bool'
p241
sg16
Nsbasg16
Nsg19
Nsbsg15
Nsg16
Nsg66
S'ScrollUpdate'
p242
sg19
Nsbag1
(g53
g3
NtRp243
(dp244
g56
g1
(g57
g3
NtRp245
(dp246
g10
(lp247
g1
(g61
g3
NtRp248
(dp249
g64
Nsg65
Nsg66
S'delta_x'
p250
sg15
Nsg19
Nsg68
S'float'
p251
sg16
Nsbag1
(g61
g3
NtRp252
(dp253
g64
Nsg65
Nsg66
S'delta_y'
p254
sg15
Nsg19
Nsg68
S'float'
p255
sg16
Nsbag1
(g61
g3
NtRp256
(dp257
g64
Nsg65
Nsg66
S'delta_units'
p258
sg15
Nsg19
Nsg68
S'ScrollUnits'
p259
sg16
Nsbag1
(g61
g3
NtRp260
(dp261
g64
Nsg65
Nsg66
S'target_viewport'
p262
sg15
Nsg19
Nsg68
S'bool'
p263
sg16
Nsbag1
(g61
g3
NtRp264
(dp265
g64
Nsg65
Nsg66
S'inertial_phase'
p266
sg15
Nsg19
Nsg68
S'InertialPhaseState'
p267
sg16
Nsbag1
(g61
g3
NtRp268
(dp269
g64
Nsg65
Nsg66
S'synthetic'
p270
sg15
Nsg19
Nsg68
S'bool'
p271
sg16
Nsbag1
(g61
g3
NtRp272
(dp273
g64
Nsg65
Nsg66
S'pointer_count'
p274
sg15
Nsg19
Nsg68
S'int32'
p275
sg16
Nsbag1
(g61
g3
NtRp276
(dp277
g64
Nsg65
Nsg66
S'update_details'
p278
sg15
Nsg19
Nsg68
S'ScrollUpdate?'
p279
sg16
Nsbasg16
Nsg19
Nsbsg15
Nsg16
Nsg66
S'ScrollData'
p280
sg19
Nsbag1
(g53
g3
NtRp281
(dp282
g56
g1
(g57
g3
NtRp283
(dp284
g10
(lp285
g1
(g61
g3
NtRp286
(dp287
g64
Nsg65
Nsg66
S'zoom_disabled'
p288
sg15
Nsg19
Nsg68
S'bool'
p289
sg16
Nsbag1
(g61
g3
NtRp290
(dp291
g64
Nsg65
Nsg66
S'scale'
p292
sg15
Nsg19
Nsg68
S'float'
p293
sg16
Nsbasg16
Nsg19
Nsbsg15
Nsg16
Nsg66
S'PinchData'
p294
sg19
Nsbag1
(g53
g3
NtRp295
(dp296
g56
g1
(g57
g3
NtRp297
(dp298
g10
(lp299
g1
(g61
g3
NtRp300
(dp301
g64
Nsg65
Nsg66
S'velocity_x'
p302
sg15
Nsg19
Nsg68
S'float'
p303
sg16
Nsbag1
(g61
g3
NtRp304
(dp305
g64
Nsg65
Nsg66
S'velocity_y'
p306
sg15
Nsg19
Nsg68
S'float'
p307
sg16
Nsbag1
(g61
g3
NtRp308
(dp309
g64
Nsg65
Nsg66
S'target_viewport'
p310
sg15
Nsg19
Nsg68
S'bool'
p311
sg16
Nsbag1
(g61
g3
NtRp312
(dp313
g64
Nsg65
Nsg66
S'prevent_boosting'
p314
sg15
Nsg19
Nsg68
S'bool'
p315
sg16
Nsbasg16
Nsg19
Nsbsg15
Nsg16
Nsg66
S'FlingData'
p316
sg19
Nsbag1
(g53
g3
NtRp317
(dp318
g56
g1
(g57
g3
NtRp319
(dp320
g10
(lp321
g1
(g61
g3
NtRp322
(dp323
g64
Nsg65
Nsg66
S'tap_count'
p324
sg15
Nsg19
Nsg68
S'int32'
p325
sg16
Nsbasg16
Nsg19
Nsbsg15
Nsg16
Nsg66
S'TapData'
p326
sg19
Nsbag1
(g53
g3
NtRp327
(dp328
g56
g1
(g57
g3
NtRp329
(dp330
g10
(lp331
g1
(g61
g3
NtRp332
(dp333
g64
Nsg65
Nsg66
S'screen_position'
p334
sg15
Nsg19
Nsg68
S'gfx.mojom.PointF'
p335
sg16
Nsbag1
(g61
g3
NtRp336
(dp337
g64
Nsg65
Nsg66
S'widget_position'
p338
sg15
Nsg19
Nsg68
S'gfx.mojom.PointF'
p339
sg16
Nsbag1
(g61
g3
NtRp340
(dp341
g64
Nsg65
Nsg66
S'source_device'
p342
sg15
Nsg19
Nsg68
S'GestureDevice'
p343
sg16
Nsbag1
(g61
g3
NtRp344
(dp345
g64
Nsg65
Nsg66
S'is_source_touch_event_set_non_blocking'
p346
sg15
Nsg19
Nsg68
S'bool'
p347
sg16
Nsbag1
(g61
g3
NtRp348
(dp349
g64
Nsg65
Nsg66
S'primary_pointer_type'
p350
sg15
Nsg19
Nsg68
S'PointerType'
p351
sg16
Nsbag1
(g61
g3
NtRp352
(dp353
g64
Nsg65
Nsg66
S'unique_touch_event_id'
p354
sg15
Nsg19
Nsg68
S'int32'
p355
sg16
Nsbag1
(g61
g3
NtRp356
(dp357
g64
Nsg65
Nsg66
S'resending_plugin_id'
p358
sg15
Nsg19
Nsg68
S'int32'
p359
sg16
Nsbag1
(g61
g3
NtRp360
(dp361
g64
Nsg65
Nsg66
S'contact_size'
p362
sg15
Nsg19
Nsg68
S'gfx.mojom.Size?'
p363
sg16
Nsbag1
(g61
g3
NtRp364
(dp365
g64
Nsg65
Nsg66
S'scroll_data'
p366
sg15
Nsg19
Nsg68
S'ScrollData?'
p367
sg16
Nsbag1
(g61
g3
NtRp368
(dp369
g64
Nsg65
Nsg66
S'pinch_data'
p370
sg15
Nsg19
Nsg68
S'PinchData?'
p371
sg16
Nsbag1
(g61
g3
NtRp372
(dp373
g64
Nsg65
Nsg66
S'tap_data'
p374
sg15
Nsg19
Nsg68
S'TapData?'
p375
sg16
Nsbag1
(g61
g3
NtRp376
(dp377
g64
Nsg65
Nsg66
S'fling_data'
p378
sg15
Nsg19
Nsg68
S'FlingData?'
p379
sg16
Nsbasg16
Nsg19
Nsbsg15
Nsg16
Nsg66
S'GestureData'
p380
sg19
Nsbag1
(g53
g3
NtRp381
(dp382
g56
g1
(g57
g3
NtRp383
(dp384
g10
(lp385
g1
(g61
g3
NtRp386
(dp387
g64
Nsg65
Nsg66
S'state'
p388
sg15
Nsg19
Nsg68
S'TouchState'
p389
sg16
Nsbag1
(g61
g3
NtRp390
(dp391
g64
Nsg65
Nsg66
S'radius_x'
p392
sg15
Nsg19
Nsg68
S'float'
p393
sg16
Nsbag1
(g61
g3
NtRp394
(dp395
g64
Nsg65
Nsg66
S'radius_y'
p396
sg15
Nsg19
Nsg68
S'float'
p397
sg16
Nsbag1
(g61
g3
NtRp398
(dp399
g64
Nsg65
Nsg66
S'rotation_angle'
p400
sg15
Nsg19
Nsg68
S'float'
p401
sg16
Nsbag1
(g61
g3
NtRp402
(dp403
g64
Nsg65
Nsg66
S'pointer_data'
p404
sg15
Nsg19
Nsg68
S'PointerData'
p405
sg16
Nsbasg16
Nsg19
Nsbsg15
Nsg16
Nsg66
S'TouchPoint'
p406
sg19
Nsbag1
(g53
g3
NtRp407
(dp408
g56
g1
(g57
g3
NtRp409
(dp410
g10
(lp411
g1
(g61
g3
NtRp412
(dp413
g64
Nsg65
Nsg66
S'cancelable'
p414
sg15
Nsg19
Nsg68
S'Cancelability'
p415
sg16
Nsbag1
(g61
g3
NtRp416
(dp417
g64
Nsg65
Nsg66
S'moved_beyond_slop_region'
p418
sg15
Nsg19
Nsg68
S'bool'
p419
sg16
Nsbag1
(g61
g3
NtRp420
(dp421
g64
Nsg65
Nsg66
S'touch_start_or_first_move'
p422
sg15
Nsg19
Nsg68
S'bool'
p423
sg16
Nsbag1
(g61
g3
NtRp424
(dp425
g64
Nsg65
Nsg66
S'hovering'
p426
sg15
Nsg19
Nsg68
S'bool'
p427
sg16
Nsbag1
(g61
g3
NtRp428
(dp429
g64
Nsg65
Nsg66
S'unique_touch_event_id'
p430
sg15
Nsg19
Nsg68
S'uint32'
p431
sg16
Nsbag1
(g61
g3
NtRp432
(dp433
g64
Nsg65
Nsg66
S'touches'
p434
sg15
Nsg19
Nsg68
S'TouchPoint[]'
p435
sg16
Nsbasg16
Nsg19
Nsbsg15
Nsg16
Nsg66
S'TouchData'
p436
sg19
Nsbag1
(g53
g3
NtRp437
(dp438
g56
g1
(g57
g3
NtRp439
(dp440
g10
(lp441
g1
(g61
g3
NtRp442
(dp443
g64
Nsg65
Nsg66
S'type'
p444
sg15
Nsg19
Nsg68
S'EventType'
p445
sg16
Nsbag1
(g61
g3
NtRp446
(dp447
g64
Nsg65
Nsg66
S'modifiers'
p448
sg15
Nsg19
Nsg68
S'int32'
p449
sg16
Nsbag1
(g61
g3
NtRp450
(dp451
g64
Nsg65
Nsg66
S'timestamp'
p452
sg15
Nsg19
Nsg68
S'mojo_base.mojom.TimeTicks'
p453
sg16
Nsbag1
(g61
g3
NtRp454
(dp455
g64
Nsg65
Nsg66
S'latency'
p456
sg15
Nsg19
Nsg68
S'ui.mojom.LatencyInfo'
p457
sg16
Nsbag1
(g61
g3
NtRp458
(dp459
g64
Nsg65
Nsg66
S'key_data'
p460
sg15
Nsg19
Nsg68
S'KeyData?'
p461
sg16
Nsbag1
(g61
g3
NtRp462
(dp463
g64
Nsg65
Nsg66
S'pointer_data'
p464
sg15
Nsg19
Nsg68
S'PointerData?'
p465
sg16
Nsbag1
(g61
g3
NtRp466
(dp467
g64
Nsg65
Nsg66
S'gesture_data'
p468
sg15
Nsg19
Nsg68
S'GestureData?'
p469
sg16
Nsbag1
(g61
g3
NtRp470
(dp471
g64
Nsg65
Nsg66
S'touch_data'
p472
sg15
Nsg19
Nsg68
S'TouchData?'
p473
sg16
Nsbasg16
Nsg19
Nsbsg15
Nsg16
Nsg66
S'Event'
p474
sg19
Nsbag1
(g53
g3
NtRp475
(dp476
g56
g1
(g57
g3
NtRp477
(dp478
g10
(lp479
g1
(g61
g3
NtRp480
(dp481
g64
Nsg65
Nsg66
S'touch_action'
p482
sg15
Nsg19
Nsg68
S'TouchAction'
p483
sg16
Nsbasg16
Nsg19
Nsbsg15
Nsg16
Nsg66
S'TouchActionOptional'
p484
sg19
Nsbag1
(cmojom.parse.ast
Interface
p485
g3
NtRp486
(dp487
g56
g1
(cmojom.parse.ast
InterfaceBody
p488
g3
NtRp489
(dp490
g10
(lp491
g1
(cmojom.parse.ast
Method
p492
g3
NtRp493
(dp494
g64
Nsg66
S'CancelTouchTimeout'
p495
sS'parameter_list'
p496
g1
(cmojom.parse.ast
ParameterList
p497
g3
NtRp498
(dp499
g10
(lp500
sg16
Nsg19
Nsbsg15
Nsg19
Nsg16
NsS'response_parameter_list'
p501
Nsbag1
(g492
g3
NtRp502
(dp503
g64
Nsg66
S'SetWhiteListedTouchAction'
p504
sg496
g1
(g497
g3
NtRp505
(dp506
g10
(lp507
g1
(cmojom.parse.ast
Parameter
p508
g3
NtRp509
(dp510
g64
Nsg66
S'touch_action'
p511
sg15
Nsg19
g20
sg68
S'TouchAction'
p512
sg16
I170
sbag1
(g508
g3
NtRp513
(dp514
g64
Nsg66
S'unique_touch_event_id'
p515
sg15
Nsg19
g20
sg68
S'uint32'
p516
sg16
I171
sbag1
(g508
g3
NtRp517
(dp518
g64
Nsg66
S'state'
p519
sg15
Nsg19
g20
sg68
S'InputEventAckState'
p520
sg16
I172
sbasg16
I170
sg19
g20
sbsg15
Nsg19
Nsg16
Nsg501
Nsbag1
(g492
g3
NtRp521
(dp522
g64
Nsg66
S'DidOverscroll'
p523
sg496
g1
(g497
g3
NtRp524
(dp525
g10
(lp526
g1
(g508
g3
NtRp527
(dp528
g64
Nsg66
S'params'
p529
sg15
Nsg19
g20
sg68
S'DidOverscrollParams'
p530
sg16
I176
sbasg16
I176
sg19
g20
sbsg15
Nsg19
Nsg16
Nsg501
Nsbag1
(g492
g3
NtRp531
(dp532
g64
Nsg66
S'DidStopFlinging'
p533
sg496
g1
(g497
g3
NtRp534
(dp535
g10
(lp536
sg16
Nsg19
Nsbsg15
Nsg19
Nsg16
Nsg501
Nsbag1
(g492
g3
NtRp537
(dp538
g64
Nsg66
S'DidStartScrollingViewport'
p539
sg496
g1
(g497
g3
NtRp540
(dp541
g10
(lp542
sg16
Nsg19
Nsbsg15
Nsg19
Nsg16
Nsg501
Nsbag1
(g492
g3
NtRp543
(dp544
g64
Nsg66
S'ImeCancelComposition'
p545
sg496
g1
(g497
g3
NtRp546
(dp547
g10
(lp548
sg16
Nsg19
Nsbsg15
Nsg19
Nsg16
Nsg501
Nsbag1
(g492
g3
NtRp549
(dp550
g64
Nsg66
S'ImeCompositionRangeChanged'
p551
sg496
g1
(g497
g3
NtRp552
(dp553
g10
(lp554
g1
(g508
g3
NtRp555
(dp556
g64
Nsg66
S'range'
p557
sg15
Nsg19
g20
sg68
S'gfx.mojom.Range'
p558
sg16
I189
sbag1
(g508
g3
NtRp559
(dp560
g64
Nsg66
S'bounds'
p561
sg15
Nsg19
g20
sg68
S'gfx.mojom.Rect[]'
p562
sg16
I190
sbasg16
I189
sg19
g20
sbsg15
Nsg19
Nsg16
Nsg501
Nsbasg16
Nsg19
Nsbsg15
Nsg16
Nsg66
S'WidgetInputHandlerHost'
p563
sg19
Nsbag1
(g485
g3
NtRp564
(dp565
g56
g1
(g488
g3
NtRp566
(dp567
g10
(lp568
g1
(g492
g3
NtRp569
(dp570
g64
Nsg66
S'SetFocus'
p571
sg496
g1
(g497
g3
NtRp572
(dp573
g10
(lp574
g1
(g508
g3
NtRp575
(dp576
g64
Nsg66
S'focused'
p577
sg15
Nsg19
g20
sg68
S'bool'
p578
sg16
I198
sbasg16
I198
sg19
g20
sbsg15
Nsg19
Nsg16
Nsg501
Nsbag1
(g492
g3
NtRp579
(dp580
g64
Nsg66
S'MouseCaptureLost'
p581
sg496
g1
(g497
g3
NtRp582
(dp583
g10
(lp584
sg16
Nsg19
Nsbsg15
Nsg19
Nsg16
Nsg501
Nsbag1
(g492
g3
NtRp585
(dp586
g64
Nsg66
S'SetEditCommandsForNextKeyEvent'
p587
sg496
g1
(g497
g3
NtRp588
(dp589
g10
(lp590
g1
(g508
g3
NtRp591
(dp592
g64
Nsg66
S'commands'
p593
sg15
Nsg19
g20
sg68
S'content.mojom.EditCommand[]'
p594
sg16
I215
sbasg16
I215
sg19
g20
sbsg15
Nsg19
Nsg16
Nsg501
Nsbag1
(g492
g3
NtRp595
(dp596
g64
Nsg66
S'CursorVisibilityChanged'
p597
sg496
g1
(g497
g3
NtRp598
(dp599
g10
(lp600
g1
(g508
g3
NtRp601
(dp602
g64
Nsg66
S'visible'
p603
sg15
Nsg19
g20
sg68
S'bool'
p604
sg16
I218
sbasg16
I218
sg19
g20
sbsg15
Nsg19
Nsg16
Nsg501
Nsbag1
(g492
g3
NtRp605
(dp606
g64
Nsg66
S'ImeSetComposition'
p607
sg496
g1
(g497
g3
NtRp608
(dp609
g10
(lp610
g1
(g508
g3
NtRp611
(dp612
g64
Nsg66
S'text'
p613
sg15
Nsg19
g20
sg68
S'mojo_base.mojom.String16'
p614
sg16
I221
sbag1
(g508
g3
NtRp615
(dp616
g64
Nsg66
S'ime_text_spans'
p617
sg15
Nsg19
g20
sg68
S'ui.mojom.ImeTextSpan[]'
p618
sg16
I222
sbag1
(g508
g3
NtRp619
(dp620
g64
Nsg66
S'range'
p621
sg15
Nsg19
g20
sg68
S'gfx.mojom.Range'
p622
sg16
I223
sbag1
(g508
g3
NtRp623
(dp624
g64
Nsg66
S'start'
p625
sg15
Nsg19
g20
sg68
S'int32'
p626
sg16
I223
sbag1
(g508
g3
NtRp627
(dp628
g64
Nsg66
S'end'
p629
sg15
Nsg19
g20
sg68
S'int32'
p630
sg16
I223
sbasg16
I221
sg19
g20
sbsg15
Nsg19
Nsg16
Nsg501
Nsbag1
(g492
g3
NtRp631
(dp632
g64
Nsg66
S'ImeCommitText'
p633
sg496
g1
(g497
g3
NtRp634
(dp635
g10
(lp636
g1
(g508
g3
NtRp637
(dp638
g64
Nsg66
S'text'
p639
sg15
Nsg19
g20
sg68
S'mojo_base.mojom.String16'
p640
sg16
I227
sbag1
(g508
g3
NtRp641
(dp642
g64
Nsg66
S'ime_text_spans'
p643
sg15
Nsg19
g20
sg68
S'ui.mojom.ImeTextSpan[]'
p644
sg16
I228
sbag1
(g508
g3
NtRp645
(dp646
g64
Nsg66
S'range'
p647
sg15
Nsg19
g20
sg68
S'gfx.mojom.Range'
p648
sg16
I229
sbag1
(g508
g3
NtRp649
(dp650
g64
Nsg66
S'relative_cursor_position'
p651
sg15
Nsg19
g20
sg68
S'int32'
p652
sg16
I229
sbasg16
I227
sg19
g20
sbsg15
Nsg19
Nsg16
Nsg501
Nsbag1
(g492
g3
NtRp653
(dp654
g64
Nsg66
S'ImeFinishComposingText'
p655
sg496
g1
(g497
g3
NtRp656
(dp657
g10
(lp658
g1
(g508
g3
NtRp659
(dp660
g64
Nsg66
S'keep_selection'
p661
sg15
Nsg19
g20
sg68
S'bool'
p662
sg16
I232
sbasg16
I232
sg19
g20
sbsg15
Nsg19
Nsg16
Nsg501
Nsbag1
(g492
g3
NtRp663
(dp664
g64
Nsg66
S'RequestTextInputStateUpdate'
p665
sg496
g1
(g497
g3
NtRp666
(dp667
g10
(lp668
sg16
Nsg19
Nsbsg15
Nsg19
Nsg16
Nsg501
Nsbag1
(g492
g3
NtRp669
(dp670
g64
Nsg66
S'RequestCompositionUpdates'
p671
sg496
g1
(g497
g3
NtRp672
(dp673
g10
(lp674
g1
(g508
g3
NtRp675
(dp676
g64
Nsg66
S'immediate_request'
p677
sg15
Nsg19
g20
sg68
S'bool'
p678
sg16
I243
sbag1
(g508
g3
NtRp679
(dp680
g64
Nsg66
S'monitor_request'
p681
sg15
Nsg19
g20
sg68
S'bool'
p682
sg16
I243
sbasg16
I243
sg19
g20
sbsg15
Nsg19
Nsg16
Nsg501
Nsbag1
(g492
g3
NtRp683
(dp684
g64
Nsg66
S'DispatchEvent'
p685
sg496
g1
(g497
g3
NtRp686
(dp687
g10
(lp688
g1
(g508
g3
NtRp689
(dp690
g64
Nsg66
S'event'
p691
sg15
Nsg19
g20
sg68
S'Event'
p692
sg16
I250
sbasg16
I250
sg19
g20
sbsg15
Nsg19
Nsg16
Nsg501
g1
(g497
g3
NtRp693
(dp694
g10
(lp695
g1
(g508
g3
NtRp696
(dp697
g64
Nsg66
S'source'
p698
sg15
Nsg19
g20
sg68
S'InputEventAckSource'
p699
sg16
I251
sbag1
(g508
g3
NtRp700
(dp701
g64
Nsg66
S'updated_latency'
p702
sg15
Nsg19
g20
sg68
S'ui.mojom.LatencyInfo'
p703
sg16
I251
sbag1
(g508
g3
NtRp704
(dp705
g64
Nsg66
S'state'
p706
sg15
Nsg19
g20
sg68
S'InputEventAckState'
p707
sg16
I252
sbag1
(g508
g3
NtRp708
(dp709
g64
Nsg66
S'overscroll'
p710
sg15
Nsg19
g20
sg68
S'DidOverscrollParams?'
p711
sg16
I252
sbag1
(g508
g3
NtRp712
(dp713
g64
Nsg66
S'touch_action'
p714
sg15
Nsg19
g20
sg68
S'TouchActionOptional?'
p715
sg16
I253
sbasg16
I251
sg19
g20
sbsbag1
(g492
g3
NtRp716
(dp717
g64
Nsg66
S'DispatchNonBlockingEvent'
p718
sg496
g1
(g497
g3
NtRp719
(dp720
g10
(lp721
g1
(g508
g3
NtRp722
(dp723
g64
Nsg66
S'event'
p724
sg15
Nsg19
g20
sg68
S'Event'
p725
sg16
I258
sbasg16
I258
sg19
g20
sbsg15
Nsg19
Nsg16
Nsg501
Nsbag1
(g492
g3
NtRp726
(dp727
g64
Nsg66
S'AttachSynchronousCompositor'
p728
sg496
g1
(g497
g3
NtRp729
(dp730
g10
(lp731
g1
(g508
g3
NtRp732
(dp733
g64
Nsg66
S'control_host'
p734
sg15
Nsg19
g20
sg68
S'SynchronousCompositorControlHost'
p735
sg16
I263
sbag1
(g508
g3
NtRp736
(dp737
g64
Nsg66
S'host'
p738
sg15
Nsg19
g20
sg68
S'asso<SynchronousCompositorHost>'
p739
sg16
I264
sbag1
(g508
g3
NtRp740
(dp741
g64
Nsg66
S'compositor_request'
p742
sg15
Nsg19
g20
sg68
S'asso<SynchronousCompositor&>'
p743
sg16
I265
sbasg16
I263
sg19
g20
sbsg15
Nsg19
Nsg16
Nsg501
Nsbasg16
Nsg19
Nsbsg15
Nsg16
Nsg66
S'WidgetInputHandler'
p744
sg19
Nsbag1
(g485
g3
NtRp745
(dp746
g56
g1
(g488
g3
NtRp747
(dp748
g10
(lp749
g1
(g492
g3
NtRp750
(dp751
g64
Nsg66
S'SetCompositionFromExistingText'
p752
sg496
g1
(g497
g3
NtRp753
(dp754
g10
(lp755
g1
(g508
g3
NtRp756
(dp757
g64
Nsg66
S'start'
p758
sg15
Nsg19
g20
sg68
S'int32'
p759
sg16
I277
sbag1
(g508
g3
NtRp760
(dp761
g64
Nsg66
S'end'
p762
sg15
Nsg19
g20
sg68
S'int32'
p763
sg16
I277
sbag1
(g508
g3
NtRp764
(dp765
g64
Nsg66
S'ime_text_spans'
p766
sg15
Nsg19
g20
sg68
S'ui.mojom.ImeTextSpan[]'
p767
sg16
I277
sbasg16
I277
sg19
g20
sbsg15
Nsg19
Nsg16
Nsg501
Nsbag1
(g492
g3
NtRp768
(dp769
g64
Nsg66
S'ExtendSelectionAndDelete'
p770
sg496
g1
(g497
g3
NtRp771
(dp772
g10
(lp773
g1
(g508
g3
NtRp774
(dp775
g64
Nsg66
S'before'
p776
sg15
Nsg19
g20
sg68
S'int32'
p777
sg16
I281
sbag1
(g508
g3
NtRp778
(dp779
g64
Nsg66
S'after'
p780
sg15
Nsg19
g20
sg68
S'int32'
p781
sg16
I281
sbasg16
I281
sg19
g20
sbsg15
Nsg19
Nsg16
Nsg501
Nsbag1
(g492
g3
NtRp782
(dp783
g64
Nsg66
S'DeleteSurroundingText'
p784
sg496
g1
(g497
g3
NtRp785
(dp786
g10
(lp787
g1
(g508
g3
NtRp788
(dp789
g64
Nsg66
S'before'
p790
sg15
Nsg19
g20
sg68
S'int32'
p791
sg16
I286
sbag1
(g508
g3
NtRp792
(dp793
g64
Nsg66
S'after'
p794
sg15
Nsg19
g20
sg68
S'int32'
p795
sg16
I286
sbasg16
I286
sg19
g20
sbsg15
Nsg19
Nsg16
Nsg501
Nsbag1
(g492
g3
NtRp796
(dp797
g64
Nsg66
S'DeleteSurroundingTextInCodePoints'
p798
sg496
g1
(g497
g3
NtRp799
(dp800
g10
(lp801
g1
(g508
g3
NtRp802
(dp803
g64
Nsg66
S'before'
p804
sg15
Nsg19
g20
sg68
S'int32'
p805
sg16
I292
sbag1
(g508
g3
NtRp806
(dp807
g64
Nsg66
S'after'
p808
sg15
Nsg19
g20
sg68
S'int32'
p809
sg16
I292
sbasg16
I292
sg19
g20
sbsg15
Nsg19
Nsg16
Nsg501
Nsbag1
(g492
g3
NtRp810
(dp811
g64
Nsg66
S'SetEditableSelectionOffsets'
p812
sg496
g1
(g497
g3
NtRp813
(dp814
g10
(lp815
g1
(g508
g3
NtRp816
(dp817
g64
Nsg66
S'start'
p818
sg15
Nsg19
g20
sg68
S'int32'
p819
sg16
I296
sbag1
(g508
g3
NtRp820
(dp821
g64
Nsg66
S'end'
p822
sg15
Nsg19
g20
sg68
S'int32'
p823
sg16
I296
sbasg16
I296
sg19
g20
sbsg15
Nsg19
Nsg16
Nsg501
Nsbag1
(g492
g3
NtRp824
(dp825
g64
Nsg66
S'ExecuteEditCommand'
p826
sg496
g1
(g497
g3
NtRp827
(dp828
g10
(lp829
g1
(g508
g3
NtRp830
(dp831
g64
Nsg66
S'command'
p832
sg15
Nsg19
g20
sg68
S'string'
p833
sg16
I299
sbag1
(g508
g3
NtRp834
(dp835
g64
Nsg66
S'value'
p836
sg15
Nsg19
g20
sg68
S'mojo_base.mojom.String16?'
p837
sg16
I299
sbasg16
I299
sg19
g20
sbsg15
Nsg19
Nsg16
Nsg501
Nsbag1
(g492
g3
NtRp838
(dp839
g64
Nsg66
S'Undo'
p840
sg496
g1
(g497
g3
NtRp841
(dp842
g10
(lp843
sg16
Nsg19
Nsbsg15
Nsg19
Nsg16
Nsg501
Nsbag1
(g492
g3
NtRp844
(dp845
g64
Nsg66
S'Redo'
p846
sg496
g1
(g497
g3
NtRp847
(dp848
g10
(lp849
sg16
Nsg19
Nsbsg15
Nsg19
Nsg16
Nsg501
Nsbag1
(g492
g3
NtRp850
(dp851
g64
Nsg66
S'Cut'
p852
sg496
g1
(g497
g3
NtRp853
(dp854
g10
(lp855
sg16
Nsg19
Nsbsg15
Nsg19
Nsg16
Nsg501
Nsbag1
(g492
g3
NtRp856
(dp857
g64
Nsg66
S'Copy'
p858
sg496
g1
(g497
g3
NtRp859
(dp860
g10
(lp861
sg16
Nsg19
Nsbsg15
Nsg19
Nsg16
Nsg501
Nsbag1
(g492
g3
NtRp862
(dp863
g64
Nsg66
S'CopyToFindPboard'
p864
sg496
g1
(g497
g3
NtRp865
(dp866
g10
(lp867
sg16
Nsg19
Nsbsg15
Nsg19
Nsg16
Nsg501
Nsbag1
(g492
g3
NtRp868
(dp869
g64
Nsg66
S'Paste'
p870
sg496
g1
(g497
g3
NtRp871
(dp872
g10
(lp873
sg16
Nsg19
Nsbsg15
Nsg19
Nsg16
Nsg501
Nsbag1
(g492
g3
NtRp874
(dp875
g64
Nsg66
S'PasteAndMatchStyle'
p876
sg496
g1
(g497
g3
NtRp877
(dp878
g10
(lp879
sg16
Nsg19
Nsbsg15
Nsg19
Nsg16
Nsg501
Nsbag1
(g492
g3
NtRp880
(dp881
g64
Nsg66
S'Delete'
p882
sg496
g1
(g497
g3
NtRp883
(dp884
g10
(lp885
sg16
Nsg19
Nsbsg15
Nsg19
Nsg16
Nsg501
Nsbag1
(g492
g3
NtRp886
(dp887
g64
Nsg66
S'SelectAll'
p888
sg496
g1
(g497
g3
NtRp889
(dp890
g10
(lp891
sg16
Nsg19
Nsbsg15
Nsg19
Nsg16
Nsg501
Nsbag1
(g492
g3
NtRp892
(dp893
g64
Nsg66
S'CollapseSelection'
p894
sg496
g1
(g497
g3
NtRp895
(dp896
g10
(lp897
sg16
Nsg19
Nsbsg15
Nsg19
Nsg16
Nsg501
Nsbag1
(g492
g3
NtRp898
(dp899
g64
Nsg66
S'Replace'
p900
sg496
g1
(g497
g3
NtRp901
(dp902
g10
(lp903
g1
(g508
g3
NtRp904
(dp905
g64
Nsg66
S'word'
p906
sg15
Nsg19
g20
sg68
S'mojo_base.mojom.String16'
p907
sg16
I316
sbasg16
I316
sg19
g20
sbsg15
Nsg19
Nsg16
Nsg501
Nsbag1
(g492
g3
NtRp908
(dp909
g64
Nsg66
S'ReplaceMisspelling'
p910
sg496
g1
(g497
g3
NtRp911
(dp912
g10
(lp913
g1
(g508
g3
NtRp914
(dp915
g64
Nsg66
S'word'
p916
sg15
Nsg19
g20
sg68
S'mojo_base.mojom.String16'
p917
sg16
I319
sbasg16
I319
sg19
g20
sbsg15
Nsg19
Nsg16
Nsg501
Nsbag1
(g492
g3
NtRp918
(dp919
g64
Nsg66
S'SelectRange'
p920
sg496
g1
(g497
g3
NtRp921
(dp922
g10
(lp923
g1
(g508
g3
NtRp924
(dp925
g64
Nsg66
S'base'
p926
sg15
Nsg19
g20
sg68
S'gfx.mojom.Point'
p927
sg16
I323
sbag1
(g508
g3
NtRp928
(dp929
g64
Nsg66
S'extent'
p930
sg15
Nsg19
g20
sg68
S'gfx.mojom.Point'
p931
sg16
I323
sbasg16
I323
sg19
g20
sbsg15
Nsg19
Nsg16
Nsg501
Nsbag1
(g492
g3
NtRp932
(dp933
g64
Nsg66
S'AdjustSelectionByCharacterOffset'
p934
sg496
g1
(g497
g3
NtRp935
(dp936
g10
(lp937
g1
(g508
g3
NtRp938
(dp939
g64
Nsg66
S'start'
p940
sg15
Nsg19
g20
sg68
S'int32'
p941
sg16
I331
sbag1
(g508
g3
NtRp942
(dp943
g64
Nsg66
S'end'
p944
sg15
Nsg19
g20
sg68
S'int32'
p945
sg16
I331
sbag1
(g508
g3
NtRp946
(dp947
g64
Nsg66
S'behavior'
p948
sg15
Nsg19
g20
sg68
S'blink.mojom.SelectionMenuBehavior'
p949
sg16
I331
sbasg16
I331
sg19
g20
sbsg15
Nsg19
Nsg16
Nsg501
Nsbag1
(g492
g3
NtRp950
(dp951
g64
Nsg66
S'MoveRangeSelectionExtent'
p952
sg496
g1
(g497
g3
NtRp953
(dp954
g10
(lp955
g1
(g508
g3
NtRp956
(dp957
g64
Nsg66
S'extent'
p958
sg15
Nsg19
g20
sg68
S'gfx.mojom.Point'
p959
sg16
I335
sbasg16
I335
sg19
g20
sbsg15
Nsg19
Nsg16
Nsg501
Nsbag1
(g492
g3
NtRp960
(dp961
g64
Nsg66
S'ScrollFocusedEditableNodeIntoRect'
p962
sg496
g1
(g497
g3
NtRp963
(dp964
g10
(lp965
g1
(g508
g3
NtRp966
(dp967
g64
Nsg66
S'rect'
p968
sg15
Nsg19
g20
sg68
S'gfx.mojom.Rect'
p969
sg16
I340
sbasg16
I340
sg19
g20
sbsg15
Nsg19
Nsg16
Nsg501
Nsbag1
(g492
g3
NtRp970
(dp971
g64
Nsg66
S'MoveCaret'
p972
sg496
g1
(g497
g3
NtRp973
(dp974
g10
(lp975
g1
(g508
g3
NtRp976
(dp977
g64
Nsg66
S'point'
p978
sg15
Nsg19
g20
sg68
S'gfx.mojom.Point'
p979
sg16
I343
sbasg16
I343
sg19
g20
sbsg15
Nsg19
Nsg16
Nsg501
Nsbag1
(g492
g3
NtRp980
(dp981
g64
Nsg66
S'GetWidgetInputHandler'
p982
sg496
g1
(g497
g3
NtRp983
(dp984
g10
(lp985
g1
(g508
g3
NtRp986
(dp987
g64
Nsg66
S'interface_request'
p988
sg15
Nsg19
g20
sg68
S'asso<WidgetInputHandler&>'
p989
sg16
I348
sbag1
(g508
g3
NtRp990
(dp991
g64
Nsg66
S'host'
p992
sg15
Nsg19
g20
sg68
S'WidgetInputHandlerHost'
p993
sg16
I349
sbasg16
I348
sg19
g20
sbsg15
Nsg19
Nsg16
Nsg501
Nsbasg16
Nsg19
Nsbsg15
Nsg16
Nsg66
S'FrameInputHandler'
p994
sg19
Nsbasg16
NsS'module'
p995
g1
(cmojom.parse.ast
Module
p996
g3
NtRp997
(dp998
S'mojom_namespace'
p999
(S'IDENTIFIER'
p1000
S'content.mojom'
tp1001
sg16
I5
sg15
Nsg19
g20
sbsg19
Nsb.