ccopy_reg
_reconstructor
p1
(cmojom.parse.ast
Mojom
p2
c__builtin__
object
p3
NtRp4
(dp5
S'import_list'
p6
g1
(cmojom.parse.ast
ImportList
p7
g3
NtRp8
(dp9
S'items'
p10
(lp11
g1
(cmojom.parse.ast
Import
p12
g3
NtRp13
(dp14
S'attribute_list'
p15
NsS'lineno'
p16
I7
sS'import_filename'
p17
S'mojo/public/mojom/base/time.mojom'
p18
sS'filename'
p19
S'../../content/common/input/synchronous_compositor.mojom'
p20
sbag1
(g12
g3
NtRp21
(dp22
g15
Nsg16
I8
sg17
S'ui/gfx/geometry/mojo/geometry.mojom'
p23
sg19
g20
sbag1
(g12
g3
NtRp24
(dp25
g15
Nsg16
I9
sg17
S'services/viz/public/interfaces/compositing/begin_frame_args.mojom'
p26
sg19
g20
sbag1
(g12
g3
NtRp27
(dp28
g15
Nsg16
I10
sg17
S'services/viz/public/interfaces/compositing/compositor_frame.mojom'
p29
sg19
g20
sbag1
(g12
g3
NtRp30
(dp31
g15
Nsg16
I11
sg17
S'services/viz/public/interfaces/compositing/compositor_frame_metadata.mojom'
p32
sg19
g20
sbag1
(g12
g3
NtRp33
(dp34
g15
Nsg16
I12
sg17
S'services/viz/public/interfaces/compositing/returned_resource.mojom'
p35
sg19
g20
sbasg16
I7
sg19
g20
sbsS'definition_list'
p36
(lp37
g1
(cmojom.parse.ast
Struct
p38
g3
NtRp39
(dp40
S'body'
p41
Nsg15
g1
(cmojom.parse.ast
AttributeList
p42
g3
NtRp43
(dp44
g10
(lp45
g1
(cmojom.parse.ast
Attribute
p46
g3
NtRp47
(dp48
S'value'
p49
I01
sg16
I14
sS'key'
p50
S'Native'
p51
sg19
g20
sbasg16
I14
sg19
g20
sbsg16
NsS'mojom_name'
p52
S'SyncCompositorDemandDrawHwParams'
p53
sg19
Nsbag1
(g38
g3
NtRp54
(dp55
g41
Nsg15
g1
(g42
g3
NtRp56
(dp57
g10
(lp58
g1
(g46
g3
NtRp59
(dp60
g49
I01
sg16
I17
sg50
S'Native'
p61
sg19
g20
sbasg16
I17
sg19
g20
sbsg16
Nsg52
S'SyncCompositorSetSharedMemoryParams'
p62
sg19
Nsbag1
(g38
g3
NtRp63
(dp64
g41
Nsg15
g1
(g42
g3
NtRp65
(dp66
g10
(lp67
g1
(g46
g3
NtRp68
(dp69
g49
I01
sg16
I20
sg50
S'Native'
p70
sg19
g20
sbasg16
I20
sg19
g20
sbsg16
Nsg52
S'SyncCompositorDemandDrawSwParams'
p71
sg19
Nsbag1
(g38
g3
NtRp72
(dp73
g41
Nsg15
g1
(g42
g3
NtRp74
(dp75
g10
(lp76
g1
(g46
g3
NtRp77
(dp78
g49
I01
sg16
I23
sg50
S'Native'
p79
sg19
g20
sbasg16
I23
sg19
g20
sbsg16
Nsg52
S'SyncCompositorCommonRendererParams'
p80
sg19
Nsbag1
(cmojom.parse.ast
Interface
p81
g3
NtRp82
(dp83
g41
g1
(cmojom.parse.ast
InterfaceBody
p84
g3
NtRp85
(dp86
g10
(lp87
g1
(cmojom.parse.ast
Method
p88
g3
NtRp89
(dp90
S'ordinal'
p91
Nsg52
S'ComputeScroll'
p92
sS'parameter_list'
p93
g1
(cmojom.parse.ast
ParameterList
p94
g3
NtRp95
(dp96
g10
(lp97
g1
(cmojom.parse.ast
Parameter
p98
g3
NtRp99
(dp100
g91
Nsg52
S'time'
p101
sg15
Nsg19
g20
sS'typename'
p102
S'mojo_base.mojom.TimeTicks'
p103
sg16
I33
sbasg16
I33
sg19
g20
sbsg15
Nsg19
Nsg16
NsS'response_parameter_list'
p104
Nsbag1
(g88
g3
NtRp105
(dp106
g91
Nsg52
S'DemandDrawHwAsync'
p107
sg93
g1
(g94
g3
NtRp108
(dp109
g10
(lp110
g1
(g98
g3
NtRp111
(dp112
g91
Nsg52
S'draw_params'
p113
sg15
Nsg19
g20
sg102
S'SyncCompositorDemandDrawHwParams'
p114
sg16
I37
sbasg16
I37
sg19
g20
sbsg15
Nsg19
Nsg16
Nsg104
Nsbag1
(g88
g3
NtRp115
(dp116
g91
Nsg52
S'DemandDrawHw'
p117
sg93
g1
(g94
g3
NtRp118
(dp119
g10
(lp120
g1
(g98
g3
NtRp121
(dp122
g91
Nsg52
S'draw_params'
p123
sg15
Nsg19
g20
sg102
S'SyncCompositorDemandDrawHwParams'
p124
sg16
I41
sbasg16
I41
sg19
g20
sbsg15
g1
(g42
g3
NtRp125
(dp126
g10
(lp127
g1
(g46
g3
NtRp128
(dp129
g49
I01
sg16
I40
sg50
S'Sync'
p130
sg19
g20
sbasg16
I40
sg19
g20
sbsg19
Nsg16
Nsg104
g1
(g94
g3
NtRp131
(dp132
g10
(lp133
g1
(g98
g3
NtRp134
(dp135
g91
Nsg52
S'result'
p136
sg15
Nsg19
g20
sg102
S'SyncCompositorCommonRendererParams'
p137
sg16
I42
sbag1
(g98
g3
NtRp138
(dp139
g91
Nsg52
S'layer_tree_frame_sink_id'
p140
sg15
Nsg19
g20
sg102
S'uint32'
p141
sg16
I43
sbag1
(g98
g3
NtRp142
(dp143
g91
Nsg52
S'metadata_version'
p144
sg15
Nsg19
g20
sg102
S'uint32'
p145
sg16
I44
sbag1
(g98
g3
NtRp146
(dp147
g91
Nsg52
S'frame'
p148
sg15
Nsg19
g20
sg102
S'viz.mojom.CompositorFrame?'
p149
sg16
I45
sbasg16
I42
sg19
g20
sbsbag1
(g88
g3
NtRp150
(dp151
g91
Nsg52
S'SetSharedMemory'
p152
sg93
g1
(g94
g3
NtRp153
(dp154
g10
(lp155
g1
(g98
g3
NtRp156
(dp157
g91
Nsg52
S'params'
p158
sg15
Nsg19
g20
sg102
S'SyncCompositorSetSharedMemoryParams'
p159
sg16
I51
sbasg16
I51
sg19
g20
sbsg15
g1
(g42
g3
NtRp160
(dp161
g10
(lp162
g1
(g46
g3
NtRp163
(dp164
g49
I01
sg16
I51
sg50
S'Sync'
p165
sg19
g20
sbasg16
I51
sg19
g20
sbsg19
Nsg16
Nsg104
g1
(g94
g3
NtRp166
(dp167
g10
(lp168
g1
(g98
g3
NtRp169
(dp170
g91
Nsg52
S'success'
p171
sg15
Nsg19
g20
sg102
S'bool'
p172
sg16
I52
sbag1
(g98
g3
NtRp173
(dp174
g91
Nsg52
S'result'
p175
sg15
Nsg19
g20
sg102
S'SyncCompositorCommonRendererParams'
p176
sg16
I52
sbasg16
I52
sg19
g20
sbsbag1
(g88
g3
NtRp177
(dp178
g91
Nsg52
S'DemandDrawSw'
p179
sg93
g1
(g94
g3
NtRp180
(dp181
g10
(lp182
g1
(g98
g3
NtRp183
(dp184
g91
Nsg52
S'draw_params'
p185
sg15
Nsg19
g20
sg102
S'SyncCompositorDemandDrawSwParams'
p186
sg16
I55
sbasg16
I55
sg19
g20
sbsg15
g1
(g42
g3
NtRp187
(dp188
g10
(lp189
g1
(g46
g3
NtRp190
(dp191
g49
I01
sg16
I55
sg50
S'Sync'
p192
sg19
g20
sbasg16
I55
sg19
g20
sbsg19
Nsg16
Nsg104
g1
(g94
g3
NtRp193
(dp194
g10
(lp195
g1
(g98
g3
NtRp196
(dp197
g91
Nsg52
S'result'
p198
sg15
Nsg19
g20
sg102
S'SyncCompositorCommonRendererParams'
p199
sg16
I56
sbag1
(g98
g3
NtRp200
(dp201
g91
Nsg52
S'metadata_version'
p202
sg15
Nsg19
g20
sg102
S'uint32'
p203
sg16
I57
sbag1
(g98
g3
NtRp204
(dp205
g91
Nsg52
S'meta_data'
p206
sg15
Nsg19
g20
sg102
S'viz.mojom.CompositorFrameMetadata?'
p207
sg16
I58
sbasg16
I56
sg19
g20
sbsbag1
(g88
g3
NtRp208
(dp209
g91
Nsg52
S'ZeroSharedMemory'
p210
sg93
g1
(g94
g3
NtRp211
(dp212
g10
(lp213
sg16
Nsg19
Nsbsg15
Nsg19
Nsg16
Nsg104
Nsbag1
(g88
g3
NtRp214
(dp215
g91
Nsg52
S'ZoomBy'
p216
sg93
g1
(g94
g3
NtRp217
(dp218
g10
(lp219
g1
(g98
g3
NtRp220
(dp221
g91
Nsg52
S'delta'
p222
sg15
Nsg19
g20
sg102
S'float'
p223
sg16
I68
sbag1
(g98
g3
NtRp224
(dp225
g91
Nsg52
S'anchor'
p226
sg15
Nsg19
g20
sg102
S'gfx.mojom.Point'
p227
sg16
I68
sbasg16
I68
sg19
g20
sbsg15
g1
(g42
g3
NtRp228
(dp229
g10
(lp230
g1
(g46
g3
NtRp231
(dp232
g49
I01
sg16
I68
sg50
S'Sync'
p233
sg19
g20
sbasg16
I68
sg19
g20
sbsg19
Nsg16
Nsg104
g1
(g94
g3
NtRp234
(dp235
g10
(lp236
g1
(g98
g3
NtRp237
(dp238
g91
Nsg52
S'result'
p239
sg15
Nsg19
g20
sg102
S'SyncCompositorCommonRendererParams'
p240
sg16
I69
sbasg16
I69
sg19
g20
sbsbag1
(g88
g3
NtRp241
(dp242
g91
Nsg52
S'SetMemoryPolicy'
p243
sg93
g1
(g94
g3
NtRp244
(dp245
g10
(lp246
g1
(g98
g3
NtRp247
(dp248
g91
Nsg52
S'bytes_limit'
p249
sg15
Nsg19
g20
sg102
S'uint32'
p250
sg16
I74
sbasg16
I74
sg19
g20
sbsg15
Nsg19
Nsg16
Nsg104
Nsbag1
(g88
g3
NtRp251
(dp252
g91
Nsg52
S'ReclaimResources'
p253
sg93
g1
(g94
g3
NtRp254
(dp255
g10
(lp256
g1
(g98
g3
NtRp257
(dp258
g91
Nsg52
S'layer_tree_frame_sink_id'
p259
sg15
Nsg19
g20
sg102
S'uint32'
p260
sg16
I77
sbag1
(g98
g3
NtRp261
(dp262
g91
Nsg52
S'resources'
p263
sg15
Nsg19
g20
sg102
S'viz.mojom.ReturnedResource[]'
p264
sg16
I78
sbasg16
I77
sg19
g20
sbsg15
Nsg19
Nsg16
Nsg104
Nsbag1
(g88
g3
NtRp265
(dp266
g91
Nsg52
S'SetScroll'
p267
sg93
g1
(g94
g3
NtRp268
(dp269
g10
(lp270
g1
(g98
g3
NtRp271
(dp272
g91
Nsg52
S'offset'
p273
sg15
Nsg19
g20
sg102
S'gfx.mojom.ScrollOffset'
p274
sg16
I81
sbasg16
I81
sg19
g20
sbsg15
Nsg19
Nsg16
Nsg104
Nsbag1
(g88
g3
NtRp275
(dp276
g91
Nsg52
S'BeginFrame'
p277
sg93
g1
(g94
g3
NtRp278
(dp279
g10
(lp280
g1
(g98
g3
NtRp281
(dp282
g91
Nsg52
S'args'
p283
sg15
Nsg19
g20
sg102
S'viz.mojom.BeginFrameArgs'
p284
sg16
I85
sbasg16
I85
sg19
g20
sbsg15
Nsg19
Nsg16
Nsg104
Nsbag1
(g88
g3
NtRp285
(dp286
g91
Nsg52
S'SetBeginFrameSourcePaused'
p287
sg93
g1
(g94
g3
NtRp288
(dp289
g10
(lp290
g1
(g98
g3
NtRp291
(dp292
g91
Nsg52
S'paused'
p293
sg15
Nsg19
g20
sg102
S'bool'
p294
sg16
I88
sbasg16
I88
sg19
g20
sbsg15
Nsg19
Nsg16
Nsg104
Nsbasg16
Nsg19
Nsbsg15
Nsg16
Nsg52
S'SynchronousCompositor'
p295
sg19
Nsbag1
(g81
g3
NtRp296
(dp297
g41
g1
(g84
g3
NtRp298
(dp299
g10
(lp300
g1
(g88
g3
NtRp301
(dp302
g91
Nsg52
S'LayerTreeFrameSinkCreated'
p303
sg93
g1
(g94
g3
NtRp304
(dp305
g10
(lp306
sg16
Nsg19
Nsbsg15
Nsg19
Nsg16
Nsg104
Nsbag1
(g88
g3
NtRp307
(dp308
g91
Nsg52
S'UpdateState'
p309
sg93
g1
(g94
g3
NtRp310
(dp311
g10
(lp312
g1
(g98
g3
NtRp313
(dp314
g91
Nsg52
S'params'
p315
sg15
Nsg19
g20
sg102
S'SyncCompositorCommonRendererParams'
p316
sg16
I98
sbasg16
I98
sg19
g20
sbsg15
Nsg19
Nsg16
Nsg104
Nsbag1
(g88
g3
NtRp317
(dp318
g91
Nsg52
S'SetNeedsBeginFrames'
p319
sg93
g1
(g94
g3
NtRp320
(dp321
g10
(lp322
g1
(g98
g3
NtRp323
(dp324
g91
Nsg52
S'needs_begin_frames'
p325
sg15
Nsg19
g20
sg102
S'bool'
p326
sg16
I101
sbasg16
I101
sg19
g20
sbsg15
Nsg19
Nsg16
Nsg104
Nsbasg16
Nsg19
Nsbsg15
Nsg16
Nsg52
S'SynchronousCompositorHost'
p327
sg19
Nsbag1
(g81
g3
NtRp328
(dp329
g41
g1
(g84
g3
NtRp330
(dp331
g10
(lp332
g1
(g88
g3
NtRp333
(dp334
g91
Nsg52
S'ReturnFrame'
p335
sg93
g1
(g94
g3
NtRp336
(dp337
g10
(lp338
g1
(g98
g3
NtRp339
(dp340
g91
Nsg52
S'layer_tree_frame_sink_id'
p341
sg15
Nsg19
g20
sg102
S'uint32'
p342
sg16
I114
sbag1
(g98
g3
NtRp343
(dp344
g91
Nsg52
S'metadata_version'
p345
sg15
Nsg19
g20
sg102
S'uint32'
p346
sg16
I115
sbag1
(g98
g3
NtRp347
(dp348
g91
Nsg52
S'frame'
p349
sg15
Nsg19
g20
sg102
S'viz.mojom.CompositorFrame?'
p350
sg16
I116
sbasg16
I114
sg19
g20
sbsg15
Nsg19
Nsg16
Nsg104
Nsbag1
(g88
g3
NtRp351
(dp352
g91
Nsg52
S'BeginFrameResponse'
p353
sg93
g1
(g94
g3
NtRp354
(dp355
g10
(lp356
g1
(g98
g3
NtRp357
(dp358
g91
Nsg52
S'params'
p359
sg15
Nsg19
g20
sg102
S'SyncCompositorCommonRendererParams'
p360
sg16
I119
sbasg16
I119
sg19
g20
sbsg15
Nsg19
Nsg16
Nsg104
Nsbasg16
Nsg19
Nsbsg15
Nsg16
Nsg52
S'SynchronousCompositorControlHost'
p361
sg19
Nsbasg16
NsS'module'
p362
g1
(cmojom.parse.ast
Module
p363
g3
NtRp364
(dp365
S'mojom_namespace'
p366
(S'IDENTIFIER'
p367
S'content.mojom'
tp368
sg16
I5
sg15
Nsg19
g20
sbsg19
Nsb.