ccopy_reg
_reconstructor
p1
(cmojom.parse.ast
Mojom
p2
c__builtin__
object
p3
NtRp4
(dp5
S'import_list'
p6
g1
(cmojom.parse.ast
ImportList
p7
g3
NtRp8
(dp9
S'items'
p10
(lp11
g1
(cmojom.parse.ast
Import
p12
g3
NtRp13
(dp14
S'attribute_list'
p15
NsS'lineno'
p16
I7
sS'import_filename'
p17
S'media/mojo/interfaces/audio_data_pipe.mojom'
p18
sS'filename'
p19
S'../../services/audio/public/mojom/stream_factory.mojom'
p20
sbag1
(g12
g3
NtRp21
(dp22
g15
Nsg16
I8
sg17
S'media/mojo/interfaces/audio_input_stream.mojom'
p23
sg19
g20
sbag1
(g12
g3
NtRp24
(dp25
g15
Nsg16
I9
sg17
S'media/mojo/interfaces/audio_logging.mojom'
p26
sg19
g20
sbag1
(g12
g3
NtRp27
(dp28
g15
Nsg16
I10
sg17
S'media/mojo/interfaces/audio_output_stream.mojom'
p29
sg19
g20
sbag1
(g12
g3
NtRp30
(dp31
g15
Nsg16
I11
sg17
S'media/mojo/interfaces/audio_parameters.mojom'
p32
sg19
g20
sbag1
(g12
g3
NtRp33
(dp34
g15
Nsg16
I12
sg17
S'mojo/public/mojom/base/unguessable_token.mojom'
p35
sg19
g20
sbasg16
I7
sg19
g20
sbsS'definition_list'
p36
(lp37
g1
(cmojom.parse.ast
Interface
p38
g3
NtRp39
(dp40
S'body'
p41
g1
(cmojom.parse.ast
InterfaceBody
p42
g3
NtRp43
(dp44
g10
(lp45
sg16
Nsg19
Nsbsg15
Nsg16
NsS'mojom_name'
p46
S'LocalMuter'
p47
sg19
Nsbag1
(g38
g3
NtRp48
(dp49
g41
g1
(g42
g3
NtRp50
(dp51
g10
(lp52
g1
(cmojom.parse.ast
Method
p53
g3
NtRp54
(dp55
S'ordinal'
p56
Nsg46
S'CreateInputStream'
p57
sS'parameter_list'
p58
g1
(cmojom.parse.ast
ParameterList
p59
g3
NtRp60
(dp61
g10
(lp62
g1
(cmojom.parse.ast
Parameter
p63
g3
NtRp64
(dp65
g56
Nsg46
S'stream'
p66
sg15
Nsg19
g20
sS'typename'
p67
S'media.mojom.AudioInputStream&'
p68
sg16
I42
sbag1
(g63
g3
NtRp69
(dp70
g56
Nsg46
S'client'
p71
sg15
Nsg19
g20
sg67
S'media.mojom.AudioInputStreamClient'
p72
sg16
I43
sbag1
(g63
g3
NtRp73
(dp74
g56
Nsg46
S'observer'
p75
sg15
Nsg19
g20
sg67
S'media.mojom.AudioInputStreamObserver?'
p76
sg16
I44
sbag1
(g63
g3
NtRp77
(dp78
g56
Nsg46
S'log'
p79
sg15
Nsg19
g20
sg67
S'media.mojom.AudioLog?'
p80
sg16
I45
sbag1
(g63
g3
NtRp81
(dp82
g56
Nsg46
S'device_id'
p83
sg15
Nsg19
g20
sg67
S'string'
p84
sg16
I46
sbag1
(g63
g3
NtRp85
(dp86
g56
Nsg46
S'params'
p87
sg15
Nsg19
g20
sg67
S'media.mojom.AudioParameters'
p88
sg16
I46
sbag1
(g63
g3
NtRp89
(dp90
g56
Nsg46
S'shared_memory_count'
p91
sg15
Nsg19
g20
sg67
S'uint32'
p92
sg16
I47
sbag1
(g63
g3
NtRp93
(dp94
g56
Nsg46
S'enable_agc'
p95
sg15
Nsg19
g20
sg67
S'bool'
p96
sg16
I47
sbag1
(g63
g3
NtRp97
(dp98
g56
Nsg46
S'key_press_count_buffer'
p99
sg15
Nsg19
g20
sg67
S'handle<shared_buffer>?'
p100
sg16
I48
sbasg16
I42
sg19
g20
sbsg15
Nsg19
Nsg16
NsS'response_parameter_list'
p101
g1
(g59
g3
NtRp102
(dp103
g10
(lp104
g1
(g63
g3
NtRp105
(dp106
g56
Nsg46
S'data_pipe'
p107
sg15
Nsg19
g20
sg67
S'media.mojom.AudioDataPipe?'
p108
sg16
I49
sbag1
(g63
g3
NtRp109
(dp110
g56
Nsg46
S'initially_muted'
p111
sg15
Nsg19
g20
sg67
S'bool'
p112
sg16
I49
sbag1
(g63
g3
NtRp113
(dp114
g56
Nsg46
S'stream_id'
p115
sg15
Nsg19
g20
sg67
S'mojo_base.mojom.UnguessableToken?'
p116
sg16
I50
sbasg16
I49
sg19
g20
sbsbag1
(g53
g3
NtRp117
(dp118
g56
Nsg46
S'AssociateInputAndOutputForAec'
p119
sg58
g1
(g59
g3
NtRp120
(dp121
g10
(lp122
g1
(g63
g3
NtRp123
(dp124
g56
Nsg46
S'input_stream_id'
p125
sg15
Nsg19
g20
sg67
S'mojo_base.mojom.UnguessableToken'
p126
sg16
I58
sbag1
(g63
g3
NtRp127
(dp128
g56
Nsg46
S'output_device_id'
p129
sg15
Nsg19
g20
sg67
S'string'
p130
sg16
I59
sbasg16
I58
sg19
g20
sbsg15
Nsg19
Nsg16
Nsg101
Nsbag1
(g53
g3
NtRp131
(dp132
g56
Nsg46
S'CreateOutputStream'
p133
sg58
g1
(g59
g3
NtRp134
(dp135
g10
(lp136
g1
(g63
g3
NtRp137
(dp138
g56
Nsg46
S'stream'
p139
sg15
Nsg19
g20
sg67
S'media.mojom.AudioOutputStream&'
p140
sg16
I67
sbag1
(g63
g3
NtRp141
(dp142
g56
Nsg46
S'observer'
p143
sg15
Nsg19
g20
sg67
S'asso<media.mojom.AudioOutputStreamObserver>'
p144
sg16
I68
sbag1
(g63
g3
NtRp145
(dp146
g56
Nsg46
S'log'
p147
sg15
Nsg19
g20
sg67
S'media.mojom.AudioLog'
p148
sg16
I69
sbag1
(g63
g3
NtRp149
(dp150
g56
Nsg46
S'device_id'
p151
sg15
Nsg19
g20
sg67
S'string'
p152
sg16
I70
sbag1
(g63
g3
NtRp153
(dp154
g56
Nsg46
S'params'
p155
sg15
Nsg19
g20
sg67
S'media.mojom.AudioParameters'
p156
sg16
I70
sbag1
(g63
g3
NtRp157
(dp158
g56
Nsg46
S'group_id'
p159
sg15
Nsg19
g20
sg67
S'mojo_base.mojom.UnguessableToken'
p160
sg16
I71
sbasg16
I67
sg19
g20
sbsg15
Nsg19
Nsg16
Nsg101
g1
(g59
g3
NtRp161
(dp162
g10
(lp163
g1
(g63
g3
NtRp164
(dp165
g56
Nsg46
S'data_pipe'
p166
sg15
Nsg19
g20
sg67
S'media.mojom.AudioDataPipe?'
p167
sg16
I72
sbasg16
I72
sg19
g20
sbsbag1
(g53
g3
NtRp168
(dp169
g56
Nsg46
S'BindMuter'
p170
sg58
g1
(g59
g3
NtRp171
(dp172
g10
(lp173
g1
(g63
g3
NtRp174
(dp175
g56
Nsg46
S'request'
p176
sg15
Nsg19
g20
sg67
S'asso<LocalMuter&>'
p177
sg16
I83
sbag1
(g63
g3
NtRp178
(dp179
g56
Nsg46
S'group_id'
p180
sg15
Nsg19
g20
sg67
S'mojo_base.mojom.UnguessableToken'
p181
sg16
I84
sbasg16
I83
sg19
g20
sbsg15
Nsg19
Nsg16
Nsg101
Nsbag1
(g53
g3
NtRp182
(dp183
g56
Nsg46
S'CreateLoopbackStream'
p184
sg58
g1
(g59
g3
NtRp185
(dp186
g10
(lp187
g1
(g63
g3
NtRp188
(dp189
g56
Nsg46
S'stream'
p190
sg15
Nsg19
g20
sg67
S'media.mojom.AudioInputStream&'
p191
sg16
I93
sbag1
(g63
g3
NtRp192
(dp193
g56
Nsg46
S'client'
p194
sg15
Nsg19
g20
sg67
S'media.mojom.AudioInputStreamClient'
p195
sg16
I94
sbag1
(g63
g3
NtRp196
(dp197
g56
Nsg46
S'observer'
p198
sg15
Nsg19
g20
sg67
S'media.mojom.AudioInputStreamObserver'
p199
sg16
I95
sbag1
(g63
g3
NtRp200
(dp201
g56
Nsg46
S'params'
p202
sg15
Nsg19
g20
sg67
S'media.mojom.AudioParameters'
p203
sg16
I96
sbag1
(g63
g3
NtRp204
(dp205
g56
Nsg46
S'shared_memory_count'
p206
sg15
Nsg19
g20
sg67
S'uint32'
p207
sg16
I97
sbag1
(g63
g3
NtRp208
(dp209
g56
Nsg46
S'group_id'
p210
sg15
Nsg19
g20
sg67
S'mojo_base.mojom.UnguessableToken'
p211
sg16
I98
sbasg16
I93
sg19
g20
sbsg15
Nsg19
Nsg16
Nsg101
g1
(g59
g3
NtRp212
(dp213
g10
(lp214
g1
(g63
g3
NtRp215
(dp216
g56
Nsg46
S'data_pipe'
p217
sg15
Nsg19
g20
sg67
S'media.mojom.AudioDataPipe?'
p218
sg16
I99
sbasg16
I99
sg19
g20
sbsbasg16
Nsg19
Nsbsg15
Nsg16
Nsg46
S'StreamFactory'
p219
sg19
Nsbasg16
NsS'module'
p220
g1
(cmojom.parse.ast
Module
p221
g3
NtRp222
(dp223
S'mojom_namespace'
p224
(S'IDENTIFIER'
p225
S'audio.mojom'
tp226
sg16
I5
sg15
Nsg19
g20
sbsg19
Nsb.