ccopy_reg
_reconstructor
p1
(cmojom.parse.ast
Mojom
p2
c__builtin__
object
p3
NtRp4
(dp5
S'import_list'
p6
g1
(cmojom.parse.ast
ImportList
p7
g3
NtRp8
(dp9
S'items'
p10
(lp11
sS'lineno'
p12
NsS'filename'
p13
NsbsS'definition_list'
p14
(lp15
g1
(cmojom.parse.ast
Enum
p16
g3
NtRp17
(dp18
S'attribute_list'
p19
NsS'enum_value_list'
p20
g1
(cmojom.parse.ast
EnumValueList
p21
g3
NtRp22
(dp23
g10
(lp24
g1
(cmojom.parse.ast
EnumValue
p25
g3
NtRp26
(dp27
g19
NsS'value'
p28
Nsg12
I29
sS'mojom_name'
p29
S'kNone'
p30
sg13
S'../../ui/accessibility/ax_enums.mojom'
p31
sbag1
(g25
g3
NtRp32
(dp33
g19
Nsg28
Nsg12
I30
sg29
S'kActiveDescendantChanged'
p34
sg13
g31
sbag1
(g25
g3
NtRp35
(dp36
g19
Nsg28
Nsg12
I31
sg29
S'kAlert'
p37
sg13
g31
sbag1
(g25
g3
NtRp38
(dp39
g19
Nsg28
Nsg12
I32
sg29
S'kAriaAttributeChanged'
p40
sg13
g31
sbag1
(g25
g3
NtRp41
(dp42
g19
Nsg28
Nsg12
I33
sg29
S'kAutocorrectionOccured'
p43
sg13
g31
sbag1
(g25
g3
NtRp44
(dp45
g19
Nsg28
Nsg12
I34
sg29
S'kBlur'
p46
sg13
g31
sbag1
(g25
g3
NtRp47
(dp48
g19
Nsg28
Nsg12
I35
sg29
S'kCheckedStateChanged'
p49
sg13
g31
sbag1
(g25
g3
NtRp50
(dp51
g19
Nsg28
Nsg12
I36
sg29
S'kChildrenChanged'
p52
sg13
g31
sbag1
(g25
g3
NtRp53
(dp54
g19
Nsg28
Nsg12
I37
sg29
S'kClicked'
p55
sg13
g31
sbag1
(g25
g3
NtRp56
(dp57
g19
Nsg28
Nsg12
I38
sg29
S'kDocumentSelectionChanged'
p58
sg13
g31
sbag1
(g25
g3
NtRp59
(dp60
g19
Nsg28
Nsg12
I39
sg29
S'kExpandedChanged'
p61
sg13
g31
sbag1
(g25
g3
NtRp62
(dp63
g19
Nsg28
Nsg12
I40
sg29
S'kFocus'
p64
sg13
g31
sbag1
(g25
g3
NtRp65
(dp66
g19
Nsg28
Nsg12
I41
sg29
S'kFocusContext'
p67
sg13
g31
sbag1
(g25
g3
NtRp68
(dp69
g19
Nsg28
Nsg12
I42
sg29
S'kHide'
p70
sg13
g31
sbag1
(g25
g3
NtRp71
(dp72
g19
Nsg28
Nsg12
I43
sg29
S'kHitTestResult'
p73
sg13
g31
sbag1
(g25
g3
NtRp74
(dp75
g19
Nsg28
Nsg12
I44
sg29
S'kHover'
p76
sg13
g31
sbag1
(g25
g3
NtRp77
(dp78
g19
Nsg28
Nsg12
I45
sg29
S'kImageFrameUpdated'
p79
sg13
g31
sbag1
(g25
g3
NtRp80
(dp81
g19
Nsg28
Nsg12
I46
sg29
S'kInvalidStatusChanged'
p82
sg13
g31
sbag1
(g25
g3
NtRp83
(dp84
g19
Nsg28
Nsg12
I47
sg29
S'kLayoutComplete'
p85
sg13
g31
sbag1
(g25
g3
NtRp86
(dp87
g19
Nsg28
Nsg12
I48
sg29
S'kLiveRegionCreated'
p88
sg13
g31
sbag1
(g25
g3
NtRp89
(dp90
g19
Nsg28
Nsg12
I49
sg29
S'kLiveRegionChanged'
p91
sg13
g31
sbag1
(g25
g3
NtRp92
(dp93
g19
Nsg28
Nsg12
I50
sg29
S'kLoadComplete'
p94
sg13
g31
sbag1
(g25
g3
NtRp95
(dp96
g19
Nsg28
Nsg12
I51
sg29
S'kLocationChanged'
p97
sg13
g31
sbag1
(g25
g3
NtRp98
(dp99
g19
Nsg28
Nsg12
I52
sg29
S'kMediaStartedPlaying'
p100
sg13
g31
sbag1
(g25
g3
NtRp101
(dp102
g19
Nsg28
Nsg12
I53
sg29
S'kMediaStoppedPlaying'
p103
sg13
g31
sbag1
(g25
g3
NtRp104
(dp105
g19
Nsg28
Nsg12
I54
sg29
S'kMenuEnd'
p106
sg13
g31
sbag1
(g25
g3
NtRp107
(dp108
g19
Nsg28
Nsg12
I55
sg29
S'kMenuListItemSelected'
p109
sg13
g31
sbag1
(g25
g3
NtRp110
(dp111
g19
Nsg28
Nsg12
I56
sg29
S'kMenuListValueChanged'
p112
sg13
g31
sbag1
(g25
g3
NtRp113
(dp114
g19
Nsg28
Nsg12
I57
sg29
S'kMenuPopupEnd'
p115
sg13
g31
sbag1
(g25
g3
NtRp116
(dp117
g19
Nsg28
Nsg12
I58
sg29
S'kMenuPopupStart'
p118
sg13
g31
sbag1
(g25
g3
NtRp119
(dp120
g19
Nsg28
Nsg12
I59
sg29
S'kMenuStart'
p121
sg13
g31
sbag1
(g25
g3
NtRp122
(dp123
g19
Nsg28
Nsg12
I60
sg29
S'kMouseCanceled'
p124
sg13
g31
sbag1
(g25
g3
NtRp125
(dp126
g19
Nsg28
Nsg12
I61
sg29
S'kMouseDragged'
p127
sg13
g31
sbag1
(g25
g3
NtRp128
(dp129
g19
Nsg28
Nsg12
I62
sg29
S'kMouseMoved'
p130
sg13
g31
sbag1
(g25
g3
NtRp131
(dp132
g19
Nsg28
Nsg12
I63
sg29
S'kMousePressed'
p133
sg13
g31
sbag1
(g25
g3
NtRp134
(dp135
g19
Nsg28
Nsg12
I64
sg29
S'kMouseReleased'
p136
sg13
g31
sbag1
(g25
g3
NtRp137
(dp138
g19
Nsg28
Nsg12
I65
sg29
S'kRowCollapsed'
p139
sg13
g31
sbag1
(g25
g3
NtRp140
(dp141
g19
Nsg28
Nsg12
I66
sg29
S'kRowCountChanged'
p142
sg13
g31
sbag1
(g25
g3
NtRp143
(dp144
g19
Nsg28
Nsg12
I67
sg29
S'kRowExpanded'
p145
sg13
g31
sbag1
(g25
g3
NtRp146
(dp147
g19
Nsg28
Nsg12
I68
sg29
S'kScrollPositionChanged'
p148
sg13
g31
sbag1
(g25
g3
NtRp149
(dp150
g19
Nsg28
Nsg12
I69
sg29
S'kScrolledToAnchor'
p151
sg13
g31
sbag1
(g25
g3
NtRp152
(dp153
g19
Nsg28
Nsg12
I70
sg29
S'kSelectedChildrenChanged'
p154
sg13
g31
sbag1
(g25
g3
NtRp155
(dp156
g19
Nsg28
Nsg12
I71
sg29
S'kSelection'
p157
sg13
g31
sbag1
(g25
g3
NtRp158
(dp159
g19
Nsg28
Nsg12
I72
sg29
S'kSelectionAdd'
p160
sg13
g31
sbag1
(g25
g3
NtRp161
(dp162
g19
Nsg28
Nsg12
I73
sg29
S'kSelectionRemove'
p163
sg13
g31
sbag1
(g25
g3
NtRp164
(dp165
g19
Nsg28
Nsg12
I74
sg29
S'kShow'
p166
sg13
g31
sbag1
(g25
g3
NtRp167
(dp168
g19
Nsg28
Nsg12
I75
sg29
S'kStateChanged'
p169
sg13
g31
sbag1
(g25
g3
NtRp170
(dp171
g19
Nsg28
Nsg12
I76
sg29
S'kTextChanged'
p172
sg13
g31
sbag1
(g25
g3
NtRp173
(dp174
g19
Nsg28
Nsg12
I77
sg29
S'kTextSelectionChanged'
p175
sg13
g31
sbag1
(g25
g3
NtRp176
(dp177
g19
Nsg28
Nsg12
I78
sg29
S'kTreeChanged'
p178
sg13
g31
sbag1
(g25
g3
NtRp179
(dp180
g19
Nsg28
Nsg12
I81
sg29
S'kValueChanged'
p181
sg13
g31
sbasg12
I29
sg13
g31
sbsg12
I28
sg29
S'Event'
p182
sg13
g31
sbag1
(g16
g3
NtRp183
(dp184
g19
Nsg20
g1
(g21
g3
NtRp185
(dp186
g10
(lp187
g1
(g25
g3
NtRp188
(dp189
g19
Nsg28
Nsg12
I91
sg29
S'kNone'
p190
sg13
g31
sbag1
(g25
g3
NtRp191
(dp192
g19
Nsg28
Nsg12
I92
sg29
S'kAbbr'
p193
sg13
g31
sbag1
(g25
g3
NtRp194
(dp195
g19
Nsg28
Nsg12
I93
sg29
S'kAlert'
p196
sg13
g31
sbag1
(g25
g3
NtRp197
(dp198
g19
Nsg28
Nsg12
I94
sg29
S'kAlertDialog'
p199
sg13
g31
sbag1
(g25
g3
NtRp200
(dp201
g19
Nsg28
Nsg12
I95
sg29
S'kAnchor'
p202
sg13
g31
sbag1
(g25
g3
NtRp203
(dp204
g19
Nsg28
Nsg12
I96
sg29
S'kAnnotation'
p205
sg13
g31
sbag1
(g25
g3
NtRp206
(dp207
g19
Nsg28
Nsg12
I97
sg29
S'kApplication'
p208
sg13
g31
sbag1
(g25
g3
NtRp209
(dp210
g19
Nsg28
Nsg12
I98
sg29
S'kArticle'
p211
sg13
g31
sbag1
(g25
g3
NtRp212
(dp213
g19
Nsg28
Nsg12
I99
sg29
S'kAudio'
p214
sg13
g31
sbag1
(g25
g3
NtRp215
(dp216
g19
Nsg28
Nsg12
I100
sg29
S'kBanner'
p217
sg13
g31
sbag1
(g25
g3
NtRp218
(dp219
g19
Nsg28
Nsg12
I101
sg29
S'kBlockquote'
p220
sg13
g31
sbag1
(g25
g3
NtRp221
(dp222
g19
Nsg28
Nsg12
I102
sg29
S'kButton'
p223
sg13
g31
sbag1
(g25
g3
NtRp224
(dp225
g19
Nsg28
Nsg12
I103
sg29
S'kCanvas'
p226
sg13
g31
sbag1
(g25
g3
NtRp227
(dp228
g19
Nsg28
Nsg12
I104
sg29
S'kCaption'
p229
sg13
g31
sbag1
(g25
g3
NtRp230
(dp231
g19
Nsg28
Nsg12
I105
sg29
S'kCaret'
p232
sg13
g31
sbag1
(g25
g3
NtRp233
(dp234
g19
Nsg28
Nsg12
I106
sg29
S'kCell'
p235
sg13
g31
sbag1
(g25
g3
NtRp236
(dp237
g19
Nsg28
Nsg12
I107
sg29
S'kCheckBox'
p238
sg13
g31
sbag1
(g25
g3
NtRp239
(dp240
g19
Nsg28
Nsg12
I108
sg29
S'kClient'
p241
sg13
g31
sbag1
(g25
g3
NtRp242
(dp243
g19
Nsg28
Nsg12
I109
sg29
S'kColorWell'
p244
sg13
g31
sbag1
(g25
g3
NtRp245
(dp246
g19
Nsg28
Nsg12
I110
sg29
S'kColumn'
p247
sg13
g31
sbag1
(g25
g3
NtRp248
(dp249
g19
Nsg28
Nsg12
I111
sg29
S'kColumnHeader'
p250
sg13
g31
sbag1
(g25
g3
NtRp251
(dp252
g19
Nsg28
Nsg12
I112
sg29
S'kComboBoxGrouping'
p253
sg13
g31
sbag1
(g25
g3
NtRp254
(dp255
g19
Nsg28
Nsg12
I113
sg29
S'kComboBoxMenuButton'
p256
sg13
g31
sbag1
(g25
g3
NtRp257
(dp258
g19
Nsg28
Nsg12
I114
sg29
S'kComplementary'
p259
sg13
g31
sbag1
(g25
g3
NtRp260
(dp261
g19
Nsg28
Nsg12
I115
sg29
S'kContentInfo'
p262
sg13
g31
sbag1
(g25
g3
NtRp263
(dp264
g19
Nsg28
Nsg12
I116
sg29
S'kDate'
p265
sg13
g31
sbag1
(g25
g3
NtRp266
(dp267
g19
Nsg28
Nsg12
I117
sg29
S'kDateTime'
p268
sg13
g31
sbag1
(g25
g3
NtRp269
(dp270
g19
Nsg28
Nsg12
I118
sg29
S'kDefinition'
p271
sg13
g31
sbag1
(g25
g3
NtRp272
(dp273
g19
Nsg28
Nsg12
I119
sg29
S'kDescriptionList'
p274
sg13
g31
sbag1
(g25
g3
NtRp275
(dp276
g19
Nsg28
Nsg12
I120
sg29
S'kDescriptionListDetail'
p277
sg13
g31
sbag1
(g25
g3
NtRp278
(dp279
g19
Nsg28
Nsg12
I121
sg29
S'kDescriptionListTerm'
p280
sg13
g31
sbag1
(g25
g3
NtRp281
(dp282
g19
Nsg28
Nsg12
I122
sg29
S'kDesktop'
p283
sg13
g31
sbag1
(g25
g3
NtRp284
(dp285
g19
Nsg28
Nsg12
I123
sg29
S'kDetails'
p286
sg13
g31
sbag1
(g25
g3
NtRp287
(dp288
g19
Nsg28
Nsg12
I124
sg29
S'kDialog'
p289
sg13
g31
sbag1
(g25
g3
NtRp290
(dp291
g19
Nsg28
Nsg12
I125
sg29
S'kDirectory'
p292
sg13
g31
sbag1
(g25
g3
NtRp293
(dp294
g19
Nsg28
Nsg12
I126
sg29
S'kDisclosureTriangle'
p295
sg13
g31
sbag1
(g25
g3
NtRp296
(dp297
g19
Nsg28
Nsg12
I130
sg29
S'kDocAbstract'
p298
sg13
g31
sbag1
(g25
g3
NtRp299
(dp300
g19
Nsg28
Nsg12
I131
sg29
S'kDocAcknowledgments'
p301
sg13
g31
sbag1
(g25
g3
NtRp302
(dp303
g19
Nsg28
Nsg12
I132
sg29
S'kDocAfterword'
p304
sg13
g31
sbag1
(g25
g3
NtRp305
(dp306
g19
Nsg28
Nsg12
I133
sg29
S'kDocAppendix'
p307
sg13
g31
sbag1
(g25
g3
NtRp308
(dp309
g19
Nsg28
Nsg12
I134
sg29
S'kDocBackLink'
p310
sg13
g31
sbag1
(g25
g3
NtRp311
(dp312
g19
Nsg28
Nsg12
I135
sg29
S'kDocBiblioEntry'
p313
sg13
g31
sbag1
(g25
g3
NtRp314
(dp315
g19
Nsg28
Nsg12
I136
sg29
S'kDocBibliography'
p316
sg13
g31
sbag1
(g25
g3
NtRp317
(dp318
g19
Nsg28
Nsg12
I137
sg29
S'kDocBiblioRef'
p319
sg13
g31
sbag1
(g25
g3
NtRp320
(dp321
g19
Nsg28
Nsg12
I138
sg29
S'kDocChapter'
p322
sg13
g31
sbag1
(g25
g3
NtRp323
(dp324
g19
Nsg28
Nsg12
I139
sg29
S'kDocColophon'
p325
sg13
g31
sbag1
(g25
g3
NtRp326
(dp327
g19
Nsg28
Nsg12
I140
sg29
S'kDocConclusion'
p328
sg13
g31
sbag1
(g25
g3
NtRp329
(dp330
g19
Nsg28
Nsg12
I141
sg29
S'kDocCover'
p331
sg13
g31
sbag1
(g25
g3
NtRp332
(dp333
g19
Nsg28
Nsg12
I142
sg29
S'kDocCredit'
p334
sg13
g31
sbag1
(g25
g3
NtRp335
(dp336
g19
Nsg28
Nsg12
I143
sg29
S'kDocCredits'
p337
sg13
g31
sbag1
(g25
g3
NtRp338
(dp339
g19
Nsg28
Nsg12
I144
sg29
S'kDocDedication'
p340
sg13
g31
sbag1
(g25
g3
NtRp341
(dp342
g19
Nsg28
Nsg12
I145
sg29
S'kDocEndnote'
p343
sg13
g31
sbag1
(g25
g3
NtRp344
(dp345
g19
Nsg28
Nsg12
I146
sg29
S'kDocEndnotes'
p346
sg13
g31
sbag1
(g25
g3
NtRp347
(dp348
g19
Nsg28
Nsg12
I147
sg29
S'kDocEpigraph'
p349
sg13
g31
sbag1
(g25
g3
NtRp350
(dp351
g19
Nsg28
Nsg12
I148
sg29
S'kDocEpilogue'
p352
sg13
g31
sbag1
(g25
g3
NtRp353
(dp354
g19
Nsg28
Nsg12
I149
sg29
S'kDocErrata'
p355
sg13
g31
sbag1
(g25
g3
NtRp356
(dp357
g19
Nsg28
Nsg12
I150
sg29
S'kDocExample'
p358
sg13
g31
sbag1
(g25
g3
NtRp359
(dp360
g19
Nsg28
Nsg12
I151
sg29
S'kDocFootnote'
p361
sg13
g31
sbag1
(g25
g3
NtRp362
(dp363
g19
Nsg28
Nsg12
I152
sg29
S'kDocForeword'
p364
sg13
g31
sbag1
(g25
g3
NtRp365
(dp366
g19
Nsg28
Nsg12
I153
sg29
S'kDocGlossary'
p367
sg13
g31
sbag1
(g25
g3
NtRp368
(dp369
g19
Nsg28
Nsg12
I154
sg29
S'kDocGlossRef'
p370
sg13
g31
sbag1
(g25
g3
NtRp371
(dp372
g19
Nsg28
Nsg12
I155
sg29
S'kDocIndex'
p373
sg13
g31
sbag1
(g25
g3
NtRp374
(dp375
g19
Nsg28
Nsg12
I156
sg29
S'kDocIntroduction'
p376
sg13
g31
sbag1
(g25
g3
NtRp377
(dp378
g19
Nsg28
Nsg12
I157
sg29
S'kDocNoteRef'
p379
sg13
g31
sbag1
(g25
g3
NtRp380
(dp381
g19
Nsg28
Nsg12
I158
sg29
S'kDocNotice'
p382
sg13
g31
sbag1
(g25
g3
NtRp383
(dp384
g19
Nsg28
Nsg12
I159
sg29
S'kDocPageBreak'
p385
sg13
g31
sbag1
(g25
g3
NtRp386
(dp387
g19
Nsg28
Nsg12
I160
sg29
S'kDocPageList'
p388
sg13
g31
sbag1
(g25
g3
NtRp389
(dp390
g19
Nsg28
Nsg12
I161
sg29
S'kDocPart'
p391
sg13
g31
sbag1
(g25
g3
NtRp392
(dp393
g19
Nsg28
Nsg12
I162
sg29
S'kDocPreface'
p394
sg13
g31
sbag1
(g25
g3
NtRp395
(dp396
g19
Nsg28
Nsg12
I163
sg29
S'kDocPrologue'
p397
sg13
g31
sbag1
(g25
g3
NtRp398
(dp399
g19
Nsg28
Nsg12
I164
sg29
S'kDocPullquote'
p400
sg13
g31
sbag1
(g25
g3
NtRp401
(dp402
g19
Nsg28
Nsg12
I165
sg29
S'kDocQna'
p403
sg13
g31
sbag1
(g25
g3
NtRp404
(dp405
g19
Nsg28
Nsg12
I166
sg29
S'kDocSubtitle'
p406
sg13
g31
sbag1
(g25
g3
NtRp407
(dp408
g19
Nsg28
Nsg12
I167
sg29
S'kDocTip'
p409
sg13
g31
sbag1
(g25
g3
NtRp410
(dp411
g19
Nsg28
Nsg12
I168
sg29
S'kDocToc'
p412
sg13
g31
sbag1
(g25
g3
NtRp413
(dp414
g19
Nsg28
Nsg12
I171
sg29
S'kDocument'
p415
sg13
g31
sbag1
(g25
g3
NtRp416
(dp417
g19
Nsg28
Nsg12
I172
sg29
S'kEmbeddedObject'
p418
sg13
g31
sbag1
(g25
g3
NtRp419
(dp420
g19
Nsg28
Nsg12
I173
sg29
S'kFeed'
p421
sg13
g31
sbag1
(g25
g3
NtRp422
(dp423
g19
Nsg28
Nsg12
I174
sg29
S'kFigcaption'
p424
sg13
g31
sbag1
(g25
g3
NtRp425
(dp426
g19
Nsg28
Nsg12
I175
sg29
S'kFigure'
p427
sg13
g31
sbag1
(g25
g3
NtRp428
(dp429
g19
Nsg28
Nsg12
I176
sg29
S'kFooter'
p430
sg13
g31
sbag1
(g25
g3
NtRp431
(dp432
g19
Nsg28
Nsg12
I177
sg29
S'kForm'
p433
sg13
g31
sbag1
(g25
g3
NtRp434
(dp435
g19
Nsg28
Nsg12
I178
sg29
S'kGenericContainer'
p436
sg13
g31
sbag1
(g25
g3
NtRp437
(dp438
g19
Nsg28
Nsg12
I182
sg29
S'kGraphicsDocument'
p439
sg13
g31
sbag1
(g25
g3
NtRp440
(dp441
g19
Nsg28
Nsg12
I183
sg29
S'kGraphicsObject'
p442
sg13
g31
sbag1
(g25
g3
NtRp443
(dp444
g19
Nsg28
Nsg12
I184
sg29
S'kGraphicsSymbol'
p445
sg13
g31
sbag1
(g25
g3
NtRp446
(dp447
g19
Nsg28
Nsg12
I187
sg29
S'kGrid'
p448
sg13
g31
sbag1
(g25
g3
NtRp449
(dp450
g19
Nsg28
Nsg12
I188
sg29
S'kGroup'
p451
sg13
g31
sbag1
(g25
g3
NtRp452
(dp453
g19
Nsg28
Nsg12
I189
sg29
S'kHeading'
p454
sg13
g31
sbag1
(g25
g3
NtRp455
(dp456
g19
Nsg28
Nsg12
I190
sg29
S'kIframe'
p457
sg13
g31
sbag1
(g25
g3
NtRp458
(dp459
g19
Nsg28
Nsg12
I191
sg29
S'kIframePresentational'
p460
sg13
g31
sbag1
(g25
g3
NtRp461
(dp462
g19
Nsg28
Nsg12
I192
sg29
S'kIgnored'
p463
sg13
g31
sbag1
(g25
g3
NtRp464
(dp465
g19
Nsg28
Nsg12
I193
sg29
S'kImage'
p466
sg13
g31
sbag1
(g25
g3
NtRp467
(dp468
g19
Nsg28
Nsg12
I194
sg29
S'kImageMap'
p469
sg13
g31
sbag1
(g25
g3
NtRp470
(dp471
g19
Nsg28
Nsg12
I195
sg29
S'kInlineTextBox'
p472
sg13
g31
sbag1
(g25
g3
NtRp473
(dp474
g19
Nsg28
Nsg12
I196
sg29
S'kInputTime'
p475
sg13
g31
sbag1
(g25
g3
NtRp476
(dp477
g19
Nsg28
Nsg12
I197
sg29
S'kLabelText'
p478
sg13
g31
sbag1
(g25
g3
NtRp479
(dp480
g19
Nsg28
Nsg12
I198
sg29
S'kLayoutTable'
p481
sg13
g31
sbag1
(g25
g3
NtRp482
(dp483
g19
Nsg28
Nsg12
I199
sg29
S'kLayoutTableCell'
p484
sg13
g31
sbag1
(g25
g3
NtRp485
(dp486
g19
Nsg28
Nsg12
I200
sg29
S'kLayoutTableColumn'
p487
sg13
g31
sbag1
(g25
g3
NtRp488
(dp489
g19
Nsg28
Nsg12
I201
sg29
S'kLayoutTableRow'
p490
sg13
g31
sbag1
(g25
g3
NtRp491
(dp492
g19
Nsg28
Nsg12
I202
sg29
S'kLegend'
p493
sg13
g31
sbag1
(g25
g3
NtRp494
(dp495
g19
Nsg28
Nsg12
I203
sg29
S'kLineBreak'
p496
sg13
g31
sbag1
(g25
g3
NtRp497
(dp498
g19
Nsg28
Nsg12
I204
sg29
S'kLink'
p499
sg13
g31
sbag1
(g25
g3
NtRp500
(dp501
g19
Nsg28
Nsg12
I205
sg29
S'kList'
p502
sg13
g31
sbag1
(g25
g3
NtRp503
(dp504
g19
Nsg28
Nsg12
I206
sg29
S'kListBox'
p505
sg13
g31
sbag1
(g25
g3
NtRp506
(dp507
g19
Nsg28
Nsg12
I207
sg29
S'kListBoxOption'
p508
sg13
g31
sbag1
(g25
g3
NtRp509
(dp510
g19
Nsg28
Nsg12
I208
sg29
S'kListItem'
p511
sg13
g31
sbag1
(g25
g3
NtRp512
(dp513
g19
Nsg28
Nsg12
I209
sg29
S'kListMarker'
p514
sg13
g31
sbag1
(g25
g3
NtRp515
(dp516
g19
Nsg28
Nsg12
I210
sg29
S'kLocationBar'
p517
sg13
g31
sbag1
(g25
g3
NtRp518
(dp519
g19
Nsg28
Nsg12
I211
sg29
S'kLog'
p520
sg13
g31
sbag1
(g25
g3
NtRp521
(dp522
g19
Nsg28
Nsg12
I212
sg29
S'kMain'
p523
sg13
g31
sbag1
(g25
g3
NtRp524
(dp525
g19
Nsg28
Nsg12
I213
sg29
S'kMark'
p526
sg13
g31
sbag1
(g25
g3
NtRp527
(dp528
g19
Nsg28
Nsg12
I214
sg29
S'kMarquee'
p529
sg13
g31
sbag1
(g25
g3
NtRp530
(dp531
g19
Nsg28
Nsg12
I215
sg29
S'kMath'
p532
sg13
g31
sbag1
(g25
g3
NtRp533
(dp534
g19
Nsg28
Nsg12
I216
sg29
S'kMenu'
p535
sg13
g31
sbag1
(g25
g3
NtRp536
(dp537
g19
Nsg28
Nsg12
I217
sg29
S'kMenuBar'
p538
sg13
g31
sbag1
(g25
g3
NtRp539
(dp540
g19
Nsg28
Nsg12
I218
sg29
S'kMenuButton'
p541
sg13
g31
sbag1
(g25
g3
NtRp542
(dp543
g19
Nsg28
Nsg12
I219
sg29
S'kMenuItem'
p544
sg13
g31
sbag1
(g25
g3
NtRp545
(dp546
g19
Nsg28
Nsg12
I220
sg29
S'kMenuItemCheckBox'
p547
sg13
g31
sbag1
(g25
g3
NtRp548
(dp549
g19
Nsg28
Nsg12
I221
sg29
S'kMenuItemRadio'
p550
sg13
g31
sbag1
(g25
g3
NtRp551
(dp552
g19
Nsg28
Nsg12
I222
sg29
S'kMenuListOption'
p553
sg13
g31
sbag1
(g25
g3
NtRp554
(dp555
g19
Nsg28
Nsg12
I223
sg29
S'kMenuListPopup'
p556
sg13
g31
sbag1
(g25
g3
NtRp557
(dp558
g19
Nsg28
Nsg12
I224
sg29
S'kMeter'
p559
sg13
g31
sbag1
(g25
g3
NtRp560
(dp561
g19
Nsg28
Nsg12
I225
sg29
S'kNavigation'
p562
sg13
g31
sbag1
(g25
g3
NtRp563
(dp564
g19
Nsg28
Nsg12
I226
sg29
S'kNote'
p565
sg13
g31
sbag1
(g25
g3
NtRp566
(dp567
g19
Nsg28
Nsg12
I227
sg29
S'kPane'
p568
sg13
g31
sbag1
(g25
g3
NtRp569
(dp570
g19
Nsg28
Nsg12
I228
sg29
S'kParagraph'
p571
sg13
g31
sbag1
(g25
g3
NtRp572
(dp573
g19
Nsg28
Nsg12
I229
sg29
S'kPopUpButton'
p574
sg13
g31
sbag1
(g25
g3
NtRp575
(dp576
g19
Nsg28
Nsg12
I230
sg29
S'kPre'
p577
sg13
g31
sbag1
(g25
g3
NtRp578
(dp579
g19
Nsg28
Nsg12
I231
sg29
S'kPresentational'
p580
sg13
g31
sbag1
(g25
g3
NtRp581
(dp582
g19
Nsg28
Nsg12
I232
sg29
S'kProgressIndicator'
p583
sg13
g31
sbag1
(g25
g3
NtRp584
(dp585
g19
Nsg28
Nsg12
I233
sg29
S'kRadioButton'
p586
sg13
g31
sbag1
(g25
g3
NtRp587
(dp588
g19
Nsg28
Nsg12
I234
sg29
S'kRadioGroup'
p589
sg13
g31
sbag1
(g25
g3
NtRp590
(dp591
g19
Nsg28
Nsg12
I235
sg29
S'kRegion'
p592
sg13
g31
sbag1
(g25
g3
NtRp593
(dp594
g19
Nsg28
Nsg12
I236
sg29
S'kRootWebArea'
p595
sg13
g31
sbag1
(g25
g3
NtRp596
(dp597
g19
Nsg28
Nsg12
I237
sg29
S'kRow'
p598
sg13
g31
sbag1
(g25
g3
NtRp599
(dp600
g19
Nsg28
Nsg12
I238
sg29
S'kRowHeader'
p601
sg13
g31
sbag1
(g25
g3
NtRp602
(dp603
g19
Nsg28
Nsg12
I239
sg29
S'kRuby'
p604
sg13
g31
sbag1
(g25
g3
NtRp605
(dp606
g19
Nsg28
Nsg12
I240
sg29
S'kScrollBar'
p607
sg13
g31
sbag1
(g25
g3
NtRp608
(dp609
g19
Nsg28
Nsg12
I241
sg29
S'kScrollView'
p610
sg13
g31
sbag1
(g25
g3
NtRp611
(dp612
g19
Nsg28
Nsg12
I242
sg29
S'kSearch'
p613
sg13
g31
sbag1
(g25
g3
NtRp614
(dp615
g19
Nsg28
Nsg12
I243
sg29
S'kSearchBox'
p616
sg13
g31
sbag1
(g25
g3
NtRp617
(dp618
g19
Nsg28
Nsg12
I244
sg29
S'kSlider'
p619
sg13
g31
sbag1
(g25
g3
NtRp620
(dp621
g19
Nsg28
Nsg12
I245
sg29
S'kSliderThumb'
p622
sg13
g31
sbag1
(g25
g3
NtRp623
(dp624
g19
Nsg28
Nsg12
I246
sg29
S'kSpinButton'
p625
sg13
g31
sbag1
(g25
g3
NtRp626
(dp627
g19
Nsg28
Nsg12
I247
sg29
S'kSplitter'
p628
sg13
g31
sbag1
(g25
g3
NtRp629
(dp630
g19
Nsg28
Nsg12
I248
sg29
S'kStaticText'
p631
sg13
g31
sbag1
(g25
g3
NtRp632
(dp633
g19
Nsg28
Nsg12
I249
sg29
S'kStatus'
p634
sg13
g31
sbag1
(g25
g3
NtRp635
(dp636
g19
Nsg28
Nsg12
I250
sg29
S'kSvgRoot'
p637
sg13
g31
sbag1
(g25
g3
NtRp638
(dp639
g19
Nsg28
Nsg12
I251
sg29
S'kSwitch'
p640
sg13
g31
sbag1
(g25
g3
NtRp641
(dp642
g19
Nsg28
Nsg12
I252
sg29
S'kTab'
p643
sg13
g31
sbag1
(g25
g3
NtRp644
(dp645
g19
Nsg28
Nsg12
I253
sg29
S'kTabList'
p646
sg13
g31
sbag1
(g25
g3
NtRp647
(dp648
g19
Nsg28
Nsg12
I254
sg29
S'kTabPanel'
p649
sg13
g31
sbag1
(g25
g3
NtRp650
(dp651
g19
Nsg28
Nsg12
I255
sg29
S'kTable'
p652
sg13
g31
sbag1
(g25
g3
NtRp653
(dp654
g19
Nsg28
Nsg12
I256
sg29
S'kTableHeaderContainer'
p655
sg13
g31
sbag1
(g25
g3
NtRp656
(dp657
g19
Nsg28
Nsg12
I257
sg29
S'kTerm'
p658
sg13
g31
sbag1
(g25
g3
NtRp659
(dp660
g19
Nsg28
Nsg12
I258
sg29
S'kTextField'
p661
sg13
g31
sbag1
(g25
g3
NtRp662
(dp663
g19
Nsg28
Nsg12
I259
sg29
S'kTextFieldWithComboBox'
p664
sg13
g31
sbag1
(g25
g3
NtRp665
(dp666
g19
Nsg28
Nsg12
I260
sg29
S'kTime'
p667
sg13
g31
sbag1
(g25
g3
NtRp668
(dp669
g19
Nsg28
Nsg12
I261
sg29
S'kTimer'
p670
sg13
g31
sbag1
(g25
g3
NtRp671
(dp672
g19
Nsg28
Nsg12
I262
sg29
S'kTitleBar'
p673
sg13
g31
sbag1
(g25
g3
NtRp674
(dp675
g19
Nsg28
Nsg12
I263
sg29
S'kToggleButton'
p676
sg13
g31
sbag1
(g25
g3
NtRp677
(dp678
g19
Nsg28
Nsg12
I264
sg29
S'kToolbar'
p679
sg13
g31
sbag1
(g25
g3
NtRp680
(dp681
g19
Nsg28
Nsg12
I265
sg29
S'kTooltip'
p682
sg13
g31
sbag1
(g25
g3
NtRp683
(dp684
g19
Nsg28
Nsg12
I266
sg29
S'kTree'
p685
sg13
g31
sbag1
(g25
g3
NtRp686
(dp687
g19
Nsg28
Nsg12
I267
sg29
S'kTreeGrid'
p688
sg13
g31
sbag1
(g25
g3
NtRp689
(dp690
g19
Nsg28
Nsg12
I268
sg29
S'kTreeItem'
p691
sg13
g31
sbag1
(g25
g3
NtRp692
(dp693
g19
Nsg28
Nsg12
I269
sg29
S'kUnknown'
p694
sg13
g31
sbag1
(g25
g3
NtRp695
(dp696
g19
Nsg28
Nsg12
I270
sg29
S'kVideo'
p697
sg13
g31
sbag1
(g25
g3
NtRp698
(dp699
g19
Nsg28
Nsg12
I271
sg29
S'kWebArea'
p700
sg13
g31
sbag1
(g25
g3
NtRp701
(dp702
g19
Nsg28
Nsg12
I272
sg29
S'kWebView'
p703
sg13
g31
sbag1
(g25
g3
NtRp704
(dp705
g19
Nsg28
Nsg12
I273
sg29
S'kWindow'
p706
sg13
g31
sbasg12
I91
sg13
g31
sbsg12
I90
sg29
S'Role'
p707
sg13
g31
sbag1
(g16
g3
NtRp708
(dp709
g19
Nsg20
g1
(g21
g3
NtRp710
(dp711
g10
(lp712
g1
(g25
g3
NtRp713
(dp714
g19
Nsg28
Nsg12
I277
sg29
S'kNone'
p715
sg13
g31
sbag1
(g25
g3
NtRp716
(dp717
g19
Nsg28
Nsg12
I278
sg29
S'kCollapsed'
p718
sg13
g31
sbag1
(g25
g3
NtRp719
(dp720
g19
Nsg28
Nsg12
I279
sg29
S'kDefault'
p721
sg13
g31
sbag1
(g25
g3
NtRp722
(dp723
g19
Nsg28
Nsg12
I280
sg29
S'kEditable'
p724
sg13
g31
sbag1
(g25
g3
NtRp725
(dp726
g19
Nsg28
Nsg12
I281
sg29
S'kExpanded'
p727
sg13
g31
sbag1
(g25
g3
NtRp728
(dp729
g19
Nsg28
Nsg12
I282
sg29
S'kFocusable'
p730
sg13
g31
sbag1
(g25
g3
NtRp731
(dp732
g19
Nsg28
Nsg12
I283
sg29
S'kHasPopup'
p733
sg13
g31
sbag1
(g25
g3
NtRp734
(dp735
g19
Nsg28
Nsg12
I285
sg29
S'kHorizontal'
p736
sg13
g31
sbag1
(g25
g3
NtRp737
(dp738
g19
Nsg28
Nsg12
I286
sg29
S'kHovered'
p739
sg13
g31
sbag1
(g25
g3
NtRp740
(dp741
g19
Nsg28
Nsg12
I288
sg29
S'kIgnored'
p742
sg13
g31
sbag1
(g25
g3
NtRp743
(dp744
g19
Nsg28
Nsg12
I289
sg29
S'kInvisible'
p745
sg13
g31
sbag1
(g25
g3
NtRp746
(dp747
g19
Nsg28
Nsg12
I290
sg29
S'kLinked'
p748
sg13
g31
sbag1
(g25
g3
NtRp749
(dp750
g19
Nsg28
Nsg12
I291
sg29
S'kMultiline'
p751
sg13
g31
sbag1
(g25
g3
NtRp752
(dp753
g19
Nsg28
Nsg12
I292
sg29
S'kMultiselectable'
p754
sg13
g31
sbag1
(g25
g3
NtRp755
(dp756
g19
Nsg28
Nsg12
I293
sg29
S'kProtected'
p757
sg13
g31
sbag1
(g25
g3
NtRp758
(dp759
g19
Nsg28
Nsg12
I294
sg29
S'kRequired'
p760
sg13
g31
sbag1
(g25
g3
NtRp761
(dp762
g19
Nsg28
Nsg12
I295
sg29
S'kRichlyEditable'
p763
sg13
g31
sbag1
(g25
g3
NtRp764
(dp765
g19
Nsg28
Nsg12
I297
sg29
S'kVertical'
p766
sg13
g31
sbag1
(g25
g3
NtRp767
(dp768
g19
Nsg28
Nsg12
I298
sg29
S'kVisited'
p769
sg13
g31
sbasg12
I277
sg13
g31
sbsg12
I276
sg29
S'State'
p770
sg13
g31
sbag1
(g16
g3
NtRp771
(dp772
g19
Nsg20
g1
(g21
g3
NtRp773
(dp774
g10
(lp775
g1
(g25
g3
NtRp776
(dp777
g19
Nsg28
Nsg12
I305
sg29
S'kNone'
p778
sg13
g31
sbag1
(g25
g3
NtRp779
(dp780
g19
Nsg28
Nsg12
I306
sg29
S'kBlur'
p781
sg13
g31
sbag1
(g25
g3
NtRp782
(dp783
g19
Nsg28
Nsg12
I311
sg29
S'kClearAccessibilityFocus'
p784
sg13
g31
sbag1
(g25
g3
NtRp785
(dp786
g19
Nsg28
Nsg12
I313
sg29
S'kCustomAction'
p787
sg13
g31
sbag1
(g25
g3
NtRp788
(dp789
g19
Nsg28
Nsg12
I316
sg29
S'kDecrement'
p790
sg13
g31
sbag1
(g25
g3
NtRp791
(dp792
g19
Nsg28
Nsg12
I319
sg29
S'kDoDefault'
p793
sg13
g31
sbag1
(g25
g3
NtRp794
(dp795
g19
Nsg28
Nsg12
I321
sg29
S'kFocus'
p796
sg13
g31
sbag1
(g25
g3
NtRp797
(dp798
g19
Nsg28
Nsg12
I324
sg29
S'kGetImageData'
p799
sg13
g31
sbag1
(g25
g3
NtRp800
(dp801
g19
Nsg28
Nsg12
I328
sg29
S'kHitTest'
p802
sg13
g31
sbag1
(g25
g3
NtRp803
(dp804
g19
Nsg28
Nsg12
I331
sg29
S'kIncrement'
p805
sg13
g31
sbag1
(g25
g3
NtRp806
(dp807
g19
Nsg28
Nsg12
I336
sg29
S'kLoadInlineTextBoxes'
p808
sg13
g31
sbag1
(g25
g3
NtRp809
(dp810
g19
Nsg28
Nsg12
I340
sg29
S'kReplaceSelectedText'
p811
sg13
g31
sbag1
(g25
g3
NtRp812
(dp813
g19
Nsg28
Nsg12
I344
sg29
S'kScrollBackward'
p814
sg13
g31
sbag1
(g25
g3
NtRp815
(dp816
g19
Nsg28
Nsg12
I345
sg29
S'kScrollDown'
p817
sg13
g31
sbag1
(g25
g3
NtRp818
(dp819
g19
Nsg28
Nsg12
I346
sg29
S'kScrollForward'
p820
sg13
g31
sbag1
(g25
g3
NtRp821
(dp822
g19
Nsg28
Nsg12
I347
sg29
S'kScrollLeft'
p823
sg13
g31
sbag1
(g25
g3
NtRp824
(dp825
g19
Nsg28
Nsg12
I348
sg29
S'kScrollRight'
p826
sg13
g31
sbag1
(g25
g3
NtRp827
(dp828
g19
Nsg28
Nsg12
I349
sg29
S'kScrollUp'
p829
sg13
g31
sbag1
(g25
g3
NtRp830
(dp831
g19
Nsg28
Nsg12
I354
sg29
S'kScrollToMakeVisible'
p832
sg13
g31
sbag1
(g25
g3
NtRp833
(dp834
g19
Nsg28
Nsg12
I358
sg29
S'kScrollToPoint'
p835
sg13
g31
sbag1
(g25
g3
NtRp836
(dp837
g19
Nsg28
Nsg12
I363
sg29
S'kSetAccessibilityFocus'
p838
sg13
g31
sbag1
(g25
g3
NtRp839
(dp840
g19
Nsg28
Nsg12
I365
sg29
S'kSetScrollOffset'
p841
sg13
g31
sbag1
(g25
g3
NtRp842
(dp843
g19
Nsg28
Nsg12
I366
sg29
S'kSetSelection'
p844
sg13
g31
sbag1
(g25
g3
NtRp845
(dp846
g19
Nsg28
Nsg12
I371
sg29
S'kSetSequentialFocusNavigationStartingPoint'
p847
sg13
g31
sbag1
(g25
g3
NtRp848
(dp849
g19
Nsg28
Nsg12
I375
sg29
S'kSetValue'
p850
sg13
g31
sbag1
(g25
g3
NtRp851
(dp852
g19
Nsg28
Nsg12
I377
sg29
S'kShowContextMenu'
p853
sg13
g31
sbasg12
I305
sg13
g31
sbsg12
I304
sg29
S'Action'
p854
sg13
g31
sbag1
(g16
g3
NtRp855
(dp856
g19
Nsg20
g1
(g21
g3
NtRp857
(dp858
g10
(lp859
g1
(g25
g3
NtRp860
(dp861
g19
Nsg28
Nsg12
I381
sg29
S'kNone'
p862
sg13
g31
sbag1
(g25
g3
NtRp863
(dp864
g19
Nsg28
Nsg12
I382
sg29
S'kRequestImages'
p865
sg13
g31
sbag1
(g25
g3
NtRp866
(dp867
g19
Nsg28
Nsg12
I383
sg29
S'kRequestInlineTextBoxes'
p868
sg13
g31
sbasg12
I381
sg13
g31
sbsg12
I380
sg29
S'ActionFlags'
p869
sg13
g31
sbag1
(g16
g3
NtRp870
(dp871
g19
Nsg20
g1
(g21
g3
NtRp872
(dp873
g10
(lp874
g1
(g25
g3
NtRp875
(dp876
g19
Nsg28
Nsg12
I393
sg29
S'kNone'
p877
sg13
g31
sbag1
(g25
g3
NtRp878
(dp879
g19
Nsg28
Nsg12
I394
sg29
S'kActivate'
p880
sg13
g31
sbag1
(g25
g3
NtRp881
(dp882
g19
Nsg28
Nsg12
I395
sg29
S'kCheck'
p883
sg13
g31
sbag1
(g25
g3
NtRp884
(dp885
g19
Nsg28
Nsg12
I396
sg29
S'kClick'
p886
sg13
g31
sbag1
(g25
g3
NtRp887
(dp888
g19
Nsg28
Nsg12
I402
sg29
S'kClickAncestor'
p889
sg13
g31
sbag1
(g25
g3
NtRp890
(dp891
g19
Nsg28
Nsg12
I404
sg29
S'kJump'
p892
sg13
g31
sbag1
(g25
g3
NtRp893
(dp894
g19
Nsg28
Nsg12
I405
sg29
S'kOpen'
p895
sg13
g31
sbag1
(g25
g3
NtRp896
(dp897
g19
Nsg28
Nsg12
I406
sg29
S'kPress'
p898
sg13
g31
sbag1
(g25
g3
NtRp899
(dp900
g19
Nsg28
Nsg12
I407
sg29
S'kSelect'
p901
sg13
g31
sbag1
(g25
g3
NtRp902
(dp903
g19
Nsg28
Nsg12
I408
sg29
S'kUncheck'
p904
sg13
g31
sbasg12
I393
sg13
g31
sbsg12
I392
sg29
S'DefaultActionVerb'
p905
sg13
g31
sbag1
(g16
g3
NtRp906
(dp907
g19
Nsg20
g1
(g21
g3
NtRp908
(dp909
g10
(lp910
g1
(g25
g3
NtRp911
(dp912
g19
Nsg28
Nsg12
I413
sg29
S'kNone'
p913
sg13
g31
sbag1
(g25
g3
NtRp914
(dp915
g19
Nsg28
Nsg12
I414
sg29
S'kNodeCreated'
p916
sg13
g31
sbag1
(g25
g3
NtRp917
(dp918
g19
Nsg28
Nsg12
I415
sg29
S'kSubtreeCreated'
p919
sg13
g31
sbag1
(g25
g3
NtRp920
(dp921
g19
Nsg28
Nsg12
I416
sg29
S'kNodeChanged'
p922
sg13
g31
sbag1
(g25
g3
NtRp923
(dp924
g19
Nsg28
Nsg12
I417
sg29
S'kNodeRemoved'
p925
sg13
g31
sbasg12
I413
sg13
g31
sbsg12
I412
sg29
S'Mutation'
p926
sg13
g31
sbag1
(g16
g3
NtRp927
(dp928
g19
Nsg20
g1
(g21
g3
NtRp929
(dp930
g10
(lp931
g1
(g25
g3
NtRp932
(dp933
g19
Nsg28
Nsg12
I421
sg29
S'kNone'
p934
sg13
g31
sbag1
(g25
g3
NtRp935
(dp936
g19
Nsg28
Nsg12
I422
sg29
S'kAccessKey'
p937
sg13
g31
sbag1
(g25
g3
NtRp938
(dp939
g19
Nsg28
Nsg12
I424
sg29
S'kAriaInvalidValue'
p940
sg13
g31
sbag1
(g25
g3
NtRp941
(dp942
g19
Nsg28
Nsg12
I425
sg29
S'kAutoComplete'
p943
sg13
g31
sbag1
(g25
g3
NtRp944
(dp945
g19
Nsg28
Nsg12
I426
sg29
S'kChromeChannel'
p946
sg13
g31
sbag1
(g25
g3
NtRp947
(dp948
g19
Nsg28
Nsg12
I427
sg29
S'kClassName'
p949
sg13
g31
sbag1
(g25
g3
NtRp950
(dp951
g19
Nsg28
Nsg12
I428
sg29
S'kContainerLiveRelevant'
p952
sg13
g31
sbag1
(g25
g3
NtRp953
(dp954
g19
Nsg28
Nsg12
I429
sg29
S'kContainerLiveStatus'
p955
sg13
g31
sbag1
(g25
g3
NtRp956
(dp957
g19
Nsg28
Nsg12
I430
sg29
S'kDescription'
p958
sg13
g31
sbag1
(g25
g3
NtRp959
(dp960
g19
Nsg28
Nsg12
I431
sg29
S'kDisplay'
p961
sg13
g31
sbag1
(g25
g3
NtRp962
(dp963
g19
Nsg28
Nsg12
I433
sg29
S'kFontFamily'
p964
sg13
g31
sbag1
(g25
g3
NtRp965
(dp966
g19
Nsg28
Nsg12
I434
sg29
S'kHtmlTag'
p967
sg13
g31
sbag1
(g25
g3
NtRp968
(dp969
g19
Nsg28
Nsg12
I435
sg29
S'kImageDataUrl'
p970
sg13
g31
sbag1
(g25
g3
NtRp971
(dp972
g19
Nsg28
Nsg12
I436
sg29
S'kInnerHtml'
p973
sg13
g31
sbag1
(g25
g3
NtRp974
(dp975
g19
Nsg28
Nsg12
I437
sg29
S'kKeyShortcuts'
p976
sg13
g31
sbag1
(g25
g3
NtRp977
(dp978
g19
Nsg28
Nsg12
I439
sg29
S'kLanguage'
p979
sg13
g31
sbag1
(g25
g3
NtRp980
(dp981
g19
Nsg28
Nsg12
I440
sg29
S'kName'
p982
sg13
g31
sbag1
(g25
g3
NtRp983
(dp984
g19
Nsg28
Nsg12
I441
sg29
S'kLiveRelevant'
p985
sg13
g31
sbag1
(g25
g3
NtRp986
(dp987
g19
Nsg28
Nsg12
I442
sg29
S'kLiveStatus'
p988
sg13
g31
sbag1
(g25
g3
NtRp989
(dp990
g19
Nsg28
Nsg12
I443
sg29
S'kPlaceholder'
p991
sg13
g31
sbag1
(g25
g3
NtRp992
(dp993
g19
Nsg28
Nsg12
I444
sg29
S'kRole'
p994
sg13
g31
sbag1
(g25
g3
NtRp995
(dp996
g19
Nsg28
Nsg12
I445
sg29
S'kRoleDescription'
p997
sg13
g31
sbag1
(g25
g3
NtRp998
(dp999
g19
Nsg28
Nsg12
I446
sg29
S'kUrl'
p1000
sg13
g31
sbag1
(g25
g3
NtRp1001
(dp1002
g19
Nsg28
Nsg12
I447
sg29
S'kValue'
p1003
sg13
g31
sbasg12
I421
sg13
g31
sbsg12
I420
sg29
S'StringAttribute'
p1004
sg13
g31
sbag1
(g16
g3
NtRp1005
(dp1006
g19
Nsg20
g1
(g21
g3
NtRp1007
(dp1008
g10
(lp1009
g1
(g25
g3
NtRp1010
(dp1011
g19
Nsg28
Nsg12
I451
sg29
S'kNone'
p1012
sg13
g31
sbag1
(g25
g3
NtRp1013
(dp1014
g19
Nsg28
Nsg12
I452
sg29
S'kDefaultActionVerb'
p1015
sg13
g31
sbag1
(g25
g3
NtRp1016
(dp1017
g19
Nsg28
Nsg12
I454
sg29
S'kScrollX'
p1018
sg13
g31
sbag1
(g25
g3
NtRp1019
(dp1020
g19
Nsg28
Nsg12
I455
sg29
S'kScrollXMin'
p1021
sg13
g31
sbag1
(g25
g3
NtRp1022
(dp1023
g19
Nsg28
Nsg12
I456
sg29
S'kScrollXMax'
p1024
sg13
g31
sbag1
(g25
g3
NtRp1025
(dp1026
g19
Nsg28
Nsg12
I457
sg29
S'kScrollY'
p1027
sg13
g31
sbag1
(g25
g3
NtRp1028
(dp1029
g19
Nsg28
Nsg12
I458
sg29
S'kScrollYMin'
p1030
sg13
g31
sbag1
(g25
g3
NtRp1031
(dp1032
g19
Nsg28
Nsg12
I459
sg29
S'kScrollYMax'
p1033
sg13
g31
sbag1
(g25
g3
NtRp1034
(dp1035
g19
Nsg28
Nsg12
I462
sg29
S'kTextSelStart'
p1036
sg13
g31
sbag1
(g25
g3
NtRp1037
(dp1038
g19
Nsg28
Nsg12
I463
sg29
S'kTextSelEnd'
p1039
sg13
g31
sbag1
(g25
g3
NtRp1040
(dp1041
g19
Nsg28
Nsg12
I466
sg29
S'kAriaColumnCount'
p1042
sg13
g31
sbag1
(g25
g3
NtRp1043
(dp1044
g19
Nsg28
Nsg12
I467
sg29
S'kAriaCellColumnIndex'
p1045
sg13
g31
sbag1
(g25
g3
NtRp1046
(dp1047
g19
Nsg28
Nsg12
I468
sg29
S'kAriaRowCount'
p1048
sg13
g31
sbag1
(g25
g3
NtRp1049
(dp1050
g19
Nsg28
Nsg12
I469
sg29
S'kAriaCellRowIndex'
p1051
sg13
g31
sbag1
(g25
g3
NtRp1052
(dp1053
g19
Nsg28
Nsg12
I472
sg29
S'kTableRowCount'
p1054
sg13
g31
sbag1
(g25
g3
NtRp1055
(dp1056
g19
Nsg28
Nsg12
I473
sg29
S'kTableColumnCount'
p1057
sg13
g31
sbag1
(g25
g3
NtRp1058
(dp1059
g19
Nsg28
Nsg12
I474
sg29
S'kTableHeaderId'
p1060
sg13
g31
sbag1
(g25
g3
NtRp1061
(dp1062
g19
Nsg28
Nsg12
I477
sg29
S'kTableRowIndex'
p1063
sg13
g31
sbag1
(g25
g3
NtRp1064
(dp1065
g19
Nsg28
Nsg12
I478
sg29
S'kTableRowHeaderId'
p1066
sg13
g31
sbag1
(g25
g3
NtRp1067
(dp1068
g19
Nsg28
Nsg12
I481
sg29
S'kTableColumnIndex'
p1069
sg13
g31
sbag1
(g25
g3
NtRp1070
(dp1071
g19
Nsg28
Nsg12
I482
sg29
S'kTableColumnHeaderId'
p1072
sg13
g31
sbag1
(g25
g3
NtRp1073
(dp1074
g19
Nsg28
Nsg12
I485
sg29
S'kTableCellColumnIndex'
p1075
sg13
g31
sbag1
(g25
g3
NtRp1076
(dp1077
g19
Nsg28
Nsg12
I486
sg29
S'kTableCellColumnSpan'
p1078
sg13
g31
sbag1
(g25
g3
NtRp1079
(dp1080
g19
Nsg28
Nsg12
I487
sg29
S'kTableCellRowIndex'
p1081
sg13
g31
sbag1
(g25
g3
NtRp1082
(dp1083
g19
Nsg28
Nsg12
I488
sg29
S'kTableCellRowSpan'
p1084
sg13
g31
sbag1
(g25
g3
NtRp1085
(dp1086
g19
Nsg28
Nsg12
I489
sg29
S'kSortDirection'
p1087
sg13
g31
sbag1
(g25
g3
NtRp1088
(dp1089
g19
Nsg28
Nsg12
I492
sg29
S'kHierarchicalLevel'
p1090
sg13
g31
sbag1
(g25
g3
NtRp1091
(dp1092
g19
Nsg28
Nsg12
I496
sg29
S'kNameFrom'
p1093
sg13
g31
sbag1
(g25
g3
NtRp1094
(dp1095
g19
Nsg28
Nsg12
I500
sg29
S'kDescriptionFrom'
p1096
sg13
g31
sbag1
(g25
g3
NtRp1097
(dp1098
g19
Nsg28
Nsg12
I503
sg29
S'kActivedescendantId'
p1099
sg13
g31
sbag1
(g25
g3
NtRp1100
(dp1101
g19
Nsg28
Nsg12
I504
sg29
S'kDetailsId'
p1102
sg13
g31
sbag1
(g25
g3
NtRp1103
(dp1104
g19
Nsg28
Nsg12
I505
sg29
S'kErrormessageId'
p1105
sg13
g31
sbag1
(g25
g3
NtRp1106
(dp1107
g19
Nsg28
Nsg12
I506
sg29
S'kInPageLinkTargetId'
p1108
sg13
g31
sbag1
(g25
g3
NtRp1109
(dp1110
g19
Nsg28
Nsg12
I507
sg29
S'kMemberOfId'
p1111
sg13
g31
sbag1
(g25
g3
NtRp1112
(dp1113
g19
Nsg28
Nsg12
I508
sg29
S'kNextOnLineId'
p1114
sg13
g31
sbag1
(g25
g3
NtRp1115
(dp1116
g19
Nsg28
Nsg12
I509
sg29
S'kPreviousOnLineId'
p1117
sg13
g31
sbag1
(g25
g3
NtRp1118
(dp1119
g19
Nsg28
Nsg12
I512
sg29
S'kChildTreeId'
p1120
sg13
g31
sbag1
(g25
g3
NtRp1121
(dp1122
g19
Nsg28
Nsg12
I517
sg29
S'kRestriction'
p1123
sg13
g31
sbag1
(g25
g3
NtRp1124
(dp1125
g19
Nsg28
Nsg12
I520
sg29
S'kSetSize'
p1126
sg13
g31
sbag1
(g25
g3
NtRp1127
(dp1128
g19
Nsg28
Nsg12
I521
sg29
S'kPosInSet'
p1129
sg13
g31
sbag1
(g25
g3
NtRp1130
(dp1131
g19
Nsg28
Nsg12
I524
sg29
S'kColorValue'
p1132
sg13
g31
sbag1
(g25
g3
NtRp1133
(dp1134
g19
Nsg28
Nsg12
I528
sg29
S'kAriaCurrentState'
p1135
sg13
g31
sbag1
(g25
g3
NtRp1136
(dp1137
g19
Nsg28
Nsg12
I533
sg29
S'kBackgroundColor'
p1138
sg13
g31
sbag1
(g25
g3
NtRp1139
(dp1140
g19
Nsg28
Nsg12
I534
sg29
S'kColor'
p1141
sg13
g31
sbag1
(g25
g3
NtRp1142
(dp1143
g19
Nsg28
Nsg12
I536
sg29
S'kHasPopup'
p1144
sg13
g31
sbag1
(g25
g3
NtRp1145
(dp1146
g19
Nsg28
Nsg12
I540
sg29
S'kInvalidState'
p1147
sg13
g31
sbag1
(g25
g3
NtRp1148
(dp1149
g19
Nsg28
Nsg12
I543
sg29
S'kCheckedState'
p1150
sg13
g31
sbag1
(g25
g3
NtRp1151
(dp1152
g19
Nsg28
Nsg12
I546
sg29
S'kTextDirection'
p1153
sg13
g31
sbag1
(g25
g3
NtRp1154
(dp1155
g19
Nsg28
Nsg12
I549
sg29
S'kTextPosition'
p1156
sg13
g31
sbag1
(g25
g3
NtRp1157
(dp1158
g19
Nsg28
Nsg12
I552
sg29
S'kTextStyle'
p1159
sg13
g31
sbag1
(g25
g3
NtRp1160
(dp1161
g19
Nsg28
Nsg12
I555
sg29
S'kPreviousFocusId'
p1162
sg13
g31
sbag1
(g25
g3
NtRp1163
(dp1164
g19
Nsg28
Nsg12
I556
sg29
S'kNextFocusId'
p1165
sg13
g31
sbasg12
I451
sg13
g31
sbsg12
I450
sg29
S'IntAttribute'
p1166
sg13
g31
sbag1
(g16
g3
NtRp1167
(dp1168
g19
Nsg20
g1
(g21
g3
NtRp1169
(dp1170
g10
(lp1171
g1
(g25
g3
NtRp1172
(dp1173
g19
Nsg28
Nsg12
I560
sg29
S'kNone'
p1174
sg13
g31
sbag1
(g25
g3
NtRp1175
(dp1176
g19
Nsg28
Nsg12
I562
sg29
S'kValueForRange'
p1177
sg13
g31
sbag1
(g25
g3
NtRp1178
(dp1179
g19
Nsg28
Nsg12
I563
sg29
S'kMinValueForRange'
p1180
sg13
g31
sbag1
(g25
g3
NtRp1181
(dp1182
g19
Nsg28
Nsg12
I564
sg29
S'kMaxValueForRange'
p1183
sg13
g31
sbag1
(g25
g3
NtRp1184
(dp1185
g19
Nsg28
Nsg12
I565
sg29
S'kStepValueForRange'
p1186
sg13
g31
sbag1
(g25
g3
NtRp1187
(dp1188
g19
Nsg28
Nsg12
I569
sg29
S'kFontSize'
p1189
sg13
g31
sbasg12
I560
sg13
g31
sbsg12
I559
sg29
S'FloatAttribute'
p1190
sg13
g31
sbag1
(g16
g3
NtRp1191
(dp1192
g19
Nsg20
g1
(g21
g3
NtRp1193
(dp1194
g10
(lp1195
g1
(g25
g3
NtRp1196
(dp1197
g19
Nsg28
Nsg12
I581
sg29
S'kNone'
p1198
sg13
g31
sbag1
(g25
g3
NtRp1199
(dp1200
g19
Nsg28
Nsg12
I583
sg29
S'kBusy'
p1201
sg13
g31
sbag1
(g25
g3
NtRp1202
(dp1203
g19
Nsg28
Nsg12
I586
sg29
S'kEditableRoot'
p1204
sg13
g31
sbag1
(g25
g3
NtRp1205
(dp1206
g19
Nsg28
Nsg12
I589
sg29
S'kContainerLiveAtomic'
p1207
sg13
g31
sbag1
(g25
g3
NtRp1208
(dp1209
g19
Nsg28
Nsg12
I590
sg29
S'kContainerLiveBusy'
p1210
sg13
g31
sbag1
(g25
g3
NtRp1211
(dp1212
g19
Nsg28
Nsg12
I591
sg29
S'kLiveAtomic'
p1213
sg13
g31
sbag1
(g25
g3
NtRp1214
(dp1215
g19
Nsg28
Nsg12
I594
sg29
S'kModal'
p1216
sg13
g31
sbag1
(g25
g3
NtRp1217
(dp1218
g19
Nsg28
Nsg12
I598
sg29
S'kUpdateLocationOnly'
p1219
sg13
g31
sbag1
(g25
g3
NtRp1220
(dp1221
g19
Nsg28
Nsg12
I601
sg29
S'kCanvasHasFallback'
p1222
sg13
g31
sbag1
(g25
g3
NtRp1223
(dp1224
g19
Nsg28
Nsg12
I604
sg29
S'kScrollable'
p1225
sg13
g31
sbag1
(g25
g3
NtRp1226
(dp1227
g19
Nsg28
Nsg12
I607
sg29
S'kClickable'
p1228
sg13
g31
sbag1
(g25
g3
NtRp1229
(dp1230
g19
Nsg28
Nsg12
I611
sg29
S'kClipsChildren'
p1231
sg13
g31
sbag1
(g25
g3
NtRp1232
(dp1233
g19
Nsg28
Nsg12
I614
sg29
S'kSelected'
p1234
sg13
g31
sbasg12
I581
sg13
g31
sbsg12
I580
sg29
S'BoolAttribute'
p1235
sg13
g31
sbag1
(g16
g3
NtRp1236
(dp1237
g19
Nsg20
g1
(g21
g3
NtRp1238
(dp1239
g10
(lp1240
g1
(g25
g3
NtRp1241
(dp1242
g19
Nsg28
Nsg12
I618
sg29
S'kNone'
p1243
sg13
g31
sbag1
(g25
g3
NtRp1244
(dp1245
g19
Nsg28
Nsg12
I623
sg29
S'kIndirectChildIds'
p1246
sg13
g31
sbag1
(g25
g3
NtRp1247
(dp1248
g19
Nsg28
Nsg12
I626
sg29
S'kControlsIds'
p1249
sg13
g31
sbag1
(g25
g3
NtRp1250
(dp1251
g19
Nsg28
Nsg12
I627
sg29
S'kDescribedbyIds'
p1252
sg13
g31
sbag1
(g25
g3
NtRp1253
(dp1254
g19
Nsg28
Nsg12
I628
sg29
S'kFlowtoIds'
p1255
sg13
g31
sbag1
(g25
g3
NtRp1256
(dp1257
g19
Nsg28
Nsg12
I629
sg29
S'kLabelledbyIds'
p1258
sg13
g31
sbag1
(g25
g3
NtRp1259
(dp1260
g19
Nsg28
Nsg12
I630
sg29
S'kRadioGroupIds'
p1261
sg13
g31
sbag1
(g25
g3
NtRp1262
(dp1263
g19
Nsg28
Nsg12
I635
sg29
S'kLineBreaks'
p1264
sg13
g31
sbag1
(g25
g3
NtRp1265
(dp1266
g19
Nsg28
Nsg12
I640
sg29
S'kMarkerTypes'
p1267
sg13
g31
sbag1
(g25
g3
NtRp1268
(dp1269
g19
Nsg28
Nsg12
I641
sg29
S'kMarkerStarts'
p1270
sg13
g31
sbag1
(g25
g3
NtRp1271
(dp1272
g19
Nsg28
Nsg12
I642
sg29
S'kMarkerEnds'
p1273
sg13
g31
sbag1
(g25
g3
NtRp1274
(dp1275
g19
Nsg28
Nsg12
I650
sg29
S'kCharacterOffsets'
p1276
sg13
g31
sbag1
(g25
g3
NtRp1277
(dp1278
g19
Nsg28
Nsg12
I656
sg29
S'kCachedLineStarts'
p1279
sg13
g31
sbag1
(g25
g3
NtRp1280
(dp1281
g19
Nsg28
Nsg12
I660
sg29
S'kWordStarts'
p1282
sg13
g31
sbag1
(g25
g3
NtRp1283
(dp1284
g19
Nsg28
Nsg12
I661
sg29
S'kWordEnds'
p1285
sg13
g31
sbag1
(g25
g3
NtRp1286
(dp1287
g19
Nsg28
Nsg12
I667
sg29
S'kCustomActionIds'
p1288
sg13
g31
sbasg12
I618
sg13
g31
sbsg12
I617
sg29
S'IntListAttribute'
p1289
sg13
g31
sbag1
(g16
g3
NtRp1290
(dp1291
g19
Nsg20
g1
(g21
g3
NtRp1292
(dp1293
g10
(lp1294
g1
(g25
g3
NtRp1295
(dp1296
g19
Nsg28
Nsg12
I671
sg29
S'kNone'
p1297
sg13
g31
sbag1
(g25
g3
NtRp1298
(dp1299
g19
Nsg28
Nsg12
I674
sg29
S'kCustomActionDescriptions'
p1300
sg13
g31
sbasg12
I671
sg13
g31
sbsg12
I670
sg29
S'StringListAttribute'
p1301
sg13
g31
sbag1
(g16
g3
NtRp1302
(dp1303
g19
Nsg20
g1
(g21
g3
NtRp1304
(dp1305
g10
(lp1306
g1
(g25
g3
NtRp1307
(dp1308
g19
Nsg28
Nsg12
I680
sg29
S'kNone'
p1309
sg13
g31
sbag1
(g25
g3
NtRp1310
(dp1311
g19
Nsg28
S'1'
sg12
I682
sg29
S'kSpelling'
p1312
sg13
g31
sbag1
(g25
g3
NtRp1313
(dp1314
g19
Nsg28
S'2'
sg12
I683
sg29
S'kGrammar'
p1315
sg13
g31
sbag1
(g25
g3
NtRp1316
(dp1317
g19
Nsg28
S'3'
sg12
I684
sg29
S'kSpellingGrammar'
p1318
sg13
g31
sbag1
(g25
g3
NtRp1319
(dp1320
g19
Nsg28
S'4'
sg12
I685
sg29
S'kTextMatch'
p1321
sg13
g31
sbag1
(g25
g3
NtRp1322
(dp1323
g19
Nsg28
S'5'
sg12
I686
sg29
S'kSpellingTextMatch'
p1324
sg13
g31
sbag1
(g25
g3
NtRp1325
(dp1326
g19
Nsg28
S'6'
sg12
I687
sg29
S'kGrammarTextMatch'
p1327
sg13
g31
sbag1
(g25
g3
NtRp1328
(dp1329
g19
Nsg28
S'7'
sg12
I688
sg29
S'kSpellingGrammarTextMatch'
p1330
sg13
g31
sbag1
(g25
g3
NtRp1331
(dp1332
g19
Nsg28
S'16'
p1333
sg12
I691
sg29
S'kActiveSuggestion'
p1334
sg13
g31
sbag1
(g25
g3
NtRp1335
(dp1336
g19
Nsg28
S'17'
p1337
sg12
I692
sg29
S'kSpellingActiveSuggestion'
p1338
sg13
g31
sbag1
(g25
g3
NtRp1339
(dp1340
g19
Nsg28
S'18'
p1341
sg12
I693
sg29
S'kGrammarActiveSuggestion'
p1342
sg13
g31
sbag1
(g25
g3
NtRp1343
(dp1344
g19
Nsg28
S'19'
p1345
sg12
I694
sg29
S'kSpellingGrammarActiveSuggestion'
p1346
sg13
g31
sbag1
(g25
g3
NtRp1347
(dp1348
g19
Nsg28
S'20'
p1349
sg12
I695
sg29
S'kTextMatchActiveSuggestion'
p1350
sg13
g31
sbag1
(g25
g3
NtRp1351
(dp1352
g19
Nsg28
S'21'
p1353
sg12
I696
sg29
S'kSpellingTextMatchActiveSuggestion'
p1354
sg13
g31
sbag1
(g25
g3
NtRp1355
(dp1356
g19
Nsg28
S'22'
p1357
sg12
I697
sg29
S'kGrammarTextMatchActiveSuggestion'
p1358
sg13
g31
sbag1
(g25
g3
NtRp1359
(dp1360
g19
Nsg28
S'23'
p1361
sg12
I698
sg29
S'kSpellingGrammarTextMatchActiveSuggestion'
p1362
sg13
g31
sbag1
(g25
g3
NtRp1363
(dp1364
g19
Nsg28
S'32'
p1365
sg12
I699
sg29
S'kSuggestion'
p1366
sg13
g31
sbag1
(g25
g3
NtRp1367
(dp1368
g19
Nsg28
S'33'
p1369
sg12
I700
sg29
S'kSpellingSuggestion'
p1370
sg13
g31
sbag1
(g25
g3
NtRp1371
(dp1372
g19
Nsg28
S'34'
p1373
sg12
I701
sg29
S'kGrammarSuggestion'
p1374
sg13
g31
sbag1
(g25
g3
NtRp1375
(dp1376
g19
Nsg28
S'35'
p1377
sg12
I702
sg29
S'kSpellingGrammarSuggestion'
p1378
sg13
g31
sbag1
(g25
g3
NtRp1379
(dp1380
g19
Nsg28
S'36'
p1381
sg12
I703
sg29
S'kTextMatchSuggestion'
p1382
sg13
g31
sbag1
(g25
g3
NtRp1383
(dp1384
g19
Nsg28
S'37'
p1385
sg12
I704
sg29
S'kSpellingTextMatchSuggestion'
p1386
sg13
g31
sbag1
(g25
g3
NtRp1387
(dp1388
g19
Nsg28
S'38'
p1389
sg12
I705
sg29
S'kGrammarTextMatchSuggestion'
p1390
sg13
g31
sbag1
(g25
g3
NtRp1391
(dp1392
g19
Nsg28
S'39'
p1393
sg12
I706
sg29
S'kSpellingGrammarTextMatchSuggestion'
p1394
sg13
g31
sbag1
(g25
g3
NtRp1395
(dp1396
g19
Nsg28
S'48'
p1397
sg12
I708
sg29
S'kActiveSuggestionSuggestion'
p1398
sg13
g31
sbag1
(g25
g3
NtRp1399
(dp1400
g19
Nsg28
S'49'
p1401
sg12
I709
sg29
S'kSpellingActiveSuggestionSuggestion'
p1402
sg13
g31
sbag1
(g25
g3
NtRp1403
(dp1404
g19
Nsg28
S'50'
p1405
sg12
I710
sg29
S'kGrammarActiveSuggestionSuggestion'
p1406
sg13
g31
sbag1
(g25
g3
NtRp1407
(dp1408
g19
Nsg28
S'51'
p1409
sg12
I711
sg29
S'kSpellingGrammarActiveSuggestionSuggestion'
p1410
sg13
g31
sbag1
(g25
g3
NtRp1411
(dp1412
g19
Nsg28
S'52'
p1413
sg12
I712
sg29
S'kTextMatchActiveSuggestionSuggestion'
p1414
sg13
g31
sbag1
(g25
g3
NtRp1415
(dp1416
g19
Nsg28
S'53'
p1417
sg12
I713
sg29
S'kSpellingTextMatchActiveSuggestionSuggestion'
p1418
sg13
g31
sbag1
(g25
g3
NtRp1419
(dp1420
g19
Nsg28
S'54'
p1421
sg12
I714
sg29
S'kGrammarTextMatchActiveSuggestionSuggestion'
p1422
sg13
g31
sbag1
(g25
g3
NtRp1423
(dp1424
g19
Nsg28
S'55'
p1425
sg12
I715
sg29
S'kSpellingGrammarTextMatchActiveSuggestionSuggestion'
p1426
sg13
g31
sbasg12
I680
sg13
g31
sbsg12
I679
sg29
S'MarkerType'
p1427
sg13
g31
sbag1
(g16
g3
NtRp1428
(dp1429
g19
Nsg20
g1
(g21
g3
NtRp1430
(dp1431
g10
(lp1432
g1
(g25
g3
NtRp1433
(dp1434
g19
Nsg28
Nsg12
I719
sg29
S'kNone'
p1435
sg13
g31
sbag1
(g25
g3
NtRp1436
(dp1437
g19
Nsg28
Nsg12
I720
sg29
S'kLtr'
p1438
sg13
g31
sbag1
(g25
g3
NtRp1439
(dp1440
g19
Nsg28
Nsg12
I721
sg29
S'kRtl'
p1441
sg13
g31
sbag1
(g25
g3
NtRp1442
(dp1443
g19
Nsg28
Nsg12
I722
sg29
S'kTtb'
p1444
sg13
g31
sbag1
(g25
g3
NtRp1445
(dp1446
g19
Nsg28
Nsg12
I723
sg29
S'kBtt'
p1447
sg13
g31
sbasg12
I719
sg13
g31
sbsg12
I718
sg29
S'TextDirection'
p1448
sg13
g31
sbag1
(g16
g3
NtRp1449
(dp1450
g19
Nsg20
g1
(g21
g3
NtRp1451
(dp1452
g10
(lp1453
g1
(g25
g3
NtRp1454
(dp1455
g19
Nsg28
Nsg12
I727
sg29
S'kNone'
p1456
sg13
g31
sbag1
(g25
g3
NtRp1457
(dp1458
g19
Nsg28
Nsg12
I728
sg29
S'kSubscript'
p1459
sg13
g31
sbag1
(g25
g3
NtRp1460
(dp1461
g19
Nsg28
Nsg12
I729
sg29
S'kSuperscript'
p1462
sg13
g31
sbasg12
I727
sg13
g31
sbsg12
I726
sg29
S'TextPosition'
p1463
sg13
g31
sbag1
(g16
g3
NtRp1464
(dp1465
g19
Nsg20
g1
(g21
g3
NtRp1466
(dp1467
g10
(lp1468
g1
(g25
g3
NtRp1469
(dp1470
g19
Nsg28
Nsg12
I735
sg29
S'kNone'
p1471
sg13
g31
sbag1
(g25
g3
NtRp1472
(dp1473
g19
Nsg28
S'1'
sg12
I737
sg29
S'kTextStyleBold'
p1474
sg13
g31
sbag1
(g25
g3
NtRp1475
(dp1476
g19
Nsg28
S'2'
sg12
I738
sg29
S'kTextStyleItalic'
p1477
sg13
g31
sbag1
(g25
g3
NtRp1478
(dp1479
g19
Nsg28
S'3'
sg12
I739
sg29
S'kTextStyleBoldItalic'
p1480
sg13
g31
sbag1
(g25
g3
NtRp1481
(dp1482
g19
Nsg28
S'4'
sg12
I740
sg29
S'kTextStyleUnderline'
p1483
sg13
g31
sbag1
(g25
g3
NtRp1484
(dp1485
g19
Nsg28
S'5'
sg12
I741
sg29
S'kTextStyleBoldUnderline'
p1486
sg13
g31
sbag1
(g25
g3
NtRp1487
(dp1488
g19
Nsg28
S'6'
sg12
I742
sg29
S'kTextStyleItalicUnderline'
p1489
sg13
g31
sbag1
(g25
g3
NtRp1490
(dp1491
g19
Nsg28
S'7'
sg12
I743
sg29
S'kTextStyleBoldItalicUnderline'
p1492
sg13
g31
sbag1
(g25
g3
NtRp1493
(dp1494
g19
Nsg28
S'8'
sg12
I744
sg29
S'kTextStyleLineThrough'
p1495
sg13
g31
sbag1
(g25
g3
NtRp1496
(dp1497
g19
Nsg28
S'9'
sg12
I745
sg29
S'kTextStyleBoldLineThrough'
p1498
sg13
g31
sbag1
(g25
g3
NtRp1499
(dp1500
g19
Nsg28
S'10'
p1501
sg12
I746
sg29
S'kTextStyleItalicLineThrough'
p1502
sg13
g31
sbag1
(g25
g3
NtRp1503
(dp1504
g19
Nsg28
S'11'
p1505
sg12
I747
sg29
S'kTextStyleBoldItalicLineThrough'
p1506
sg13
g31
sbag1
(g25
g3
NtRp1507
(dp1508
g19
Nsg28
S'12'
p1509
sg12
I748
sg29
S'kTextStyleUnderlineLineThrough'
p1510
sg13
g31
sbag1
(g25
g3
NtRp1511
(dp1512
g19
Nsg28
S'13'
p1513
sg12
I749
sg29
S'kTextStyleBoldUnderlineLineThrough'
p1514
sg13
g31
sbag1
(g25
g3
NtRp1515
(dp1516
g19
Nsg28
S'14'
p1517
sg12
I750
sg29
S'kTextStyleItalicUnderlineLineThrough'
p1518
sg13
g31
sbag1
(g25
g3
NtRp1519
(dp1520
g19
Nsg28
S'15'
p1521
sg12
I751
sg29
S'kTextStyleBoldItalicUnderlineLineThrough'
p1522
sg13
g31
sbasg12
I735
sg13
g31
sbsg12
I734
sg29
S'TextStyle'
p1523
sg13
g31
sbag1
(g16
g3
NtRp1524
(dp1525
g19
Nsg20
g1
(g21
g3
NtRp1526
(dp1527
g10
(lp1528
g1
(g25
g3
NtRp1529
(dp1530
g19
Nsg28
Nsg12
I755
sg29
S'kNone'
p1531
sg13
g31
sbag1
(g25
g3
NtRp1532
(dp1533
g19
Nsg28
Nsg12
I756
sg29
S'kFalse'
p1534
sg13
g31
sbag1
(g25
g3
NtRp1535
(dp1536
g19
Nsg28
Nsg12
I757
sg29
S'kTrue'
p1537
sg13
g31
sbag1
(g25
g3
NtRp1538
(dp1539
g19
Nsg28
Nsg12
I758
sg29
S'kPage'
p1540
sg13
g31
sbag1
(g25
g3
NtRp1541
(dp1542
g19
Nsg28
Nsg12
I759
sg29
S'kStep'
p1543
sg13
g31
sbag1
(g25
g3
NtRp1544
(dp1545
g19
Nsg28
Nsg12
I760
sg29
S'kLocation'
p1546
sg13
g31
sbag1
(g25
g3
NtRp1547
(dp1548
g19
Nsg28
Nsg12
I761
sg29
S'kUnclippedLocation'
p1549
sg13
g31
sbag1
(g25
g3
NtRp1550
(dp1551
g19
Nsg28
Nsg12
I762
sg29
S'kDate'
p1552
sg13
g31
sbag1
(g25
g3
NtRp1553
(dp1554
g19
Nsg28
Nsg12
I763
sg29
S'kTime'
p1555
sg13
g31
sbasg12
I755
sg13
g31
sbsg12
I754
sg29
S'AriaCurrentState'
p1556
sg13
g31
sbag1
(g16
g3
NtRp1557
(dp1558
g19
Nsg20
g1
(g21
g3
NtRp1559
(dp1560
g10
(lp1561
g1
(g25
g3
NtRp1562
(dp1563
g19
Nsg28
S'0'
sg12
I767
sg29
S'kFalse'
p1564
sg13
g31
sbag1
(g25
g3
NtRp1565
(dp1566
g19
Nsg28
Nsg12
I768
sg29
S'kTrue'
p1567
sg13
g31
sbag1
(g25
g3
NtRp1568
(dp1569
g19
Nsg28
Nsg12
I769
sg29
S'kMenu'
p1570
sg13
g31
sbag1
(g25
g3
NtRp1571
(dp1572
g19
Nsg28
Nsg12
I770
sg29
S'kListbox'
p1573
sg13
g31
sbag1
(g25
g3
NtRp1574
(dp1575
g19
Nsg28
Nsg12
I771
sg29
S'kTree'
p1576
sg13
g31
sbag1
(g25
g3
NtRp1577
(dp1578
g19
Nsg28
Nsg12
I772
sg29
S'kGrid'
p1579
sg13
g31
sbag1
(g25
g3
NtRp1580
(dp1581
g19
Nsg28
Nsg12
I773
sg29
S'kDialog'
p1582
sg13
g31
sbag1
(g25
g3
NtRp1583
(dp1584
g19
Nsg28
(S'IDENTIFIER'
p1585
S'kDialog'
tp1586
sg12
I774
sg29
S'kLast'
p1587
sg13
g31
sbasg12
I767
sg13
g31
sbsg12
I766
sg29
S'HasPopup'
p1588
sg13
g31
sbag1
(g16
g3
NtRp1589
(dp1590
g19
Nsg20
g1
(g21
g3
NtRp1591
(dp1592
g10
(lp1593
g1
(g25
g3
NtRp1594
(dp1595
g19
Nsg28
Nsg12
I778
sg29
S'kNone'
p1596
sg13
g31
sbag1
(g25
g3
NtRp1597
(dp1598
g19
Nsg28
Nsg12
I779
sg29
S'kFalse'
p1599
sg13
g31
sbag1
(g25
g3
NtRp1600
(dp1601
g19
Nsg28
Nsg12
I780
sg29
S'kTrue'
p1602
sg13
g31
sbag1
(g25
g3
NtRp1603
(dp1604
g19
Nsg28
Nsg12
I781
sg29
S'kSpelling'
p1605
sg13
g31
sbag1
(g25
g3
NtRp1606
(dp1607
g19
Nsg28
Nsg12
I782
sg29
S'kGrammar'
p1608
sg13
g31
sbag1
(g25
g3
NtRp1609
(dp1610
g19
Nsg28
Nsg12
I783
sg29
S'kOther'
p1611
sg13
g31
sbasg12
I778
sg13
g31
sbsg12
I777
sg29
S'InvalidState'
p1612
sg13
g31
sbag1
(g16
g3
NtRp1613
(dp1614
g19
Nsg20
g1
(g21
g3
NtRp1615
(dp1616
g10
(lp1617
g1
(g25
g3
NtRp1618
(dp1619
g19
Nsg28
Nsg12
I791
sg29
S'kNone'
p1620
sg13
g31
sbag1
(g25
g3
NtRp1621
(dp1622
g19
Nsg28
Nsg12
I792
sg29
S'kReadOnly'
p1623
sg13
g31
sbag1
(g25
g3
NtRp1624
(dp1625
g19
Nsg28
Nsg12
I793
sg29
S'kDisabled'
p1626
sg13
g31
sbasg12
I791
sg13
g31
sbsg12
I790
sg29
S'Restriction'
p1627
sg13
g31
sbag1
(g16
g3
NtRp1628
(dp1629
g19
Nsg20
g1
(g21
g3
NtRp1630
(dp1631
g10
(lp1632
g1
(g25
g3
NtRp1633
(dp1634
g19
Nsg28
Nsg12
I797
sg29
S'kNone'
p1635
sg13
g31
sbag1
(g25
g3
NtRp1636
(dp1637
g19
Nsg28
Nsg12
I798
sg29
S'kFalse'
p1638
sg13
g31
sbag1
(g25
g3
NtRp1639
(dp1640
g19
Nsg28
Nsg12
I799
sg29
S'kTrue'
p1641
sg13
g31
sbag1
(g25
g3
NtRp1642
(dp1643
g19
Nsg28
Nsg12
I800
sg29
S'kMixed'
p1644
sg13
g31
sbasg12
I797
sg13
g31
sbsg12
I796
sg29
S'CheckedState'
p1645
sg13
g31
sbag1
(g16
g3
NtRp1646
(dp1647
g19
Nsg20
g1
(g21
g3
NtRp1648
(dp1649
g10
(lp1650
g1
(g25
g3
NtRp1651
(dp1652
g19
Nsg28
Nsg12
I804
sg29
S'kNone'
p1653
sg13
g31
sbag1
(g25
g3
NtRp1654
(dp1655
g19
Nsg28
Nsg12
I805
sg29
S'kUnsorted'
p1656
sg13
g31
sbag1
(g25
g3
NtRp1657
(dp1658
g19
Nsg28
Nsg12
I806
sg29
S'kAscending'
p1659
sg13
g31
sbag1
(g25
g3
NtRp1660
(dp1661
g19
Nsg28
Nsg12
I807
sg29
S'kDescending'
p1662
sg13
g31
sbag1
(g25
g3
NtRp1663
(dp1664
g19
Nsg28
Nsg12
I808
sg29
S'kOther'
p1665
sg13
g31
sbasg12
I804
sg13
g31
sbsg12
I803
sg29
S'SortDirection'
p1666
sg13
g31
sbag1
(g16
g3
NtRp1667
(dp1668
g19
Nsg20
g1
(g21
g3
NtRp1669
(dp1670
g10
(lp1671
g1
(g25
g3
NtRp1672
(dp1673
g19
Nsg28
Nsg12
I812
sg29
S'kNone'
p1674
sg13
g31
sbag1
(g25
g3
NtRp1675
(dp1676
g19
Nsg28
Nsg12
I813
sg29
S'kUninitialized'
p1677
sg13
g31
sbag1
(g25
g3
NtRp1678
(dp1679
g19
Nsg28
Nsg12
I814
sg29
S'kAttribute'
p1680
sg13
g31
sbag1
(g25
g3
NtRp1681
(dp1682
g19
Nsg28
Nsg12
I815
sg29
S'kAttributeExplicitlyEmpty'
p1683
sg13
g31
sbag1
(g25
g3
NtRp1684
(dp1685
g19
Nsg28
Nsg12
I816
sg29
S'kContents'
p1686
sg13
g31
sbag1
(g25
g3
NtRp1687
(dp1688
g19
Nsg28
Nsg12
I817
sg29
S'kPlaceholder'
p1689
sg13
g31
sbag1
(g25
g3
NtRp1690
(dp1691
g19
Nsg28
Nsg12
I818
sg29
S'kRelatedElement'
p1692
sg13
g31
sbag1
(g25
g3
NtRp1693
(dp1694
g19
Nsg28
Nsg12
I819
sg29
S'kValue'
p1695
sg13
g31
sbasg12
I812
sg13
g31
sbsg12
I811
sg29
S'NameFrom'
p1696
sg13
g31
sbag1
(g16
g3
NtRp1697
(dp1698
g19
Nsg20
g1
(g21
g3
NtRp1699
(dp1700
g10
(lp1701
g1
(g25
g3
NtRp1702
(dp1703
g19
Nsg28
Nsg12
I823
sg29
S'kNone'
p1704
sg13
g31
sbag1
(g25
g3
NtRp1705
(dp1706
g19
Nsg28
Nsg12
I824
sg29
S'kUninitialized'
p1707
sg13
g31
sbag1
(g25
g3
NtRp1708
(dp1709
g19
Nsg28
Nsg12
I825
sg29
S'kAttribute'
p1710
sg13
g31
sbag1
(g25
g3
NtRp1711
(dp1712
g19
Nsg28
Nsg12
I826
sg29
S'kContents'
p1713
sg13
g31
sbag1
(g25
g3
NtRp1714
(dp1715
g19
Nsg28
Nsg12
I827
sg29
S'kPlaceholder'
p1716
sg13
g31
sbag1
(g25
g3
NtRp1717
(dp1718
g19
Nsg28
Nsg12
I828
sg29
S'kRelatedElement'
p1719
sg13
g31
sbasg12
I823
sg13
g31
sbsg12
I822
sg29
S'DescriptionFrom'
p1720
sg13
g31
sbag1
(g16
g3
NtRp1721
(dp1722
g19
Nsg20
g1
(g21
g3
NtRp1723
(dp1724
g10
(lp1725
g1
(g25
g3
NtRp1726
(dp1727
g19
Nsg28
Nsg12
I832
sg29
S'kNone'
p1728
sg13
g31
sbag1
(g25
g3
NtRp1729
(dp1730
g19
Nsg28
Nsg12
I833
sg29
S'kUser'
p1731
sg13
g31
sbag1
(g25
g3
NtRp1732
(dp1733
g19
Nsg28
Nsg12
I834
sg29
S'kPage'
p1734
sg13
g31
sbag1
(g25
g3
NtRp1735
(dp1736
g19
Nsg28
Nsg12
I835
sg29
S'kAction'
p1737
sg13
g31
sbasg12
I832
sg13
g31
sbsg12
I831
sg29
S'EventFrom'
p1738
sg13
g31
sbag1
(g16
g3
NtRp1739
(dp1740
g19
Nsg20
g1
(g21
g3
NtRp1741
(dp1742
g10
(lp1743
g1
(g25
g3
NtRp1744
(dp1745
g19
Nsg28
Nsg12
I840
sg29
S'kNone'
p1746
sg13
g31
sbag1
(g25
g3
NtRp1747
(dp1748
g19
Nsg28
Nsg12
I841
sg29
S'kClick'
p1749
sg13
g31
sbag1
(g25
g3
NtRp1750
(dp1751
g19
Nsg28
Nsg12
I842
sg29
S'kSwipeLeft1'
p1752
sg13
g31
sbag1
(g25
g3
NtRp1753
(dp1754
g19
Nsg28
Nsg12
I843
sg29
S'kSwipeUp1'
p1755
sg13
g31
sbag1
(g25
g3
NtRp1756
(dp1757
g19
Nsg28
Nsg12
I844
sg29
S'kSwipeRight1'
p1758
sg13
g31
sbag1
(g25
g3
NtRp1759
(dp1760
g19
Nsg28
Nsg12
I845
sg29
S'kSwipeDown1'
p1761
sg13
g31
sbag1
(g25
g3
NtRp1762
(dp1763
g19
Nsg28
Nsg12
I846
sg29
S'kSwipeLeft2'
p1764
sg13
g31
sbag1
(g25
g3
NtRp1765
(dp1766
g19
Nsg28
Nsg12
I847
sg29
S'kSwipeUp2'
p1767
sg13
g31
sbag1
(g25
g3
NtRp1768
(dp1769
g19
Nsg28
Nsg12
I848
sg29
S'kSwipeRight2'
p1770
sg13
g31
sbag1
(g25
g3
NtRp1771
(dp1772
g19
Nsg28
Nsg12
I849
sg29
S'kSwipeDown2'
p1773
sg13
g31
sbag1
(g25
g3
NtRp1774
(dp1775
g19
Nsg28
Nsg12
I850
sg29
S'kSwipeLeft3'
p1776
sg13
g31
sbag1
(g25
g3
NtRp1777
(dp1778
g19
Nsg28
Nsg12
I851
sg29
S'kSwipeUp3'
p1779
sg13
g31
sbag1
(g25
g3
NtRp1780
(dp1781
g19
Nsg28
Nsg12
I852
sg29
S'kSwipeRight3'
p1782
sg13
g31
sbag1
(g25
g3
NtRp1783
(dp1784
g19
Nsg28
Nsg12
I853
sg29
S'kSwipeDown3'
p1785
sg13
g31
sbag1
(g25
g3
NtRp1786
(dp1787
g19
Nsg28
Nsg12
I854
sg29
S'kSwipeLeft4'
p1788
sg13
g31
sbag1
(g25
g3
NtRp1789
(dp1790
g19
Nsg28
Nsg12
I855
sg29
S'kSwipeUp4'
p1791
sg13
g31
sbag1
(g25
g3
NtRp1792
(dp1793
g19
Nsg28
Nsg12
I856
sg29
S'kSwipeRight4'
p1794
sg13
g31
sbag1
(g25
g3
NtRp1795
(dp1796
g19
Nsg28
Nsg12
I857
sg29
S'kSwipeDown4'
p1797
sg13
g31
sbag1
(g25
g3
NtRp1798
(dp1799
g19
Nsg28
Nsg12
I858
sg29
S'kTap2'
p1800
sg13
g31
sbag1
(g25
g3
NtRp1801
(dp1802
g19
Nsg28
Nsg12
I859
sg29
S'kTap3'
p1803
sg13
g31
sbag1
(g25
g3
NtRp1804
(dp1805
g19
Nsg28
Nsg12
I860
sg29
S'kTap4'
p1806
sg13
g31
sbasg12
I840
sg13
g31
sbsg12
I839
sg29
S'Gesture'
p1807
sg13
g31
sbag1
(g16
g3
NtRp1808
(dp1809
g19
Nsg20
g1
(g21
g3
NtRp1810
(dp1811
g10
(lp1812
g1
(g25
g3
NtRp1813
(dp1814
g19
Nsg28
Nsg12
I864
sg29
S'kNone'
p1815
sg13
g31
sbag1
(g25
g3
NtRp1816
(dp1817
g19
Nsg28
Nsg12
I865
sg29
S'kDownstream'
p1818
sg13
g31
sbag1
(g25
g3
NtRp1819
(dp1820
g19
Nsg28
Nsg12
I866
sg29
S'kUpstream'
p1821
sg13
g31
sbasg12
I864
sg13
g31
sbsg12
I863
sg29
S'TextAffinity'
p1822
sg13
g31
sbag1
(g16
g3
NtRp1823
(dp1824
g19
Nsg20
g1
(g21
g3
NtRp1825
(dp1826
g10
(lp1827
g1
(g25
g3
NtRp1828
(dp1829
g19
Nsg28
Nsg12
I871
sg29
S'kNone'
p1830
sg13
g31
sbag1
(g25
g3
NtRp1831
(dp1832
g19
Nsg28
Nsg12
I873
sg29
S'kUndefined'
p1833
sg13
g31
sbag1
(g25
g3
NtRp1834
(dp1835
g19
Nsg28
Nsg12
I876
sg29
S'kBefore'
p1836
sg13
g31
sbag1
(g25
g3
NtRp1837
(dp1838
g19
Nsg28
Nsg12
I879
sg29
S'kEqual'
p1839
sg13
g31
sbag1
(g25
g3
NtRp1840
(dp1841
g19
Nsg28
Nsg12
I882
sg29
S'kAfter'
p1842
sg13
g31
sbasg12
I871
sg13
g31
sbsg12
I870
sg29
S'TreeOrder'
p1843
sg13
g31
sbasg12
NsS'module'
p1844
g1
(cmojom.parse.ast
Module
p1845
g3
NtRp1846
(dp1847
S'mojom_namespace'
p1848
(g1585
S'ax.mojom'
tp1849
sg12
I6
sg19
Nsg13
g31
sbsg13
Nsb.