ccopy_reg
_reconstructor
p1
(cmojom.parse.ast
Mojom
p2
c__builtin__
object
p3
NtRp4
(dp5
S'import_list'
p6
g1
(cmojom.parse.ast
ImportList
p7
g3
NtRp8
(dp9
S'items'
p10
(lp11
g1
(cmojom.parse.ast
Import
p12
g3
NtRp13
(dp14
S'attribute_list'
p15
NsS'lineno'
p16
I7
sS'import_filename'
p17
S'services/service_manager/public/mojom/constants.mojom'
p18
sS'filename'
p19
S'../../services/service_manager/public/mojom/connector.mojom'
p20
sbag1
(g12
g3
NtRp21
(dp22
g15
Nsg16
I8
sg17
S'services/service_manager/public/mojom/interface_provider.mojom'
p23
sg19
g20
sbasg16
I7
sg19
g20
sbsS'definition_list'
p24
(lp25
g1
(cmojom.parse.ast
Enum
p26
g3
NtRp27
(dp28
g15
NsS'enum_value_list'
p29
g1
(cmojom.parse.ast
EnumValueList
p30
g3
NtRp31
(dp32
g10
(lp33
g1
(cmojom.parse.ast
EnumValue
p34
g3
NtRp35
(dp36
g15
NsS'value'
p37
Nsg16
I14
sS'mojom_name'
p38
S'SUCCEEDED'
p39
sg19
g20
sbag1
(g34
g3
NtRp40
(dp41
g15
Nsg37
Nsg16
I18
sg38
S'INVALID_ARGUMENT'
p42
sg19
g20
sbag1
(g34
g3
NtRp43
(dp44
g15
Nsg37
Nsg16
I24
sg38
S'ACCESS_DENIED'
p45
sg19
g20
sbasg16
I14
sg19
g20
sbsg16
I12
sg38
S'ConnectResult'
p46
sg19
g20
sbag1
(cmojom.parse.ast
Struct
p47
g3
NtRp48
(dp49
S'body'
p50
g1
(cmojom.parse.ast
StructBody
p51
g3
NtRp52
(dp53
g10
(lp54
g1
(cmojom.parse.ast
StructField
p55
g3
NtRp56
(dp57
S'ordinal'
p58
NsS'default_value'
p59
Nsg38
S'name'
p60
sg15
Nsg19
NsS'typename'
p61
S'string'
p62
sg16
Nsbag1
(g55
g3
NtRp63
(dp64
g58
Nsg59
Nsg38
S'user_id'
p65
sg15
Nsg19
Nsg61
S'string'
p66
sg16
Nsbag1
(g55
g3
NtRp67
(dp68
g58
Nsg59
Nsg38
S'instance'
p69
sg15
Nsg19
Nsg61
S'string'
p70
sg16
Nsbasg16
Nsg19
Nsbsg15
Nsg16
Nsg38
S'Identity'
p71
sg19
Nsbag1
(cmojom.parse.ast
Interface
p72
g3
NtRp73
(dp74
g50
g1
(cmojom.parse.ast
InterfaceBody
p75
g3
NtRp76
(dp77
g10
(lp78
g1
(cmojom.parse.ast
Method
p79
g3
NtRp80
(dp81
g58
Nsg38
S'SetPID'
p82
sS'parameter_list'
p83
g1
(cmojom.parse.ast
ParameterList
p84
g3
NtRp85
(dp86
g10
(lp87
g1
(cmojom.parse.ast
Parameter
p88
g3
NtRp89
(dp90
g58
Nsg38
S'pid'
p91
sg15
Nsg19
g20
sg61
S'uint32'
p92
sg16
I63
sbasg16
I63
sg19
g20
sbsg15
Nsg19
Nsg16
NsS'response_parameter_list'
p93
Nsbasg16
Nsg19
Nsbsg15
Nsg16
Nsg38
S'PIDReceiver'
p94
sg19
Nsbag1
(g72
g3
NtRp95
(dp96
g50
g1
(g75
g3
NtRp97
(dp98
g10
(lp99
g1
(g79
g3
NtRp100
(dp101
g58
Nsg38
S'BindInterface'
p102
sg83
g1
(g84
g3
NtRp103
(dp104
g10
(lp105
g1
(g88
g3
NtRp106
(dp107
g58
Nsg38
S'target'
p108
sg15
Nsg19
g20
sg61
S'Identity'
p109
sg16
I103
sbag1
(g88
g3
NtRp110
(dp111
g58
Nsg38
S'interface_name'
p112
sg15
Nsg19
g20
sg61
S'string'
p113
sg16
I104
sbag1
(g88
g3
NtRp114
(dp115
g58
Nsg38
S'interface_pipe'
p116
sg15
Nsg19
g20
sg61
S'handle<message_pipe>'
p117
sg16
I105
sbasg16
I103
sg19
g20
sbsg15
Nsg19
Nsg16
Nsg93
g1
(g84
g3
NtRp118
(dp119
g10
(lp120
g1
(g88
g3
NtRp121
(dp122
g58
Nsg38
S'result'
p123
sg15
Nsg19
g20
sg61
S'ConnectResult'
p124
sg16
I106
sbag1
(g88
g3
NtRp125
(dp126
g58
Nsg38
S'user_id'
p127
sg15
Nsg19
g20
sg61
S'Identity'
p128
sg16
I106
sbasg16
I106
sg19
g20
sbsbag1
(g79
g3
NtRp129
(dp130
g58
Nsg38
S'QueryService'
p131
sg83
g1
(g84
g3
NtRp132
(dp133
g10
(lp134
g1
(g88
g3
NtRp135
(dp136
g58
Nsg38
S'target'
p137
sg15
Nsg19
g20
sg61
S'Identity'
p138
sg16
I128
sbasg16
I128
sg19
g20
sbsg15
Nsg19
Nsg16
Nsg93
g1
(g84
g3
NtRp139
(dp140
g10
(lp141
g1
(g88
g3
NtRp142
(dp143
g58
Nsg38
S'result'
p144
sg15
Nsg19
g20
sg61
S'ConnectResult'
p145
sg16
I128
sbag1
(g88
g3
NtRp146
(dp147
g58
Nsg38
S'sandbox_type'
p148
sg15
Nsg19
g20
sg61
S'string'
p149
sg16
I128
sbasg16
I128
sg19
g20
sbsbag1
(g79
g3
NtRp150
(dp151
g58
Nsg38
S'StartService'
p152
sg83
g1
(g84
g3
NtRp153
(dp154
g10
(lp155
g1
(g88
g3
NtRp156
(dp157
g58
Nsg38
S'target'
p158
sg15
Nsg19
g20
sg61
S'Identity'
p159
sg16
I151
sbasg16
I151
sg19
g20
sbsg15
Nsg19
Nsg16
Nsg93
g1
(g84
g3
NtRp160
(dp161
g10
(lp162
g1
(g88
g3
NtRp163
(dp164
g58
Nsg38
S'result'
p165
sg15
Nsg19
g20
sg61
S'ConnectResult'
p166
sg16
I151
sbag1
(g88
g3
NtRp167
(dp168
g58
Nsg38
S'identity'
p169
sg15
Nsg19
g20
sg61
S'Identity'
p170
sg16
I151
sbasg16
I151
sg19
g20
sbsbag1
(g79
g3
NtRp171
(dp172
g58
Nsg38
S'StartServiceWithProcess'
p173
sg83
g1
(g84
g3
NtRp174
(dp175
g10
(lp176
g1
(g88
g3
NtRp177
(dp178
g58
Nsg38
S'target'
p179
sg15
Nsg19
g20
sg61
S'Identity'
p180
sg16
I177
sbag1
(g88
g3
NtRp181
(dp182
g58
Nsg38
S'service'
p183
sg15
Nsg19
g20
sg61
S'handle<message_pipe>'
p184
sg16
I178
sbag1
(g88
g3
NtRp185
(dp186
g58
Nsg38
S'pid_receiver_request'
p187
sg15
Nsg19
g20
sg61
S'PIDReceiver&'
p188
sg16
I179
sbasg16
I177
sg19
g20
sbsg15
Nsg19
Nsg16
Nsg93
g1
(g84
g3
NtRp189
(dp190
g10
(lp191
g1
(g88
g3
NtRp192
(dp193
g58
Nsg38
S'result'
p194
sg15
Nsg19
g20
sg61
S'ConnectResult'
p195
sg16
I180
sbag1
(g88
g3
NtRp196
(dp197
g58
Nsg38
S'identity'
p198
sg15
Nsg19
g20
sg61
S'Identity'
p199
sg16
I180
sbasg16
I180
sg19
g20
sbsbag1
(g79
g3
NtRp200
(dp201
g58
Nsg38
S'Clone'
p202
sg83
g1
(g84
g3
NtRp203
(dp204
g10
(lp205
g1
(g88
g3
NtRp206
(dp207
g58
Nsg38
S'request'
p208
sg15
Nsg19
g20
sg61
S'Connector&'
p209
sg16
I183
sbasg16
I183
sg19
g20
sbsg15
Nsg19
Nsg16
Nsg93
Nsbag1
(g79
g3
NtRp210
(dp211
g58
Nsg38
S'FilterInterfaces'
p212
sg83
g1
(g84
g3
NtRp213
(dp214
g10
(lp215
g1
(g88
g3
NtRp216
(dp217
g58
Nsg38
S'spec'
p218
sg15
Nsg19
g20
sg61
S'string'
p219
sg16
I196
sbag1
(g88
g3
NtRp220
(dp221
g58
Nsg38
S'source'
p222
sg15
Nsg19
g20
sg61
S'Identity'
p223
sg16
I197
sbag1
(g88
g3
NtRp224
(dp225
g58
Nsg38
S'source_request'
p226
sg15
Nsg19
g20
sg61
S'InterfaceProvider&'
p227
sg16
I198
sbag1
(g88
g3
NtRp228
(dp229
g58
Nsg38
S'target'
p230
sg15
Nsg19
g20
sg61
S'InterfaceProvider'
p231
sg16
I199
sbasg16
I196
sg19
g20
sbsg15
Nsg19
Nsg16
Nsg93
Nsbasg16
Nsg19
Nsbsg15
Nsg16
Nsg38
S'Connector'
p232
sg19
Nsbasg16
NsS'module'
p233
g1
(cmojom.parse.ast
Module
p234
g3
NtRp235
(dp236
S'mojom_namespace'
p237
(S'IDENTIFIER'
p238
S'service_manager.mojom'
tp239
sg16
I5
sg15
Nsg19
g20
sbsg19
Nsb.