ccopy_reg
_reconstructor
p1
(cmojom.parse.ast
Mojom
p2
c__builtin__
object
p3
NtRp4
(dp5
S'import_list'
p6
g1
(cmojom.parse.ast
ImportList
p7
g3
NtRp8
(dp9
S'items'
p10
(lp11
sS'lineno'
p12
NsS'filename'
p13
NsbsS'definition_list'
p14
(lp15
g1
(cmojom.parse.ast
Const
p16
g3
NtRp17
(dp18
S'mojom_name'
p19
S'kServiceName'
p20
sS'attribute_list'
p21
NsS'value'
p22
S'"service_manager"'
p23
sg13
NsS'typename'
p24
S'string'
p25
sg12
Nsbag1
(g16
g3
NtRp26
(dp27
g19
S'kRootUserID'
p28
sg21
Nsg22
S'"505C0EE9-3013-43C0-82B0-A84F50CF8D84"'
p29
sg13
Nsg24
S'string'
p30
sg12
Nsbag1
(g16
g3
NtRp31
(dp32
g19
S'kInheritUserID'
p33
sg21
Nsg22
S'"D26290E4-4485-4EAE-81A2-66D1EEB40A9D"'
p34
sg13
Nsg24
S'string'
p35
sg12
Nsbag1
(g16
g3
NtRp36
(dp37
g19
S'kInvalidInstanceID'
p38
sg21
Nsg22
S'0'
sg13
Nsg24
S'uint32'
p39
sg12
Nsbag1
(cmojom.parse.ast
Struct
p40
g3
NtRp41
(dp42
S'body'
p43
g1
(cmojom.parse.ast
StructBody
p44
g3
NtRp45
(dp46
g10
(lp47
sg12
Nsg13
Nsbsg21
Nsg12
Nsg19
S'Constants_UnusedStruct_Internal'
p48
sg13
Nsbasg12
NsS'module'
p49
g1
(cmojom.parse.ast
Module
p50
g3
NtRp51
(dp52
S'mojom_namespace'
p53
(S'IDENTIFIER'
p54
S'service_manager.mojom'
tp55
sg12
I5
sg21
Nsg13
S'../../services/service_manager/public/mojom/constants.mojom'
p56
sbsg13
Nsb.