ccopy_reg
_reconstructor
p1
(cmojom.parse.ast
Mojom
p2
c__builtin__
object
p3
NtRp4
(dp5
S'import_list'
p6
g1
(cmojom.parse.ast
ImportList
p7
g3
NtRp8
(dp9
S'items'
p10
(lp11
g1
(cmojom.parse.ast
Import
p12
g3
NtRp13
(dp14
S'attribute_list'
p15
NsS'lineno'
p16
I7
sS'import_filename'
p17
S'services/service_manager/public/mojom/connector.mojom'
p18
sS'filename'
p19
S'../../services/service_manager/public/mojom/service.mojom'
p20
sbag1
(g12
g3
NtRp21
(dp22
g15
Nsg16
I8
sg17
S'services/service_manager/public/mojom/interface_provider.mojom'
p23
sg19
g20
sbag1
(g12
g3
NtRp24
(dp25
g15
Nsg16
I9
sg17
S'services/service_manager/public/mojom/interface_provider_spec.mojom'
p26
sg19
g20
sbag1
(g12
g3
NtRp27
(dp28
g15
Nsg16
I10
sg17
S'services/service_manager/public/mojom/service_control.mojom'
p29
sg19
g20
sbasg16
I7
sg19
g20
sbsS'definition_list'
p30
(lp31
g1
(cmojom.parse.ast
Struct
p32
g3
NtRp33
(dp34
S'body'
p35
g1
(cmojom.parse.ast
StructBody
p36
g3
NtRp37
(dp38
g10
(lp39
g1
(cmojom.parse.ast
StructField
p40
g3
NtRp41
(dp42
S'ordinal'
p43
NsS'default_value'
p44
NsS'mojom_name'
p45
S'identity'
p46
sg15
Nsg19
NsS'typename'
p47
S'Identity'
p48
sg16
Nsbag1
(g40
g3
NtRp49
(dp50
g43
Nsg44
Nsg45
S'required_capabilities'
p51
sg15
Nsg19
Nsg47
S'CapabilitySet'
p52
sg16
Nsbasg16
Nsg19
Nsbsg15
Nsg16
Nsg45
S'BindSourceInfo'
p53
sg19
Nsbag1
(cmojom.parse.ast
Interface
p54
g3
NtRp55
(dp56
g35
g1
(cmojom.parse.ast
InterfaceBody
p57
g3
NtRp58
(dp59
g10
(lp60
g1
(cmojom.parse.ast
Method
p61
g3
NtRp62
(dp63
g43
Nsg45
S'OnStart'
p64
sS'parameter_list'
p65
g1
(cmojom.parse.ast
ParameterList
p66
g3
NtRp67
(dp68
g10
(lp69
g1
(cmojom.parse.ast
Parameter
p70
g3
NtRp71
(dp72
g43
Nsg45
S'identity'
p73
sg15
Nsg19
g20
sg47
S'Identity'
p74
sg16
I50
sbasg16
I50
sg19
g20
sbsg15
Nsg19
Nsg16
NsS'response_parameter_list'
p75
g1
(g66
g3
NtRp76
(dp77
g10
(lp78
g1
(g70
g3
NtRp79
(dp80
g43
Nsg45
S'connector_request'
p81
sg15
Nsg19
g20
sg47
S'Connector&?'
p82
sg16
I50
sbag1
(g70
g3
NtRp83
(dp84
g43
Nsg45
S'control_request'
p85
sg15
Nsg19
g20
sg47
S'asso<ServiceControl&>?'
p86
sg16
I51
sbasg16
I50
sg19
g20
sbsbag1
(g61
g3
NtRp87
(dp88
g43
Nsg45
S'OnBindInterface'
p89
sg65
g1
(g66
g3
NtRp90
(dp91
g10
(lp92
g1
(g70
g3
NtRp93
(dp94
g43
Nsg45
S'source'
p95
sg15
Nsg19
g20
sg47
S'BindSourceInfo'
p96
sg16
I72
sbag1
(g70
g3
NtRp97
(dp98
g43
Nsg45
S'interface_name'
p99
sg15
Nsg19
g20
sg47
S'string'
p100
sg16
I73
sbag1
(g70
g3
NtRp101
(dp102
g43
Nsg45
S'interface_pipe'
p103
sg15
Nsg19
g20
sg47
S'handle<message_pipe>'
p104
sg16
I74
sbasg16
I72
sg19
g20
sbsg15
Nsg19
Nsg16
Nsg75
g1
(g66
g3
NtRp105
(dp106
g10
(lp107
sg16
Nsg19
Nsbsbasg16
Nsg19
Nsbsg15
Nsg16
Nsg45
S'Service'
p108
sg19
Nsbasg16
NsS'module'
p109
g1
(cmojom.parse.ast
Module
p110
g3
NtRp111
(dp112
S'mojom_namespace'
p113
(S'IDENTIFIER'
p114
S'service_manager.mojom'
tp115
sg16
I5
sg15
Nsg19
g20
sbsg19
Nsb.