ccopy_reg
_reconstructor
p1
(cmojom.parse.ast
Mojom
p2
c__builtin__
object
p3
NtRp4
(dp5
S'import_list'
p6
g1
(cmojom.parse.ast
ImportList
p7
g3
NtRp8
(dp9
S'items'
p10
(lp11
g1
(cmojom.parse.ast
Import
p12
g3
NtRp13
(dp14
S'attribute_list'
p15
NsS'lineno'
p16
I7
sS'import_filename'
p17
S'services/service_manager/public/mojom/connector.mojom'
p18
sS'filename'
p19
S'../../services/service_manager/public/mojom/service_manager.mojom'
p20
sbasg16
I7
sg19
g20
sbsS'definition_list'
p21
(lp22
g1
(cmojom.parse.ast
Struct
p23
g3
NtRp24
(dp25
S'body'
p26
g1
(cmojom.parse.ast
StructBody
p27
g3
NtRp28
(dp29
g10
(lp30
g1
(cmojom.parse.ast
StructField
p31
g3
NtRp32
(dp33
S'ordinal'
p34
NsS'default_value'
p35
NsS'mojom_name'
p36
S'id'
p37
sg15
Nsg19
NsS'typename'
p38
S'uint32'
p39
sg16
Nsbag1
(g31
g3
NtRp40
(dp41
g34
Nsg35
Nsg36
S'identity'
p42
sg15
Nsg19
Nsg38
S'Identity'
p43
sg16
Nsbag1
(g31
g3
NtRp44
(dp45
g34
Nsg35
Nsg36
S'pid'
p46
sg15
Nsg19
Nsg38
S'uint32'
p47
sg16
Nsbasg16
Nsg19
Nsbsg15
Nsg16
Nsg36
S'RunningServiceInfo'
p48
sg19
Nsbag1
(cmojom.parse.ast
Interface
p49
g3
NtRp50
(dp51
g26
g1
(cmojom.parse.ast
InterfaceBody
p52
g3
NtRp53
(dp54
g10
(lp55
g1
(cmojom.parse.ast
Method
p56
g3
NtRp57
(dp58
g34
Nsg36
S'OnInit'
p59
sS'parameter_list'
p60
g1
(cmojom.parse.ast
ParameterList
p61
g3
NtRp62
(dp63
g10
(lp64
g1
(cmojom.parse.ast
Parameter
p65
g3
NtRp66
(dp67
g34
Nsg36
S'running_services'
p68
sg15
Nsg19
g20
sg38
S'RunningServiceInfo[]'
p69
sg16
I21
sbasg16
I21
sg19
g20
sbsg15
Nsg19
Nsg16
NsS'response_parameter_list'
p70
Nsbag1
(g56
g3
NtRp71
(dp72
g34
Nsg36
S'OnServiceCreated'
p73
sg60
g1
(g61
g3
NtRp74
(dp75
g10
(lp76
g1
(g65
g3
NtRp77
(dp78
g34
Nsg36
S'service'
p79
sg15
Nsg19
g20
sg38
S'RunningServiceInfo'
p80
sg16
I26
sbasg16
I26
sg19
g20
sbsg15
Nsg19
Nsg16
Nsg70
Nsbag1
(g56
g3
NtRp81
(dp82
g34
Nsg36
S'OnServiceStarted'
p83
sg60
g1
(g61
g3
NtRp84
(dp85
g10
(lp86
g1
(g65
g3
NtRp87
(dp88
g34
Nsg36
S'identity'
p89
sg15
Nsg19
g20
sg38
S'Identity'
p90
sg16
I31
sbag1
(g65
g3
NtRp91
(dp92
g34
Nsg36
S'pid'
p93
sg15
Nsg19
g20
sg38
S'uint32'
p94
sg16
I31
sbasg16
I31
sg19
g20
sbsg15
Nsg19
Nsg16
Nsg70
Nsbag1
(g56
g3
NtRp95
(dp96
g34
Nsg36
S'OnServicePIDReceived'
p97
sg60
g1
(g61
g3
NtRp98
(dp99
g10
(lp100
g1
(g65
g3
NtRp101
(dp102
g34
Nsg36
S'identity'
p103
sg15
Nsg19
g20
sg38
S'Identity'
p104
sg16
I34
sbag1
(g65
g3
NtRp105
(dp106
g34
Nsg36
S'pid'
p107
sg15
Nsg19
g20
sg38
S'uint32'
p108
sg16
I34
sbasg16
I34
sg19
g20
sbsg15
Nsg19
Nsg16
Nsg70
Nsbag1
(g56
g3
NtRp109
(dp110
g34
Nsg36
S'OnServiceFailedToStart'
p111
sg60
g1
(g61
g3
NtRp112
(dp113
g10
(lp114
g1
(g65
g3
NtRp115
(dp116
g34
Nsg36
S'identity'
p117
sg15
Nsg19
g20
sg38
S'Identity'
p118
sg16
I38
sbasg16
I38
sg19
g20
sbsg15
Nsg19
Nsg16
Nsg70
Nsbag1
(g56
g3
NtRp119
(dp120
g34
Nsg36
S'OnServiceStopped'
p121
sg60
g1
(g61
g3
NtRp122
(dp123
g10
(lp124
g1
(g65
g3
NtRp125
(dp126
g34
Nsg36
S'identity'
p127
sg15
Nsg19
g20
sg38
S'Identity'
p128
sg16
I42
sbasg16
I42
sg19
g20
sbsg15
Nsg19
Nsg16
Nsg70
Nsbasg16
Nsg19
Nsbsg15
Nsg16
Nsg36
S'ServiceManagerListener'
p129
sg19
Nsbag1
(g49
g3
NtRp130
(dp131
g26
g1
(g52
g3
NtRp132
(dp133
g10
(lp134
g1
(g56
g3
NtRp135
(dp136
g34
Nsg36
S'AddListener'
p137
sg60
g1
(g61
g3
NtRp138
(dp139
g10
(lp140
g1
(g65
g3
NtRp141
(dp142
g34
Nsg36
S'listener'
p143
sg15
Nsg19
g20
sg38
S'ServiceManagerListener'
p144
sg16
I47
sbasg16
I47
sg19
g20
sbsg15
Nsg19
Nsg16
Nsg70
Nsbasg16
Nsg19
Nsbsg15
Nsg16
Nsg36
S'ServiceManager'
p145
sg19
Nsbasg16
NsS'module'
p146
g1
(cmojom.parse.ast
Module
p147
g3
NtRp148
(dp149
S'mojom_namespace'
p150
(S'IDENTIFIER'
p151
S'service_manager.mojom'
tp152
sg16
I5
sg15
Nsg19
g20
sbsg19
Nsb.