ccopy_reg
_reconstructor
p1
(cmojom.parse.ast
Mojom
p2
c__builtin__
object
p3
NtRp4
(dp5
S'import_list'
p6
g1
(cmojom.parse.ast
ImportList
p7
g3
NtRp8
(dp9
S'items'
p10
(lp11
g1
(cmojom.parse.ast
Import
p12
g3
NtRp13
(dp14
S'attribute_list'
p15
NsS'lineno'
p16
I7
sS'import_filename'
p17
S'url/mojom/url.mojom'
p18
sS'filename'
p19
S'../../chrome/browser/engagement/site_engagement_details.mojom'
p20
sbasg16
I7
sg19
g20
sbsS'definition_list'
p21
(lp22
g1
(cmojom.parse.ast
Struct
p23
g3
NtRp24
(dp25
S'body'
p26
g1
(cmojom.parse.ast
StructBody
p27
g3
NtRp28
(dp29
g10
(lp30
g1
(cmojom.parse.ast
StructField
p31
g3
NtRp32
(dp33
S'ordinal'
p34
NsS'default_value'
p35
NsS'mojom_name'
p36
S'origin'
p37
sg15
Nsg19
NsS'typename'
p38
S'url.mojom.Url'
p39
sg16
Nsbag1
(g31
g3
NtRp40
(dp41
g34
Nsg35
Nsg36
S'total_score'
p42
sg15
Nsg19
Nsg38
S'double'
p43
sg16
Nsbag1
(g31
g3
NtRp44
(dp45
g34
Nsg35
Nsg36
S'base_score'
p46
sg15
Nsg19
Nsg38
S'double'
p47
sg16
Nsbag1
(g31
g3
NtRp48
(dp49
g34
Nsg35
Nsg36
S'installed_bonus'
p50
sg15
Nsg19
Nsg38
S'double'
p51
sg16
Nsbasg16
Nsg19
Nsbsg15
Nsg16
Nsg36
S'SiteEngagementDetails'
p52
sg19
Nsbag1
(cmojom.parse.ast
Interface
p53
g3
NtRp54
(dp55
g26
g1
(cmojom.parse.ast
InterfaceBody
p56
g3
NtRp57
(dp58
g10
(lp59
g1
(cmojom.parse.ast
Method
p60
g3
NtRp61
(dp62
g34
Nsg36
S'GetSiteEngagementDetails'
p63
sS'parameter_list'
p64
g1
(cmojom.parse.ast
ParameterList
p65
g3
NtRp66
(dp67
g10
(lp68
sg16
Nsg19
Nsbsg15
Nsg19
Nsg16
NsS'response_parameter_list'
p69
g1
(g65
g3
NtRp70
(dp71
g10
(lp72
g1
(cmojom.parse.ast
Parameter
p73
g3
NtRp74
(dp75
g34
Nsg36
S'info'
p76
sg15
Nsg19
g20
sg38
S'SiteEngagementDetails[]'
p77
sg16
I20
sbasg16
I20
sg19
g20
sbsbag1
(g60
g3
NtRp78
(dp79
g34
Nsg36
S'SetSiteEngagementBaseScoreForUrl'
p80
sg64
g1
(g65
g3
NtRp81
(dp82
g10
(lp83
g1
(g73
g3
NtRp84
(dp85
g34
Nsg36
S'url'
p86
sg15
Nsg19
g20
sg38
S'url.mojom.Url'
p87
sg16
I21
sbag1
(g73
g3
NtRp88
(dp89
g34
Nsg36
S'score'
p90
sg15
Nsg19
g20
sg38
S'double'
p91
sg16
I21
sbasg16
I21
sg19
g20
sbsg15
Nsg19
Nsg16
Nsg69
Nsbasg16
Nsg19
Nsbsg15
Nsg16
Nsg36
S'SiteEngagementDetailsProvider'
p92
sg19
Nsbasg16
NsS'module'
p93
g1
(cmojom.parse.ast
Module
p94
g3
NtRp95
(dp96
S'mojom_namespace'
p97
(S'IDENTIFIER'
p98
S'mojom'
tp99
sg16
I5
sg15
Nsg19
g20
sbsg19
Nsb.