ccopy_reg
_reconstructor
p1
(cmojom.parse.ast
Mojom
p2
c__builtin__
object
p3
NtRp4
(dp5
S'import_list'
p6
g1
(cmojom.parse.ast
ImportList
p7
g3
NtRp8
(dp9
S'items'
p10
(lp11
g1
(cmojom.parse.ast
Import
p12
g3
NtRp13
(dp14
S'attribute_list'
p15
NsS'lineno'
p16
I7
sS'import_filename'
p17
S'url/mojom/origin.mojom'
p18
sS'filename'
p19
S'../../chrome/browser/ui/webui/usb_internals/usb_internals.mojom'
p20
sbag1
(g12
g3
NtRp21
(dp22
g15
Nsg16
I8
sg17
S'url/mojom/url.mojom'
p23
sg19
g20
sbasg16
I7
sg19
g20
sbsS'definition_list'
p24
(lp25
g1
(cmojom.parse.ast
Struct
p26
g3
NtRp27
(dp28
S'body'
p29
g1
(cmojom.parse.ast
StructBody
p30
g3
NtRp31
(dp32
g10
(lp33
g1
(cmojom.parse.ast
StructField
p34
g3
NtRp35
(dp36
S'ordinal'
p37
NsS'default_value'
p38
NsS'mojom_name'
p39
S'guid'
p40
sg15
Nsg19
NsS'typename'
p41
S'string'
p42
sg16
Nsbag1
(g34
g3
NtRp43
(dp44
g37
Nsg38
Nsg39
S'name'
p45
sg15
Nsg19
Nsg41
S'string'
p46
sg16
Nsbag1
(g34
g3
NtRp47
(dp48
g37
Nsg38
Nsg39
S'serial_number'
p49
sg15
Nsg19
Nsg41
S'string'
p50
sg16
Nsbag1
(g34
g3
NtRp51
(dp52
g37
Nsg38
Nsg39
S'landing_page'
p53
sg15
Nsg19
Nsg41
S'url.mojom.Url'
p54
sg16
Nsbasg16
Nsg19
Nsbsg15
Nsg16
Nsg39
S'TestDeviceInfo'
p55
sg19
Nsbag1
(cmojom.parse.ast
Interface
p56
g3
NtRp57
(dp58
g29
g1
(cmojom.parse.ast
InterfaceBody
p59
g3
NtRp60
(dp61
g10
(lp62
g1
(cmojom.parse.ast
Method
p63
g3
NtRp64
(dp65
g37
Nsg39
S'AddDeviceForTesting'
p66
sS'parameter_list'
p67
g1
(cmojom.parse.ast
ParameterList
p68
g3
NtRp69
(dp70
g10
(lp71
g1
(cmojom.parse.ast
Parameter
p72
g3
NtRp73
(dp74
g37
Nsg39
S'name'
p75
sg15
Nsg19
g20
sg41
S'string'
p76
sg16
I19
sbag1
(g72
g3
NtRp77
(dp78
g37
Nsg39
S'serial_number'
p79
sg15
Nsg19
g20
sg41
S'string'
p80
sg16
I20
sbag1
(g72
g3
NtRp81
(dp82
g37
Nsg39
S'landing_page'
p83
sg15
Nsg19
g20
sg41
S'string'
p84
sg16
I21
sbasg16
I19
sg19
g20
sbsg15
Nsg19
Nsg16
NsS'response_parameter_list'
p85
g1
(g68
g3
NtRp86
(dp87
g10
(lp88
g1
(g72
g3
NtRp89
(dp90
g37
Nsg39
S'success'
p91
sg15
Nsg19
g20
sg41
S'bool'
p92
sg16
I21
sbag1
(g72
g3
NtRp93
(dp94
g37
Nsg39
S'message'
p95
sg15
Nsg19
g20
sg41
S'string'
p96
sg16
I21
sbasg16
I21
sg19
g20
sbsbag1
(g63
g3
NtRp97
(dp98
g37
Nsg39
S'RemoveDeviceForTesting'
p99
sg67
g1
(g68
g3
NtRp100
(dp101
g10
(lp102
g1
(g72
g3
NtRp103
(dp104
g37
Nsg39
S'guid'
p105
sg15
Nsg19
g20
sg41
S'string'
p106
sg16
I24
sbasg16
I24
sg19
g20
sbsg15
Nsg19
Nsg16
Nsg85
g1
(g68
g3
NtRp107
(dp108
g10
(lp109
sg16
Nsg19
Nsbsbag1
(g63
g3
NtRp110
(dp111
g37
Nsg39
S'GetTestDevices'
p112
sg67
g1
(g68
g3
NtRp113
(dp114
g10
(lp115
sg16
Nsg19
Nsbsg15
Nsg19
Nsg16
Nsg85
g1
(g68
g3
NtRp116
(dp117
g10
(lp118
g1
(g72
g3
NtRp119
(dp120
g37
Nsg39
S'devices'
p121
sg15
Nsg19
g20
sg41
S'TestDeviceInfo[]'
p122
sg16
I27
sbasg16
I27
sg19
g20
sbsbasg16
Nsg19
Nsbsg15
Nsg16
Nsg39
S'UsbInternalsPageHandler'
p123
sg19
Nsbasg16
NsS'module'
p124
g1
(cmojom.parse.ast
Module
p125
g3
NtRp126
(dp127
S'mojom_namespace'
p128
(S'IDENTIFIER'
p129
S'mojom'
tp130
sg16
I5
sg15
Nsg19
g20
sbsg19
Nsb.