ccopy_reg
_reconstructor
p1
(cmojom.parse.ast
Mojom
p2
c__builtin__
object
p3
NtRp4
(dp5
S'import_list'
p6
g1
(cmojom.parse.ast
ImportList
p7
g3
NtRp8
(dp9
S'items'
p10
(lp11
g1
(cmojom.parse.ast
Import
p12
g3
NtRp13
(dp14
S'attribute_list'
p15
NsS'lineno'
p16
I7
sS'import_filename'
p17
S'mojo/public/mojom/base/shared_memory.mojom'
p18
sS'filename'
p19
S'../../components/services/pdf_compositor/public/interfaces/pdf_compositor.mojom'
p20
sbag1
(g12
g3
NtRp21
(dp22
g15
Nsg16
I8
sg17
S'url/mojom/url.mojom'
p23
sg19
g20
sbasg16
I7
sg19
g20
sbsS'definition_list'
p24
(lp25
g1
(cmojom.parse.ast
Const
p26
g3
NtRp27
(dp28
S'mojom_name'
p29
S'kServiceName'
p30
sg15
NsS'value'
p31
S'"pdf_compositor"'
p32
sg19
NsS'typename'
p33
S'string'
p34
sg16
Nsbag1
(cmojom.parse.ast
Interface
p35
g3
NtRp36
(dp37
S'body'
p38
g1
(cmojom.parse.ast
InterfaceBody
p39
g3
NtRp40
(dp41
g10
(lp42
g1
(cmojom.parse.ast
Enum
p43
g3
NtRp44
(dp45
g15
NsS'enum_value_list'
p46
g1
(cmojom.parse.ast
EnumValueList
p47
g3
NtRp48
(dp49
g10
(lp50
g1
(cmojom.parse.ast
EnumValue
p51
g3
NtRp52
(dp53
g15
Nsg31
S'0'
sg16
I17
sg29
S'SUCCESS'
p54
sg19
g20
sbag1
(g51
g3
NtRp55
(dp56
g15
Nsg31
S'1'
sg16
I18
sg29
S'HANDLE_MAP_ERROR'
p57
sg19
g20
sbag1
(g51
g3
NtRp58
(dp59
g15
Nsg31
S'2'
sg16
I19
sg29
S'CONTENT_FORMAT_ERROR'
p60
sg19
g20
sbag1
(g51
g3
NtRp61
(dp62
g15
Nsg31
S'3'
sg16
I20
sg29
S'COMPOSTING_FAILURE'
p63
sg19
g20
sbasg16
I17
sg19
g20
sbsg16
I16
sg29
S'Status'
p64
sg19
g20
sbag1
(cmojom.parse.ast
Method
p65
g3
NtRp66
(dp67
S'ordinal'
p68
Nsg29
S'NotifyUnavailableSubframe'
p69
sS'parameter_list'
p70
g1
(cmojom.parse.ast
ParameterList
p71
g3
NtRp72
(dp73
g10
(lp74
g1
(cmojom.parse.ast
Parameter
p75
g3
NtRp76
(dp77
g68
Nsg29
S'frame_guid'
p78
sg15
Nsg19
g20
sg33
S'uint64'
p79
sg16
I27
sbasg16
I27
sg19
g20
sbsg15
Nsg19
Nsg16
NsS'response_parameter_list'
p80
Nsbag1
(g65
g3
NtRp81
(dp82
g68
Nsg29
S'AddSubframeContent'
p83
sg70
g1
(g71
g3
NtRp84
(dp85
g10
(lp86
g1
(g75
g3
NtRp87
(dp88
g68
Nsg29
S'frame_guid'
p89
sg15
Nsg19
g20
sg33
S'uint64'
p90
sg16
I35
sbag1
(g75
g3
NtRp91
(dp92
g68
Nsg29
S'serialized_content'
p93
sg15
Nsg19
g20
sg33
S'handle<shared_buffer>'
p94
sg16
I35
sbag1
(g75
g3
NtRp95
(dp96
g68
Nsg29
S'subframe_content_info'
p97
sg15
Nsg19
g20
sg33
S'uint64{uint32}'
p98
sg16
I36
sbasg16
I35
sg19
g20
sbsg15
Nsg19
Nsg16
Nsg80
Nsbag1
(g65
g3
NtRp99
(dp100
g68
Nsg29
S'CompositePageToPdf'
p101
sg70
g1
(g71
g3
NtRp102
(dp103
g10
(lp104
g1
(g75
g3
NtRp105
(dp106
g68
Nsg29
S'frame_guid'
p107
sg15
Nsg19
g20
sg33
S'uint64'
p108
sg16
I45
sbag1
(g75
g3
NtRp109
(dp110
g68
Nsg29
S'page_num'
p111
sg15
Nsg19
g20
sg33
S'uint32'
p112
sg16
I45
sbag1
(g75
g3
NtRp113
(dp114
g68
Nsg29
S'sk_handle'
p115
sg15
Nsg19
g20
sg33
S'handle<shared_buffer>'
p116
sg16
I46
sbag1
(g75
g3
NtRp117
(dp118
g68
Nsg29
S'subframe_content_info'
p119
sg15
Nsg19
g20
sg33
S'uint64{uint32}'
p120
sg16
I47
sbasg16
I45
sg19
g20
sbsg15
Nsg19
Nsg16
Nsg80
g1
(g71
g3
NtRp121
(dp122
g10
(lp123
g1
(g75
g3
NtRp124
(dp125
g68
Nsg29
S'status'
p126
sg15
Nsg19
g20
sg33
S'Status'
p127
sg16
I48
sbag1
(g75
g3
NtRp128
(dp129
g68
Nsg29
S'pdf_region'
p130
sg15
Nsg19
g20
sg33
S'mojo_base.mojom.ReadOnlySharedMemoryRegion?'
p131
sg16
I49
sbasg16
I48
sg19
g20
sbsbag1
(g65
g3
NtRp132
(dp133
g68
Nsg29
S'CompositeDocumentToPdf'
p134
sg70
g1
(g71
g3
NtRp135
(dp136
g10
(lp137
g1
(g75
g3
NtRp138
(dp139
g68
Nsg29
S'frame_guid'
p140
sg15
Nsg19
g20
sg33
S'uint64'
p141
sg16
I54
sbag1
(g75
g3
NtRp142
(dp143
g68
Nsg29
S'sk_handle'
p144
sg15
Nsg19
g20
sg33
S'handle<shared_buffer>'
p145
sg16
I54
sbag1
(g75
g3
NtRp146
(dp147
g68
Nsg29
S'subframe_content_info'
p148
sg15
Nsg19
g20
sg33
S'uint64{uint32}'
p149
sg16
I55
sbasg16
I54
sg19
g20
sbsg15
Nsg19
Nsg16
Nsg80
g1
(g71
g3
NtRp150
(dp151
g10
(lp152
g1
(g75
g3
NtRp153
(dp154
g68
Nsg29
S'status'
p155
sg15
Nsg19
g20
sg33
S'Status'
p156
sg16
I56
sbag1
(g75
g3
NtRp157
(dp158
g68
Nsg29
S'pdf_region'
p159
sg15
Nsg19
g20
sg33
S'mojo_base.mojom.ReadOnlySharedMemoryRegion?'
p160
sg16
I57
sbasg16
I56
sg19
g20
sbsbag1
(g65
g3
NtRp161
(dp162
g68
Nsg29
S'SetWebContentsURL'
p163
sg70
g1
(g71
g3
NtRp164
(dp165
g10
(lp166
g1
(g75
g3
NtRp167
(dp168
g68
Nsg29
S'url'
p169
sg15
Nsg19
g20
sg33
S'url.mojom.Url'
p170
sg16
I61
sbasg16
I61
sg19
g20
sbsg15
Nsg19
Nsg16
Nsg80
Nsbasg16
I16
sg19
g20
sbsg15
Nsg16
Nsg29
S'PdfCompositor'
p171
sg19
Nsbasg16
NsS'module'
p172
g1
(cmojom.parse.ast
Module
p173
g3
NtRp174
(dp175
S'mojom_namespace'
p176
(S'IDENTIFIER'
p177
S'printing.mojom'
tp178
sg16
I5
sg15
Nsg19
g20
sbsg19
Nsb.