ccopy_reg
_reconstructor
p1
(cmojom.parse.ast
Mojom
p2
c__builtin__
object
p3
NtRp4
(dp5
S'import_list'
p6
g1
(cmojom.parse.ast
ImportList
p7
g3
NtRp8
(dp9
S'items'
p10
(lp11
g1
(cmojom.parse.ast
Import
p12
g3
NtRp13
(dp14
S'attribute_list'
p15
NsS'lineno'
p16
I7
sS'import_filename'
p17
S'components/services/filesystem/public/interfaces/directory.mojom'
p18
sS'filename'
p19
S'../../components/services/leveldb/public/interfaces/leveldb.mojom'
p20
sbag1
(g12
g3
NtRp21
(dp22
g15
Nsg16
I8
sg17
S'mojo/public/mojom/base/memory_allocator_dump_cross_process_uid.mojom'
p23
sg19
g20
sbag1
(g12
g3
NtRp24
(dp25
g15
Nsg16
I9
sg17
S'mojo/public/mojom/base/unguessable_token.mojom'
p26
sg19
g20
sbasg16
I7
sg19
g20
sbsS'definition_list'
p27
(lp28
g1
(cmojom.parse.ast
Enum
p29
g3
NtRp30
(dp31
g15
NsS'enum_value_list'
p32
g1
(cmojom.parse.ast
EnumValueList
p33
g3
NtRp34
(dp35
g10
(lp36
g1
(cmojom.parse.ast
EnumValue
p37
g3
NtRp38
(dp39
g15
NsS'value'
p40
Nsg16
I12
sS'mojom_name'
p41
S'OK'
p42
sg19
g20
sbag1
(g37
g3
NtRp43
(dp44
g15
Nsg40
Nsg16
I13
sg41
S'NOT_FOUND'
p45
sg19
g20
sbag1
(g37
g3
NtRp46
(dp47
g15
Nsg40
Nsg16
I14
sg41
S'CORRUPTION'
p48
sg19
g20
sbag1
(g37
g3
NtRp49
(dp50
g15
Nsg40
Nsg16
I15
sg41
S'NOT_SUPPORTED'
p51
sg19
g20
sbag1
(g37
g3
NtRp52
(dp53
g15
Nsg40
Nsg16
I16
sg41
S'INVALID_ARGUMENT'
p54
sg19
g20
sbag1
(g37
g3
NtRp55
(dp56
g15
Nsg40
Nsg16
I17
sg41
S'IO_ERROR'
p57
sg19
g20
sbasg16
I12
sg19
g20
sbsg16
I11
sg41
S'DatabaseError'
p58
sg19
g20
sbag1
(g29
g3
NtRp59
(dp60
g15
Nsg32
g1
(g33
g3
NtRp61
(dp62
g10
(lp63
g1
(g37
g3
NtRp64
(dp65
g15
Nsg40
Nsg16
I21
sg41
S'PUT_KEY'
p66
sg19
g20
sbag1
(g37
g3
NtRp67
(dp68
g15
Nsg40
Nsg16
I22
sg41
S'DELETE_KEY'
p69
sg19
g20
sbag1
(g37
g3
NtRp70
(dp71
g15
Nsg40
Nsg16
I23
sg41
S'DELETE_PREFIXED_KEY'
p72
sg19
g20
sbag1
(g37
g3
NtRp73
(dp74
g15
Nsg40
Nsg16
I25
sg41
S'COPY_PREFIXED_KEY'
p75
sg19
g20
sbasg16
I21
sg19
g20
sbsg16
I20
sg41
S'BatchOperationType'
p76
sg19
g20
sbag1
(cmojom.parse.ast
Struct
p77
g3
NtRp78
(dp79
S'body'
p80
g1
(cmojom.parse.ast
StructBody
p81
g3
NtRp82
(dp83
g10
(lp84
g1
(cmojom.parse.ast
StructField
p85
g3
NtRp86
(dp87
S'ordinal'
p88
NsS'default_value'
p89
Nsg41
S'type'
p90
sg15
Nsg19
NsS'typename'
p91
S'BatchOperationType'
p92
sg16
Nsbag1
(g85
g3
NtRp93
(dp94
g88
Nsg89
Nsg41
S'key'
p95
sg15
Nsg19
Nsg91
S'uint8[]'
p96
sg16
Nsbag1
(g85
g3
NtRp97
(dp98
g88
Nsg89
Nsg41
S'value'
p99
sg15
Nsg19
Nsg91
S'uint8[]?'
p100
sg16
Nsbasg16
Nsg19
Nsbsg15
Nsg16
Nsg41
S'BatchedOperation'
p101
sg19
Nsbag1
(g77
g3
NtRp102
(dp103
g80
g1
(g81
g3
NtRp104
(dp105
g10
(lp106
g1
(g85
g3
NtRp107
(dp108
g88
Nsg89
Nsg41
S'key'
p109
sg15
Nsg19
Nsg91
S'uint8[]'
p110
sg16
Nsbag1
(g85
g3
NtRp111
(dp112
g88
Nsg89
Nsg41
S'value'
p113
sg15
Nsg19
Nsg91
S'uint8[]'
p114
sg16
Nsbasg16
Nsg19
Nsbsg15
Nsg16
Nsg41
S'KeyValue'
p115
sg19
Nsbag1
(g29
g3
NtRp116
(dp117
g15
Nsg32
g1
(g33
g3
NtRp118
(dp119
g10
(lp120
g1
(g37
g3
NtRp121
(dp122
g15
Nsg40
Nsg16
I42
sg41
S'Default'
p123
sg19
g20
sbag1
(g37
g3
NtRp124
(dp125
g15
Nsg40
Nsg16
I43
sg41
S'Web'
p126
sg19
g20
sbasg16
I42
sg19
g20
sbsg16
I41
sg41
S'SharedReadCache'
p127
sg19
g20
sbag1
(g77
g3
NtRp128
(dp129
g80
g1
(g81
g3
NtRp130
(dp131
g10
(lp132
g1
(g85
g3
NtRp133
(dp134
g88
Nsg89
Nsg41
S'create_if_missing'
p135
sg15
Nsg19
Nsg91
S'bool'
p136
sg16
Nsbag1
(g85
g3
NtRp137
(dp138
g88
Nsg89
Nsg41
S'error_if_exists'
p139
sg15
Nsg19
Nsg91
S'bool'
p140
sg16
Nsbag1
(g85
g3
NtRp141
(dp142
g88
Nsg89
Nsg41
S'paranoid_checks'
p143
sg15
Nsg19
Nsg91
S'bool'
p144
sg16
Nsbag1
(g85
g3
NtRp145
(dp146
g88
Nsg89
Nsg41
S'write_buffer_size'
p147
sg15
Nsg19
Nsg91
S'uint64'
p148
sg16
Nsbag1
(g85
g3
NtRp149
(dp150
g88
Nsg89
Nsg41
S'max_open_files'
p151
sg15
Nsg19
Nsg91
S'int32'
p152
sg16
Nsbag1
(g85
g3
NtRp153
(dp154
g88
Nsg89
(S'IDENTIFIER'
p155
S'SharedReadCache.Default'
tp156
sg41
S'shared_block_read_cache'
p157
sg15
Nsg19
Nsg91
S'SharedReadCache'
p158
sg16
Nsbasg16
Nsg19
Nsbsg15
Nsg16
Nsg41
S'OpenOptions'
p159
sg19
Nsbag1
(cmojom.parse.ast
Interface
p160
g3
NtRp161
(dp162
g80
g1
(cmojom.parse.ast
InterfaceBody
p163
g3
NtRp164
(dp165
g10
(lp166
g1
(cmojom.parse.ast
Method
p167
g3
NtRp168
(dp169
g88
Nsg41
S'Open'
p170
sS'parameter_list'
p171
g1
(cmojom.parse.ast
ParameterList
p172
g3
NtRp173
(dp174
g10
(lp175
g1
(cmojom.parse.ast
Parameter
p176
g3
NtRp177
(dp178
g88
Nsg41
S'directory'
p179
sg15
Nsg19
g20
sg91
S'filesystem.mojom.Directory'
p180
sg16
I80
sbag1
(g176
g3
NtRp181
(dp182
g88
Nsg41
S'dbname'
p183
sg15
Nsg19
g20
sg91
S'string'
p184
sg16
I81
sbag1
(g176
g3
NtRp185
(dp186
g88
Nsg41
S'memory_dump_id'
p187
sg15
Nsg19
g20
sg91
S'mojo_base.mojom.MemoryAllocatorDumpCrossProcessUid?'
p188
sg16
I82
sbag1
(g176
g3
NtRp189
(dp190
g88
Nsg41
S'database'
p191
sg15
Nsg19
g20
sg91
S'asso<LevelDBDatabase&>'
p192
sg16
I83
sbasg16
I80
sg19
g20
sbsg15
Nsg19
Nsg16
NsS'response_parameter_list'
p193
g1
(g172
g3
NtRp194
(dp195
g10
(lp196
g1
(g176
g3
NtRp197
(dp198
g88
Nsg41
S'status'
p199
sg15
Nsg19
g20
sg91
S'DatabaseError'
p200
sg16
I83
sbasg16
I83
sg19
g20
sbsbag1
(g167
g3
NtRp201
(dp202
g88
Nsg41
S'OpenWithOptions'
p203
sg171
g1
(g172
g3
NtRp204
(dp205
g10
(lp206
g1
(g176
g3
NtRp207
(dp208
g88
Nsg41
S'options'
p209
sg15
Nsg19
g20
sg91
S'OpenOptions'
p210
sg16
I86
sbag1
(g176
g3
NtRp211
(dp212
g88
Nsg41
S'directory'
p213
sg15
Nsg19
g20
sg91
S'filesystem.mojom.Directory'
p214
sg16
I87
sbag1
(g176
g3
NtRp215
(dp216
g88
Nsg41
S'dbname'
p217
sg15
Nsg19
g20
sg91
S'string'
p218
sg16
I88
sbag1
(g176
g3
NtRp219
(dp220
g88
Nsg41
S'memory_dump_id'
p221
sg15
Nsg19
g20
sg91
S'mojo_base.mojom.MemoryAllocatorDumpCrossProcessUid?'
p222
sg16
I90
sbag1
(g176
g3
NtRp223
(dp224
g88
Nsg41
S'database'
p225
sg15
Nsg19
g20
sg91
S'asso<LevelDBDatabase&>'
p226
sg16
I91
sbasg16
I86
sg19
g20
sbsg15
Nsg19
Nsg16
Nsg193
g1
(g172
g3
NtRp227
(dp228
g10
(lp229
g1
(g176
g3
NtRp230
(dp231
g88
Nsg41
S'status'
p232
sg15
Nsg19
g20
sg91
S'DatabaseError'
p233
sg16
I91
sbasg16
I91
sg19
g20
sbsbag1
(g167
g3
NtRp234
(dp235
g88
Nsg41
S'OpenInMemory'
p236
sg171
g1
(g172
g3
NtRp237
(dp238
g10
(lp239
g1
(g176
g3
NtRp240
(dp241
g88
Nsg41
S'memory_dump_id'
p242
sg15
Nsg19
g20
sg91
S'mojo_base.mojom.MemoryAllocatorDumpCrossProcessUid?'
p243
sg16
I97
sbag1
(g176
g3
NtRp244
(dp245
g88
Nsg41
S'tracking_name'
p246
sg15
Nsg19
g20
sg91
S'string'
p247
sg16
I97
sbag1
(g176
g3
NtRp248
(dp249
g88
Nsg41
S'database'
p250
sg15
Nsg19
g20
sg91
S'asso<LevelDBDatabase&>'
p251
sg16
I98
sbasg16
I97
sg19
g20
sbsg15
Nsg19
Nsg16
Nsg193
g1
(g172
g3
NtRp252
(dp253
g10
(lp254
g1
(g176
g3
NtRp255
(dp256
g88
Nsg41
S'status'
p257
sg15
Nsg19
g20
sg91
S'DatabaseError'
p258
sg16
I98
sbasg16
I98
sg19
g20
sbsbag1
(g167
g3
NtRp259
(dp260
g88
Nsg41
S'Destroy'
p261
sg171
g1
(g172
g3
NtRp262
(dp263
g10
(lp264
g1
(g176
g3
NtRp265
(dp266
g88
Nsg41
S'directory'
p267
sg15
Nsg19
g20
sg91
S'filesystem.mojom.Directory'
p268
sg16
I102
sbag1
(g176
g3
NtRp269
(dp270
g88
Nsg41
S'dbname'
p271
sg15
Nsg19
g20
sg91
S'string'
p272
sg16
I103
sbasg16
I102
sg19
g20
sbsg15
Nsg19
Nsg16
Nsg193
g1
(g172
g3
NtRp273
(dp274
g10
(lp275
g1
(g176
g3
NtRp276
(dp277
g88
Nsg41
S'status'
p278
sg15
Nsg19
g20
sg91
S'DatabaseError'
p279
sg16
I103
sbasg16
I103
sg19
g20
sbsbasg16
Nsg19
Nsbsg15
Nsg16
Nsg41
S'LevelDBService'
p280
sg19
Nsbag1
(g160
g3
NtRp281
(dp282
g80
g1
(g163
g3
NtRp283
(dp284
g10
(lp285
g1
(g167
g3
NtRp286
(dp287
g88
Nsg41
S'Put'
p288
sg171
g1
(g172
g3
NtRp289
(dp290
g10
(lp291
g1
(g176
g3
NtRp292
(dp293
g88
Nsg41
S'key'
p294
sg15
Nsg19
g20
sg91
S'uint8[]'
p295
sg16
I111
sbag1
(g176
g3
NtRp296
(dp297
g88
Nsg41
S'value'
p298
sg15
Nsg19
g20
sg91
S'uint8[]'
p299
sg16
I111
sbasg16
I111
sg19
g20
sbsg15
Nsg19
Nsg16
Nsg193
g1
(g172
g3
NtRp300
(dp301
g10
(lp302
g1
(g176
g3
NtRp303
(dp304
g88
Nsg41
S'status'
p305
sg15
Nsg19
g20
sg91
S'DatabaseError'
p306
sg16
I111
sbasg16
I111
sg19
g20
sbsbag1
(g167
g3
NtRp307
(dp308
g88
Nsg41
S'Delete'
p309
sg171
g1
(g172
g3
NtRp310
(dp311
g10
(lp312
g1
(g176
g3
NtRp313
(dp314
g88
Nsg41
S'key'
p315
sg15
Nsg19
g20
sg91
S'uint8[]'
p316
sg16
I116
sbasg16
I116
sg19
g20
sbsg15
Nsg19
Nsg16
Nsg193
g1
(g172
g3
NtRp317
(dp318
g10
(lp319
g1
(g176
g3
NtRp320
(dp321
g88
Nsg41
S'status'
p322
sg15
Nsg19
g20
sg91
S'DatabaseError'
p323
sg16
I116
sbasg16
I116
sg19
g20
sbsbag1
(g167
g3
NtRp324
(dp325
g88
Nsg41
S'DeletePrefixed'
p326
sg171
g1
(g172
g3
NtRp327
(dp328
g10
(lp329
g1
(g176
g3
NtRp330
(dp331
g88
Nsg41
S'key_prefix'
p332
sg15
Nsg19
g20
sg91
S'uint8[]'
p333
sg16
I118
sbasg16
I118
sg19
g20
sbsg15
Nsg19
Nsg16
Nsg193
g1
(g172
g3
NtRp334
(dp335
g10
(lp336
g1
(g176
g3
NtRp337
(dp338
g88
Nsg41
S'status'
p339
sg15
Nsg19
g20
sg91
S'DatabaseError'
p340
sg16
I118
sbasg16
I118
sg19
g20
sbsbag1
(g167
g3
NtRp341
(dp342
g88
Nsg41
S'Write'
p343
sg171
g1
(g172
g3
NtRp344
(dp345
g10
(lp346
g1
(g176
g3
NtRp347
(dp348
g88
Nsg41
S'operations'
p349
sg15
Nsg19
g20
sg91
S'BatchedOperation[]'
p350
sg16
I127
sbasg16
I127
sg19
g20
sbsg15
Nsg19
Nsg16
Nsg193
g1
(g172
g3
NtRp351
(dp352
g10
(lp353
g1
(g176
g3
NtRp354
(dp355
g88
Nsg41
S'status'
p356
sg15
Nsg19
g20
sg91
S'DatabaseError'
p357
sg16
I127
sbasg16
I127
sg19
g20
sbsbag1
(g167
g3
NtRp358
(dp359
g88
Nsg41
S'Get'
p360
sg171
g1
(g172
g3
NtRp361
(dp362
g10
(lp363
g1
(g176
g3
NtRp364
(dp365
g88
Nsg41
S'key'
p366
sg15
Nsg19
g20
sg91
S'uint8[]'
p367
sg16
I129
sbasg16
I129
sg19
g20
sbsg15
Nsg19
Nsg16
Nsg193
g1
(g172
g3
NtRp368
(dp369
g10
(lp370
g1
(g176
g3
NtRp371
(dp372
g88
Nsg41
S'status'
p373
sg15
Nsg19
g20
sg91
S'DatabaseError'
p374
sg16
I129
sbag1
(g176
g3
NtRp375
(dp376
g88
Nsg41
S'value'
p377
sg15
Nsg19
g20
sg91
S'uint8[]'
p378
sg16
I129
sbasg16
I129
sg19
g20
sbsbag1
(g167
g3
NtRp379
(dp380
g88
Nsg41
S'GetPrefixed'
p381
sg171
g1
(g172
g3
NtRp382
(dp383
g10
(lp384
g1
(g176
g3
NtRp385
(dp386
g88
Nsg41
S'key_prefix'
p387
sg15
Nsg19
g20
sg91
S'uint8[]'
p388
sg16
I131
sbasg16
I131
sg19
g20
sbsg15
Nsg19
Nsg16
Nsg193
g1
(g172
g3
NtRp389
(dp390
g10
(lp391
g1
(g176
g3
NtRp392
(dp393
g88
Nsg41
S'status'
p394
sg15
Nsg19
g20
sg91
S'DatabaseError'
p395
sg16
I132
sbag1
(g176
g3
NtRp396
(dp397
g88
Nsg41
S'data'
p398
sg15
Nsg19
g20
sg91
S'KeyValue[]'
p399
sg16
I132
sbasg16
I132
sg19
g20
sbsbag1
(g167
g3
NtRp400
(dp401
g88
Nsg41
S'CopyPrefixed'
p402
sg171
g1
(g172
g3
NtRp403
(dp404
g10
(lp405
g1
(g176
g3
NtRp406
(dp407
g88
Nsg41
S'source_key_prefix'
p408
sg15
Nsg19
g20
sg91
S'uint8[]'
p409
sg16
I136
sbag1
(g176
g3
NtRp410
(dp411
g88
Nsg41
S'destination_key_prefix'
p412
sg15
Nsg19
g20
sg91
S'uint8[]'
p413
sg16
I137
sbasg16
I136
sg19
g20
sbsg15
Nsg19
Nsg16
Nsg193
g1
(g172
g3
NtRp414
(dp415
g10
(lp416
g1
(g176
g3
NtRp417
(dp418
g88
Nsg41
S'status'
p419
sg15
Nsg19
g20
sg91
S'DatabaseError'
p420
sg16
I138
sbasg16
I138
sg19
g20
sbsbag1
(g167
g3
NtRp421
(dp422
g88
Nsg41
S'GetSnapshot'
p423
sg171
g1
(g172
g3
NtRp424
(dp425
g10
(lp426
sg16
Nsg19
Nsbsg15
Nsg19
Nsg16
Nsg193
g1
(g172
g3
NtRp427
(dp428
g10
(lp429
g1
(g176
g3
NtRp430
(dp431
g88
Nsg41
S'snapshot'
p432
sg15
Nsg19
g20
sg91
S'mojo_base.mojom.UnguessableToken'
p433
sg16
I143
sbasg16
I143
sg19
g20
sbsbag1
(g167
g3
NtRp434
(dp435
g88
Nsg41
S'ReleaseSnapshot'
p436
sg171
g1
(g172
g3
NtRp437
(dp438
g10
(lp439
g1
(g176
g3
NtRp440
(dp441
g88
Nsg41
S'snapshot'
p442
sg15
Nsg19
g20
sg91
S'mojo_base.mojom.UnguessableToken'
p443
sg16
I146
sbasg16
I146
sg19
g20
sbsg15
Nsg19
Nsg16
Nsg193
Nsbag1
(g167
g3
NtRp444
(dp445
g88
Nsg41
S'GetFromSnapshot'
p446
sg171
g1
(g172
g3
NtRp447
(dp448
g10
(lp449
g1
(g176
g3
NtRp450
(dp451
g88
Nsg41
S'snapshot'
p452
sg15
Nsg19
g20
sg91
S'mojo_base.mojom.UnguessableToken'
p453
sg16
I150
sbag1
(g176
g3
NtRp454
(dp455
g88
Nsg41
S'key'
p456
sg15
Nsg19
g20
sg91
S'uint8[]'
p457
sg16
I151
sbasg16
I150
sg19
g20
sbsg15
Nsg19
Nsg16
Nsg193
g1
(g172
g3
NtRp458
(dp459
g10
(lp460
g1
(g176
g3
NtRp461
(dp462
g88
Nsg41
S'status'
p463
sg15
Nsg19
g20
sg91
S'DatabaseError'
p464
sg16
I152
sbag1
(g176
g3
NtRp465
(dp466
g88
Nsg41
S'value'
p467
sg15
Nsg19
g20
sg91
S'uint8[]'
p468
sg16
I152
sbasg16
I152
sg19
g20
sbsbag1
(g167
g3
NtRp469
(dp470
g88
Nsg41
S'NewIterator'
p471
sg171
g1
(g172
g3
NtRp472
(dp473
g10
(lp474
sg16
Nsg19
Nsbsg15
Nsg19
Nsg16
Nsg193
g1
(g172
g3
NtRp475
(dp476
g10
(lp477
g1
(g176
g3
NtRp478
(dp479
g88
Nsg41
S'iterator'
p480
sg15
Nsg19
g20
sg91
S'mojo_base.mojom.UnguessableToken'
p481
sg16
I157
sbasg16
I157
sg19
g20
sbsbag1
(g167
g3
NtRp482
(dp483
g88
Nsg41
S'NewIteratorFromSnapshot'
p484
sg171
g1
(g172
g3
NtRp485
(dp486
g10
(lp487
g1
(g176
g3
NtRp488
(dp489
g88
Nsg41
S'snapshot'
p490
sg15
Nsg19
g20
sg91
S'mojo_base.mojom.UnguessableToken'
p491
sg16
I158
sbasg16
I158
sg19
g20
sbsg15
Nsg19
Nsg16
Nsg193
g1
(g172
g3
NtRp492
(dp493
g10
(lp494
g1
(g176
g3
NtRp495
(dp496
g88
Nsg41
S'iterator'
p497
sg15
Nsg19
g20
sg91
S'mojo_base.mojom.UnguessableToken?'
p498
sg16
I159
sbasg16
I159
sg19
g20
sbsbag1
(g167
g3
NtRp499
(dp500
g88
Nsg41
S'ReleaseIterator'
p501
sg171
g1
(g172
g3
NtRp502
(dp503
g10
(lp504
g1
(g176
g3
NtRp505
(dp506
g88
Nsg41
S'iterator'
p507
sg15
Nsg19
g20
sg91
S'mojo_base.mojom.UnguessableToken'
p508
sg16
I161
sbasg16
I161
sg19
g20
sbsg15
Nsg19
Nsg16
Nsg193
Nsbag1
(g167
g3
NtRp509
(dp510
g88
Nsg41
S'IteratorSeekToFirst'
p511
sg171
g1
(g172
g3
NtRp512
(dp513
g10
(lp514
g1
(g176
g3
NtRp515
(dp516
g88
Nsg41
S'iterator'
p517
sg15
Nsg19
g20
sg91
S'mojo_base.mojom.UnguessableToken'
p518
sg16
I166
sbasg16
I166
sg19
g20
sbsg15
g1
(cmojom.parse.ast
AttributeList
p519
g3
NtRp520
(dp521
g10
(lp522
g1
(cmojom.parse.ast
Attribute
p523
g3
NtRp524
(dp525
g40
I01
sg16
I165
sS'key'
p526
S'Sync'
p527
sg19
g20
sbasg16
I165
sg19
g20
sbsg19
Nsg16
Nsg193
g1
(g172
g3
NtRp528
(dp529
g10
(lp530
g1
(g176
g3
NtRp531
(dp532
g88
Nsg41
S'valid'
p533
sg15
Nsg19
g20
sg91
S'bool'
p534
sg16
I167
sbag1
(g176
g3
NtRp535
(dp536
g88
Nsg41
S'status'
p537
sg15
Nsg19
g20
sg91
S'DatabaseError'
p538
sg16
I167
sbag1
(g176
g3
NtRp539
(dp540
g88
Nsg41
S'key'
p541
sg15
Nsg19
g20
sg91
S'uint8[]?'
p542
sg16
I167
sbag1
(g176
g3
NtRp543
(dp544
g88
Nsg41
S'value'
p545
sg15
Nsg19
g20
sg91
S'uint8[]?'
p546
sg16
I168
sbasg16
I167
sg19
g20
sbsbag1
(g167
g3
NtRp547
(dp548
g88
Nsg41
S'IteratorSeekToLast'
p549
sg171
g1
(g172
g3
NtRp550
(dp551
g10
(lp552
g1
(g176
g3
NtRp553
(dp554
g88
Nsg41
S'iterator'
p555
sg15
Nsg19
g20
sg91
S'mojo_base.mojom.UnguessableToken'
p556
sg16
I170
sbasg16
I170
sg19
g20
sbsg15
g1
(g519
g3
NtRp557
(dp558
g10
(lp559
g1
(g523
g3
NtRp560
(dp561
g40
I01
sg16
I169
sg526
S'Sync'
p562
sg19
g20
sbasg16
I169
sg19
g20
sbsg19
Nsg16
Nsg193
g1
(g172
g3
NtRp563
(dp564
g10
(lp565
g1
(g176
g3
NtRp566
(dp567
g88
Nsg41
S'valid'
p568
sg15
Nsg19
g20
sg91
S'bool'
p569
sg16
I171
sbag1
(g176
g3
NtRp570
(dp571
g88
Nsg41
S'status'
p572
sg15
Nsg19
g20
sg91
S'DatabaseError'
p573
sg16
I171
sbag1
(g176
g3
NtRp574
(dp575
g88
Nsg41
S'key'
p576
sg15
Nsg19
g20
sg91
S'uint8[]?'
p577
sg16
I171
sbag1
(g176
g3
NtRp578
(dp579
g88
Nsg41
S'value'
p580
sg15
Nsg19
g20
sg91
S'uint8[]?'
p581
sg16
I172
sbasg16
I171
sg19
g20
sbsbag1
(g167
g3
NtRp582
(dp583
g88
Nsg41
S'IteratorSeek'
p584
sg171
g1
(g172
g3
NtRp585
(dp586
g10
(lp587
g1
(g176
g3
NtRp588
(dp589
g88
Nsg41
S'iterator'
p590
sg15
Nsg19
g20
sg91
S'mojo_base.mojom.UnguessableToken'
p591
sg16
I174
sbag1
(g176
g3
NtRp592
(dp593
g88
Nsg41
S'target'
p594
sg15
Nsg19
g20
sg91
S'uint8[]'
p595
sg16
I174
sbasg16
I174
sg19
g20
sbsg15
g1
(g519
g3
NtRp596
(dp597
g10
(lp598
g1
(g523
g3
NtRp599
(dp600
g40
I01
sg16
I173
sg526
S'Sync'
p601
sg19
g20
sbasg16
I173
sg19
g20
sbsg19
Nsg16
Nsg193
g1
(g172
g3
NtRp602
(dp603
g10
(lp604
g1
(g176
g3
NtRp605
(dp606
g88
Nsg41
S'valid'
p607
sg15
Nsg19
g20
sg91
S'bool'
p608
sg16
I175
sbag1
(g176
g3
NtRp609
(dp610
g88
Nsg41
S'status'
p611
sg15
Nsg19
g20
sg91
S'DatabaseError'
p612
sg16
I175
sbag1
(g176
g3
NtRp613
(dp614
g88
Nsg41
S'key'
p615
sg15
Nsg19
g20
sg91
S'uint8[]?'
p616
sg16
I175
sbag1
(g176
g3
NtRp617
(dp618
g88
Nsg41
S'value'
p619
sg15
Nsg19
g20
sg91
S'uint8[]?'
p620
sg16
I176
sbasg16
I175
sg19
g20
sbsbag1
(g167
g3
NtRp621
(dp622
g88
Nsg41
S'IteratorNext'
p623
sg171
g1
(g172
g3
NtRp624
(dp625
g10
(lp626
g1
(g176
g3
NtRp627
(dp628
g88
Nsg41
S'iterator'
p629
sg15
Nsg19
g20
sg91
S'mojo_base.mojom.UnguessableToken'
p630
sg16
I180
sbasg16
I180
sg19
g20
sbsg15
g1
(g519
g3
NtRp631
(dp632
g10
(lp633
g1
(g523
g3
NtRp634
(dp635
g40
I01
sg16
I179
sg526
S'Sync'
p636
sg19
g20
sbasg16
I179
sg19
g20
sbsg19
Nsg16
Nsg193
g1
(g172
g3
NtRp637
(dp638
g10
(lp639
g1
(g176
g3
NtRp640
(dp641
g88
Nsg41
S'valid'
p642
sg15
Nsg19
g20
sg91
S'bool'
p643
sg16
I181
sbag1
(g176
g3
NtRp644
(dp645
g88
Nsg41
S'status'
p646
sg15
Nsg19
g20
sg91
S'DatabaseError'
p647
sg16
I181
sbag1
(g176
g3
NtRp648
(dp649
g88
Nsg41
S'key'
p650
sg15
Nsg19
g20
sg91
S'uint8[]?'
p651
sg16
I181
sbag1
(g176
g3
NtRp652
(dp653
g88
Nsg41
S'value'
p654
sg15
Nsg19
g20
sg91
S'uint8[]?'
p655
sg16
I182
sbasg16
I181
sg19
g20
sbsbag1
(g167
g3
NtRp656
(dp657
g88
Nsg41
S'IteratorPrev'
p658
sg171
g1
(g172
g3
NtRp659
(dp660
g10
(lp661
g1
(g176
g3
NtRp662
(dp663
g88
Nsg41
S'iterator'
p664
sg15
Nsg19
g20
sg91
S'mojo_base.mojom.UnguessableToken'
p665
sg16
I184
sbasg16
I184
sg19
g20
sbsg15
g1
(g519
g3
NtRp666
(dp667
g10
(lp668
g1
(g523
g3
NtRp669
(dp670
g40
I01
sg16
I183
sg526
S'Sync'
p671
sg19
g20
sbasg16
I183
sg19
g20
sbsg19
Nsg16
Nsg193
g1
(g172
g3
NtRp672
(dp673
g10
(lp674
g1
(g176
g3
NtRp675
(dp676
g88
Nsg41
S'valid'
p677
sg15
Nsg19
g20
sg91
S'bool'
p678
sg16
I185
sbag1
(g176
g3
NtRp679
(dp680
g88
Nsg41
S'status'
p681
sg15
Nsg19
g20
sg91
S'DatabaseError'
p682
sg16
I185
sbag1
(g176
g3
NtRp683
(dp684
g88
Nsg41
S'key'
p685
sg15
Nsg19
g20
sg91
S'uint8[]?'
p686
sg16
I185
sbag1
(g176
g3
NtRp687
(dp688
g88
Nsg41
S'value'
p689
sg15
Nsg19
g20
sg91
S'uint8[]?'
p690
sg16
I186
sbasg16
I185
sg19
g20
sbsbasg16
Nsg19
Nsbsg15
Nsg16
Nsg41
S'LevelDBDatabase'
p691
sg19
Nsbasg16
NsS'module'
p692
g1
(cmojom.parse.ast
Module
p693
g3
NtRp694
(dp695
S'mojom_namespace'
p696
(g155
S'leveldb.mojom'
tp697
sg16
I5
sg15
Nsg19
g20
sbsg19
Nsb.