ccopy_reg
_reconstructor
p1
(cmojom.parse.ast
Mojom
p2
c__builtin__
object
p3
NtRp4
(dp5
S'import_list'
p6
g1
(cmojom.parse.ast
ImportList
p7
g3
NtRp8
(dp9
S'items'
p10
(lp11
sS'lineno'
p12
NsS'filename'
p13
NsbsS'definition_list'
p14
(lp15
g1
(cmojom.parse.ast
Struct
p16
g3
NtRp17
(dp18
S'body'
p19
g1
(cmojom.parse.ast
StructBody
p20
g3
NtRp21
(dp22
g10
(lp23
g1
(cmojom.parse.ast
StructField
p24
g3
NtRp25
(dp26
S'ordinal'
p27
NsS'default_value'
p28
NsS'mojom_name'
p29
S'left'
p30
sS'attribute_list'
p31
Nsg13
NsS'typename'
p32
S'int32'
p33
sg12
Nsbag1
(g24
g3
NtRp34
(dp35
g27
Nsg28
Nsg29
S'top'
p36
sg31
Nsg13
Nsg32
S'int32'
p37
sg12
Nsbag1
(g24
g3
NtRp38
(dp39
g27
Nsg28
Nsg29
S'right'
p40
sg31
Nsg13
Nsg32
S'int32'
p41
sg12
Nsbag1
(g24
g3
NtRp42
(dp43
g27
Nsg28
Nsg29
S'bottom'
p44
sg31
Nsg13
Nsg32
S'int32'
p45
sg12
Nsbasg12
Nsg13
Nsbsg31
Nsg12
Nsg29
S'Rect'
p46
sg13
Nsbag1
(g16
g3
NtRp47
(dp48
g19
g1
(g20
g3
NtRp49
(dp50
g10
(lp51
g1
(g24
g3
NtRp52
(dp53
g27
Nsg28
Nsg29
S'start'
p54
sg31
Nsg13
Nsg32
S'uint32'
p55
sg12
Nsbag1
(g24
g3
NtRp56
(dp57
g27
Nsg28
Nsg29
S'end'
p58
sg31
Nsg13
Nsg32
S'uint32'
p59
sg12
Nsbasg12
Nsg13
Nsbsg31
Nsg12
Nsg29
S'Range'
p60
sg13
Nsbasg12
NsS'module'
p61
g1
(cmojom.parse.ast
Module
p62
g3
NtRp63
(dp64
S'mojom_namespace'
p65
(S'IDENTIFIER'
p66
S'arc.mojom'
tp67
sg12
I11
sg31
Nsg13
S'../../components/arc/common/gfx.mojom'
p68
sbsg13
Nsb.