ccopy_reg
_reconstructor
p1
(cmojom.parse.ast
Mojom
p2
c__builtin__
object
p3
NtRp4
(dp5
S'import_list'
p6
g1
(cmojom.parse.ast
ImportList
p7
g3
NtRp8
(dp9
S'items'
p10
(lp11
sS'lineno'
p12
NsS'filename'
p13
NsbsS'definition_list'
p14
(lp15
g1
(cmojom.parse.ast
Interface
p16
g3
NtRp17
(dp18
S'body'
p19
g1
(cmojom.parse.ast
InterfaceBody
p20
g3
NtRp21
(dp22
g10
(lp23
g1
(cmojom.parse.ast
Method
p24
g3
NtRp25
(dp26
S'ordinal'
p27
g1
(cmojom.parse.ast
Ordinal
p28
g3
NtRp29
(dp30
g12
I19
sS'value'
p31
I0
sg13
S'../../components/arc/common/protected_buffer_manager.mojom'
p32
sbsS'mojom_name'
p33
S'GetProtectedSharedMemoryFromHandle'
p34
sS'parameter_list'
p35
g1
(cmojom.parse.ast
ParameterList
p36
g3
NtRp37
(dp38
g10
(lp39
g1
(cmojom.parse.ast
Parameter
p40
g3
NtRp41
(dp42
g27
Nsg33
S'dummy_handle'
p43
sS'attribute_list'
p44
Nsg13
g32
sS'typename'
p45
S'handle'
p46
sg12
I19
sbasg12
I19
sg13
g32
sbsg44
Nsg13
Nsg12
NsS'response_parameter_list'
p47
g1
(g36
g3
NtRp48
(dp49
g10
(lp50
g1
(g40
g3
NtRp51
(dp52
g27
Nsg33
S'shared_memory_handle'
p53
sg44
Nsg13
g32
sg45
S'handle'
p54
sg12
I20
sbasg12
I20
sg13
g32
sbsbasg12
Nsg13
Nsbsg44
Nsg12
Nsg33
S'ProtectedBufferManager'
p55
sg13
Nsbasg12
NsS'module'
p56
g1
(cmojom.parse.ast
Module
p57
g3
NtRp58
(dp59
S'mojom_namespace'
p60
(S'IDENTIFIER'
p61
S'arc.mojom'
tp62
sg12
I8
sg44
Nsg13
g32
sbsg13
Nsb.