ccopy_reg
_reconstructor
p1
(cmojom.parse.ast
Mojom
p2
c__builtin__
object
p3
NtRp4
(dp5
S'import_list'
p6
g1
(cmojom.parse.ast
ImportList
p7
g3
NtRp8
(dp9
S'items'
p10
(lp11
g1
(cmojom.parse.ast
Import
p12
g3
NtRp13
(dp14
S'attribute_list'
p15
NsS'lineno'
p16
I10
sS'import_filename'
p17
S'components/arc/common/video_common.mojom'
p18
sS'filename'
p19
S'../../components/arc/common/video_encode_accelerator.mojom'
p20
sbasg16
I10
sg19
g20
sbsS'definition_list'
p21
(lp22
g1
(cmojom.parse.ast
Enum
p23
g3
NtRp24
(dp25
g15
g1
(cmojom.parse.ast
AttributeList
p26
g3
NtRp27
(dp28
g10
(lp29
g1
(cmojom.parse.ast
Attribute
p30
g3
NtRp31
(dp32
S'value'
p33
I01
sg16
I12
sS'key'
p34
S'Extensible'
p35
sg19
g20
sbasg16
I12
sg19
g20
sbsS'enum_value_list'
p36
g1
(cmojom.parse.ast
EnumValueList
p37
g3
NtRp38
(dp39
g10
(lp40
g1
(cmojom.parse.ast
EnumValue
p41
g3
NtRp42
(dp43
g15
Nsg33
S'0'
sg16
I15
sS'mojom_name'
p44
S'PIXEL_FORMAT_UNKNOWN'
p45
sg19
g20
sbag1
(g41
g3
NtRp46
(dp47
g15
Nsg33
S'1'
sg16
I16
sg44
S'PIXEL_FORMAT_I420'
p48
sg19
g20
sbasg16
I15
sg19
g20
sbsg16
I13
sg44
S'VideoPixelFormat'
p49
sg19
g20
sbag1
(cmojom.parse.ast
Struct
p50
g3
NtRp51
(dp52
S'body'
p53
g1
(cmojom.parse.ast
StructBody
p54
g3
NtRp55
(dp56
g10
(lp57
g1
(cmojom.parse.ast
StructField
p58
g3
NtRp59
(dp60
S'ordinal'
p61
NsS'default_value'
p62
Nsg44
S'profile'
p63
sg15
Nsg19
NsS'typename'
p64
S'VideoCodecProfile'
p65
sg16
Nsbag1
(g58
g3
NtRp66
(dp67
g61
Nsg62
Nsg44
S'max_resolution'
p68
sg15
Nsg19
Nsg64
S'Size'
p69
sg16
Nsbag1
(g58
g3
NtRp70
(dp71
g61
Nsg62
Nsg44
S'max_framerate_numerator'
p72
sg15
Nsg19
Nsg64
S'uint32'
p73
sg16
Nsbag1
(g58
g3
NtRp74
(dp75
g61
Nsg62
Nsg44
S'max_framerate_denominator'
p76
sg15
Nsg19
Nsg64
S'uint32'
p77
sg16
Nsbasg16
Nsg19
Nsbsg15
Nsg16
Nsg44
S'VideoEncodeProfile'
p78
sg19
Nsbag1
(cmojom.parse.ast
Interface
p79
g3
NtRp80
(dp81
g53
g1
(cmojom.parse.ast
InterfaceBody
p82
g3
NtRp83
(dp84
g10
(lp85
g1
(g23
g3
NtRp86
(dp87
g15
g1
(g26
g3
NtRp88
(dp89
g10
(lp90
g1
(g30
g3
NtRp91
(dp92
g33
I01
sg16
I33
sg34
S'Extensible'
p93
sg19
g20
sbasg16
I33
sg19
g20
sbsg36
g1
(g37
g3
NtRp94
(dp95
g10
(lp96
g1
(g41
g3
NtRp97
(dp98
g15
Nsg33
Nsg16
I35
sg44
S'SHARED_MEMORY'
p99
sg19
g20
sbag1
(g41
g3
NtRp100
(dp101
g15
Nsg33
Nsg16
I36
sg44
S'DMABUF'
p102
sg19
g20
sbasg16
I35
sg19
g20
sbsg16
I34
sg44
S'StorageType'
p103
sg19
g20
sbag1
(g23
g3
NtRp104
(dp105
g15
g1
(g26
g3
NtRp106
(dp107
g10
(lp108
g1
(g30
g3
NtRp109
(dp110
g33
I01
sg16
I40
sg34
S'Extensible'
p111
sg19
g20
sbasg16
I40
sg19
g20
sbsg36
g1
(g37
g3
NtRp112
(dp113
g10
(lp114
g1
(g41
g3
NtRp115
(dp116
g15
Nsg33
S'0'
sg16
I43
sg44
S'kIllegalStateError'
p117
sg19
g20
sbag1
(g41
g3
NtRp118
(dp119
g15
Nsg33
S'1'
sg16
I45
sg44
S'kInvalidArgumentError'
p120
sg19
g20
sbag1
(g41
g3
NtRp121
(dp122
g15
Nsg33
S'2'
sg16
I50
sg44
S'kPlatformFailureError'
p123
sg19
g20
sbag1
(g41
g3
NtRp124
(dp125
g15
Nsg33
(S'IDENTIFIER'
p126
S'kPlatformFailureError'
tp127
sg16
I51
sg44
S'kErrorMax'
p128
sg19
g20
sbasg16
I43
sg19
g20
sbsg16
I41
sg44
S'Error'
p129
sg19
g20
sbag1
(cmojom.parse.ast
Method
p130
g3
NtRp131
(dp132
g61
g1
(cmojom.parse.ast
Ordinal
p133
g3
NtRp134
(dp135
g16
I56
sg33
I0
sg19
g20
sbsg44
S'GetSupportedProfiles'
p136
sS'parameter_list'
p137
g1
(cmojom.parse.ast
ParameterList
p138
g3
NtRp139
(dp140
g10
(lp141
sg16
Nsg19
Nsbsg15
Nsg19
Nsg16
NsS'response_parameter_list'
p142
g1
(g138
g3
NtRp143
(dp144
g10
(lp145
g1
(cmojom.parse.ast
Parameter
p146
g3
NtRp147
(dp148
g61
Nsg44
S'profiles'
p149
sg15
Nsg19
g20
sg64
S'VideoEncodeProfile[]'
p150
sg16
I56
sbasg16
I56
sg19
g20
sbsbag1
(g130
g3
NtRp151
(dp152
g61
g1
(g133
g3
NtRp153
(dp154
g16
I72
sg33
I1
sg19
g20
sbsg44
S'Initialize'
p155
sg137
g1
(g138
g3
NtRp156
(dp157
g10
(lp158
g1
(g146
g3
NtRp159
(dp160
g61
Nsg44
S'input_format'
p161
sg15
Nsg19
g20
sg64
S'VideoPixelFormat'
p162
sg16
I72
sbag1
(g146
g3
NtRp163
(dp164
g61
Nsg44
S'visible_size'
p165
sg15
Nsg19
g20
sg64
S'Size'
p166
sg16
I73
sbag1
(g146
g3
NtRp167
(dp168
g61
Nsg44
S'input_storage'
p169
sg15
Nsg19
g20
sg64
S'StorageType'
p170
sg16
I74
sbag1
(g146
g3
NtRp171
(dp172
g61
Nsg44
S'output_profile'
p173
sg15
Nsg19
g20
sg64
S'VideoCodecProfile'
p174
sg16
I75
sbag1
(g146
g3
NtRp175
(dp176
g61
Nsg44
S'initial_bitrate'
p177
sg15
Nsg19
g20
sg64
S'uint32'
p178
sg16
I76
sbag1
(g146
g3
NtRp179
(dp180
g61
Nsg44
S'client'
p181
sg15
Nsg19
g20
sg64
S'VideoEncodeClient'
p182
sg16
I77
sbasg16
I72
sg19
g20
sbsg15
Nsg19
Nsg16
Nsg142
g1
(g138
g3
NtRp183
(dp184
g10
(lp185
g1
(g146
g3
NtRp186
(dp187
g61
Nsg44
S'success'
p188
sg15
Nsg19
g20
sg64
S'bool'
p189
sg16
I77
sbasg16
I77
sg19
g20
sbsbag1
(g130
g3
NtRp190
(dp191
g61
g1
(g133
g3
NtRp192
(dp193
g16
I90
sg33
I2
sg19
g20
sbsg44
S'Encode'
p194
sg137
g1
(g138
g3
NtRp195
(dp196
g10
(lp197
g1
(g146
g3
NtRp198
(dp199
g61
Nsg44
S'frame_fd'
p200
sg15
Nsg19
g20
sg64
S'handle'
p201
sg16
I90
sbag1
(g146
g3
NtRp202
(dp203
g61
Nsg44
S'planes'
p204
sg15
Nsg19
g20
sg64
S'VideoFramePlane[]'
p205
sg16
I91
sbag1
(g146
g3
NtRp206
(dp207
g61
Nsg44
S'timestamp'
p208
sg15
Nsg19
g20
sg64
S'int64'
p209
sg16
I92
sbag1
(g146
g3
NtRp210
(dp211
g61
Nsg44
S'force_keyframe'
p212
sg15
Nsg19
g20
sg64
S'bool'
p213
sg16
I93
sbasg16
I90
sg19
g20
sbsg15
Nsg19
Nsg16
Nsg142
g1
(g138
g3
NtRp214
(dp215
g10
(lp216
sg16
Nsg19
Nsbsbag1
(g130
g3
NtRp217
(dp218
g61
g1
(g133
g3
NtRp219
(dp220
g16
I109
sg33
I3
sg19
g20
sbsg44
S'UseBitstreamBuffer'
p221
sg137
g1
(g138
g3
NtRp222
(dp223
g10
(lp224
g1
(g146
g3
NtRp225
(dp226
g61
Nsg44
S'shmem_fd'
p227
sg15
Nsg19
g20
sg64
S'handle'
p228
sg16
I109
sbag1
(g146
g3
NtRp229
(dp230
g61
Nsg44
S'offset'
p231
sg15
Nsg19
g20
sg64
S'uint32'
p232
sg16
I109
sbag1
(g146
g3
NtRp233
(dp234
g61
Nsg44
S'size'
p235
sg15
Nsg19
g20
sg64
S'uint32'
p236
sg16
I109
sbasg16
I109
sg19
g20
sbsg15
Nsg19
Nsg16
Nsg142
g1
(g138
g3
NtRp237
(dp238
g10
(lp239
g1
(g146
g3
NtRp240
(dp241
g61
Nsg44
S'payload_size'
p242
sg15
Nsg19
g20
sg64
S'uint32'
p243
sg16
I110
sbag1
(g146
g3
NtRp244
(dp245
g61
Nsg44
S'key_frame'
p246
sg15
Nsg19
g20
sg64
S'bool'
p247
sg16
I110
sbag1
(g146
g3
NtRp248
(dp249
g61
Nsg44
S'timestamp'
p250
sg15
Nsg19
g20
sg64
S'int64'
p251
sg16
I110
sbasg16
I110
sg19
g20
sbsbag1
(g130
g3
NtRp252
(dp253
g61
g1
(g133
g3
NtRp254
(dp255
g16
I117
sg33
I4
sg19
g20
sbsg44
S'RequestEncodingParametersChange'
p256
sg137
g1
(g138
g3
NtRp257
(dp258
g10
(lp259
g1
(g146
g3
NtRp260
(dp261
g61
Nsg44
S'bitrate'
p262
sg15
Nsg19
g20
sg64
S'uint32'
p263
sg16
I117
sbag1
(g146
g3
NtRp264
(dp265
g61
Nsg44
S'framerate'
p266
sg15
Nsg19
g20
sg64
S'uint32'
p267
sg16
I118
sbasg16
I117
sg19
g20
sbsg15
Nsg19
Nsg16
Nsg142
Nsbag1
(g130
g3
NtRp268
(dp269
g61
g1
(g133
g3
NtRp270
(dp271
g16
I126
sg33
I5
sg19
g20
sbsg44
S'Flush'
p272
sg137
g1
(g138
g3
NtRp273
(dp274
g10
(lp275
sg16
Nsg19
Nsbsg15
Nsg19
Nsg16
Nsg142
g1
(g138
g3
NtRp276
(dp277
g10
(lp278
g1
(g146
g3
NtRp279
(dp280
g61
Nsg44
S'flush_done'
p281
sg15
Nsg19
g20
sg64
S'bool'
p282
sg16
I126
sbasg16
I126
sg19
g20
sbsbasg16
I34
sg19
g20
sbsg15
Nsg16
Nsg44
S'VideoEncodeAccelerator'
p283
sg19
Nsbag1
(g79
g3
NtRp284
(dp285
g53
g1
(g82
g3
NtRp286
(dp287
g10
(lp288
g1
(g130
g3
NtRp289
(dp290
g61
g1
(g133
g3
NtRp291
(dp292
g16
I149
sg33
I0
sg19
g20
sbsg44
S'RequireBitstreamBuffers'
p293
sg137
g1
(g138
g3
NtRp294
(dp295
g10
(lp296
g1
(g146
g3
NtRp297
(dp298
g61
Nsg44
S'input_count'
p299
sg15
Nsg19
g20
sg64
S'uint32'
p300
sg16
I149
sbag1
(g146
g3
NtRp301
(dp302
g61
Nsg44
S'input_coded_size'
p303
sg15
Nsg19
g20
sg64
S'Size'
p304
sg16
I150
sbag1
(g146
g3
NtRp305
(dp306
g61
Nsg44
S'output_buffer_size'
p307
sg15
Nsg19
g20
sg64
S'uint32'
p308
sg16
I151
sbasg16
I149
sg19
g20
sbsg15
Nsg19
Nsg16
Nsg142
Nsbag1
(g130
g3
NtRp309
(dp310
g61
g1
(g133
g3
NtRp311
(dp312
g16
I156
sg33
I2
sg19
g20
sbsg44
S'NotifyError'
p313
sg137
g1
(g138
g3
NtRp314
(dp315
g10
(lp316
g1
(g146
g3
NtRp317
(dp318
g61
Nsg44
S'error'
p319
sg15
Nsg19
g20
sg64
S'VideoEncodeAccelerator.Error'
p320
sg16
I156
sbasg16
I156
sg19
g20
sbsg15
Nsg19
Nsg16
Nsg142
Nsbasg16
Nsg19
Nsbsg15
Nsg16
Nsg44
S'VideoEncodeClient'
p321
sg19
Nsbasg16
NsS'module'
p322
g1
(cmojom.parse.ast
Module
p323
g3
NtRp324
(dp325
S'mojom_namespace'
p326
(g126
S'arc.mojom'
tp327
sg16
I8
sg15
Nsg19
g20
sbsg19
Nsb.