ccopy_reg
_reconstructor
p1
(cmojom.parse.ast
Mojom
p2
c__builtin__
object
p3
NtRp4
(dp5
S'import_list'
p6
g1
(cmojom.parse.ast
ImportList
p7
g3
NtRp8
(dp9
S'items'
p10
(lp11
g1
(cmojom.parse.ast
Import
p12
g3
NtRp13
(dp14
S'attribute_list'
p15
NsS'lineno'
p16
I9
sS'import_filename'
p17
S'components/arc/common/video_decode_accelerator.mojom'
p18
sS'filename'
p19
S'../../components/arc/common/video.mojom'
p20
sbag1
(g12
g3
NtRp21
(dp22
g15
Nsg16
I10
sg17
S'components/arc/common/video_encode_accelerator.mojom'
p23
sg19
g20
sbag1
(g12
g3
NtRp24
(dp25
g15
Nsg16
I11
sg17
S'components/arc/common/video_protected_buffer_allocator.mojom'
p26
sg19
g20
sbasg16
I9
sg19
g20
sbsS'definition_list'
p27
(lp28
g1
(cmojom.parse.ast
Interface
p29
g3
NtRp30
(dp31
S'body'
p32
g1
(cmojom.parse.ast
InterfaceBody
p33
g3
NtRp34
(dp35
g10
(lp36
g1
(cmojom.parse.ast
Method
p37
g3
NtRp38
(dp39
S'ordinal'
p40
g1
(cmojom.parse.ast
Ordinal
p41
g3
NtRp42
(dp43
g16
I20
sS'value'
p44
I1
sg19
g20
sbsS'mojom_name'
p45
S'OnBootstrapVideoAcceleratorFactory'
p46
sS'parameter_list'
p47
g1
(cmojom.parse.ast
ParameterList
p48
g3
NtRp49
(dp50
g10
(lp51
sg16
Nsg19
Nsbsg15
g1
(cmojom.parse.ast
AttributeList
p52
g3
NtRp53
(dp54
g10
(lp55
g1
(cmojom.parse.ast
Attribute
p56
g3
NtRp57
(dp58
g44
I4
sg16
I19
sS'key'
p59
S'MinVersion'
p60
sg19
g20
sbasg16
I19
sg19
g20
sbsg19
Nsg16
NsS'response_parameter_list'
p61
g1
(g48
g3
NtRp62
(dp63
g10
(lp64
g1
(cmojom.parse.ast
Parameter
p65
g3
NtRp66
(dp67
g40
Nsg45
S'channel_handle'
p68
sg15
Nsg19
g20
sS'typename'
p69
S'handle'
p70
sg16
I20
sbag1
(g65
g3
NtRp71
(dp72
g40
Nsg45
S'token'
p73
sg15
Nsg19
g20
sg69
S'string'
p74
sg16
I21
sbasg16
I20
sg19
g20
sbsbasg16
Nsg19
Nsbsg15
Nsg16
Nsg45
S'VideoHost'
p75
sg19
Nsbag1
(g29
g3
NtRp76
(dp77
g32
g1
(g33
g3
NtRp78
(dp79
g10
(lp80
g1
(g37
g3
NtRp81
(dp82
g40
g1
(g41
g3
NtRp83
(dp84
g16
I27
sg44
I0
sg19
g20
sbsg45
S'InitDeprecated'
p85
sg47
g1
(g48
g3
NtRp86
(dp87
g10
(lp88
g1
(g65
g3
NtRp89
(dp90
g40
Nsg45
S'host_ptr'
p91
sg15
Nsg19
g20
sg69
S'VideoHost'
p92
sg16
I27
sbasg16
I27
sg19
g20
sbsg15
Nsg19
Nsg16
Nsg61
Nsbag1
(g37
g3
NtRp93
(dp94
g40
g1
(g41
g3
NtRp95
(dp96
g16
I30
sg44
I1
sg19
g20
sbsg45
S'Init'
p97
sg47
g1
(g48
g3
NtRp98
(dp99
g10
(lp100
g1
(g65
g3
NtRp101
(dp102
g40
Nsg45
S'host_ptr'
p103
sg15
Nsg19
g20
sg69
S'VideoHost'
p104
sg16
I30
sbasg16
I30
sg19
g20
sbsg15
g1
(g52
g3
NtRp105
(dp106
g10
(lp107
g1
(g56
g3
NtRp108
(dp109
g44
I5
sg16
I30
sg59
S'MinVersion'
p110
sg19
g20
sbasg16
I30
sg19
g20
sbsg19
Nsg16
Nsg61
g1
(g48
g3
NtRp111
(dp112
g10
(lp113
sg16
Nsg19
Nsbsbasg16
Nsg19
Nsbsg15
Nsg16
Nsg45
S'VideoInstance'
p114
sg19
Nsbag1
(g29
g3
NtRp115
(dp116
g32
g1
(g33
g3
NtRp117
(dp118
g10
(lp119
g1
(g37
g3
NtRp120
(dp121
g40
g1
(g41
g3
NtRp122
(dp123
g16
I37
sg44
I1
sg19
g20
sbsg45
S'CreateEncodeAccelerator'
p124
sg47
g1
(g48
g3
NtRp125
(dp126
g10
(lp127
g1
(g65
g3
NtRp128
(dp129
g40
Nsg45
S'video_encoder'
p130
sg15
Nsg19
g20
sg69
S'VideoEncodeAccelerator&'
p131
sg16
I37
sbasg16
I37
sg19
g20
sbsg15
g1
(g52
g3
NtRp132
(dp133
g10
(lp134
g1
(g56
g3
NtRp135
(dp136
g44
I1
sg16
I36
sg59
S'MinVersion'
p137
sg19
g20
sbasg16
I36
sg19
g20
sbsg19
Nsg16
Nsg61
Nsbag1
(g37
g3
NtRp138
(dp139
g40
g1
(g41
g3
NtRp140
(dp141
g16
I40
sg44
I2
sg19
g20
sbsg45
S'CreateDecodeAccelerator'
p142
sg47
g1
(g48
g3
NtRp143
(dp144
g10
(lp145
g1
(g65
g3
NtRp146
(dp147
g40
Nsg45
S'video_decoder'
p148
sg15
Nsg19
g20
sg69
S'VideoDecodeAccelerator&'
p149
sg16
I40
sbasg16
I40
sg19
g20
sbsg15
g1
(g52
g3
NtRp150
(dp151
g10
(lp152
g1
(g56
g3
NtRp153
(dp154
g44
I6
sg16
I39
sg59
S'MinVersion'
p155
sg19
g20
sbasg16
I39
sg19
g20
sbsg19
Nsg16
Nsg61
Nsbag1
(g37
g3
NtRp156
(dp157
g40
g1
(g41
g3
NtRp158
(dp159
g16
I43
sg44
I3
sg19
g20
sbsg45
S'CreateProtectedBufferAllocator'
p160
sg47
g1
(g48
g3
NtRp161
(dp162
g10
(lp163
g1
(g65
g3
NtRp164
(dp165
g40
Nsg45
S'video_protected_buffer_allocator'
p166
sg15
Nsg19
g20
sg69
S'VideoProtectedBufferAllocator&'
p167
sg16
I44
sbasg16
I44
sg19
g20
sbsg15
g1
(g52
g3
NtRp168
(dp169
g10
(lp170
g1
(g56
g3
NtRp171
(dp172
g44
I7
sg16
I42
sg59
S'Minversion'
p173
sg19
g20
sbasg16
I42
sg19
g20
sbsg19
Nsg16
Nsg61
Nsbasg16
Nsg19
Nsbsg15
Nsg16
Nsg45
S'VideoAcceleratorFactory'
p174
sg19
Nsbasg16
NsS'module'
p175
g1
(cmojom.parse.ast
Module
p176
g3
NtRp177
(dp178
S'mojom_namespace'
p179
(S'IDENTIFIER'
p180
S'arc.mojom'
tp181
sg16
I7
sg15
Nsg19
g20
sbsg19
Nsb.