ccopy_reg
_reconstructor
p1
(cmojom.parse.ast
Mojom
p2
c__builtin__
object
p3
NtRp4
(dp5
S'import_list'
p6
g1
(cmojom.parse.ast
ImportList
p7
g3
NtRp8
(dp9
S'items'
p10
(lp11
sS'lineno'
p12
NsS'filename'
p13
NsbsS'definition_list'
p14
(lp15
g1
(cmojom.parse.ast
Enum
p16
g3
NtRp17
(dp18
S'attribute_list'
p19
g1
(cmojom.parse.ast
AttributeList
p20
g3
NtRp21
(dp22
g10
(lp23
g1
(cmojom.parse.ast
Attribute
p24
g3
NtRp25
(dp26
S'value'
p27
I01
sg12
I10
sS'key'
p28
S'Extensible'
p29
sg13
S'../../components/arc/common/video_common.mojom'
p30
sbasg12
I10
sg13
g30
sbsS'enum_value_list'
p31
g1
(cmojom.parse.ast
EnumValueList
p32
g3
NtRp33
(dp34
g10
(lp35
g1
(cmojom.parse.ast
EnumValue
p36
g3
NtRp37
(dp38
g19
Nsg27
S'-1'
p39
sg12
I13
sS'mojom_name'
p40
S'VIDEO_CODEC_PROFILE_UNKNOWN'
p41
sg13
g30
sbag1
(g36
g3
NtRp42
(dp43
g19
Nsg27
(S'IDENTIFIER'
p44
S'VIDEO_CODEC_PROFILE_UNKNOWN'
tp45
sg12
I14
sg40
S'VIDEO_CODEC_PROFILE_MIN'
p46
sg13
g30
sbag1
(g36
g3
NtRp47
(dp48
g19
Nsg27
S'0'
sg12
I15
sg40
S'H264PROFILE_MIN'
p49
sg13
g30
sbag1
(g36
g3
NtRp50
(dp51
g19
Nsg27
(g44
S'H264PROFILE_MIN'
tp52
sg12
I18
sg40
S'H264PROFILE_BASELINE'
p53
sg13
g30
sbag1
(g36
g3
NtRp54
(dp55
g19
Nsg27
S'1'
sg12
I19
sg40
S'H264PROFILE_MAIN'
p56
sg13
g30
sbag1
(g36
g3
NtRp57
(dp58
g19
Nsg27
S'2'
sg12
I20
sg40
S'H264PROFILE_EXTENDED'
p59
sg13
g30
sbag1
(g36
g3
NtRp60
(dp61
g19
Nsg27
S'3'
sg12
I21
sg40
S'H264PROFILE_HIGH'
p62
sg13
g30
sbag1
(g36
g3
NtRp63
(dp64
g19
Nsg27
S'4'
sg12
I22
sg40
S'H264PROFILE_HIGH10PROFILE'
p65
sg13
g30
sbag1
(g36
g3
NtRp66
(dp67
g19
Nsg27
S'5'
sg12
I23
sg40
S'H264PROFILE_HIGH422PROFILE'
p68
sg13
g30
sbag1
(g36
g3
NtRp69
(dp70
g19
Nsg27
S'6'
sg12
I24
sg40
S'H264PROFILE_HIGH444PREDICTIVEPROFILE'
p71
sg13
g30
sbag1
(g36
g3
NtRp72
(dp73
g19
Nsg27
S'7'
sg12
I25
sg40
S'H264PROFILE_SCALABLEBASELINE'
p74
sg13
g30
sbag1
(g36
g3
NtRp75
(dp76
g19
Nsg27
S'8'
sg12
I26
sg40
S'H264PROFILE_SCALABLEHIGH'
p77
sg13
g30
sbag1
(g36
g3
NtRp78
(dp79
g19
Nsg27
S'9'
sg12
I27
sg40
S'H264PROFILE_STEREOHIGH'
p80
sg13
g30
sbag1
(g36
g3
NtRp81
(dp82
g19
Nsg27
S'10'
p83
sg12
I28
sg40
S'H264PROFILE_MULTIVIEWHIGH'
p84
sg13
g30
sbag1
(g36
g3
NtRp85
(dp86
g19
Nsg27
(g44
S'H264PROFILE_MULTIVIEWHIGH'
tp87
sg12
I29
sg40
S'H264PROFILE_MAX'
p88
sg13
g30
sbag1
(g36
g3
NtRp89
(dp90
g19
Nsg27
S'11'
p91
sg12
I30
sg40
S'VP8PROFILE_MIN'
p92
sg13
g30
sbag1
(g36
g3
NtRp93
(dp94
g19
Nsg27
(g44
S'VP8PROFILE_MIN'
tp95
sg12
I31
sg40
S'VP8PROFILE_ANY'
p96
sg13
g30
sbag1
(g36
g3
NtRp97
(dp98
g19
Nsg27
(g44
S'VP8PROFILE_ANY'
tp99
sg12
I32
sg40
S'VP8PROFILE_MAX'
p100
sg13
g30
sbag1
(g36
g3
NtRp101
(dp102
g19
Nsg27
S'12'
p103
sg12
I33
sg40
S'VP9PROFILE_MIN'
p104
sg13
g30
sbag1
(g36
g3
NtRp105
(dp106
g19
Nsg27
(g44
S'VP9PROFILE_MIN'
tp107
sg12
I34
sg40
S'VP9PROFILE_PROFILE0'
p108
sg13
g30
sbag1
(g36
g3
NtRp109
(dp110
g19
Nsg27
S'13'
p111
sg12
I35
sg40
S'VP9PROFILE_PROFILE1'
p112
sg13
g30
sbag1
(g36
g3
NtRp113
(dp114
g19
Nsg27
S'14'
p115
sg12
I36
sg40
S'VP9PROFILE_PROFILE2'
p116
sg13
g30
sbag1
(g36
g3
NtRp117
(dp118
g19
Nsg27
S'15'
p119
sg12
I37
sg40
S'VP9PROFILE_PROFILE3'
p120
sg13
g30
sbag1
(g36
g3
NtRp121
(dp122
g19
Nsg27
(g44
S'VP9PROFILE_PROFILE3'
tp123
sg12
I38
sg40
S'VP9PROFILE_MAX'
p124
sg13
g30
sbag1
(g36
g3
NtRp125
(dp126
g19
Nsg27
S'16'
p127
sg12
I39
sg40
S'HEVCPROFILE_MIN'
p128
sg13
g30
sbag1
(g36
g3
NtRp129
(dp130
g19
Nsg27
(g44
S'HEVCPROFILE_MIN'
tp131
sg12
I40
sg40
S'HEVCPROFILE_MAIN'
p132
sg13
g30
sbag1
(g36
g3
NtRp133
(dp134
g19
Nsg27
S'17'
p135
sg12
I41
sg40
S'HEVCPROFILE_MAIN10'
p136
sg13
g30
sbag1
(g36
g3
NtRp137
(dp138
g19
Nsg27
S'18'
p139
sg12
I42
sg40
S'HEVCPROFILE_MAIN_STILL_PICTURE'
p140
sg13
g30
sbag1
(g36
g3
NtRp141
(dp142
g19
Nsg27
(g44
S'HEVCPROFILE_MAIN_STILL_PICTURE'
tp143
sg12
I43
sg40
S'HEVCPROFILE_MAX'
p144
sg13
g30
sbag1
(g36
g3
NtRp145
(dp146
g19
Nsg27
S'19'
p147
sg12
I44
sg40
S'DOLBYVISION_MIN'
p148
sg13
g30
sbag1
(g36
g3
NtRp149
(dp150
g19
Nsg27
(g44
S'DOLBYVISION_MIN'
tp151
sg12
I45
sg40
S'DOLBYVISION_PROFILE0'
p152
sg13
g30
sbag1
(g36
g3
NtRp153
(dp154
g19
Nsg27
S'20'
p155
sg12
I46
sg40
S'DOLBYVISION_PROFILE4'
p156
sg13
g30
sbag1
(g36
g3
NtRp157
(dp158
g19
Nsg27
S'21'
p159
sg12
I47
sg40
S'DOLBYVISION_PROFILE5'
p160
sg13
g30
sbag1
(g36
g3
NtRp161
(dp162
g19
Nsg27
S'22'
p163
sg12
I48
sg40
S'DOLBYVISION_PROFILE7'
p164
sg13
g30
sbag1
(g36
g3
NtRp165
(dp166
g19
Nsg27
(g44
S'DOLBYVISION_PROFILE7'
tp167
sg12
I49
sg40
S'DOLBYVISION_MAX'
p168
sg13
g30
sbag1
(g36
g3
NtRp169
(dp170
g19
Nsg27
S'23'
p171
sg12
I50
sg40
S'THEORAPROFILE_MIN'
p172
sg13
g30
sbag1
(g36
g3
NtRp173
(dp174
g19
Nsg27
(g44
S'THEORAPROFILE_MIN'
tp175
sg12
I51
sg40
S'THEORAPROFILE_ANY'
p176
sg13
g30
sbag1
(g36
g3
NtRp177
(dp178
g19
Nsg27
(g44
S'THEORAPROFILE_ANY'
tp179
sg12
I52
sg40
S'THEORAPROFILE_MAX'
p180
sg13
g30
sbag1
(g36
g3
NtRp181
(dp182
g19
Nsg27
S'24'
p183
sg12
I55
sg40
S'AV1PROFILE_MIN'
p184
sg13
g30
sbag1
(g36
g3
NtRp185
(dp186
g19
Nsg27
(g44
S'AV1PROFILE_MIN'
tp187
sg12
I56
sg40
S'AV1PROFILE_PROFILE0'
p188
sg13
g30
sbag1
(g36
g3
NtRp189
(dp190
g19
Nsg27
(g44
S'AV1PROFILE_PROFILE0'
tp191
sg12
I57
sg40
S'AV1PROFILE_MAX'
p192
sg13
g30
sbag1
(g36
g3
NtRp193
(dp194
g19
Nsg27
(g44
S'AV1PROFILE_PROFILE0'
tp195
sg12
I58
sg40
S'VIDEO_CODEC_PROFILE_MAX'
p196
sg13
g30
sbasg12
I13
sg13
g30
sbsg12
I11
sg40
S'VideoCodecProfile'
p197
sg13
g30
sbag1
(g16
g3
NtRp198
(dp199
g19
g1
(g20
g3
NtRp200
(dp201
g10
(lp202
g1
(g24
g3
NtRp203
(dp204
g27
I01
sg12
I61
sg28
S'Extensible'
p205
sg13
g30
sbasg12
I61
sg13
g30
sbsg31
g1
(g32
g3
NtRp206
(dp207
g10
(lp208
g1
(g36
g3
NtRp209
(dp210
g19
Nsg27
S'5'
sg12
I65
sg40
S'HAL_PIXEL_FORMAT_BGRA_8888'
p211
sg13
g30
sbag1
(g36
g3
NtRp212
(dp213
g19
Nsg27
S'0x23'
p214
sg12
I66
sg40
S'HAL_PIXEL_FORMAT_YCbCr_420_888'
p215
sg13
g30
sbag1
(g36
g3
NtRp216
(dp217
g19
Nsg27
S'0x32315659'
p218
sg12
I67
sg40
S'HAL_PIXEL_FORMAT_YV12'
p219
sg13
g30
sbag1
(g36
g3
NtRp220
(dp221
g19
Nsg27
S'0x3231564e'
p222
sg12
I68
sg40
S'HAL_PIXEL_FORMAT_NV12'
p223
sg13
g30
sbasg12
I65
sg13
g30
sbsg12
I62
sg40
S'HalPixelFormat'
p224
sg13
g30
sbag1
(cmojom.parse.ast
Struct
p225
g3
NtRp226
(dp227
S'body'
p228
g1
(cmojom.parse.ast
StructBody
p229
g3
NtRp230
(dp231
g10
(lp232
g1
(cmojom.parse.ast
StructField
p233
g3
NtRp234
(dp235
S'ordinal'
p236
NsS'default_value'
p237
Nsg40
S'offset'
p238
sg19
Nsg13
NsS'typename'
p239
S'int32'
p240
sg12
Nsbag1
(g233
g3
NtRp241
(dp242
g236
Nsg237
Nsg40
S'stride'
p243
sg19
Nsg13
Nsg239
S'int32'
p244
sg12
Nsbasg12
Nsg13
Nsbsg19
Nsg12
Nsg40
S'VideoFramePlane'
p245
sg13
Nsbag1
(g225
g3
NtRp246
(dp247
g228
g1
(g229
g3
NtRp248
(dp249
g10
(lp250
g1
(g233
g3
NtRp251
(dp252
g236
Nsg237
Nsg40
S'width'
p253
sg19
Nsg13
Nsg239
S'int32'
p254
sg12
Nsbag1
(g233
g3
NtRp255
(dp256
g236
Nsg237
Nsg40
S'height'
p257
sg19
Nsg13
Nsg239
S'int32'
p258
sg12
Nsbasg12
Nsg13
Nsbsg19
Nsg12
Nsg40
S'Size'
p259
sg13
Nsbasg12
NsS'module'
p260
g1
(cmojom.parse.ast
Module
p261
g3
NtRp262
(dp263
S'mojom_namespace'
p264
(g44
S'arc.mojom'
tp265
sg12
I8
sg19
Nsg13
g30
sbsg13
Nsb.