ccopy_reg
_reconstructor
p1
(cmojom.parse.ast
Mojom
p2
c__builtin__
object
p3
NtRp4
(dp5
S'import_list'
p6
g1
(cmojom.parse.ast
ImportList
p7
g3
NtRp8
(dp9
S'items'
p10
(lp11
g1
(cmojom.parse.ast
Import
p12
g3
NtRp13
(dp14
S'attribute_list'
p15
NsS'lineno'
p16
I9
sS'import_filename'
p17
S'components/arc/common/video_common.mojom'
p18
sS'filename'
p19
S'../../components/arc/common/video_protected_buffer_allocator.mojom'
p20
sbasg16
I9
sg19
g20
sbsS'definition_list'
p21
(lp22
g1
(cmojom.parse.ast
Interface
p23
g3
NtRp24
(dp25
S'body'
p26
g1
(cmojom.parse.ast
InterfaceBody
p27
g3
NtRp28
(dp29
g10
(lp30
g1
(cmojom.parse.ast
Method
p31
g3
NtRp32
(dp33
S'ordinal'
p34
g1
(cmojom.parse.ast
Ordinal
p35
g3
NtRp36
(dp37
g16
I17
sS'value'
p38
I0
sg19
g20
sbsS'mojom_name'
p39
S'AllocateProtectedSharedMemory'
p40
sS'parameter_list'
p41
g1
(cmojom.parse.ast
ParameterList
p42
g3
NtRp43
(dp44
g10
(lp45
g1
(cmojom.parse.ast
Parameter
p46
g3
NtRp47
(dp48
g34
Nsg39
S'handle_fd'
p49
sg15
Nsg19
g20
sS'typename'
p50
S'handle'
p51
sg16
I17
sbag1
(g46
g3
NtRp52
(dp53
g34
Nsg39
S'size'
p54
sg15
Nsg19
g20
sg50
S'uint64'
p55
sg16
I18
sbasg16
I17
sg19
g20
sbsg15
Nsg19
Nsg16
NsS'response_parameter_list'
p56
g1
(g42
g3
NtRp57
(dp58
g10
(lp59
g1
(g46
g3
NtRp60
(dp61
g34
Nsg39
S'result'
p62
sg15
Nsg19
g20
sg50
S'bool'
p63
sg16
I18
sbasg16
I18
sg19
g20
sbsbag1
(g31
g3
NtRp64
(dp65
g34
g1
(g35
g3
NtRp66
(dp67
g16
I24
sg38
I1
sg19
g20
sbsg39
S'AllocateProtectedNativePixmap'
p68
sg41
g1
(g42
g3
NtRp69
(dp70
g10
(lp71
g1
(g46
g3
NtRp72
(dp73
g34
Nsg39
S'handle_fd'
p74
sg15
Nsg19
g20
sg50
S'handle'
p75
sg16
I24
sbag1
(g46
g3
NtRp76
(dp77
g34
Nsg39
S'pixel_format'
p78
sg15
Nsg19
g20
sg50
S'HalPixelFormat'
p79
sg16
I24
sbag1
(g46
g3
NtRp80
(dp81
g34
Nsg39
S'picture_size'
p82
sg15
Nsg19
g20
sg50
S'Size'
p83
sg16
I25
sbasg16
I24
sg19
g20
sbsg15
Nsg19
Nsg16
Nsg56
g1
(g42
g3
NtRp84
(dp85
g10
(lp86
g1
(g46
g3
NtRp87
(dp88
g34
Nsg39
S'result'
p89
sg15
Nsg19
g20
sg50
S'bool'
p90
sg16
I25
sbasg16
I25
sg19
g20
sbsbag1
(g31
g3
NtRp91
(dp92
g34
g1
(g35
g3
NtRp93
(dp94
g16
I37
sg38
I2
sg19
g20
sbsg39
S'ReleaseProtectedBuffer'
p95
sg41
g1
(g42
g3
NtRp96
(dp97
g10
(lp98
g1
(g46
g3
NtRp99
(dp100
g34
Nsg39
S'handle_fd'
p101
sg15
Nsg19
g20
sg50
S'handle'
p102
sg16
I37
sbasg16
I37
sg19
g20
sbsg15
Nsg19
Nsg16
Nsg56
Nsbasg16
Nsg19
Nsbsg15
Nsg16
Nsg39
S'VideoProtectedBufferAllocator'
p103
sg19
Nsbasg16
NsS'module'
p104
g1
(cmojom.parse.ast
Module
p105
g3
NtRp106
(dp107
S'mojom_namespace'
p108
(S'IDENTIFIER'
p109
S'arc.mojom'
tp110
sg16
I7
sg15
Nsg19
g20
sbsg19
Nsb.