ccopy_reg
_reconstructor
p1
(cmojom.parse.ast
Mojom
p2
c__builtin__
object
p3
NtRp4
(dp5
S'import_list'
p6
g1
(cmojom.parse.ast
ImportList
p7
g3
NtRp8
(dp9
S'items'
p10
(lp11
g1
(cmojom.parse.ast
Import
p12
g3
NtRp13
(dp14
S'attribute_list'
p15
NsS'lineno'
p16
I20
sS'import_filename'
p17
S'components/arc/common/gfx.mojom'
p18
sS'filename'
p19
S'../../components/arc/common/video_decode_accelerator.mojom'
p20
sbag1
(g12
g3
NtRp21
(dp22
g15
Nsg16
I21
sg17
S'components/arc/common/video_common.mojom'
p23
sg19
g20
sbasg16
I20
sg19
g20
sbsS'definition_list'
p24
(lp25
g1
(cmojom.parse.ast
Struct
p26
g3
NtRp27
(dp28
S'body'
p29
g1
(cmojom.parse.ast
StructBody
p30
g3
NtRp31
(dp32
g10
(lp33
g1
(cmojom.parse.ast
StructField
p34
g3
NtRp35
(dp36
S'ordinal'
p37
NsS'default_value'
p38
NsS'mojom_name'
p39
S'bitstream_id'
p40
sg15
Nsg19
NsS'typename'
p41
S'int32'
p42
sg16
Nsbag1
(g34
g3
NtRp43
(dp44
g37
Nsg38
Nsg39
S'handle_fd'
p45
sg15
Nsg19
Nsg41
S'handle'
p46
sg16
Nsbag1
(g34
g3
NtRp47
(dp48
g37
Nsg38
Nsg39
S'offset'
p49
sg15
Nsg19
Nsg41
S'uint32'
p50
sg16
Nsbag1
(g34
g3
NtRp51
(dp52
g37
Nsg38
Nsg39
S'bytes_used'
p53
sg15
Nsg19
Nsg41
S'uint32'
p54
sg16
Nsbasg16
Nsg19
Nsbsg15
Nsg16
Nsg39
S'BitstreamBuffer'
p55
sg19
Nsbag1
(g26
g3
NtRp56
(dp57
g29
g1
(g30
g3
NtRp58
(dp59
g10
(lp60
g1
(g34
g3
NtRp61
(dp62
g37
Nsg38
Nsg39
S'picture_buffer_id'
p63
sg15
Nsg19
Nsg41
S'int32'
p64
sg16
Nsbag1
(g34
g3
NtRp65
(dp66
g37
Nsg38
Nsg39
S'bitstream_id'
p67
sg15
Nsg19
Nsg41
S'int32'
p68
sg16
Nsbag1
(g34
g3
NtRp69
(dp70
g37
Nsg38
Nsg39
S'crop_rect'
p71
sg15
Nsg19
Nsg41
S'Rect'
p72
sg16
Nsbasg16
Nsg19
Nsbsg15
Nsg16
Nsg39
S'Picture'
p73
sg19
Nsbag1
(g26
g3
NtRp74
(dp75
g29
g1
(g30
g3
NtRp76
(dp77
g10
(lp78
g1
(g34
g3
NtRp79
(dp80
g37
Nsg38
Nsg39
S'min_num_buffers'
p81
sg15
Nsg19
Nsg41
S'uint32'
p82
sg16
Nsbag1
(g34
g3
NtRp83
(dp84
g37
Nsg38
Nsg39
S'coded_size'
p85
sg15
Nsg19
Nsg41
S'Size'
p86
sg16
Nsbasg16
Nsg19
Nsbsg15
Nsg16
Nsg39
S'PictureBufferFormat'
p87
sg19
Nsbag1
(g26
g3
NtRp88
(dp89
g29
g1
(g30
g3
NtRp90
(dp91
g10
(lp92
g1
(g34
g3
NtRp93
(dp94
g37
Nsg38
Nsg39
S'profile'
p95
sg15
Nsg19
Nsg41
S'VideoCodecProfile'
p96
sg16
Nsbag1
(g34
g3
NtRp97
(dp98
g37
Nsg38
Nsg39
S'secure_mode'
p99
sg15
Nsg19
Nsg41
S'bool'
p100
sg16
Nsbasg16
Nsg19
Nsbsg15
Nsg16
Nsg39
S'VideoDecodeAcceleratorConfig'
p101
sg19
Nsbag1
(cmojom.parse.ast
Interface
p102
g3
NtRp103
(dp104
g29
g1
(cmojom.parse.ast
InterfaceBody
p105
g3
NtRp106
(dp107
g10
(lp108
g1
(cmojom.parse.ast
Enum
p109
g3
NtRp110
(dp111
g15
g1
(cmojom.parse.ast
AttributeList
p112
g3
NtRp113
(dp114
g10
(lp115
g1
(cmojom.parse.ast
Attribute
p116
g3
NtRp117
(dp118
S'value'
p119
I01
sg16
I83
sS'key'
p120
S'Extensible'
p121
sg19
g20
sbasg16
I83
sg19
g20
sbsS'enum_value_list'
p122
g1
(cmojom.parse.ast
EnumValueList
p123
g3
NtRp124
(dp125
g10
(lp126
g1
(cmojom.parse.ast
EnumValue
p127
g3
NtRp128
(dp129
g15
Nsg119
S'0'
sg16
I85
sg39
S'SUCCESS'
p130
sg19
g20
sbag1
(g127
g3
NtRp131
(dp132
g15
Nsg119
S'1'
sg16
I86
sg39
S'ILLEGAL_STATE'
p133
sg19
g20
sbag1
(g127
g3
NtRp134
(dp135
g15
Nsg119
S'2'
sg16
I87
sg39
S'INVALID_ARGUMENT'
p136
sg19
g20
sbag1
(g127
g3
NtRp137
(dp138
g15
Nsg119
S'3'
sg16
I88
sg39
S'UNREADABLE_INPUT'
p139
sg19
g20
sbag1
(g127
g3
NtRp140
(dp141
g15
Nsg119
S'4'
sg16
I89
sg39
S'PLATFORM_FAILURE'
p142
sg19
g20
sbag1
(g127
g3
NtRp143
(dp144
g15
Nsg119
S'5'
sg16
I90
sg39
S'INSUFFICIENT_RESOURCES'
p145
sg19
g20
sbag1
(g127
g3
NtRp146
(dp147
g15
Nsg119
S'6'
sg16
I91
sg39
S'CANCELLED'
p148
sg19
g20
sbasg16
I85
sg19
g20
sbsg16
I84
sg39
S'Result'
p149
sg19
g20
sbag1
(cmojom.parse.ast
Method
p150
g3
NtRp151
(dp152
g37
g1
(cmojom.parse.ast
Ordinal
p153
g3
NtRp154
(dp155
g16
I97
sg119
I0
sg19
g20
sbsg39
S'Initialize'
p156
sS'parameter_list'
p157
g1
(cmojom.parse.ast
ParameterList
p158
g3
NtRp159
(dp160
g10
(lp161
g1
(cmojom.parse.ast
Parameter
p162
g3
NtRp163
(dp164
g37
Nsg39
S'config'
p165
sg15
Nsg19
g20
sg41
S'VideoDecodeAcceleratorConfig'
p166
sg16
I97
sbag1
(g162
g3
NtRp167
(dp168
g37
Nsg39
S'client'
p169
sg15
Nsg19
g20
sg41
S'VideoDecodeClient'
p170
sg16
I98
sbasg16
I97
sg19
g20
sbsg15
Nsg19
Nsg16
NsS'response_parameter_list'
p171
g1
(g158
g3
NtRp172
(dp173
g10
(lp174
g1
(g162
g3
NtRp175
(dp176
g37
Nsg39
S'result'
p177
sg15
Nsg19
g20
sg41
S'Result'
p178
sg16
I98
sbasg16
I98
sg19
g20
sbsbag1
(g150
g3
NtRp179
(dp180
g37
g1
(g153
g3
NtRp181
(dp182
g16
I103
sg119
I1
sg19
g20
sbsg39
S'Decode'
p183
sg157
g1
(g158
g3
NtRp184
(dp185
g10
(lp186
g1
(g162
g3
NtRp187
(dp188
g37
Nsg39
S'bitstream_buffer'
p189
sg15
Nsg19
g20
sg41
S'BitstreamBuffer'
p190
sg16
I103
sbasg16
I103
sg19
g20
sbsg15
Nsg19
Nsg16
Nsg171
Nsbag1
(g150
g3
NtRp191
(dp192
g37
g1
(g153
g3
NtRp193
(dp194
g16
I107
sg119
I2
sg19
g20
sbsg39
S'AssignPictureBuffers'
p195
sg157
g1
(g158
g3
NtRp196
(dp197
g10
(lp198
g1
(g162
g3
NtRp199
(dp200
g37
Nsg39
S'count'
p201
sg15
Nsg19
g20
sg41
S'uint32'
p202
sg16
I107
sbasg16
I107
sg19
g20
sbsg15
Nsg19
Nsg16
Nsg171
Nsbag1
(g150
g3
NtRp203
(dp204
g37
g1
(g153
g3
NtRp205
(dp206
g16
I116
sg119
I9
sg19
g20
sbsg39
S'ImportBufferForPicture'
p207
sg157
g1
(g158
g3
NtRp208
(dp209
g10
(lp210
g1
(g162
g3
NtRp211
(dp212
g37
Nsg39
S'picture_buffer_id'
p213
sg15
Nsg19
g20
sg41
S'int32'
p214
sg16
I116
sbag1
(g162
g3
NtRp215
(dp216
g37
Nsg39
S'format'
p217
sg15
Nsg19
g20
sg41
S'HalPixelFormat'
p218
sg16
I116
sbag1
(g162
g3
NtRp219
(dp220
g37
Nsg39
S'handle_fd'
p221
sg15
Nsg19
g20
sg41
S'handle'
p222
sg16
I117
sbag1
(g162
g3
NtRp223
(dp224
g37
Nsg39
S'planes'
p225
sg15
Nsg19
g20
sg41
S'VideoFramePlane[]'
p226
sg16
I117
sbasg16
I116
sg19
g20
sbsg15
g1
(g112
g3
NtRp227
(dp228
g10
(lp229
g1
(g116
g3
NtRp230
(dp231
g119
I2
sg16
I115
sg120
S'MinVersion'
p232
sg19
g20
sbasg16
I115
sg19
g20
sbsg19
Nsg16
Nsg171
Nsbag1
(g150
g3
NtRp233
(dp234
g37
g1
(g153
g3
NtRp235
(dp236
g16
I121
sg119
I4
sg19
g20
sbsg39
S'ReusePictureBuffer'
p237
sg157
g1
(g158
g3
NtRp238
(dp239
g10
(lp240
g1
(g162
g3
NtRp241
(dp242
g37
Nsg39
S'picture_buffer_id'
p243
sg15
Nsg19
g20
sg41
S'int32'
p244
sg16
I121
sbasg16
I121
sg19
g20
sbsg15
Nsg19
Nsg16
Nsg171
Nsbag1
(g150
g3
NtRp245
(dp246
g37
g1
(g153
g3
NtRp247
(dp248
g16
I125
sg119
I5
sg19
g20
sbsg39
S'Reset'
p249
sg157
g1
(g158
g3
NtRp250
(dp251
g10
(lp252
sg16
Nsg19
Nsbsg15
Nsg19
Nsg16
Nsg171
g1
(g158
g3
NtRp253
(dp254
g10
(lp255
g1
(g162
g3
NtRp256
(dp257
g37
Nsg39
S'result'
p258
sg15
Nsg19
g20
sg41
S'Result'
p259
sg16
I125
sbasg16
I125
sg19
g20
sbsbag1
(g150
g3
NtRp260
(dp261
g37
g1
(g153
g3
NtRp262
(dp263
g16
I131
sg119
I6
sg19
g20
sbsg39
S'Flush'
p264
sg157
g1
(g158
g3
NtRp265
(dp266
g10
(lp267
sg16
Nsg19
Nsbsg15
Nsg19
Nsg16
Nsg171
g1
(g158
g3
NtRp268
(dp269
g10
(lp270
g1
(g162
g3
NtRp271
(dp272
g37
Nsg39
S'result'
p273
sg15
Nsg19
g20
sg41
S'Result'
p274
sg16
I131
sbasg16
I131
sg19
g20
sbsbasg16
I84
sg19
g20
sbsg15
Nsg16
Nsg39
S'VideoDecodeAccelerator'
p275
sg19
Nsbag1
(g102
g3
NtRp276
(dp277
g29
g1
(g105
g3
NtRp278
(dp279
g10
(lp280
g1
(g150
g3
NtRp281
(dp282
g37
g1
(g153
g3
NtRp283
(dp284
g16
I140
sg119
I4
sg19
g20
sbsg39
S'ProvidePictureBuffers'
p285
sg157
g1
(g158
g3
NtRp286
(dp287
g10
(lp288
g1
(g162
g3
NtRp289
(dp290
g37
Nsg39
S'format'
p291
sg15
Nsg19
g20
sg41
S'PictureBufferFormat'
p292
sg16
I140
sbasg16
I140
sg19
g20
sbsg15
g1
(g112
g3
NtRp293
(dp294
g10
(lp295
g1
(g116
g3
NtRp296
(dp297
g119
I1
sg16
I139
sg120
S'MinVersion'
p298
sg19
g20
sbasg16
I139
sg19
g20
sbsg19
Nsg16
Nsg171
Nsbag1
(g150
g3
NtRp299
(dp300
g37
g1
(g153
g3
NtRp301
(dp302
g16
I145
sg119
I1
sg19
g20
sbsg39
S'PictureReady'
p303
sg157
g1
(g158
g3
NtRp304
(dp305
g10
(lp306
g1
(g162
g3
NtRp307
(dp308
g37
Nsg39
S'picture'
p309
sg15
Nsg19
g20
sg41
S'Picture'
p310
sg16
I145
sbasg16
I145
sg19
g20
sbsg15
Nsg19
Nsg16
Nsg171
Nsbag1
(g150
g3
NtRp311
(dp312
g37
g1
(g153
g3
NtRp313
(dp314
g16
I149
sg119
I2
sg19
g20
sbsg39
S'NotifyEndOfBitstreamBuffer'
p315
sg157
g1
(g158
g3
NtRp316
(dp317
g10
(lp318
g1
(g162
g3
NtRp319
(dp320
g37
Nsg39
S'bitstream_id'
p321
sg15
Nsg19
g20
sg41
S'int32'
p322
sg16
I149
sbasg16
I149
sg19
g20
sbsg15
Nsg19
Nsg16
Nsg171
Nsbag1
(g150
g3
NtRp323
(dp324
g37
g1
(g153
g3
NtRp325
(dp326
g16
I155
sg119
I3
sg19
g20
sbsg39
S'NotifyError'
p327
sg157
g1
(g158
g3
NtRp328
(dp329
g10
(lp330
g1
(g162
g3
NtRp331
(dp332
g37
Nsg39
S'error'
p333
sg15
Nsg19
g20
sg41
S'VideoDecodeAccelerator.Result'
p334
sg16
I155
sbasg16
I155
sg19
g20
sbsg15
Nsg19
Nsg16
Nsg171
Nsbasg16
Nsg19
Nsbsg15
Nsg16
Nsg39
S'VideoDecodeClient'
p335
sg19
Nsbasg16
NsS'module'
p336
g1
(cmojom.parse.ast
Module
p337
g3
NtRp338
(dp339
S'mojom_namespace'
p340
(S'IDENTIFIER'
p341
S'arc.mojom'
tp342
sg16
I18
sg15
Nsg19
g20
sbsg19
Nsb.