ccopy_reg
_reconstructor
p1
(cmojom.parse.ast
Mojom
p2
c__builtin__
object
p3
NtRp4
(dp5
S'import_list'
p6
g1
(cmojom.parse.ast
ImportList
p7
g3
NtRp8
(dp9
S'items'
p10
(lp11
sS'lineno'
p12
NsS'filename'
p13
NsbsS'definition_list'
p14
(lp15
g1
(cmojom.parse.ast
Struct
p16
g3
NtRp17
(dp18
S'body'
p19
g1
(cmojom.parse.ast
StructBody
p20
g3
NtRp21
(dp22
g10
(lp23
g1
(cmojom.parse.ast
StructField
p24
g3
NtRp25
(dp26
S'ordinal'
p27
NsS'default_value'
p28
NsS'mojom_name'
p29
S'key'
p30
sS'attribute_list'
p31
Nsg13
NsS'typename'
p32
S'string'
p33
sg12
Nsbag1
(g24
g3
NtRp34
(dp35
g27
Nsg28
Nsg29
S'value'
p36
sg31
Nsg13
Nsg32
S'string'
p37
sg12
Nsbasg12
Nsg13
Nsbsg31
Nsg12
Nsg29
S'AutocompleteAdditionalInfo'
p38
sg13
Nsbag1
(g16
g3
NtRp39
(dp40
g19
g1
(g20
g3
NtRp41
(dp42
g10
(lp43
g1
(g24
g3
NtRp44
(dp45
g27
Nsg28
Nsg29
S'provider_name'
p46
sg31
Nsg13
Nsg32
S'string?'
p47
sg12
Nsbag1
(g24
g3
NtRp48
(dp49
g27
Nsg28
Nsg29
S'provider_done'
p50
sg31
Nsg13
Nsg32
S'bool'
p51
sg12
Nsbag1
(g24
g3
NtRp52
(dp53
g27
Nsg28
Nsg29
S'relevance'
p54
sg31
Nsg13
Nsg32
S'int32'
p55
sg12
Nsbag1
(g24
g3
NtRp56
(dp57
g27
Nsg28
Nsg29
S'deletable'
p58
sg31
Nsg13
Nsg32
S'bool'
p59
sg12
Nsbag1
(g24
g3
NtRp60
(dp61
g27
Nsg28
Nsg29
S'fill_into_edit'
p62
sg31
Nsg13
Nsg32
S'string'
p63
sg12
Nsbag1
(g24
g3
NtRp64
(dp65
g27
Nsg28
Nsg29
S'inline_autocompletion'
p66
sg31
Nsg13
Nsg32
S'string'
p67
sg12
Nsbag1
(g24
g3
NtRp68
(dp69
g27
Nsg28
Nsg29
S'destination_url'
p70
sg31
Nsg13
Nsg32
S'string'
p71
sg12
Nsbag1
(g24
g3
NtRp72
(dp73
g27
Nsg28
Nsg29
S'contents'
p74
sg31
Nsg13
Nsg32
S'string'
p75
sg12
Nsbag1
(g24
g3
NtRp76
(dp77
g27
Nsg28
Nsg29
S'description'
p78
sg31
Nsg13
Nsg32
S'string'
p79
sg12
Nsbag1
(g24
g3
NtRp80
(dp81
g27
Nsg28
Nsg29
S'transition'
p82
sg31
Nsg13
Nsg32
S'int32'
p83
sg12
Nsbag1
(g24
g3
NtRp84
(dp85
g27
Nsg28
Nsg29
S'allowed_to_be_default_match'
p86
sg31
Nsg13
Nsg32
S'bool'
p87
sg12
Nsbag1
(g24
g3
NtRp88
(dp89
g27
Nsg28
Nsg29
S'type'
p90
sg31
Nsg13
Nsg32
S'string'
p91
sg12
Nsbag1
(g24
g3
NtRp92
(dp93
g27
Nsg28
Nsg29
S'has_tab_match'
p94
sg31
Nsg13
Nsg32
S'bool'
p95
sg12
Nsbag1
(g24
g3
NtRp96
(dp97
g27
Nsg28
Nsg29
S'associated_keyword'
p98
sg31
Nsg13
Nsg32
S'string?'
p99
sg12
Nsbag1
(g24
g3
NtRp100
(dp101
g27
Nsg28
Nsg29
S'keyword'
p102
sg31
Nsg13
Nsg32
S'string'
p103
sg12
Nsbag1
(g24
g3
NtRp104
(dp105
g27
Nsg28
Nsg29
S'starred'
p106
sg31
Nsg13
Nsg32
S'bool'
p107
sg12
Nsbag1
(g24
g3
NtRp108
(dp109
g27
Nsg28
Nsg29
S'duplicates'
p110
sg31
Nsg13
Nsg32
S'int32'
p111
sg12
Nsbag1
(g24
g3
NtRp112
(dp113
g27
Nsg28
Nsg29
S'from_previous'
p114
sg31
Nsg13
Nsg32
S'bool'
p115
sg12
Nsbag1
(g24
g3
NtRp116
(dp117
g27
Nsg28
Nsg29
S'additional_info'
p118
sg31
Nsg13
Nsg32
S'AutocompleteAdditionalInfo[]'
p119
sg12
Nsbasg12
Nsg13
Nsbsg31
Nsg12
Nsg29
S'AutocompleteMatch'
p120
sg13
Nsbag1
(g16
g3
NtRp121
(dp122
g19
g1
(g20
g3
NtRp123
(dp124
g10
(lp125
g1
(g24
g3
NtRp126
(dp127
g27
Nsg28
Nsg29
S'provider_name'
p128
sg31
Nsg13
Nsg32
S'string'
p129
sg12
Nsbag1
(g24
g3
NtRp130
(dp131
g27
Nsg28
Nsg29
S'results'
p132
sg31
Nsg13
Nsg32
S'AutocompleteMatch[]'
p133
sg12
Nsbasg12
Nsg13
Nsbsg31
Nsg12
Nsg29
S'AutocompleteResultsForProvider'
p134
sg13
Nsbag1
(g16
g3
NtRp135
(dp136
g19
g1
(g20
g3
NtRp137
(dp138
g10
(lp139
g1
(g24
g3
NtRp140
(dp141
g27
Nsg28
Nsg29
S'done'
p142
sg31
Nsg13
Nsg32
S'bool'
p143
sg12
Nsbag1
(g24
g3
NtRp144
(dp145
g27
Nsg28
Nsg29
S'time_since_omnibox_started_ms'
p146
sg31
Nsg13
Nsg32
S'int32'
p147
sg12
Nsbag1
(g24
g3
NtRp148
(dp149
g27
Nsg28
Nsg29
S'host'
p150
sg31
Nsg13
Nsg32
S'string'
p151
sg12
Nsbag1
(g24
g3
NtRp152
(dp153
g27
Nsg28
Nsg29
S'is_typed_host'
p154
sg31
Nsg13
Nsg32
S'bool'
p155
sg12
Nsbag1
(g24
g3
NtRp156
(dp157
g27
Nsg28
Nsg29
S'combined_results'
p158
sg31
Nsg13
Nsg32
S'AutocompleteMatch[]'
p159
sg12
Nsbag1
(g24
g3
NtRp160
(dp161
g27
Nsg28
Nsg29
S'results_by_provider'
p162
sg31
Nsg13
Nsg32
S'AutocompleteResultsForProvider[]'
p163
sg12
Nsbasg12
Nsg13
Nsbsg31
Nsg12
Nsg29
S'OmniboxResult'
p164
sg13
Nsbag1
(cmojom.parse.ast
Interface
p165
g3
NtRp166
(dp167
g19
g1
(cmojom.parse.ast
InterfaceBody
p168
g3
NtRp169
(dp170
g10
(lp171
g1
(cmojom.parse.ast
Method
p172
g3
NtRp173
(dp174
g27
Nsg29
S'SetClientPage'
p175
sS'parameter_list'
p176
g1
(cmojom.parse.ast
ParameterList
p177
g3
NtRp178
(dp179
g10
(lp180
g1
(cmojom.parse.ast
Parameter
p181
g3
NtRp182
(dp183
g27
Nsg29
S'page'
p184
sg31
Nsg13
S'../../chrome/browser/ui/webui/omnibox/omnibox.mojom'
p185
sg32
S'OmniboxPage'
p186
sg12
I53
sbasg12
I53
sg13
g185
sbsg31
Nsg13
Nsg12
NsS'response_parameter_list'
p187
Nsbag1
(g172
g3
NtRp188
(dp189
g27
Nsg29
S'StartOmniboxQuery'
p190
sg176
g1
(g177
g3
NtRp191
(dp192
g10
(lp193
g1
(g181
g3
NtRp194
(dp195
g27
Nsg29
S'input_string'
p196
sg31
Nsg13
g185
sg32
S'string'
p197
sg12
I54
sbag1
(g181
g3
NtRp198
(dp199
g27
Nsg29
S'cursor_position'
p200
sg31
Nsg13
g185
sg32
S'int32'
p201
sg12
I55
sbag1
(g181
g3
NtRp202
(dp203
g27
Nsg29
S'prevent_inline_autocomplete'
p204
sg31
Nsg13
g185
sg32
S'bool'
p205
sg12
I56
sbag1
(g181
g3
NtRp206
(dp207
g27
Nsg29
S'prefer_keyword'
p208
sg31
Nsg13
g185
sg32
S'bool'
p209
sg12
I57
sbag1
(g181
g3
NtRp210
(dp211
g27
Nsg29
S'page_classification'
p212
sg31
Nsg13
g185
sg32
S'int32'
p213
sg12
I58
sbasg12
I54
sg13
g185
sbsg31
Nsg13
Nsg12
Nsg187
Nsbasg12
Nsg13
Nsbsg31
Nsg12
Nsg29
S'OmniboxPageHandler'
p214
sg13
Nsbag1
(g165
g3
NtRp215
(dp216
g19
g1
(g168
g3
NtRp217
(dp218
g10
(lp219
g1
(g172
g3
NtRp220
(dp221
g27
Nsg29
S'HandleNewAutocompleteResult'
p222
sg176
g1
(g177
g3
NtRp223
(dp224
g10
(lp225
g1
(g181
g3
NtRp226
(dp227
g27
Nsg29
S'result'
p228
sg31
Nsg13
g185
sg32
S'OmniboxResult'
p229
sg12
I62
sbasg12
I62
sg13
g185
sbsg31
Nsg13
Nsg12
Nsg187
Nsbasg12
Nsg13
Nsbsg31
Nsg12
Nsg29
S'OmniboxPage'
p230
sg13
Nsbasg12
NsS'module'
p231
g1
(cmojom.parse.ast
Module
p232
g3
NtRp233
(dp234
S'mojom_namespace'
p235
(S'IDENTIFIER'
p236
S'mojom'
tp237
sg12
I5
sg31
Nsg13
g185
sbsg13
Nsb.