ccopy_reg
_reconstructor
p1
(cmojom.parse.ast
Mojom
p2
c__builtin__
object
p3
NtRp4
(dp5
S'import_list'
p6
g1
(cmojom.parse.ast
ImportList
p7
g3
NtRp8
(dp9
S'items'
p10
(lp11
g1
(cmojom.parse.ast
Import
p12
g3
NtRp13
(dp14
S'attribute_list'
p15
NsS'lineno'
p16
I10
sS'import_filename'
p17
S'net/interfaces/address_family.mojom'
p18
sS'filename'
p19
S'../../services/proxy_resolver/public/mojom/proxy_resolver.mojom'
p20
sbag1
(g12
g3
NtRp21
(dp22
g15
Nsg16
I11
sg17
S'net/interfaces/host_resolver_service.mojom'
p23
sg19
g20
sbag1
(g12
g3
NtRp24
(dp25
g15
Nsg16
I12
sg17
S'url/mojom/url.mojom'
p26
sg19
g20
sbasg16
I10
sg19
g20
sbsS'definition_list'
p27
(lp28
g1
(cmojom.parse.ast
Const
p29
g3
NtRp30
(dp31
S'mojom_name'
p32
S'kProxyResolverServiceName'
p33
sg15
NsS'value'
p34
S'"proxy_resolver"'
p35
sg19
NsS'typename'
p36
S'string'
p37
sg16
Nsbag1
(cmojom.parse.ast
Enum
p38
g3
NtRp39
(dp40
g15
NsS'enum_value_list'
p41
g1
(cmojom.parse.ast
EnumValueList
p42
g3
NtRp43
(dp44
g10
(lp45
g1
(cmojom.parse.ast
EnumValue
p46
g3
NtRp47
(dp48
g15
Nsg34
Nsg16
I18
sg32
S'INVALID'
p49
sg19
g20
sbag1
(g46
g3
NtRp50
(dp51
g15
Nsg34
Nsg16
I19
sg32
S'DIRECT'
p52
sg19
g20
sbag1
(g46
g3
NtRp53
(dp54
g15
Nsg34
Nsg16
I20
sg32
S'HTTP'
p55
sg19
g20
sbag1
(g46
g3
NtRp56
(dp57
g15
Nsg34
Nsg16
I21
sg32
S'SOCKS4'
p58
sg19
g20
sbag1
(g46
g3
NtRp59
(dp60
g15
Nsg34
Nsg16
I22
sg32
S'SOCKS5'
p61
sg19
g20
sbag1
(g46
g3
NtRp62
(dp63
g15
Nsg34
Nsg16
I23
sg32
S'HTTPS'
p64
sg19
g20
sbag1
(g46
g3
NtRp65
(dp66
g15
Nsg34
Nsg16
I24
sg32
S'QUIC'
p67
sg19
g20
sbasg16
I18
sg19
g20
sbsg16
I17
sg32
S'ProxyScheme'
p68
sg19
g20
sbag1
(cmojom.parse.ast
Struct
p69
g3
NtRp70
(dp71
S'body'
p72
g1
(cmojom.parse.ast
StructBody
p73
g3
NtRp74
(dp75
g10
(lp76
g1
(cmojom.parse.ast
StructField
p77
g3
NtRp78
(dp79
S'ordinal'
p80
NsS'default_value'
p81
Nsg32
S'scheme'
p82
sg15
Nsg19
Nsg36
S'ProxyScheme'
p83
sg16
Nsbag1
(g77
g3
NtRp84
(dp85
g80
Nsg81
Nsg32
S'host'
p86
sg15
Nsg19
Nsg36
S'string'
p87
sg16
Nsbag1
(g77
g3
NtRp88
(dp89
g80
Nsg81
Nsg32
S'port'
p90
sg15
Nsg19
Nsg36
S'uint16'
p91
sg16
Nsbasg16
Nsg19
Nsbsg15
Nsg16
Nsg32
S'ProxyServer'
p92
sg19
Nsbag1
(g69
g3
NtRp93
(dp94
g72
g1
(g73
g3
NtRp95
(dp96
g10
(lp97
g1
(g77
g3
NtRp98
(dp99
g80
Nsg81
Nsg32
S'proxy_servers'
p100
sg15
Nsg19
Nsg36
S'ProxyServer[]'
p101
sg16
Nsbasg16
Nsg19
Nsbsg15
Nsg16
Nsg32
S'ProxyInfo'
p102
sg19
Nsbag1
(cmojom.parse.ast
Interface
p103
g3
NtRp104
(dp105
g72
g1
(cmojom.parse.ast
InterfaceBody
p106
g3
NtRp107
(dp108
g10
(lp109
g1
(cmojom.parse.ast
Method
p110
g3
NtRp111
(dp112
g80
Nsg32
S'GetProxyForUrl'
p113
sS'parameter_list'
p114
g1
(cmojom.parse.ast
ParameterList
p115
g3
NtRp116
(dp117
g10
(lp118
g1
(cmojom.parse.ast
Parameter
p119
g3
NtRp120
(dp121
g80
Nsg32
S'url'
p122
sg15
Nsg19
g20
sg36
S'url.mojom.Url'
p123
sg16
I43
sbag1
(g119
g3
NtRp124
(dp125
g80
Nsg32
S'client'
p126
sg15
Nsg19
g20
sg36
S'ProxyResolverRequestClient'
p127
sg16
I43
sbasg16
I43
sg19
g20
sbsg15
Nsg19
Nsg16
NsS'response_parameter_list'
p128
Nsbasg16
Nsg19
Nsbsg15
Nsg16
Nsg32
S'ProxyResolver'
p129
sg19
Nsbag1
(g103
g3
NtRp130
(dp131
g72
g1
(g106
g3
NtRp132
(dp133
g10
(lp134
g1
(g110
g3
NtRp135
(dp136
g80
Nsg32
S'ReportResult'
p137
sg114
g1
(g115
g3
NtRp138
(dp139
g10
(lp140
g1
(g119
g3
NtRp141
(dp142
g80
Nsg32
S'error'
p143
sg15
Nsg19
g20
sg36
S'int32'
p144
sg16
I47
sbag1
(g119
g3
NtRp145
(dp146
g80
Nsg32
S'proxy_info'
p147
sg15
Nsg19
g20
sg36
S'ProxyInfo'
p148
sg16
I47
sbasg16
I47
sg19
g20
sbsg15
Nsg19
Nsg16
Nsg128
Nsbag1
(g110
g3
NtRp149
(dp150
g80
Nsg32
S'Alert'
p151
sg114
g1
(g115
g3
NtRp152
(dp153
g10
(lp154
g1
(g119
g3
NtRp155
(dp156
g80
Nsg32
S'error'
p157
sg15
Nsg19
g20
sg36
S'string'
p158
sg16
I49
sbasg16
I49
sg19
g20
sbsg15
Nsg19
Nsg16
Nsg128
Nsbag1
(g110
g3
NtRp159
(dp160
g80
Nsg32
S'OnError'
p161
sg114
g1
(g115
g3
NtRp162
(dp163
g10
(lp164
g1
(g119
g3
NtRp165
(dp166
g80
Nsg32
S'line_number'
p167
sg15
Nsg19
g20
sg36
S'int32'
p168
sg16
I50
sbag1
(g119
g3
NtRp169
(dp170
g80
Nsg32
S'error'
p171
sg15
Nsg19
g20
sg36
S'string'
p172
sg16
I50
sbasg16
I50
sg19
g20
sbsg15
Nsg19
Nsg16
Nsg128
Nsbag1
(g110
g3
NtRp173
(dp174
g80
Nsg32
S'ResolveDns'
p175
sg114
g1
(g115
g3
NtRp176
(dp177
g10
(lp178
g1
(g119
g3
NtRp179
(dp180
g80
Nsg32
S'request_info'
p181
sg15
Nsg19
g20
sg36
S'net.interfaces.HostResolverRequestInfo'
p182
sg16
I52
sbag1
(g119
g3
NtRp183
(dp184
g80
Nsg32
S'client'
p185
sg15
Nsg19
g20
sg36
S'net.interfaces.HostResolverRequestClient'
p186
sg16
I53
sbasg16
I52
sg19
g20
sbsg15
Nsg19
Nsg16
Nsg128
Nsbasg16
Nsg19
Nsbsg15
Nsg16
Nsg32
S'ProxyResolverRequestClient'
p187
sg19
Nsbag1
(g103
g3
NtRp188
(dp189
g72
g1
(g106
g3
NtRp190
(dp191
g10
(lp192
g1
(g110
g3
NtRp193
(dp194
g80
Nsg32
S'CreateResolver'
p195
sg114
g1
(g115
g3
NtRp196
(dp197
g10
(lp198
g1
(g119
g3
NtRp199
(dp200
g80
Nsg32
S'pac_script'
p201
sg15
Nsg19
g20
sg36
S'string'
p202
sg16
I62
sbag1
(g119
g3
NtRp203
(dp204
g80
Nsg32
S'resolver'
p205
sg15
Nsg19
g20
sg36
S'ProxyResolver&'
p206
sg16
I63
sbag1
(g119
g3
NtRp207
(dp208
g80
Nsg32
S'client'
p209
sg15
Nsg19
g20
sg36
S'ProxyResolverFactoryRequestClient'
p210
sg16
I64
sbasg16
I62
sg19
g20
sbsg15
Nsg19
Nsg16
Nsg128
Nsbasg16
Nsg19
Nsbsg15
Nsg16
Nsg32
S'ProxyResolverFactory'
p211
sg19
Nsbag1
(g103
g3
NtRp212
(dp213
g72
g1
(g106
g3
NtRp214
(dp215
g10
(lp216
g1
(g110
g3
NtRp217
(dp218
g80
Nsg32
S'ReportResult'
p219
sg114
g1
(g115
g3
NtRp220
(dp221
g10
(lp222
g1
(g119
g3
NtRp223
(dp224
g80
Nsg32
S'error'
p225
sg15
Nsg19
g20
sg36
S'int32'
p226
sg16
I68
sbasg16
I68
sg19
g20
sbsg15
Nsg19
Nsg16
Nsg128
Nsbag1
(g110
g3
NtRp227
(dp228
g80
Nsg32
S'Alert'
p229
sg114
g1
(g115
g3
NtRp230
(dp231
g10
(lp232
g1
(g119
g3
NtRp233
(dp234
g80
Nsg32
S'error'
p235
sg15
Nsg19
g20
sg36
S'string'
p236
sg16
I70
sbasg16
I70
sg19
g20
sbsg15
Nsg19
Nsg16
Nsg128
Nsbag1
(g110
g3
NtRp237
(dp238
g80
Nsg32
S'OnError'
p239
sg114
g1
(g115
g3
NtRp240
(dp241
g10
(lp242
g1
(g119
g3
NtRp243
(dp244
g80
Nsg32
S'line_number'
p245
sg15
Nsg19
g20
sg36
S'int32'
p246
sg16
I71
sbag1
(g119
g3
NtRp247
(dp248
g80
Nsg32
S'error'
p249
sg15
Nsg19
g20
sg36
S'string'
p250
sg16
I71
sbasg16
I71
sg19
g20
sbsg15
Nsg19
Nsg16
Nsg128
Nsbag1
(g110
g3
NtRp251
(dp252
g80
Nsg32
S'ResolveDns'
p253
sg114
g1
(g115
g3
NtRp254
(dp255
g10
(lp256
g1
(g119
g3
NtRp257
(dp258
g80
Nsg32
S'request_info'
p259
sg15
Nsg19
g20
sg36
S'net.interfaces.HostResolverRequestInfo'
p260
sg16
I73
sbag1
(g119
g3
NtRp261
(dp262
g80
Nsg32
S'client'
p263
sg15
Nsg19
g20
sg36
S'net.interfaces.HostResolverRequestClient'
p264
sg16
I74
sbasg16
I73
sg19
g20
sbsg15
Nsg19
Nsg16
Nsg128
Nsbasg16
Nsg19
Nsbsg15
Nsg16
Nsg32
S'ProxyResolverFactoryRequestClient'
p265
sg19
Nsbasg16
NsS'module'
p266
g1
(cmojom.parse.ast
Module
p267
g3
NtRp268
(dp269
S'mojom_namespace'
p270
(S'IDENTIFIER'
p271
S'proxy_resolver.mojom'
tp272
sg16
I8
sg15
Nsg19
g20
sbsg19
Nsb.