ccopy_reg
_reconstructor
p1
(cmojom.parse.ast
Mojom
p2
c__builtin__
object
p3
NtRp4
(dp5
S'import_list'
p6
g1
(cmojom.parse.ast
ImportList
p7
g3
NtRp8
(dp9
S'items'
p10
(lp11
g1
(cmojom.parse.ast
Import
p12
g3
NtRp13
(dp14
S'attribute_list'
p15
NsS'lineno'
p16
I7
sS'import_filename'
p17
S'chrome/common/media_router/mojo/media_controller.mojom'
p18
sS'filename'
p19
S'../../chrome/common/media_router/mojo/media_router.mojom'
p20
sbag1
(g12
g3
NtRp21
(dp22
g15
Nsg16
I8
sg17
S'chrome/common/media_router/mojo/media_status.mojom'
p23
sg19
g20
sbag1
(g12
g3
NtRp24
(dp25
g15
Nsg16
I9
sg17
S'media/mojo/interfaces/mirror_service_remoting.mojom'
p26
sg19
g20
sbag1
(g12
g3
NtRp27
(dp28
g15
Nsg16
I10
sg17
S'mojo/public/mojom/base/time.mojom'
p29
sg19
g20
sbag1
(g12
g3
NtRp30
(dp31
g15
Nsg16
I11
sg17
S'net/interfaces/ip_address.mojom'
p32
sg19
g20
sbag1
(g12
g3
NtRp33
(dp34
g15
Nsg16
I12
sg17
S'net/interfaces/ip_endpoint.mojom'
p35
sg19
g20
sbag1
(g12
g3
NtRp36
(dp37
g15
Nsg16
I13
sg17
S'url/mojom/origin.mojom'
p38
sg19
g20
sbag1
(g12
g3
NtRp39
(dp40
g15
Nsg16
I14
sg17
S'url/mojom/url.mojom'
p41
sg19
g20
sbasg16
I7
sg19
g20
sbsS'definition_list'
p42
(lp43
g1
(cmojom.parse.ast
Enum
p44
g3
NtRp45
(dp46
g15
NsS'enum_value_list'
p47
g1
(cmojom.parse.ast
EnumValueList
p48
g3
NtRp49
(dp50
g10
(lp51
g1
(cmojom.parse.ast
EnumValue
p52
g3
NtRp53
(dp54
g15
NsS'value'
p55
Nsg16
I18
sS'mojom_name'
p56
S'CAST'
p57
sg19
g20
sbag1
(g52
g3
NtRp58
(dp59
g15
Nsg55
Nsg16
I19
sg56
S'CAST_AUDIO_GROUP'
p60
sg19
g20
sbag1
(g52
g3
NtRp61
(dp62
g15
Nsg55
Nsg16
I20
sg56
S'CAST_AUDIO'
p63
sg19
g20
sbag1
(g52
g3
NtRp64
(dp65
g15
Nsg55
Nsg16
I21
sg56
S'MEETING'
p66
sg19
g20
sbag1
(g52
g3
NtRp67
(dp68
g15
Nsg55
Nsg16
I22
sg56
S'HANGOUT'
p69
sg19
g20
sbag1
(g52
g3
NtRp70
(dp71
g15
Nsg55
Nsg16
I23
sg56
S'EDUCATION'
p72
sg19
g20
sbag1
(g52
g3
NtRp73
(dp74
g15
Nsg55
Nsg16
I24
sg56
S'WIRED_DISPLAY'
p75
sg19
g20
sbag1
(g52
g3
NtRp76
(dp77
g15
Nsg55
Nsg16
I25
sg56
S'GENERIC'
p78
sg19
g20
sbasg16
I18
sg19
g20
sbsg16
I17
sg56
S'SinkIconType'
p79
sg19
g20
sbag1
(cmojom.parse.ast
Struct
p80
g3
NtRp81
(dp82
S'body'
p83
g1
(cmojom.parse.ast
StructBody
p84
g3
NtRp85
(dp86
g10
(lp87
g1
(cmojom.parse.ast
StructField
p88
g3
NtRp89
(dp90
S'ordinal'
p91
NsS'default_value'
p92
Nsg56
S'sink_id'
p93
sg15
Nsg19
NsS'typename'
p94
S'string'
p95
sg16
Nsbag1
(g88
g3
NtRp96
(dp97
g91
Nsg92
Nsg56
S'name'
p98
sg15
Nsg19
Nsg94
S'string'
p99
sg16
Nsbag1
(g88
g3
NtRp100
(dp101
g91
Nsg92
Nsg56
S'description'
p102
sg15
Nsg19
Nsg94
S'string?'
p103
sg16
Nsbag1
(g88
g3
NtRp104
(dp105
g91
Nsg92
Nsg56
S'domain'
p106
sg15
Nsg19
Nsg94
S'string?'
p107
sg16
Nsbag1
(g88
g3
NtRp108
(dp109
g91
Nsg92
Nsg56
S'icon_type'
p110
sg15
Nsg19
Nsg94
S'SinkIconType'
p111
sg16
Nsbag1
(g88
g3
NtRp112
(dp113
g91
Nsg92
Nsg56
S'provider_id'
p114
sg15
Nsg19
Nsg94
S'MediaRouteProvider.Id'
p115
sg16
Nsbag1
(g88
g3
NtRp116
(dp117
g91
Nsg92
Nsg56
S'extra_data'
p118
sg15
Nsg19
Nsg94
S'MediaSinkExtraData?'
p119
sg16
Nsbasg16
Nsg19
Nsbsg15
Nsg16
Nsg56
S'MediaSink'
p120
sg19
Nsbag1
(cmojom.parse.ast
Union
p121
g3
NtRp122
(dp123
g83
g1
(cmojom.parse.ast
UnionBody
p124
g3
NtRp125
(dp126
g10
(lp127
g1
(cmojom.parse.ast
UnionField
p128
g3
NtRp129
(dp130
g91
Nsg56
S'dial_media_sink'
p131
sg15
Nsg19
Nsg94
S'DialMediaSink'
p132
sg16
Nsbag1
(g128
g3
NtRp133
(dp134
g91
Nsg56
S'cast_media_sink'
p135
sg15
Nsg19
Nsg94
S'CastMediaSink'
p136
sg16
Nsbasg16
Nsg19
Nsbsg15
Nsg16
Nsg56
S'MediaSinkExtraData'
p137
sg19
Nsbag1
(g80
g3
NtRp138
(dp139
g83
g1
(g84
g3
NtRp140
(dp141
g10
(lp142
g1
(g88
g3
NtRp143
(dp144
g91
Nsg92
Nsg56
S'ip_address'
p145
sg15
Nsg19
Nsg94
S'net.interfaces.IPAddress'
p146
sg16
Nsbag1
(g88
g3
NtRp147
(dp148
g91
Nsg92
Nsg56
S'model_name'
p149
sg15
Nsg19
Nsg94
S'string'
p150
sg16
Nsbag1
(g88
g3
NtRp151
(dp152
g91
Nsg92
Nsg56
S'app_url'
p153
sg15
Nsg19
Nsg94
S'url.mojom.Url'
p154
sg16
Nsbasg16
Nsg19
Nsbsg15
Nsg16
Nsg56
S'DialMediaSink'
p155
sg19
Nsbag1
(g80
g3
NtRp156
(dp157
g83
g1
(g84
g3
NtRp158
(dp159
g10
(lp160
g1
(g88
g3
NtRp161
(dp162
g91
Nsg92
Nsg56
S'ip_endpoint'
p163
sg15
Nsg19
Nsg94
S'net.interfaces.IPEndPoint'
p164
sg16
Nsbag1
(g88
g3
NtRp165
(dp166
g91
Nsg92
Nsg56
S'model_name'
p167
sg15
Nsg19
Nsg94
S'string'
p168
sg16
Nsbag1
(g88
g3
NtRp169
(dp170
g91
Nsg92
Nsg56
S'capabilities'
p171
sg15
Nsg19
Nsg94
S'uint8'
p172
sg16
Nsbag1
(g88
g3
NtRp173
(dp174
g91
Nsg92
Nsg56
S'cast_channel_id'
p175
sg15
Nsg19
Nsg94
S'int32'
p176
sg16
Nsbasg16
Nsg19
Nsbsg15
Nsg16
Nsg56
S'CastMediaSink'
p177
sg19
Nsbag1
(g44
g3
NtRp178
(dp179
g15
Nsg47
g1
(g48
g3
NtRp180
(dp181
g10
(lp182
g1
(g52
g3
NtRp183
(dp184
g15
Nsg55
Nsg16
I89
sg56
S'kNone'
p185
sg19
g20
sbag1
(g52
g3
NtRp186
(dp187
g15
Nsg55
Nsg16
I90
sg56
S'kGeneric'
p188
sg19
g20
sbag1
(g52
g3
NtRp189
(dp190
g15
Nsg55
Nsg16
I91
sg56
S'kHangouts'
p191
sg19
g20
sbag1
(g52
g3
NtRp192
(dp193
g15
Nsg55
Nsg16
I92
sg56
S'kMirroring'
p194
sg19
g20
sbasg16
I89
sg19
g20
sbsg16
I88
sg56
S'RouteControllerType'
p195
sg19
g20
sbag1
(g80
g3
NtRp196
(dp197
g83
g1
(g84
g3
NtRp198
(dp199
g10
(lp200
g1
(g88
g3
NtRp201
(dp202
g91
Nsg92
Nsg56
S'media_route_id'
p203
sg15
Nsg19
Nsg94
S'string'
p204
sg16
Nsbag1
(g88
g3
NtRp205
(dp206
g91
Nsg92
Nsg56
S'presentation_id'
p207
sg15
Nsg19
Nsg94
S'string'
p208
sg16
Nsbag1
(g88
g3
NtRp209
(dp210
g91
Nsg92
Nsg56
S'media_source'
p211
sg15
Nsg19
Nsg94
S'string?'
p212
sg16
Nsbag1
(g88
g3
NtRp213
(dp214
g91
Nsg92
Nsg56
S'media_sink_id'
p215
sg15
Nsg19
Nsg94
S'string'
p216
sg16
Nsbag1
(g88
g3
NtRp217
(dp218
g91
Nsg92
Nsg56
S'description'
p219
sg15
Nsg19
Nsg94
S'string'
p220
sg16
Nsbag1
(g88
g3
NtRp221
(dp222
g91
Nsg92
Nsg56
S'is_local'
p223
sg15
Nsg19
Nsg94
S'bool'
p224
sg16
Nsbag1
(g88
g3
NtRp225
(dp226
g91
Nsg92
Nsg56
S'controller_type'
p227
sg15
Nsg19
Nsg94
S'RouteControllerType'
p228
sg16
Nsbag1
(g88
g3
NtRp229
(dp230
g91
Nsg92
Nsg56
S'for_display'
p231
sg15
Nsg19
Nsg94
S'bool'
p232
sg16
Nsbag1
(g88
g3
NtRp233
(dp234
g91
Nsg92
Nsg56
S'is_incognito'
p235
sg15
Nsg19
Nsg94
S'bool'
p236
sg16
Nsbag1
(g88
g3
NtRp237
(dp238
g91
Nsg92
Nsg56
S'is_local_presentation'
p239
sg15
Nsg19
Nsg94
S'bool'
p240
sg16
Nsbasg16
Nsg19
Nsbsg15
Nsg16
Nsg56
S'MediaRoute'
p241
sg19
Nsbag1
(g80
g3
NtRp242
(dp243
g83
g1
(g84
g3
NtRp244
(dp245
g10
(lp246
g1
(g44
g3
NtRp247
(dp248
g15
Nsg47
g1
(g48
g3
NtRp249
(dp250
g10
(lp251
g1
(g52
g3
NtRp252
(dp253
g15
Nsg55
Nsg16
I142
sg56
S'FATAL'
p254
sg19
g20
sbag1
(g52
g3
NtRp255
(dp256
g15
Nsg55
Nsg16
I143
sg56
S'WARNING'
p257
sg19
g20
sbag1
(g52
g3
NtRp258
(dp259
g15
Nsg55
Nsg16
I144
sg56
S'NOTIFICATION'
p260
sg19
g20
sbasg16
I142
sg19
g20
sbsg16
I141
sg56
S'Severity'
p261
sg19
g20
sbag1
(g44
g3
NtRp262
(dp263
g15
Nsg47
g1
(g48
g3
NtRp264
(dp265
g10
(lp266
g1
(g52
g3
NtRp267
(dp268
g15
Nsg55
Nsg16
I148
sg56
S'DISMISS'
p269
sg19
g20
sbag1
(g52
g3
NtRp270
(dp271
g15
Nsg55
Nsg16
I149
sg56
S'LEARN_MORE'
p272
sg19
g20
sbasg16
I148
sg19
g20
sbsg16
I147
sg56
S'ActionType'
p273
sg19
g20
sbag1
(g88
g3
NtRp274
(dp275
g91
Nsg92
Nsg56
S'route_id'
p276
sg15
Nsg19
Nsg94
S'string?'
p277
sg16
Nsbag1
(g88
g3
NtRp278
(dp279
g91
Nsg92
Nsg56
S'severity'
p280
sg15
Nsg19
Nsg94
S'Severity'
p281
sg16
Nsbag1
(g88
g3
NtRp282
(dp283
g91
Nsg92
Nsg56
S'is_blocking'
p284
sg15
Nsg19
Nsg94
S'bool'
p285
sg16
Nsbag1
(g88
g3
NtRp286
(dp287
g91
Nsg92
Nsg56
S'title'
p288
sg15
Nsg19
Nsg94
S'string'
p289
sg16
Nsbag1
(g88
g3
NtRp290
(dp291
g91
Nsg92
Nsg56
S'message'
p292
sg15
Nsg19
Nsg94
S'string?'
p293
sg16
Nsbag1
(g88
g3
NtRp294
(dp295
g91
Nsg92
Nsg56
S'default_action'
p296
sg15
Nsg19
Nsg94
S'ActionType'
p297
sg16
Nsbag1
(g88
g3
NtRp298
(dp299
g91
Nsg92
Nsg56
S'secondary_actions'
p300
sg15
Nsg19
Nsg94
S'ActionType[]'
p301
sg16
Nsbag1
(g88
g3
NtRp302
(dp303
g91
Nsg92
Nsg56
S'help_page_id'
p304
sg15
Nsg19
Nsg94
S'int32'
p305
sg16
Nsbasg16
I141
sg19
g20
sbsg15
Nsg16
Nsg56
S'Issue'
p306
sg19
Nsbag1
(g80
g3
NtRp307
(dp308
g83
g1
(g84
g3
NtRp309
(dp310
g10
(lp311
g1
(g44
g3
NtRp312
(dp313
g15
Nsg47
g1
(g48
g3
NtRp314
(dp315
g10
(lp316
g1
(g52
g3
NtRp317
(dp318
g15
Nsg55
Nsg16
I179
sg56
S'TEXT'
p319
sg19
g20
sbag1
(g52
g3
NtRp320
(dp321
g15
Nsg55
Nsg16
I180
sg56
S'BINARY'
p322
sg19
g20
sbasg16
I179
sg19
g20
sbsg16
I178
sg56
S'Type'
p323
sg19
g20
sbag1
(g88
g3
NtRp324
(dp325
g91
Nsg92
Nsg56
S'type'
p326
sg15
Nsg19
Nsg94
S'Type'
p327
sg16
Nsbag1
(g88
g3
NtRp328
(dp329
g91
Nsg92
Nsg56
S'message'
p330
sg15
Nsg19
Nsg94
S'string?'
p331
sg16
Nsbag1
(g88
g3
NtRp332
(dp333
g91
Nsg92
Nsg56
S'data'
p334
sg15
Nsg19
Nsg94
S'uint8[]?'
p335
sg16
Nsbasg16
I178
sg19
g20
sbsg15
Nsg16
Nsg56
S'RouteMessage'
p336
sg19
Nsbag1
(g80
g3
NtRp337
(dp338
g83
g1
(g84
g3
NtRp339
(dp340
g10
(lp341
g1
(g88
g3
NtRp342
(dp343
g91
Nsg92
Nsg56
S'input'
p344
sg15
Nsg19
Nsg94
S'string'
p345
sg16
Nsbag1
(g88
g3
NtRp346
(dp347
g91
Nsg92
Nsg56
S'domain'
p348
sg15
Nsg19
Nsg94
S'string'
p349
sg16
Nsbasg16
Nsg19
Nsbsg15
Nsg16
Nsg56
S'SinkSearchCriteria'
p350
sg19
Nsbag1
(g44
g3
NtRp351
(dp352
g15
Nsg47
g1
(g48
g3
NtRp353
(dp354
g10
(lp355
g1
(g52
g3
NtRp356
(dp357
g15
Nsg55
Nsg16
I204
sg56
S'UNKNOWN_ERROR'
p358
sg19
g20
sbag1
(g52
g3
NtRp359
(dp360
g15
Nsg55
Nsg16
I205
sg56
S'OK'
p361
sg19
g20
sbag1
(g52
g3
NtRp362
(dp363
g15
Nsg55
Nsg16
I206
sg56
S'TIMED_OUT'
p364
sg19
g20
sbag1
(g52
g3
NtRp365
(dp366
g15
Nsg55
Nsg16
I207
sg56
S'ROUTE_NOT_FOUND'
p367
sg19
g20
sbag1
(g52
g3
NtRp368
(dp369
g15
Nsg55
Nsg16
I208
sg56
S'SINK_NOT_FOUND'
p370
sg19
g20
sbag1
(g52
g3
NtRp371
(dp372
g15
Nsg55
Nsg16
I209
sg56
S'INVALID_ORIGIN'
p373
sg19
g20
sbag1
(g52
g3
NtRp374
(dp375
g15
Nsg55
Nsg16
I210
sg56
S'INCOGNITO_MISMATCH'
p376
sg19
g20
sbag1
(g52
g3
NtRp377
(dp378
g15
Nsg55
Nsg16
I211
sg56
S'NO_SUPPORTED_PROVIDER'
p379
sg19
g20
sbag1
(g52
g3
NtRp380
(dp381
g15
Nsg55
Nsg16
I212
sg56
S'CANCELLED'
p382
sg19
g20
sbag1
(g52
g3
NtRp383
(dp384
g15
Nsg55
Nsg16
I213
sg56
S'ROUTE_ALREADY_EXISTS'
p385
sg19
g20
sbasg16
I204
sg19
g20
sbsg16
I203
sg56
S'RouteRequestResultCode'
p386
sg19
g20
sbag1
(g80
g3
NtRp387
(dp388
g83
g1
(g84
g3
NtRp389
(dp390
g10
(lp391
g1
(g88
g3
NtRp392
(dp393
g91
Nsg92
Nsg56
S'enable_dial_discovery'
p394
sg15
Nsg19
Nsg94
S'bool'
p395
sg16
Nsbag1
(g88
g3
NtRp396
(dp397
g91
Nsg92
Nsg56
S'enable_cast_discovery'
p398
sg15
Nsg19
Nsg94
S'bool'
p399
sg16
Nsbag1
(g88
g3
NtRp400
(dp401
g91
Nsg92
Nsg56
S'enable_dial_sink_query'
p402
sg15
Nsg19
Nsg94
S'bool'
p403
sg16
Nsbag1
(g88
g3
NtRp404
(dp405
g91
Nsg92
Nsg56
S'enable_cast_sink_query'
p406
sg15
Nsg19
Nsg94
S'bool'
p407
sg16
Nsbasg16
Nsg19
Nsbsg15
Nsg16
Nsg56
S'MediaRouteProviderConfig'
p408
sg19
Nsbag1
(cmojom.parse.ast
Interface
p409
g3
NtRp410
(dp411
g83
g1
(cmojom.parse.ast
InterfaceBody
p412
g3
NtRp413
(dp414
g10
(lp415
g1
(g44
g3
NtRp416
(dp417
g15
Nsg47
g1
(g48
g3
NtRp418
(dp419
g10
(lp420
g1
(g52
g3
NtRp421
(dp422
g15
Nsg55
Nsg16
I249
sg56
S'EXTENSION'
p423
sg19
g20
sbag1
(g52
g3
NtRp424
(dp425
g15
Nsg55
Nsg16
I250
sg56
S'WIRED_DISPLAY'
p426
sg19
g20
sbag1
(g52
g3
NtRp427
(dp428
g15
Nsg55
Nsg16
I251
sg56
S'CAST'
p429
sg19
g20
sbag1
(g52
g3
NtRp430
(dp431
g15
Nsg55
Nsg16
I252
sg56
S'DIAL'
p432
sg19
g20
sbasg16
I249
sg19
g20
sbsg16
I248
sg56
S'Id'
p433
sg19
g20
sbag1
(cmojom.parse.ast
Method
p434
g3
NtRp435
(dp436
g91
Nsg56
S'CreateRoute'
p437
sS'parameter_list'
p438
g1
(cmojom.parse.ast
ParameterList
p439
g3
NtRp440
(dp441
g10
(lp442
g1
(cmojom.parse.ast
Parameter
p443
g3
NtRp444
(dp445
g91
Nsg56
S'media_source'
p446
sg15
Nsg19
g20
sg94
S'string'
p447
sg16
I276
sbag1
(g443
g3
NtRp448
(dp449
g91
Nsg56
S'sink_id'
p450
sg15
Nsg19
g20
sg94
S'string'
p451
sg16
I277
sbag1
(g443
g3
NtRp452
(dp453
g91
Nsg56
S'original_presentation_id'
p454
sg15
Nsg19
g20
sg94
S'string'
p455
sg16
I278
sbag1
(g443
g3
NtRp456
(dp457
g91
Nsg56
S'origin'
p458
sg15
Nsg19
g20
sg94
S'url.mojom.Origin'
p459
sg16
I279
sbag1
(g443
g3
NtRp460
(dp461
g91
Nsg56
S'tab_id'
p462
sg15
Nsg19
g20
sg94
S'int32'
p463
sg16
I280
sbag1
(g443
g3
NtRp464
(dp465
g91
Nsg56
S'timeout'
p466
sg15
Nsg19
g20
sg94
S'mojo_base.mojom.TimeDelta'
p467
sg16
I281
sbag1
(g443
g3
NtRp468
(dp469
g91
Nsg56
S'incognito'
p470
sg15
Nsg19
g20
sg94
S'bool'
p471
sg16
I282
sbasg16
I276
sg19
g20
sbsg15
Nsg19
Nsg16
NsS'response_parameter_list'
p472
g1
(g439
g3
NtRp473
(dp474
g10
(lp475
g1
(g443
g3
NtRp476
(dp477
g91
Nsg56
S'route'
p478
sg15
Nsg19
g20
sg94
S'MediaRoute?'
p479
sg16
I283
sbag1
(g443
g3
NtRp480
(dp481
g91
Nsg56
S'error_text'
p482
sg15
Nsg19
g20
sg94
S'string?'
p483
sg16
I284
sbag1
(g443
g3
NtRp484
(dp485
g91
Nsg56
S'result_code'
p486
sg15
Nsg19
g20
sg94
S'RouteRequestResultCode'
p487
sg16
I285
sbasg16
I283
sg19
g20
sbsbag1
(g434
g3
NtRp488
(dp489
g91
Nsg56
S'JoinRoute'
p490
sg438
g1
(g439
g3
NtRp491
(dp492
g10
(lp493
g1
(g443
g3
NtRp494
(dp495
g91
Nsg56
S'media_source'
p496
sg15
Nsg19
g20
sg94
S'string'
p497
sg16
I305
sbag1
(g443
g3
NtRp498
(dp499
g91
Nsg56
S'presentation_id'
p500
sg15
Nsg19
g20
sg94
S'string'
p501
sg16
I306
sbag1
(g443
g3
NtRp502
(dp503
g91
Nsg56
S'origin'
p504
sg15
Nsg19
g20
sg94
S'url.mojom.Origin'
p505
sg16
I307
sbag1
(g443
g3
NtRp506
(dp507
g91
Nsg56
S'tab_id'
p508
sg15
Nsg19
g20
sg94
S'int32'
p509
sg16
I308
sbag1
(g443
g3
NtRp510
(dp511
g91
Nsg56
S'timeout'
p512
sg15
Nsg19
g20
sg94
S'mojo_base.mojom.TimeDelta'
p513
sg16
I309
sbag1
(g443
g3
NtRp514
(dp515
g91
Nsg56
S'incognito'
p516
sg15
Nsg19
g20
sg94
S'bool'
p517
sg16
I310
sbasg16
I305
sg19
g20
sbsg15
Nsg19
Nsg16
Nsg472
g1
(g439
g3
NtRp518
(dp519
g10
(lp520
g1
(g443
g3
NtRp521
(dp522
g91
Nsg56
S'route'
p523
sg15
Nsg19
g20
sg94
S'MediaRoute?'
p524
sg16
I311
sbag1
(g443
g3
NtRp525
(dp526
g91
Nsg56
S'error_text'
p527
sg15
Nsg19
g20
sg94
S'string?'
p528
sg16
I312
sbag1
(g443
g3
NtRp529
(dp530
g91
Nsg56
S'result_code'
p531
sg15
Nsg19
g20
sg94
S'RouteRequestResultCode'
p532
sg16
I313
sbasg16
I311
sg19
g20
sbsbag1
(g434
g3
NtRp533
(dp534
g91
Nsg56
S'ConnectRouteByRouteId'
p535
sg438
g1
(g439
g3
NtRp536
(dp537
g10
(lp538
g1
(g443
g3
NtRp539
(dp540
g91
Nsg56
S'media_source'
p541
sg15
Nsg19
g20
sg94
S'string'
p542
sg16
I338
sbag1
(g443
g3
NtRp543
(dp544
g91
Nsg56
S'route_id'
p545
sg15
Nsg19
g20
sg94
S'string'
p546
sg16
I339
sbag1
(g443
g3
NtRp547
(dp548
g91
Nsg56
S'presentation_id'
p549
sg15
Nsg19
g20
sg94
S'string'
p550
sg16
I340
sbag1
(g443
g3
NtRp551
(dp552
g91
Nsg56
S'origin'
p553
sg15
Nsg19
g20
sg94
S'url.mojom.Origin'
p554
sg16
I341
sbag1
(g443
g3
NtRp555
(dp556
g91
Nsg56
S'tab_id'
p557
sg15
Nsg19
g20
sg94
S'int32'
p558
sg16
I342
sbag1
(g443
g3
NtRp559
(dp560
g91
Nsg56
S'timeout'
p561
sg15
Nsg19
g20
sg94
S'mojo_base.mojom.TimeDelta'
p562
sg16
I343
sbag1
(g443
g3
NtRp563
(dp564
g91
Nsg56
S'incognito'
p565
sg15
Nsg19
g20
sg94
S'bool'
p566
sg16
I344
sbasg16
I338
sg19
g20
sbsg15
Nsg19
Nsg16
Nsg472
g1
(g439
g3
NtRp567
(dp568
g10
(lp569
g1
(g443
g3
NtRp570
(dp571
g91
Nsg56
S'route'
p572
sg15
Nsg19
g20
sg94
S'MediaRoute?'
p573
sg16
I345
sbag1
(g443
g3
NtRp574
(dp575
g91
Nsg56
S'error_text'
p576
sg15
Nsg19
g20
sg94
S'string?'
p577
sg16
I346
sbag1
(g443
g3
NtRp578
(dp579
g91
Nsg56
S'result_code'
p580
sg15
Nsg19
g20
sg94
S'RouteRequestResultCode'
p581
sg16
I347
sbasg16
I345
sg19
g20
sbsbag1
(g434
g3
NtRp582
(dp583
g91
Nsg56
S'TerminateRoute'
p584
sg438
g1
(g439
g3
NtRp585
(dp586
g10
(lp587
g1
(g443
g3
NtRp588
(dp589
g91
Nsg56
S'route_id'
p590
sg15
Nsg19
g20
sg94
S'string'
p591
sg16
I353
sbasg16
I353
sg19
g20
sbsg15
Nsg19
Nsg16
Nsg472
g1
(g439
g3
NtRp592
(dp593
g10
(lp594
g1
(g443
g3
NtRp595
(dp596
g91
Nsg56
S'error_text'
p597
sg15
Nsg19
g20
sg94
S'string?'
p598
sg16
I354
sbag1
(g443
g3
NtRp599
(dp600
g91
Nsg56
S'result_code'
p601
sg15
Nsg19
g20
sg94
S'RouteRequestResultCode'
p602
sg16
I354
sbasg16
I354
sg19
g20
sbsbag1
(g434
g3
NtRp603
(dp604
g91
Nsg56
S'SendRouteMessage'
p605
sg438
g1
(g439
g3
NtRp606
(dp607
g10
(lp608
g1
(g443
g3
NtRp609
(dp610
g91
Nsg56
S'media_route_id'
p611
sg15
Nsg19
g20
sg94
S'string'
p612
sg16
I358
sbag1
(g443
g3
NtRp613
(dp614
g91
Nsg56
S'message'
p615
sg15
Nsg19
g20
sg94
S'string'
p616
sg16
I358
sbasg16
I358
sg19
g20
sbsg15
Nsg19
Nsg16
Nsg472
g1
(g439
g3
NtRp617
(dp618
g10
(lp619
g1
(g443
g3
NtRp620
(dp621
g91
Nsg56
S'sent'
p622
sg15
Nsg19
g20
sg94
S'bool'
p623
sg16
I358
sbasg16
I358
sg19
g20
sbsbag1
(g434
g3
NtRp624
(dp625
g91
Nsg56
S'SendRouteBinaryMessage'
p626
sg438
g1
(g439
g3
NtRp627
(dp628
g10
(lp629
g1
(g443
g3
NtRp630
(dp631
g91
Nsg56
S'media_route_id'
p632
sg15
Nsg19
g20
sg94
S'string'
p633
sg16
I362
sbag1
(g443
g3
NtRp634
(dp635
g91
Nsg56
S'data'
p636
sg15
Nsg19
g20
sg94
S'uint8[]'
p637
sg16
I362
sbasg16
I362
sg19
g20
sbsg15
Nsg19
Nsg16
Nsg472
g1
(g439
g3
NtRp638
(dp639
g10
(lp640
g1
(g443
g3
NtRp641
(dp642
g91
Nsg56
S'sent'
p643
sg15
Nsg19
g20
sg94
S'bool'
p644
sg16
I363
sbasg16
I363
sg19
g20
sbsbag1
(g434
g3
NtRp645
(dp646
g91
Nsg56
S'StartObservingMediaSinks'
p647
sg438
g1
(g439
g3
NtRp648
(dp649
g10
(lp650
g1
(g443
g3
NtRp651
(dp652
g91
Nsg56
S'media_source'
p653
sg15
Nsg19
g20
sg94
S'string'
p654
sg16
I366
sbasg16
I366
sg19
g20
sbsg15
Nsg19
Nsg16
Nsg472
Nsbag1
(g434
g3
NtRp655
(dp656
g91
Nsg56
S'StopObservingMediaSinks'
p657
sg438
g1
(g439
g3
NtRp658
(dp659
g10
(lp660
g1
(g443
g3
NtRp661
(dp662
g91
Nsg56
S'media_source'
p663
sg15
Nsg19
g20
sg94
S'string'
p664
sg16
I369
sbasg16
I369
sg19
g20
sbsg15
Nsg19
Nsg16
Nsg472
Nsbag1
(g434
g3
NtRp665
(dp666
g91
Nsg56
S'StartObservingMediaRoutes'
p667
sg438
g1
(g439
g3
NtRp668
(dp669
g10
(lp670
g1
(g443
g3
NtRp671
(dp672
g91
Nsg56
S'media_source'
p673
sg15
Nsg19
g20
sg94
S'string'
p674
sg16
I384
sbasg16
I384
sg19
g20
sbsg15
Nsg19
Nsg16
Nsg472
Nsbag1
(g434
g3
NtRp675
(dp676
g91
Nsg56
S'StopObservingMediaRoutes'
p677
sg438
g1
(g439
g3
NtRp678
(dp679
g10
(lp680
g1
(g443
g3
NtRp681
(dp682
g91
Nsg56
S'media_source'
p683
sg15
Nsg19
g20
sg94
S'string'
p684
sg16
I394
sbasg16
I394
sg19
g20
sbsg15
Nsg19
Nsg16
Nsg472
Nsbag1
(g434
g3
NtRp685
(dp686
g91
Nsg56
S'StartListeningForRouteMessages'
p687
sg438
g1
(g439
g3
NtRp688
(dp689
g10
(lp690
g1
(g443
g3
NtRp691
(dp692
g91
Nsg56
S'route_id'
p693
sg15
Nsg19
g20
sg94
S'string'
p694
sg16
I402
sbasg16
I402
sg19
g20
sbsg15
Nsg19
Nsg16
Nsg472
Nsbag1
(g434
g3
NtRp695
(dp696
g91
Nsg56
S'StopListeningForRouteMessages'
p697
sg438
g1
(g439
g3
NtRp698
(dp699
g10
(lp700
g1
(g443
g3
NtRp701
(dp702
g91
Nsg56
S'route_id'
p703
sg15
Nsg19
g20
sg94
S'string'
p704
sg16
I405
sbasg16
I405
sg19
g20
sbsg15
Nsg19
Nsg16
Nsg472
Nsbag1
(g434
g3
NtRp705
(dp706
g91
Nsg56
S'DetachRoute'
p707
sg438
g1
(g439
g3
NtRp708
(dp709
g10
(lp710
g1
(g443
g3
NtRp711
(dp712
g91
Nsg56
S'route_id'
p713
sg15
Nsg19
g20
sg94
S'string'
p714
sg16
I410
sbasg16
I410
sg19
g20
sbsg15
Nsg19
Nsg16
Nsg472
Nsbag1
(g434
g3
NtRp715
(dp716
g91
Nsg56
S'EnableMdnsDiscovery'
p717
sg438
g1
(g439
g3
NtRp718
(dp719
g10
(lp720
sg16
Nsg19
Nsbsg15
Nsg19
Nsg16
Nsg472
Nsbag1
(g434
g3
NtRp721
(dp722
g91
Nsg56
S'UpdateMediaSinks'
p723
sg438
g1
(g439
g3
NtRp724
(dp725
g10
(lp726
g1
(g443
g3
NtRp727
(dp728
g91
Nsg56
S'media_source'
p729
sg15
Nsg19
g20
sg94
S'string'
p730
sg16
I424
sbasg16
I424
sg19
g20
sbsg15
Nsg19
Nsg16
Nsg472
Nsbag1
(g434
g3
NtRp731
(dp732
g91
Nsg56
S'SearchSinks'
p733
sg438
g1
(g439
g3
NtRp734
(dp735
g10
(lp736
g1
(g443
g3
NtRp737
(dp738
g91
Nsg56
S'sink_id'
p739
sg15
Nsg19
g20
sg94
S'string'
p740
sg16
I432
sbag1
(g443
g3
NtRp741
(dp742
g91
Nsg56
S'media_source'
p743
sg15
Nsg19
g20
sg94
S'string'
p744
sg16
I433
sbag1
(g443
g3
NtRp745
(dp746
g91
Nsg56
S'search_criteria'
p747
sg15
Nsg19
g20
sg94
S'SinkSearchCriteria'
p748
sg16
I434
sbasg16
I432
sg19
g20
sbsg15
Nsg19
Nsg16
Nsg472
g1
(g439
g3
NtRp749
(dp750
g10
(lp751
g1
(g443
g3
NtRp752
(dp753
g91
Nsg56
S'sink_id'
p754
sg15
Nsg19
g20
sg94
S'string'
p755
sg16
I435
sbasg16
I435
sg19
g20
sbsbag1
(g434
g3
NtRp756
(dp757
g91
Nsg56
S'ProvideSinks'
p758
sg438
g1
(g439
g3
NtRp759
(dp760
g10
(lp761
g1
(g443
g3
NtRp762
(dp763
g91
Nsg56
S'provider_name'
p764
sg15
Nsg19
g20
sg94
S'string'
p765
sg16
I440
sbag1
(g443
g3
NtRp766
(dp767
g91
Nsg56
S'sinks'
p768
sg15
Nsg19
g20
sg94
S'MediaSink[]'
p769
sg16
I440
sbasg16
I440
sg19
g20
sbsg15
Nsg19
Nsg16
Nsg472
Nsbag1
(g434
g3
NtRp770
(dp771
g91
Nsg56
S'CreateMediaRouteController'
p772
sg438
g1
(g439
g3
NtRp773
(dp774
g10
(lp775
g1
(g443
g3
NtRp776
(dp777
g91
Nsg56
S'route_id'
p778
sg15
Nsg19
g20
sg94
S'string'
p779
sg16
I454
sbag1
(g443
g3
NtRp780
(dp781
g91
Nsg56
S'media_controller'
p782
sg15
Nsg19
g20
sg94
S'MediaController&'
p783
sg16
I455
sbag1
(g443
g3
NtRp784
(dp785
g91
Nsg56
S'observer'
p786
sg15
Nsg19
g20
sg94
S'MediaStatusObserver'
p787
sg16
I456
sbasg16
I454
sg19
g20
sbsg15
Nsg19
Nsg16
Nsg472
g1
(g439
g3
NtRp788
(dp789
g10
(lp790
g1
(g443
g3
NtRp791
(dp792
g91
Nsg56
S'success'
p793
sg15
Nsg19
g20
sg94
S'bool'
p794
sg16
I457
sbasg16
I457
sg19
g20
sbsbasg16
I248
sg19
g20
sbsg15
Nsg16
Nsg56
S'MediaRouteProvider'
p795
sg19
Nsbag1
(g409
g3
NtRp796
(dp797
g83
g1
(g412
g3
NtRp798
(dp799
g10
(lp800
g1
(g44
g3
NtRp801
(dp802
g15
Nsg47
g1
(g48
g3
NtRp803
(dp804
g10
(lp805
g1
(g52
g3
NtRp806
(dp807
g15
Nsg55
Nsg16
I471
sg56
S'UNAVAILABLE'
p808
sg19
g20
sbag1
(g52
g3
NtRp809
(dp810
g15
Nsg55
Nsg16
I472
sg56
S'PER_SOURCE'
p811
sg19
g20
sbag1
(g52
g3
NtRp812
(dp813
g15
Nsg55
Nsg16
I473
sg56
S'AVAILABLE'
p814
sg19
g20
sbasg16
I471
sg19
g20
sbsg16
I470
sg56
S'SinkAvailability'
p815
sg19
g20
sbag1
(g44
g3
NtRp816
(dp817
g15
Nsg47
g1
(g48
g3
NtRp818
(dp819
g10
(lp820
g1
(g52
g3
NtRp821
(dp822
g15
Nsg55
Nsg16
I478
sg56
S'CONNECTING'
p823
sg19
g20
sbag1
(g52
g3
NtRp824
(dp825
g15
Nsg55
Nsg16
I479
sg56
S'CONNECTED'
p826
sg19
g20
sbag1
(g52
g3
NtRp827
(dp828
g15
Nsg55
Nsg16
I480
sg56
S'CLOSED'
p829
sg19
g20
sbag1
(g52
g3
NtRp830
(dp831
g15
Nsg55
Nsg16
I481
sg56
S'TERMINATED'
p832
sg19
g20
sbasg16
I478
sg19
g20
sbsg16
I477
sg56
S'PresentationConnectionState'
p833
sg19
g20
sbag1
(g44
g3
NtRp834
(dp835
g15
Nsg47
g1
(g48
g3
NtRp836
(dp837
g10
(lp838
g1
(g52
g3
NtRp839
(dp840
g15
Nsg55
Nsg16
I486
sg56
S'CONNECTION_ERROR'
p841
sg19
g20
sbag1
(g52
g3
NtRp842
(dp843
g15
Nsg55
Nsg16
I487
sg56
S'CLOSED'
p844
sg19
g20
sbag1
(g52
g3
NtRp845
(dp846
g15
Nsg55
Nsg16
I488
sg56
S'WENT_AWAY'
p847
sg19
g20
sbasg16
I486
sg19
g20
sbsg16
I485
sg56
S'PresentationConnectionCloseReason'
p848
sg19
g20
sbag1
(g434
g3
NtRp849
(dp850
g91
Nsg56
S'RegisterMediaRouteProvider'
p851
sg438
g1
(g439
g3
NtRp852
(dp853
g10
(lp854
g1
(g443
g3
NtRp855
(dp856
g91
Nsg56
S'provider_id'
p857
sg15
Nsg19
g20
sg94
S'MediaRouteProvider.Id'
p858
sg16
I494
sbag1
(g443
g3
NtRp859
(dp860
g91
Nsg56
S'media_router_provider'
p861
sg15
Nsg19
g20
sg94
S'MediaRouteProvider'
p862
sg16
I495
sbasg16
I494
sg19
g20
sbsg15
Nsg19
Nsg16
Nsg472
g1
(g439
g3
NtRp863
(dp864
g10
(lp865
g1
(g443
g3
NtRp866
(dp867
g91
Nsg56
S'instance_id'
p868
sg15
Nsg19
g20
sg94
S'string'
p869
sg16
I496
sbag1
(g443
g3
NtRp870
(dp871
g91
Nsg56
S'config'
p872
sg15
Nsg19
g20
sg94
S'MediaRouteProviderConfig'
p873
sg16
I496
sbasg16
I496
sg19
g20
sbsbag1
(g434
g3
NtRp874
(dp875
g91
Nsg56
S'OnSinksReceived'
p876
sg438
g1
(g439
g3
NtRp877
(dp878
g10
(lp879
g1
(g443
g3
NtRp880
(dp881
g91
Nsg56
S'provider_id'
p882
sg15
Nsg19
g20
sg94
S'MediaRouteProvider.Id'
p883
sg16
I501
sbag1
(g443
g3
NtRp884
(dp885
g91
Nsg56
S'media_source'
p886
sg15
Nsg19
g20
sg94
S'string'
p887
sg16
I502
sbag1
(g443
g3
NtRp888
(dp889
g91
Nsg56
S'sinks'
p890
sg15
Nsg19
g20
sg94
S'MediaSink[]'
p891
sg16
I503
sbag1
(g443
g3
NtRp892
(dp893
g91
Nsg56
S'origins'
p894
sg15
Nsg19
g20
sg94
S'url.mojom.Origin[]'
p895
sg16
I504
sbasg16
I501
sg19
g20
sbsg15
Nsg19
Nsg16
Nsg472
Nsbag1
(g434
g3
NtRp896
(dp897
g91
Nsg56
S'OnIssue'
p898
sg438
g1
(g439
g3
NtRp899
(dp900
g10
(lp901
g1
(g443
g3
NtRp902
(dp903
g91
Nsg56
S'issue'
p904
sg15
Nsg19
g20
sg94
S'Issue'
p905
sg16
I507
sbasg16
I507
sg19
g20
sbsg15
Nsg19
Nsg16
Nsg472
Nsbag1
(g434
g3
NtRp906
(dp907
g91
Nsg56
S'OnRoutesUpdated'
p908
sg438
g1
(g439
g3
NtRp909
(dp910
g10
(lp911
g1
(g443
g3
NtRp912
(dp913
g91
Nsg56
S'provider_id'
p914
sg15
Nsg19
g20
sg94
S'MediaRouteProvider.Id'
p915
sg16
I512
sbag1
(g443
g3
NtRp916
(dp917
g91
Nsg56
S'routes'
p918
sg15
Nsg19
g20
sg94
S'MediaRoute[]'
p919
sg16
I513
sbag1
(g443
g3
NtRp920
(dp921
g91
Nsg56
S'media_source'
p922
sg15
Nsg19
g20
sg94
S'string'
p923
sg16
I514
sbag1
(g443
g3
NtRp924
(dp925
g91
Nsg56
S'joinable_route_ids'
p926
sg15
Nsg19
g20
sg94
S'string[]'
p927
sg16
I515
sbasg16
I512
sg19
g20
sbsg15
Nsg19
Nsg16
Nsg472
Nsbag1
(g434
g3
NtRp928
(dp929
g91
Nsg56
S'OnSinkAvailabilityUpdated'
p930
sg438
g1
(g439
g3
NtRp931
(dp932
g10
(lp933
g1
(g443
g3
NtRp934
(dp935
g91
Nsg56
S'provider_id'
p936
sg15
Nsg19
g20
sg94
S'MediaRouteProvider.Id'
p937
sg16
I519
sbag1
(g443
g3
NtRp938
(dp939
g91
Nsg56
S'availability'
p940
sg15
Nsg19
g20
sg94
S'SinkAvailability'
p941
sg16
I520
sbasg16
I519
sg19
g20
sbsg15
Nsg19
Nsg16
Nsg472
Nsbag1
(g434
g3
NtRp942
(dp943
g91
Nsg56
S'OnPresentationConnectionStateChanged'
p944
sg438
g1
(g439
g3
NtRp945
(dp946
g10
(lp947
g1
(g443
g3
NtRp948
(dp949
g91
Nsg56
S'route_id'
p950
sg15
Nsg19
g20
sg94
S'string'
p951
sg16
I525
sbag1
(g443
g3
NtRp952
(dp953
g91
Nsg56
S'state'
p954
sg15
Nsg19
g20
sg94
S'PresentationConnectionState'
p955
sg16
I525
sbasg16
I525
sg19
g20
sbsg15
Nsg19
Nsg16
Nsg472
Nsbag1
(g434
g3
NtRp956
(dp957
g91
Nsg56
S'OnPresentationConnectionClosed'
p958
sg438
g1
(g439
g3
NtRp959
(dp960
g10
(lp961
g1
(g443
g3
NtRp962
(dp963
g91
Nsg56
S'route_id'
p964
sg15
Nsg19
g20
sg94
S'string'
p965
sg16
I529
sbag1
(g443
g3
NtRp966
(dp967
g91
Nsg56
S'reason'
p968
sg15
Nsg19
g20
sg94
S'PresentationConnectionCloseReason'
p969
sg16
I529
sbag1
(g443
g3
NtRp970
(dp971
g91
Nsg56
S'message'
p972
sg15
Nsg19
g20
sg94
S'string'
p973
sg16
I530
sbasg16
I529
sg19
g20
sbsg15
Nsg19
Nsg16
Nsg472
Nsbag1
(g434
g3
NtRp974
(dp975
g91
Nsg56
S'OnRouteMessagesReceived'
p976
sg438
g1
(g439
g3
NtRp977
(dp978
g10
(lp979
g1
(g443
g3
NtRp980
(dp981
g91
Nsg56
S'route_id'
p982
sg15
Nsg19
g20
sg94
S'string'
p983
sg16
I538
sbag1
(g443
g3
NtRp984
(dp985
g91
Nsg56
S'messages'
p986
sg15
Nsg19
g20
sg94
S'RouteMessage[]'
p987
sg16
I539
sbasg16
I538
sg19
g20
sbsg15
Nsg19
Nsg16
Nsg472
Nsbag1
(g434
g3
NtRp988
(dp989
g91
Nsg56
S'OnMediaRemoterCreated'
p990
sg438
g1
(g439
g3
NtRp991
(dp992
g10
(lp993
g1
(g443
g3
NtRp994
(dp995
g91
Nsg56
S'tab_id'
p996
sg15
Nsg19
g20
sg94
S'int32'
p997
sg16
I545
sbag1
(g443
g3
NtRp998
(dp999
g91
Nsg56
S'remoter'
p1000
sg15
Nsg19
g20
sg94
S'media.mojom.MirrorServiceRemoter'
p1001
sg16
I545
sbag1
(g443
g3
NtRp1002
(dp1003
g91
Nsg56
S'remoting_source'
p1004
sg15
Nsg19
g20
sg94
S'media.mojom.MirrorServiceRemotingSource&'
p1005
sg16
I546
sbasg16
I545
sg19
g20
sbsg15
Nsg19
Nsg16
Nsg472
Nsbag1
(g434
g3
NtRp1006
(dp1007
g91
Nsg56
S'GetMediaSinkServiceStatus'
p1008
sg438
g1
(g439
g3
NtRp1009
(dp1010
g10
(lp1011
sg16
Nsg19
Nsbsg15
Nsg19
Nsg16
Nsg472
g1
(g439
g3
NtRp1012
(dp1013
g10
(lp1014
g1
(g443
g3
NtRp1015
(dp1016
g91
Nsg56
S'status'
p1017
sg15
Nsg19
g20
sg94
S'string'
p1018
sg16
I549
sbasg16
I549
sg19
g20
sbsbasg16
I470
sg19
g20
sbsg15
Nsg16
Nsg56
S'MediaRouter'
p1019
sg19
Nsbasg16
NsS'module'
p1020
g1
(cmojom.parse.ast
Module
p1021
g3
NtRp1022
(dp1023
S'mojom_namespace'
p1024
(S'IDENTIFIER'
p1025
S'media_router.mojom'
tp1026
sg16
I5
sg15
Nsg19
g20
sbsg19
Nsb.