ccopy_reg
_reconstructor
p1
(cmojom.parse.ast
Mojom
p2
c__builtin__
object
p3
NtRp4
(dp5
S'import_list'
p6
g1
(cmojom.parse.ast
ImportList
p7
g3
NtRp8
(dp9
S'items'
p10
(lp11
g1
(cmojom.parse.ast
Import
p12
g3
NtRp13
(dp14
S'attribute_list'
p15
NsS'lineno'
p16
I7
sS'import_filename'
p17
S'mojo/public/mojom/base/time.mojom'
p18
sS'filename'
p19
S'../../chrome/common/media_router/mojo/media_status.mojom'
p20
sbasg16
I7
sg19
g20
sbsS'definition_list'
p21
(lp22
g1
(cmojom.parse.ast
Struct
p23
g3
NtRp24
(dp25
S'body'
p26
g1
(cmojom.parse.ast
StructBody
p27
g3
NtRp28
(dp29
g10
(lp30
g1
(cmojom.parse.ast
Enum
p31
g3
NtRp32
(dp33
g15
NsS'enum_value_list'
p34
g1
(cmojom.parse.ast
EnumValueList
p35
g3
NtRp36
(dp37
g10
(lp38
g1
(cmojom.parse.ast
EnumValue
p39
g3
NtRp40
(dp41
g15
NsS'value'
p42
Nsg16
I14
sS'mojom_name'
p43
S'PLAYING'
p44
sg19
g20
sbag1
(g39
g3
NtRp45
(dp46
g15
Nsg42
Nsg16
I15
sg43
S'PAUSED'
p47
sg19
g20
sbag1
(g39
g3
NtRp48
(dp49
g15
Nsg42
Nsg16
I16
sg43
S'BUFFERING'
p50
sg19
g20
sbasg16
I14
sg19
g20
sbsg16
I13
sg43
S'PlayState'
p51
sg19
g20
sbag1
(cmojom.parse.ast
StructField
p52
g3
NtRp53
(dp54
S'ordinal'
p55
NsS'default_value'
p56
Nsg43
S'title'
p57
sg15
Nsg19
NsS'typename'
p58
S'string'
p59
sg16
Nsbag1
(g52
g3
NtRp60
(dp61
g55
Nsg56
Nsg43
S'can_play_pause'
p62
sg15
Nsg19
Nsg58
S'bool'
p63
sg16
Nsbag1
(g52
g3
NtRp64
(dp65
g55
Nsg56
Nsg43
S'can_mute'
p66
sg15
Nsg19
Nsg58
S'bool'
p67
sg16
Nsbag1
(g52
g3
NtRp68
(dp69
g55
Nsg56
Nsg43
S'can_set_volume'
p70
sg15
Nsg19
Nsg58
S'bool'
p71
sg16
Nsbag1
(g52
g3
NtRp72
(dp73
g55
Nsg56
Nsg43
S'can_seek'
p74
sg15
Nsg19
Nsg58
S'bool'
p75
sg16
Nsbag1
(g52
g3
NtRp76
(dp77
g55
Nsg56
Nsg43
S'play_state'
p78
sg15
Nsg19
Nsg58
S'PlayState'
p79
sg16
Nsbag1
(g52
g3
NtRp80
(dp81
g55
Nsg56
Nsg43
S'is_muted'
p82
sg15
Nsg19
Nsg58
S'bool'
p83
sg16
Nsbag1
(g52
g3
NtRp84
(dp85
g55
Nsg56
Nsg43
S'volume'
p86
sg15
Nsg19
Nsg58
S'float'
p87
sg16
Nsbag1
(g52
g3
NtRp88
(dp89
g55
Nsg56
Nsg43
S'duration'
p90
sg15
Nsg19
Nsg58
S'mojo_base.mojom.TimeDelta'
p91
sg16
Nsbag1
(g52
g3
NtRp92
(dp93
g55
Nsg56
Nsg43
S'current_time'
p94
sg15
Nsg19
Nsg58
S'mojo_base.mojom.TimeDelta'
p95
sg16
Nsbag1
(g52
g3
NtRp96
(dp97
g55
Nsg56
Nsg43
S'hangouts_extra_data'
p98
sg15
Nsg19
Nsg58
S'HangoutsMediaStatusExtraData?'
p99
sg16
Nsbasg16
I13
sg19
g20
sbsg15
Nsg16
Nsg43
S'MediaStatus'
p100
sg19
Nsbag1
(g23
g3
NtRp101
(dp102
g26
g1
(g27
g3
NtRp103
(dp104
g10
(lp105
g1
(g52
g3
NtRp106
(dp107
g55
Nsg56
Nsg43
S'local_present'
p108
sg15
Nsg19
Nsg58
S'bool'
p109
sg16
Nsbasg16
Nsg19
Nsbsg15
Nsg16
Nsg43
S'HangoutsMediaStatusExtraData'
p110
sg19
Nsbag1
(cmojom.parse.ast
Interface
p111
g3
NtRp112
(dp113
g26
g1
(cmojom.parse.ast
InterfaceBody
p114
g3
NtRp115
(dp116
g10
(lp117
g1
(cmojom.parse.ast
Method
p118
g3
NtRp119
(dp120
g55
Nsg43
S'OnMediaStatusUpdated'
p121
sS'parameter_list'
p122
g1
(cmojom.parse.ast
ParameterList
p123
g3
NtRp124
(dp125
g10
(lp126
g1
(cmojom.parse.ast
Parameter
p127
g3
NtRp128
(dp129
g55
Nsg43
S'status'
p130
sg15
Nsg19
g20
sg58
S'MediaStatus'
p131
sg16
I72
sbasg16
I72
sg19
g20
sbsg15
Nsg19
Nsg16
NsS'response_parameter_list'
p132
Nsbasg16
Nsg19
Nsbsg15
Nsg16
Nsg43
S'MediaStatusObserver'
p133
sg19
Nsbasg16
NsS'module'
p134
g1
(cmojom.parse.ast
Module
p135
g3
NtRp136
(dp137
S'mojom_namespace'
p138
(S'IDENTIFIER'
p139
S'media_router.mojom'
tp140
sg16
I5
sg15
Nsg19
g20
sbsg19
Nsb.