ccopy_reg
_reconstructor
p1
(cmojom.parse.ast
Mojom
p2
c__builtin__
object
p3
NtRp4
(dp5
S'import_list'
p6
g1
(cmojom.parse.ast
ImportList
p7
g3
NtRp8
(dp9
S'items'
p10
(lp11
g1
(cmojom.parse.ast
Import
p12
g3
NtRp13
(dp14
S'attribute_list'
p15
NsS'lineno'
p16
I7
sS'import_filename'
p17
S'chrome/common/media_router/mojo/media_status.mojom'
p18
sS'filename'
p19
S'../../chrome/common/media_router/mojo/media_controller.mojom'
p20
sbag1
(g12
g3
NtRp21
(dp22
g15
Nsg16
I8
sg17
S'mojo/public/mojom/base/time.mojom'
p23
sg19
g20
sbasg16
I7
sg19
g20
sbsS'definition_list'
p24
(lp25
g1
(cmojom.parse.ast
Interface
p26
g3
NtRp27
(dp28
S'body'
p29
g1
(cmojom.parse.ast
InterfaceBody
p30
g3
NtRp31
(dp32
g10
(lp33
g1
(cmojom.parse.ast
Method
p34
g3
NtRp35
(dp36
S'ordinal'
p37
NsS'mojom_name'
p38
S'Play'
p39
sS'parameter_list'
p40
g1
(cmojom.parse.ast
ParameterList
p41
g3
NtRp42
(dp43
g10
(lp44
sg16
Nsg19
Nsbsg15
Nsg19
Nsg16
NsS'response_parameter_list'
p45
Nsbag1
(g34
g3
NtRp46
(dp47
g37
Nsg38
S'Pause'
p48
sg40
g1
(g41
g3
NtRp49
(dp50
g10
(lp51
sg16
Nsg19
Nsbsg15
Nsg19
Nsg16
Nsg45
Nsbag1
(g34
g3
NtRp52
(dp53
g37
Nsg38
S'SetMute'
p54
sg40
g1
(g41
g3
NtRp55
(dp56
g10
(lp57
g1
(cmojom.parse.ast
Parameter
p58
g3
NtRp59
(dp60
g37
Nsg38
S'mute'
p61
sg15
Nsg19
g20
sS'typename'
p62
S'bool'
p63
sg16
I25
sbasg16
I25
sg19
g20
sbsg15
Nsg19
Nsg16
Nsg45
Nsbag1
(g34
g3
NtRp64
(dp65
g37
Nsg38
S'SetVolume'
p66
sg40
g1
(g41
g3
NtRp67
(dp68
g10
(lp69
g1
(g58
g3
NtRp70
(dp71
g37
Nsg38
S'volume'
p72
sg15
Nsg19
g20
sg62
S'float'
p73
sg16
I30
sbasg16
I30
sg19
g20
sbsg15
Nsg19
Nsg16
Nsg45
Nsbag1
(g34
g3
NtRp74
(dp75
g37
Nsg38
S'Seek'
p76
sg40
g1
(g41
g3
NtRp77
(dp78
g10
(lp79
g1
(g58
g3
NtRp80
(dp81
g37
Nsg38
S'time'
p82
sg15
Nsg19
g20
sg62
S'mojo_base.mojom.TimeDelta'
p83
sg16
I34
sbasg16
I34
sg19
g20
sbsg15
Nsg19
Nsg16
Nsg45
Nsbag1
(g34
g3
NtRp84
(dp85
g37
Nsg38
S'ConnectHangoutsMediaRouteController'
p86
sg40
g1
(g41
g3
NtRp87
(dp88
g10
(lp89
g1
(g58
g3
NtRp90
(dp91
g37
Nsg38
S'controller_request'
p92
sg15
Nsg19
g20
sg62
S'HangoutsMediaRouteController&'
p93
sg16
I47
sbasg16
I47
sg19
g20
sbsg15
Nsg19
Nsg16
Nsg45
Nsbasg16
Nsg19
Nsbsg15
Nsg16
Nsg38
S'MediaController'
p94
sg19
Nsbag1
(g26
g3
NtRp95
(dp96
g29
g1
(g30
g3
NtRp97
(dp98
g10
(lp99
g1
(g34
g3
NtRp100
(dp101
g37
Nsg38
S'SetLocalPresent'
p102
sg40
g1
(g41
g3
NtRp103
(dp104
g10
(lp105
g1
(g58
g3
NtRp106
(dp107
g37
Nsg38
S'local_present'
p108
sg15
Nsg19
g20
sg62
S'bool'
p109
sg16
I55
sbasg16
I55
sg19
g20
sbsg15
Nsg19
Nsg16
Nsg45
Nsbasg16
Nsg19
Nsbsg15
Nsg16
Nsg38
S'HangoutsMediaRouteController'
p110
sg19
Nsbasg16
NsS'module'
p111
g1
(cmojom.parse.ast
Module
p112
g3
NtRp113
(dp114
S'mojom_namespace'
p115
(S'IDENTIFIER'
p116
S'media_router.mojom'
tp117
sg16
I5
sg15
Nsg19
g20
sbsg19
Nsb.