ccopy_reg
_reconstructor
p1
(cmojom.parse.ast
Mojom
p2
c__builtin__
object
p3
NtRp4
(dp5
S'import_list'
p6
g1
(cmojom.parse.ast
ImportList
p7
g3
NtRp8
(dp9
S'items'
p10
(lp11
g1
(cmojom.parse.ast
Import
p12
g3
NtRp13
(dp14
S'attribute_list'
p15
NsS'lineno'
p16
I7
sS'import_filename'
p17
S'mojo/public/mojom/base/file_path.mojom'
p18
sS'filename'
p19
S'../../services/catalog/public/mojom/catalog.mojom'
p20
sbasg16
I7
sg19
g20
sbsS'definition_list'
p21
(lp22
g1
(cmojom.parse.ast
Struct
p23
g3
NtRp24
(dp25
S'body'
p26
g1
(cmojom.parse.ast
StructBody
p27
g3
NtRp28
(dp29
g10
(lp30
g1
(cmojom.parse.ast
StructField
p31
g3
NtRp32
(dp33
S'ordinal'
p34
NsS'default_value'
p35
NsS'mojom_name'
p36
S'name'
p37
sg15
Nsg19
NsS'typename'
p38
S'string'
p39
sg16
Nsbag1
(g31
g3
NtRp40
(dp41
g34
Nsg35
Nsg36
S'display_name'
p42
sg15
Nsg19
Nsg38
S'string'
p43
sg16
Nsbasg16
Nsg19
Nsbsg15
Nsg16
Nsg36
S'Entry'
p44
sg19
Nsbag1
(cmojom.parse.ast
Interface
p45
g3
NtRp46
(dp47
g26
g1
(cmojom.parse.ast
InterfaceBody
p48
g3
NtRp49
(dp50
g10
(lp51
g1
(cmojom.parse.ast
Method
p52
g3
NtRp53
(dp54
g34
Nsg36
S'GetEntries'
p55
sS'parameter_list'
p56
g1
(cmojom.parse.ast
ParameterList
p57
g3
NtRp58
(dp59
g10
(lp60
g1
(cmojom.parse.ast
Parameter
p61
g3
NtRp62
(dp63
g34
Nsg36
S'names'
p64
sg15
Nsg19
g20
sg38
S'string[]?'
p65
sg16
I18
sbasg16
I18
sg19
g20
sbsg15
g1
(cmojom.parse.ast
AttributeList
p66
g3
NtRp67
(dp68
g10
(lp69
g1
(cmojom.parse.ast
Attribute
p70
g3
NtRp71
(dp72
S'value'
p73
I01
sg16
I17
sS'key'
p74
S'Sync'
p75
sg19
g20
sbasg16
I17
sg19
g20
sbsg19
Nsg16
NsS'response_parameter_list'
p76
g1
(g57
g3
NtRp77
(dp78
g10
(lp79
g1
(g61
g3
NtRp80
(dp81
g34
Nsg36
S'entries'
p82
sg15
Nsg19
g20
sg38
S'Entry[]'
p83
sg16
I18
sbasg16
I18
sg19
g20
sbsbag1
(g52
g3
NtRp84
(dp85
g34
Nsg36
S'GetEntriesProvidingCapability'
p86
sg56
g1
(g57
g3
NtRp87
(dp88
g10
(lp89
g1
(g61
g3
NtRp90
(dp91
g34
Nsg36
S'capability'
p92
sg15
Nsg19
g20
sg38
S'string'
p93
sg16
I22
sbasg16
I22
sg19
g20
sbsg15
Nsg19
Nsg16
Nsg76
g1
(g57
g3
NtRp94
(dp95
g10
(lp96
g1
(g61
g3
NtRp97
(dp98
g34
Nsg36
S'entries'
p99
sg15
Nsg19
g20
sg38
S'Entry[]'
p100
sg16
I22
sbasg16
I22
sg19
g20
sbsbasg16
Nsg19
Nsbsg15
Nsg16
Nsg36
S'Catalog'
p101
sg19
Nsbasg16
NsS'module'
p102
g1
(cmojom.parse.ast
Module
p103
g3
NtRp104
(dp105
S'mojom_namespace'
p106
(S'IDENTIFIER'
p107
S'catalog.mojom'
tp108
sg16
I5
sg15
Nsg19
g20
sbsg19
Nsb.