ccopy_reg
_reconstructor
p1
(cmojom.parse.ast
Mojom
p2
c__builtin__
object
p3
NtRp4
(dp5
S'import_list'
p6
g1
(cmojom.parse.ast
ImportList
p7
g3
NtRp8
(dp9
S'items'
p10
(lp11
g1
(cmojom.parse.ast
Import
p12
g3
NtRp13
(dp14
S'attribute_list'
p15
NsS'lineno'
p16
I7
sS'import_filename'
p17
S'mojo/public/mojom/base/time.mojom'
p18
sS'filename'
p19
S'../../device/vr/public/mojom/vr_service.mojom'
p20
sbag1
(g12
g3
NtRp21
(dp22
g15
Nsg16
I8
sg17
S'gpu/ipc/common/mailbox_holder.mojom'
p23
sg19
g20
sbag1
(g12
g3
NtRp24
(dp25
g15
Nsg16
I9
sg17
S'gpu/ipc/common/sync_token.mojom'
p26
sg19
g20
sbag1
(g12
g3
NtRp27
(dp28
g15
Nsg16
I10
sg17
S'ui/display/mojo/display.mojom'
p29
sg19
g20
sbag1
(g12
g3
NtRp30
(dp31
g15
Nsg16
I11
sg17
S'ui/gfx/geometry/mojo/geometry.mojom'
p32
sg19
g20
sbag1
(g12
g3
NtRp33
(dp34
g15
Nsg16
I12
sg17
S'ui/gfx/mojo/gpu_fence_handle.mojom'
p35
sg19
g20
sbag1
(g12
g3
NtRp36
(dp37
g15
Nsg16
I13
sg17
S'ui/gfx/mojo/transform.mojom'
p38
sg19
g20
sbasg16
I7
sg19
g20
sbsS'definition_list'
p39
(lp40
g1
(cmojom.parse.ast
Enum
p41
g3
NtRp42
(dp43
g15
NsS'enum_value_list'
p44
g1
(cmojom.parse.ast
EnumValueList
p45
g3
NtRp46
(dp47
g10
(lp48
g1
(cmojom.parse.ast
EnumValue
p49
g3
NtRp50
(dp51
g15
NsS'value'
p52
S'0'
sg16
I20
sS'mojom_name'
p53
S'NONE'
p54
sg19
g20
sbag1
(g49
g3
NtRp55
(dp56
g15
Nsg52
S'1'
sg16
I21
sg53
S'LEFT'
p57
sg19
g20
sbag1
(g49
g3
NtRp58
(dp59
g15
Nsg52
S'2'
sg16
I22
sg53
S'RIGHT'
p60
sg19
g20
sbasg16
I20
sg19
g20
sbsg16
I19
sg53
S'XRHandedness'
p61
sg19
g20
sbag1
(g41
g3
NtRp62
(dp63
g15
Nsg44
g1
(g45
g3
NtRp64
(dp65
g10
(lp66
g1
(g49
g3
NtRp67
(dp68
g15
Nsg52
S'1'
sg16
I26
sg53
S'HEAD'
p69
sg19
g20
sbag1
(g49
g3
NtRp70
(dp71
g15
Nsg52
S'2'
sg16
I27
sg53
S'HAND'
p72
sg19
g20
sbag1
(g49
g3
NtRp73
(dp74
g15
Nsg52
S'3'
sg16
I28
sg53
S'SCREEN'
p75
sg19
g20
sbasg16
I26
sg19
g20
sbsg16
I25
sg53
S'XRPointerOrigin'
p76
sg19
g20
sbag1
(cmojom.parse.ast
Struct
p77
g3
NtRp78
(dp79
S'body'
p80
g1
(cmojom.parse.ast
StructBody
p81
g3
NtRp82
(dp83
g10
(lp84
g1
(cmojom.parse.ast
StructField
p85
g3
NtRp86
(dp87
S'ordinal'
p88
NsS'default_value'
p89
Nsg53
S'pointer_origin'
p90
sg15
Nsg19
NsS'typename'
p91
S'XRPointerOrigin'
p92
sg16
Nsbag1
(g85
g3
NtRp93
(dp94
g88
Nsg89
Nsg53
S'handedness'
p95
sg15
Nsg19
Nsg91
S'XRHandedness'
p96
sg16
Nsbag1
(g85
g3
NtRp97
(dp98
g88
Nsg89
Nsg53
S'emulated_position'
p99
sg15
Nsg19
Nsg91
S'bool'
p100
sg16
Nsbag1
(g85
g3
NtRp101
(dp102
g88
Nsg89
Nsg53
S'pointer_offset'
p103
sg15
Nsg19
Nsg91
S'gfx.mojom.Transform?'
p104
sg16
Nsbasg16
Nsg19
Nsbsg15
Nsg16
Nsg53
S'XRInputSourceDescription'
p105
sg19
Nsbag1
(g77
g3
NtRp106
(dp107
g80
g1
(g81
g3
NtRp108
(dp109
g10
(lp110
g1
(g85
g3
NtRp111
(dp112
g88
Nsg89
Nsg53
S'source_id'
p113
sg15
Nsg19
Nsg91
S'uint32'
p114
sg16
Nsbag1
(g85
g3
NtRp115
(dp116
g88
Nsg89
Nsg53
S'description'
p117
sg15
Nsg19
Nsg91
S'XRInputSourceDescription?'
p118
sg16
Nsbag1
(g85
g3
NtRp119
(dp120
g88
Nsg89
Nsg53
S'grip'
p121
sg15
Nsg19
Nsg91
S'gfx.mojom.Transform?'
p122
sg16
Nsbag1
(g85
g3
NtRp123
(dp124
g88
Nsg89
Nsg53
S'primary_input_pressed'
p125
sg15
Nsg19
Nsg91
S'bool'
p126
sg16
Nsbag1
(g85
g3
NtRp127
(dp128
g88
Nsg89
Nsg53
S'primary_input_clicked'
p129
sg15
Nsg19
Nsg91
S'bool'
p130
sg16
Nsbasg16
Nsg19
Nsbsg15
Nsg16
Nsg53
S'XRInputSourceState'
p131
sg19
Nsbag1
(g77
g3
NtRp132
(dp133
g80
g1
(g81
g3
NtRp134
(dp135
g10
(lp136
g1
(g85
g3
NtRp137
(dp138
g88
Nsg89
Nsg53
S'upDegrees'
p139
sg15
Nsg19
Nsg91
S'float'
p140
sg16
Nsbag1
(g85
g3
NtRp141
(dp142
g88
Nsg89
Nsg53
S'downDegrees'
p143
sg15
Nsg19
Nsg91
S'float'
p144
sg16
Nsbag1
(g85
g3
NtRp145
(dp146
g88
Nsg89
Nsg53
S'leftDegrees'
p147
sg15
Nsg19
Nsg91
S'float'
p148
sg16
Nsbag1
(g85
g3
NtRp149
(dp150
g88
Nsg89
Nsg53
S'rightDegrees'
p151
sg15
Nsg19
Nsg91
S'float'
p152
sg16
Nsbasg16
Nsg19
Nsbsg15
Nsg16
Nsg53
S'VRFieldOfView'
p153
sg19
Nsbag1
(g77
g3
NtRp154
(dp155
g80
g1
(g81
g3
NtRp156
(dp157
g10
(lp158
g1
(g85
g3
NtRp159
(dp160
g88
Nsg89
Nsg53
S'orientation'
p161
sg15
Nsg19
Nsg91
S'float[4]?'
p162
sg16
Nsbag1
(g85
g3
NtRp163
(dp164
g88
Nsg89
Nsg53
S'position'
p165
sg15
Nsg19
Nsg91
S'float[3]?'
p166
sg16
Nsbag1
(g85
g3
NtRp167
(dp168
g88
Nsg89
Nsg53
S'angularVelocity'
p169
sg15
Nsg19
Nsg91
S'float[3]?'
p170
sg16
Nsbag1
(g85
g3
NtRp171
(dp172
g88
Nsg89
Nsg53
S'linearVelocity'
p173
sg15
Nsg19
Nsg91
S'float[3]?'
p174
sg16
Nsbag1
(g85
g3
NtRp175
(dp176
g88
Nsg89
Nsg53
S'angularAcceleration'
p177
sg15
Nsg19
Nsg91
S'float[3]?'
p178
sg16
Nsbag1
(g85
g3
NtRp179
(dp180
g88
Nsg89
Nsg53
S'linearAcceleration'
p181
sg15
Nsg19
Nsg91
S'float[3]?'
p182
sg16
Nsbag1
(g85
g3
NtRp183
(dp184
g88
Nsg89
Nsg53
S'input_state'
p185
sg15
Nsg19
Nsg91
S'XRInputSourceState[]?'
p186
sg16
Nsbag1
(g85
g3
NtRp187
(dp188
g88
Nsg89
Nsg53
S'pose_reset'
p189
sg15
Nsg19
Nsg91
S'bool'
p190
sg16
Nsbasg16
Nsg19
Nsbsg15
Nsg16
Nsg53
S'VRPose'
p191
sg19
Nsbag1
(g77
g3
NtRp192
(dp193
g80
g1
(g81
g3
NtRp194
(dp195
g10
(lp196
g1
(g85
g3
NtRp197
(dp198
g88
Nsg89
Nsg53
S'hasPosition'
p199
sg15
Nsg19
Nsg91
S'bool'
p200
sg16
Nsbag1
(g85
g3
NtRp201
(dp202
g88
Nsg89
Nsg53
S'hasExternalDisplay'
p203
sg15
Nsg19
Nsg91
S'bool'
p204
sg16
Nsbag1
(g85
g3
NtRp205
(dp206
g88
Nsg89
Nsg53
S'canPresent'
p207
sg15
Nsg19
Nsg91
S'bool'
p208
sg16
Nsbag1
(g85
g3
NtRp209
(dp210
g88
Nsg89
Nsg53
S'can_provide_pass_through_images'
p211
sg15
Nsg19
Nsg91
S'bool'
p212
sg16
Nsbasg16
Nsg19
Nsbsg15
Nsg16
Nsg53
S'VRDisplayCapabilities'
p213
sg19
Nsbag1
(g77
g3
NtRp214
(dp215
g80
g1
(g81
g3
NtRp216
(dp217
g10
(lp218
g1
(g85
g3
NtRp219
(dp220
g88
Nsg89
Nsg53
S'fieldOfView'
p221
sg15
Nsg19
Nsg91
S'VRFieldOfView'
p222
sg16
Nsbag1
(g85
g3
NtRp223
(dp224
g88
Nsg89
Nsg53
S'offset'
p225
sg15
Nsg19
Nsg91
S'float[3]'
p226
sg16
Nsbag1
(g85
g3
NtRp227
(dp228
g88
Nsg89
Nsg53
S'renderWidth'
p229
sg15
Nsg19
Nsg91
S'uint32'
p230
sg16
Nsbag1
(g85
g3
NtRp231
(dp232
g88
Nsg89
Nsg53
S'renderHeight'
p233
sg15
Nsg19
Nsg91
S'uint32'
p234
sg16
Nsbasg16
Nsg19
Nsbsg15
Nsg16
Nsg53
S'VREyeParameters'
p235
sg19
Nsbag1
(g77
g3
NtRp236
(dp237
g80
g1
(g81
g3
NtRp238
(dp239
g10
(lp240
g1
(g85
g3
NtRp241
(dp242
g88
Nsg89
Nsg53
S'standingTransform'
p243
sg15
Nsg19
Nsg91
S'float[16]'
p244
sg16
Nsbag1
(g85
g3
NtRp245
(dp246
g88
Nsg89
Nsg53
S'sizeX'
p247
sg15
Nsg19
Nsg91
S'float'
p248
sg16
Nsbag1
(g85
g3
NtRp249
(dp250
g88
Nsg89
Nsg53
S'sizeZ'
p251
sg15
Nsg19
Nsg91
S'float'
p252
sg16
Nsbasg16
Nsg19
Nsbsg15
Nsg16
Nsg53
S'VRStageParameters'
p253
sg19
Nsbag1
(g77
g3
NtRp254
(dp255
g80
g1
(g81
g3
NtRp256
(dp257
g10
(lp258
g1
(g85
g3
NtRp259
(dp260
g88
Nsg89
Nsg53
S'index'
p261
sg15
Nsg19
Nsg91
S'uint32'
p262
sg16
Nsbag1
(g85
g3
NtRp263
(dp264
g88
Nsg89
Nsg53
S'displayName'
p265
sg15
Nsg19
Nsg91
S'string'
p266
sg16
Nsbag1
(g85
g3
NtRp267
(dp268
g88
Nsg89
Nsg53
S'capabilities'
p269
sg15
Nsg19
Nsg91
S'VRDisplayCapabilities'
p270
sg16
Nsbag1
(g85
g3
NtRp271
(dp272
g88
Nsg89
Nsg53
S'stageParameters'
p273
sg15
Nsg19
Nsg91
S'VRStageParameters?'
p274
sg16
Nsbag1
(g85
g3
NtRp275
(dp276
g88
Nsg89
Nsg53
S'leftEye'
p277
sg15
Nsg19
Nsg91
S'VREyeParameters?'
p278
sg16
Nsbag1
(g85
g3
NtRp279
(dp280
g88
Nsg89
Nsg53
S'rightEye'
p281
sg15
Nsg19
Nsg91
S'VREyeParameters?'
p282
sg16
Nsbag1
(g85
g3
NtRp283
(dp284
g88
Nsg89
S'1.0'
p285
sg53
S'webvr_default_framebuffer_scale'
p286
sg15
Nsg19
Nsg91
S'float'
p287
sg16
Nsbag1
(g85
g3
NtRp288
(dp289
g88
Nsg89
S'1.0'
p290
sg53
S'webxr_default_framebuffer_scale'
p291
sg15
Nsg19
Nsg91
S'float'
p292
sg16
Nsbasg16
Nsg19
Nsbsg15
Nsg16
Nsg53
S'VRDisplayInfo'
p293
sg19
Nsbag1
(g77
g3
NtRp294
(dp295
g80
g1
(g81
g3
NtRp296
(dp297
g10
(lp298
g1
(g85
g3
NtRp299
(dp300
g88
Nsg89
Nsg53
S'preserve_drawing_buffer'
p301
sg15
Nsg19
Nsg91
S'bool'
p302
sg16
Nsbag1
(g85
g3
NtRp303
(dp304
g88
Nsg89
Nsg53
S'webxr_input'
p305
sg15
Nsg19
Nsg91
S'bool'
p306
sg16
Nsbag1
(g85
g3
NtRp307
(dp308
g88
Nsg89
Nsg53
S'shared_buffer_draw_supported'
p309
sg15
Nsg19
Nsg91
S'bool'
p310
sg16
Nsbasg16
Nsg19
Nsbsg15
Nsg16
Nsg53
S'VRRequestPresentOptions'
p311
sg19
Nsbag1
(g41
g3
NtRp312
(dp313
g15
Nsg44
g1
(g45
g3
NtRp314
(dp315
g10
(lp316
g1
(g49
g3
NtRp317
(dp318
g15
Nsg52
S'0'
sg16
I151
sg53
S'NONE'
p319
sg19
g20
sbag1
(g49
g3
NtRp320
(dp321
g15
Nsg52
S'1'
sg16
I156
sg53
S'SUBMIT_AS_TEXTURE_HANDLE'
p322
sg19
g20
sbag1
(g49
g3
NtRp323
(dp324
g15
Nsg52
S'2'
sg16
I157
sg53
S'SUBMIT_AS_MAILBOX_HOLDER'
p325
sg19
g20
sbag1
(g49
g3
NtRp326
(dp327
g15
Nsg52
S'3'
sg16
I161
sg53
S'DRAW_INTO_TEXTURE_MAILBOX'
p328
sg19
g20
sbasg16
I151
sg19
g20
sbsg16
I150
sg53
S'VRDisplayFrameTransportMethod'
p329
sg19
g20
sbag1
(g77
g3
NtRp330
(dp331
g80
g1
(g81
g3
NtRp332
(dp333
g10
(lp334
g1
(g85
g3
NtRp335
(dp336
g88
Nsg89
Nsg53
S'transport_method'
p337
sg15
Nsg19
Nsg91
S'VRDisplayFrameTransportMethod'
p338
sg16
Nsbag1
(g85
g3
NtRp339
(dp340
g88
Nsg89
Nsg53
S'wait_for_transfer_notification'
p341
sg15
Nsg19
Nsg91
S'bool'
p342
sg16
Nsbag1
(g85
g3
NtRp343
(dp344
g88
Nsg89
Nsg53
S'wait_for_render_notification'
p345
sg15
Nsg19
Nsg91
S'bool'
p346
sg16
Nsbag1
(g85
g3
NtRp347
(dp348
g88
Nsg89
Nsg53
S'wait_for_gpu_fence'
p349
sg15
Nsg19
Nsg91
S'bool'
p350
sg16
Nsbasg16
Nsg19
Nsbsg15
Nsg16
Nsg53
S'VRDisplayFrameTransportOptions'
p351
sg19
Nsbag1
(g77
g3
NtRp352
(dp353
g80
g1
(g81
g3
NtRp354
(dp355
g10
(lp356
g1
(g85
g3
NtRp357
(dp358
g88
Nsg89
Nsg53
S'pose'
p359
sg15
Nsg19
Nsg91
S'VRPose'
p360
sg16
Nsbag1
(g85
g3
NtRp361
(dp362
g88
Nsg89
Nsg53
S'buffer_holder'
p363
sg15
Nsg19
Nsg91
S'gpu.mojom.MailboxHolder'
p364
sg16
Nsbag1
(g85
g3
NtRp365
(dp366
g88
Nsg89
Nsg53
S'buffer_size'
p367
sg15
Nsg19
Nsg91
S'gfx.mojom.Size'
p368
sg16
Nsbag1
(g85
g3
NtRp369
(dp370
g88
Nsg89
Nsg53
S'time_delta'
p371
sg15
Nsg19
Nsg91
S'mojo_base.mojom.TimeDelta'
p372
sg16
Nsbag1
(g85
g3
NtRp373
(dp374
g88
Nsg89
Nsg53
S'projection_matrix'
p375
sg15
Nsg19
Nsg91
S'float[16]'
p376
sg16
Nsbasg16
Nsg19
Nsbsg15
Nsg16
Nsg53
S'VRMagicWindowFrameData'
p377
sg19
Nsbag1
(g41
g3
NtRp378
(dp379
g15
Nsg44
g1
(g45
g3
NtRp380
(dp381
g10
(lp382
g1
(g49
g3
NtRp383
(dp384
g15
Nsg52
S'0'
sg16
I192
sg53
S'NONE'
p385
sg19
g20
sbag1
(g49
g3
NtRp386
(dp387
g15
Nsg52
S'1'
sg16
I193
sg53
S'NAVIGATION'
p388
sg19
g20
sbag1
(g49
g3
NtRp389
(dp390
g15
Nsg52
S'2'
sg16
I194
sg53
S'MOUNTED'
p391
sg19
g20
sbag1
(g49
g3
NtRp392
(dp393
g15
Nsg52
S'3'
sg16
I195
sg53
S'UNMOUNTED'
p394
sg19
g20
sbasg16
I192
sg19
g20
sbsg16
I191
sg53
S'VRDisplayEventReason'
p395
sg19
g20
sbag1
(cmojom.parse.ast
Interface
p396
g3
NtRp397
(dp398
g80
g1
(cmojom.parse.ast
InterfaceBody
p399
g3
NtRp400
(dp401
g10
(lp402
g1
(cmojom.parse.ast
Method
p403
g3
NtRp404
(dp405
g88
Nsg53
S'SetClient'
p406
sS'parameter_list'
p407
g1
(cmojom.parse.ast
ParameterList
p408
g3
NtRp409
(dp410
g10
(lp411
g1
(cmojom.parse.ast
Parameter
p412
g3
NtRp413
(dp414
g88
Nsg53
S'client'
p415
sg15
Nsg19
g20
sg91
S'VRServiceClient'
p416
sg16
I204
sbasg16
I204
sg19
g20
sbsg15
Nsg19
Nsg16
NsS'response_parameter_list'
p417
g1
(g408
g3
NtRp418
(dp419
g10
(lp420
sg16
Nsg19
Nsbsbag1
(g403
g3
NtRp421
(dp422
g88
Nsg53
S'SetListeningForActivate'
p423
sg407
g1
(g408
g3
NtRp424
(dp425
g10
(lp426
g1
(g412
g3
NtRp427
(dp428
g88
Nsg53
S'listening'
p429
sg15
Nsg19
g20
sg91
S'bool'
p430
sg16
I207
sbasg16
I207
sg19
g20
sbsg15
Nsg19
Nsg16
Nsg417
Nsbasg16
Nsg19
Nsbsg15
Nsg16
Nsg53
S'VRService'
p431
sg19
Nsbag1
(g396
g3
NtRp432
(dp433
g80
g1
(g399
g3
NtRp434
(dp435
g10
(lp436
g1
(g403
g3
NtRp437
(dp438
g88
Nsg53
S'OnDisplayConnected'
p439
sg407
g1
(g408
g3
NtRp440
(dp441
g10
(lp442
g1
(g412
g3
NtRp443
(dp444
g88
Nsg53
S'magic_window_provider'
p445
sg15
Nsg19
g20
sg91
S'VRMagicWindowProvider'
p446
sg16
I211
sbag1
(g412
g3
NtRp447
(dp448
g88
Nsg53
S'display'
p449
sg15
Nsg19
g20
sg91
S'VRDisplayHost'
p450
sg16
I212
sbag1
(g412
g3
NtRp451
(dp452
g88
Nsg53
S'request'
p453
sg15
Nsg19
g20
sg91
S'VRDisplayClient&'
p454
sg16
I212
sbag1
(g412
g3
NtRp455
(dp456
g88
Nsg53
S'display_info'
p457
sg15
Nsg19
g20
sg91
S'VRDisplayInfo'
p458
sg16
I213
sbasg16
I211
sg19
g20
sbsg15
Nsg19
Nsg16
Nsg417
Nsbasg16
Nsg19
Nsbsg15
Nsg16
Nsg53
S'VRServiceClient'
p459
sg19
Nsbag1
(g396
g3
NtRp460
(dp461
g80
g1
(g399
g3
NtRp462
(dp463
g10
(lp464
g1
(g403
g3
NtRp465
(dp466
g88
Nsg53
S'OnSubmitFrameTransferred'
p467
sg407
g1
(g408
g3
NtRp468
(dp469
g10
(lp470
g1
(g412
g3
NtRp471
(dp472
g88
Nsg53
S'success'
p473
sg15
Nsg19
g20
sg91
S'bool'
p474
sg16
I234
sbasg16
I234
sg19
g20
sbsg15
Nsg19
Nsg16
Nsg417
Nsbag1
(g403
g3
NtRp475
(dp476
g88
Nsg53
S'OnSubmitFrameRendered'
p477
sg407
g1
(g408
g3
NtRp478
(dp479
g10
(lp480
sg16
Nsg19
Nsbsg15
Nsg19
Nsg16
Nsg417
Nsbag1
(g403
g3
NtRp481
(dp482
g88
Nsg53
S'OnSubmitFrameGpuFence'
p483
sg407
g1
(g408
g3
NtRp484
(dp485
g10
(lp486
g1
(g412
g3
NtRp487
(dp488
g88
Nsg53
S'gpu_fence_handle'
p489
sg15
Nsg19
g20
sg91
S'gfx.mojom.GpuFenceHandle'
p490
sg16
I246
sbasg16
I246
sg19
g20
sbsg15
Nsg19
Nsg16
Nsg417
Nsbasg16
Nsg19
Nsbsg15
Nsg16
Nsg53
S'VRSubmitFrameClient'
p491
sg19
Nsbag1
(g396
g3
NtRp492
(dp493
g80
g1
(g399
g3
NtRp494
(dp495
g10
(lp496
g1
(g403
g3
NtRp497
(dp498
g88
Nsg53
S'RequestPresent'
p499
sg407
g1
(g408
g3
NtRp500
(dp501
g10
(lp502
g1
(g412
g3
NtRp503
(dp504
g88
Nsg53
S'client'
p505
sg15
Nsg19
g20
sg91
S'VRSubmitFrameClient'
p506
sg16
I255
sbag1
(g412
g3
NtRp507
(dp508
g88
Nsg53
S'request'
p509
sg15
Nsg19
g20
sg91
S'VRPresentationProvider&'
p510
sg16
I256
sbag1
(g412
g3
NtRp511
(dp512
g88
Nsg53
S'options'
p513
sg15
Nsg19
g20
sg91
S'VRRequestPresentOptions'
p514
sg16
I257
sbag1
(g412
g3
NtRp515
(dp516
g88
Nsg53
S'triggered_by_displayactive'
p517
sg15
Nsg19
g20
sg91
S'bool'
p518
sg16
I258
sbasg16
I255
sg19
g20
sbsg15
Nsg19
Nsg16
Nsg417
g1
(g408
g3
NtRp519
(dp520
g10
(lp521
g1
(g412
g3
NtRp522
(dp523
g88
Nsg53
S'success'
p524
sg15
Nsg19
g20
sg91
S'bool'
p525
sg16
I259
sbag1
(g412
g3
NtRp526
(dp527
g88
Nsg53
S'transport_options'
p528
sg15
Nsg19
g20
sg91
S'VRDisplayFrameTransportOptions?'
p529
sg16
I260
sbasg16
I259
sg19
g20
sbsbag1
(g403
g3
NtRp530
(dp531
g88
Nsg53
S'ExitPresent'
p532
sg407
g1
(g408
g3
NtRp533
(dp534
g10
(lp535
sg16
Nsg19
Nsbsg15
Nsg19
Nsg16
Nsg417
Nsbasg16
Nsg19
Nsbsg15
Nsg16
Nsg53
S'VRDisplayHost'
p536
sg19
Nsbag1
(g396
g3
NtRp537
(dp538
g80
g1
(g399
g3
NtRp539
(dp540
g10
(lp541
g1
(g403
g3
NtRp542
(dp543
g88
Nsg53
S'GetPose'
p544
sg407
g1
(g408
g3
NtRp545
(dp546
g10
(lp547
sg16
Nsg19
Nsbsg15
Nsg19
Nsg16
Nsg417
g1
(g408
g3
NtRp548
(dp549
g10
(lp550
g1
(g412
g3
NtRp551
(dp552
g88
Nsg53
S'pose'
p553
sg15
Nsg19
g20
sg91
S'VRPose?'
p554
sg16
I273
sbasg16
I273
sg19
g20
sbsbag1
(g403
g3
NtRp555
(dp556
g88
Nsg53
S'GetFrameData'
p557
sg407
g1
(g408
g3
NtRp558
(dp559
g10
(lp560
g1
(g412
g3
NtRp561
(dp562
g88
Nsg53
S'frame_size'
p563
sg15
Nsg19
g20
sg91
S'gfx.mojom.Size'
p564
sg16
I279
sbag1
(g412
g3
NtRp565
(dp566
g88
Nsg53
S'display_rotation'
p567
sg15
Nsg19
g20
sg91
S'display.mojom.Rotation'
p568
sg16
I280
sbasg16
I279
sg19
g20
sbsg15
Nsg19
Nsg16
Nsg417
g1
(g408
g3
NtRp569
(dp570
g10
(lp571
g1
(g412
g3
NtRp572
(dp573
g88
Nsg53
S'frame_data'
p574
sg15
Nsg19
g20
sg91
S'VRMagicWindowFrameData?'
p575
sg16
I281
sbasg16
I281
sg19
g20
sbsbasg16
Nsg19
Nsbsg15
Nsg16
Nsg53
S'VRMagicWindowProvider'
p576
sg19
Nsbag1
(g396
g3
NtRp577
(dp578
g80
g1
(g399
g3
NtRp579
(dp580
g10
(lp581
g1
(g41
g3
NtRp582
(dp583
g15
Nsg44
g1
(g45
g3
NtRp584
(dp585
g10
(lp586
g1
(g49
g3
NtRp587
(dp588
g15
Nsg52
Nsg16
I289
sg53
S'SUCCESS'
p589
sg19
g20
sbag1
(g49
g3
NtRp590
(dp591
g15
Nsg52
Nsg16
I289
sg53
S'CLOSING'
p592
sg19
g20
sbasg16
I289
sg19
g20
sbsg16
I289
sg53
S'VSyncStatus'
p593
sg19
g20
sbag1
(g403
g3
NtRp594
(dp595
g88
Nsg53
S'GetVSync'
p596
sg407
g1
(g408
g3
NtRp597
(dp598
g10
(lp599
sg16
Nsg19
Nsbsg15
Nsg19
Nsg16
Nsg417
g1
(g408
g3
NtRp600
(dp601
g10
(lp602
g1
(g412
g3
NtRp603
(dp604
g88
Nsg53
S'pose'
p605
sg15
Nsg19
g20
sg91
S'VRPose?'
p606
sg16
I294
sbag1
(g412
g3
NtRp607
(dp608
g88
Nsg53
S'time'
p609
sg15
Nsg19
g20
sg91
S'mojo_base.mojom.TimeDelta'
p610
sg16
I294
sbag1
(g412
g3
NtRp611
(dp612
g88
Nsg53
S'frame_id'
p613
sg15
Nsg19
g20
sg91
S'int16'
p614
sg16
I294
sbag1
(g412
g3
NtRp615
(dp616
g88
Nsg53
S'status'
p617
sg15
Nsg19
g20
sg91
S'VSyncStatus'
p618
sg16
I295
sbag1
(g412
g3
NtRp619
(dp620
g88
Nsg53
S'buffer_holder'
p621
sg15
Nsg19
g20
sg91
S'gpu.mojom.MailboxHolder?'
p622
sg16
I295
sbasg16
I294
sg19
g20
sbsbag1
(g403
g3
NtRp623
(dp624
g88
Nsg53
S'UpdateLayerBounds'
p625
sg407
g1
(g408
g3
NtRp626
(dp627
g10
(lp628
g1
(g412
g3
NtRp629
(dp630
g88
Nsg53
S'frame_id'
p631
sg15
Nsg19
g20
sg91
S'int16'
p632
sg16
I297
sbag1
(g412
g3
NtRp633
(dp634
g88
Nsg53
S'left_bounds'
p635
sg15
Nsg19
g20
sg91
S'gfx.mojom.RectF'
p636
sg16
I297
sbag1
(g412
g3
NtRp637
(dp638
g88
Nsg53
S'right_bounds'
p639
sg15
Nsg19
g20
sg91
S'gfx.mojom.RectF'
p640
sg16
I298
sbag1
(g412
g3
NtRp641
(dp642
g88
Nsg53
S'source_size'
p643
sg15
Nsg19
g20
sg91
S'gfx.mojom.Size'
p644
sg16
I298
sbasg16
I297
sg19
g20
sbsg15
Nsg19
Nsg16
Nsg417
Nsbag1
(g403
g3
NtRp645
(dp646
g88
Nsg53
S'SubmitFrameMissing'
p647
sg407
g1
(g408
g3
NtRp648
(dp649
g10
(lp650
g1
(g412
g3
NtRp651
(dp652
g88
Nsg53
S'frame_id'
p653
sg15
Nsg19
g20
sg91
S'int16'
p654
sg16
I308
sbag1
(g412
g3
NtRp655
(dp656
g88
Nsg53
S'sync_token'
p657
sg15
Nsg19
g20
sg91
S'gpu.mojom.SyncToken'
p658
sg16
I308
sbasg16
I308
sg19
g20
sbsg15
Nsg19
Nsg16
Nsg417
Nsbag1
(g403
g3
NtRp659
(dp660
g88
Nsg53
S'SubmitFrame'
p661
sg407
g1
(g408
g3
NtRp662
(dp663
g10
(lp664
g1
(g412
g3
NtRp665
(dp666
g88
Nsg53
S'frame_id'
p667
sg15
Nsg19
g20
sg91
S'int16'
p668
sg16
I311
sbag1
(g412
g3
NtRp669
(dp670
g88
Nsg53
S'mailbox_holder'
p671
sg15
Nsg19
g20
sg91
S'gpu.mojom.MailboxHolder'
p672
sg16
I311
sbag1
(g412
g3
NtRp673
(dp674
g88
Nsg53
S'time_waited'
p675
sg15
Nsg19
g20
sg91
S'mojo_base.mojom.TimeDelta'
p676
sg16
I312
sbasg16
I311
sg19
g20
sbsg15
Nsg19
Nsg16
Nsg417
Nsbag1
(g403
g3
NtRp677
(dp678
g88
Nsg53
S'SubmitFrameWithTextureHandle'
p679
sg407
g1
(g408
g3
NtRp680
(dp681
g10
(lp682
g1
(g412
g3
NtRp683
(dp684
g88
Nsg53
S'frameId'
p685
sg15
Nsg19
g20
sg91
S'int16'
p686
sg16
I317
sbag1
(g412
g3
NtRp687
(dp688
g88
Nsg53
S'texture'
p689
sg15
Nsg19
g20
sg91
S'handle'
p690
sg16
I317
sbasg16
I317
sg19
g20
sbsg15
Nsg19
Nsg16
Nsg417
Nsbag1
(g403
g3
NtRp691
(dp692
g88
Nsg53
S'SubmitFrameDrawnIntoTexture'
p693
sg407
g1
(g408
g3
NtRp694
(dp695
g10
(lp696
g1
(g412
g3
NtRp697
(dp698
g88
Nsg53
S'frameId'
p699
sg15
Nsg19
g20
sg91
S'int16'
p700
sg16
I320
sbag1
(g412
g3
NtRp701
(dp702
g88
Nsg53
S'sync_token'
p703
sg15
Nsg19
g20
sg91
S'gpu.mojom.SyncToken'
p704
sg16
I320
sbag1
(g412
g3
NtRp705
(dp706
g88
Nsg53
S'time_waited'
p707
sg15
Nsg19
g20
sg91
S'mojo_base.mojom.TimeDelta'
p708
sg16
I321
sbasg16
I320
sg19
g20
sbsg15
Nsg19
Nsg16
Nsg417
Nsbasg16
I289
sg19
g20
sbsg15
Nsg16
Nsg53
S'VRPresentationProvider'
p709
sg19
Nsbag1
(g396
g3
NtRp710
(dp711
g80
g1
(g399
g3
NtRp712
(dp713
g10
(lp714
g1
(g403
g3
NtRp715
(dp716
g88
Nsg53
S'OnChanged'
p717
sg407
g1
(g408
g3
NtRp718
(dp719
g10
(lp720
g1
(g412
g3
NtRp721
(dp722
g88
Nsg53
S'display'
p723
sg15
Nsg19
g20
sg91
S'VRDisplayInfo'
p724
sg16
I325
sbasg16
I325
sg19
g20
sbsg15
Nsg19
Nsg16
Nsg417
Nsbag1
(g403
g3
NtRp725
(dp726
g88
Nsg53
S'OnExitPresent'
p727
sg407
g1
(g408
g3
NtRp728
(dp729
g10
(lp730
sg16
Nsg19
Nsbsg15
Nsg19
Nsg16
Nsg417
Nsbag1
(g403
g3
NtRp731
(dp732
g88
Nsg53
S'OnBlur'
p733
sg407
g1
(g408
g3
NtRp734
(dp735
g10
(lp736
sg16
Nsg19
Nsbsg15
Nsg19
Nsg16
Nsg417
Nsbag1
(g403
g3
NtRp737
(dp738
g88
Nsg53
S'OnFocus'
p739
sg407
g1
(g408
g3
NtRp740
(dp741
g10
(lp742
sg16
Nsg19
Nsbsg15
Nsg19
Nsg16
Nsg417
Nsbag1
(g403
g3
NtRp743
(dp744
g88
Nsg53
S'OnActivate'
p745
sg407
g1
(g408
g3
NtRp746
(dp747
g10
(lp748
g1
(g412
g3
NtRp749
(dp750
g88
Nsg53
S'reason'
p751
sg15
Nsg19
g20
sg91
S'VRDisplayEventReason'
p752
sg16
I329
sbasg16
I329
sg19
g20
sbsg15
Nsg19
Nsg16
Nsg417
g1
(g408
g3
NtRp753
(dp754
g10
(lp755
g1
(g412
g3
NtRp756
(dp757
g88
Nsg53
S'will_not_present'
p758
sg15
Nsg19
g20
sg91
S'bool'
p759
sg16
I329
sbasg16
I329
sg19
g20
sbsbag1
(g403
g3
NtRp760
(dp761
g88
Nsg53
S'OnDeactivate'
p762
sg407
g1
(g408
g3
NtRp763
(dp764
g10
(lp765
g1
(g412
g3
NtRp766
(dp767
g88
Nsg53
S'reason'
p768
sg15
Nsg19
g20
sg91
S'VRDisplayEventReason'
p769
sg16
I330
sbasg16
I330
sg19
g20
sbsg15
Nsg19
Nsg16
Nsg417
Nsbasg16
Nsg19
Nsbsg15
Nsg16
Nsg53
S'VRDisplayClient'
p770
sg19
Nsbasg16
NsS'module'
p771
g1
(cmojom.parse.ast
Module
p772
g3
NtRp773
(dp774
S'mojom_namespace'
p775
(S'IDENTIFIER'
p776
S'device.mojom'
tp777
sg16
I5
sg15
Nsg19
g20
sbsg19
Nsb.