ccopy_reg
_reconstructor
p1
(cmojom.parse.ast
Mojom
p2
c__builtin__
object
p3
NtRp4
(dp5
S'import_list'
p6
g1
(cmojom.parse.ast
ImportList
p7
g3
NtRp8
(dp9
S'items'
p10
(lp11
g1
(cmojom.parse.ast
Import
p12
g3
NtRp13
(dp14
S'attribute_list'
p15
NsS'lineno'
p16
I7
sS'import_filename'
p17
S'content/public/common/appcache_info.mojom'
p18
sS'filename'
p19
S'../../content/common/appcache.mojom'
p20
sbag1
(g12
g3
NtRp21
(dp22
g15
Nsg16
I8
sg17
S'url/mojom/url.mojom'
p23
sg19
g20
sbag1
(g12
g3
NtRp24
(dp25
g15
Nsg16
I9
sg17
S'services/network/public/mojom/url_loader_factory.mojom'
p26
sg19
g20
sbasg16
I7
sg19
g20
sbsS'definition_list'
p27
(lp28
g1
(cmojom.parse.ast
Enum
p29
g3
NtRp30
(dp31
g15
NsS'enum_value_list'
p32
g1
(cmojom.parse.ast
EnumValueList
p33
g3
NtRp34
(dp35
g10
(lp36
g1
(cmojom.parse.ast
EnumValue
p37
g3
NtRp38
(dp39
g15
NsS'value'
p40
Nsg16
I12
sS'mojom_name'
p41
S'APPCACHE_CHECKING_EVENT'
p42
sg19
g20
sbag1
(g37
g3
NtRp43
(dp44
g15
Nsg40
Nsg16
I13
sg41
S'APPCACHE_ERROR_EVENT'
p45
sg19
g20
sbag1
(g37
g3
NtRp46
(dp47
g15
Nsg40
Nsg16
I14
sg41
S'APPCACHE_NO_UPDATE_EVENT'
p48
sg19
g20
sbag1
(g37
g3
NtRp49
(dp50
g15
Nsg40
Nsg16
I15
sg41
S'APPCACHE_DOWNLOADING_EVENT'
p51
sg19
g20
sbag1
(g37
g3
NtRp52
(dp53
g15
Nsg40
Nsg16
I16
sg41
S'APPCACHE_PROGRESS_EVENT'
p54
sg19
g20
sbag1
(g37
g3
NtRp55
(dp56
g15
Nsg40
Nsg16
I17
sg41
S'APPCACHE_UPDATE_READY_EVENT'
p57
sg19
g20
sbag1
(g37
g3
NtRp58
(dp59
g15
Nsg40
Nsg16
I18
sg41
S'APPCACHE_CACHED_EVENT'
p60
sg19
g20
sbag1
(g37
g3
NtRp61
(dp62
g15
Nsg40
Nsg16
I19
sg41
S'APPCACHE_OBSOLETE_EVENT'
p63
sg19
g20
sbasg16
I12
sg19
g20
sbsg16
I11
sg41
S'AppCacheEventID'
p64
sg19
g20
sbag1
(g29
g3
NtRp65
(dp66
g15
Nsg32
g1
(g33
g3
NtRp67
(dp68
g10
(lp69
g1
(g37
g3
NtRp70
(dp71
g15
Nsg40
Nsg16
I23
sg41
S'APPCACHE_MANIFEST_ERROR'
p72
sg19
g20
sbag1
(g37
g3
NtRp73
(dp74
g15
Nsg40
Nsg16
I24
sg41
S'APPCACHE_SIGNATURE_ERROR'
p75
sg19
g20
sbag1
(g37
g3
NtRp76
(dp77
g15
Nsg40
Nsg16
I25
sg41
S'APPCACHE_RESOURCE_ERROR'
p78
sg19
g20
sbag1
(g37
g3
NtRp79
(dp80
g15
Nsg40
Nsg16
I26
sg41
S'APPCACHE_CHANGED_ERROR'
p81
sg19
g20
sbag1
(g37
g3
NtRp82
(dp83
g15
Nsg40
Nsg16
I27
sg41
S'APPCACHE_ABORT_ERROR'
p84
sg19
g20
sbag1
(g37
g3
NtRp85
(dp86
g15
Nsg40
Nsg16
I28
sg41
S'APPCACHE_QUOTA_ERROR'
p87
sg19
g20
sbag1
(g37
g3
NtRp88
(dp89
g15
Nsg40
Nsg16
I29
sg41
S'APPCACHE_POLICY_ERROR'
p90
sg19
g20
sbag1
(g37
g3
NtRp91
(dp92
g15
Nsg40
Nsg16
I30
sg41
S'APPCACHE_UNKNOWN_ERROR'
p93
sg19
g20
sbasg16
I23
sg19
g20
sbsg16
I22
sg41
S'AppCacheErrorReason'
p94
sg19
g20
sbag1
(cmojom.parse.ast
Struct
p95
g3
NtRp96
(dp97
S'body'
p98
g1
(cmojom.parse.ast
StructBody
p99
g3
NtRp100
(dp101
g10
(lp102
g1
(cmojom.parse.ast
StructField
p103
g3
NtRp104
(dp105
S'ordinal'
p106
NsS'default_value'
p107
Nsg41
S'url'
p108
sg15
Nsg19
NsS'typename'
p109
S'url.mojom.Url'
p110
sg16
Nsbag1
(g103
g3
NtRp111
(dp112
g106
Nsg107
Nsg41
S'size'
p113
sg15
Nsg19
Nsg109
S'int64'
p114
sg16
Nsbag1
(g103
g3
NtRp115
(dp116
g106
Nsg107
Nsg41
S'is_master'
p117
sg15
Nsg19
Nsg109
S'bool'
p118
sg16
Nsbag1
(g103
g3
NtRp119
(dp120
g106
Nsg107
Nsg41
S'is_manifest'
p121
sg15
Nsg19
Nsg109
S'bool'
p122
sg16
Nsbag1
(g103
g3
NtRp123
(dp124
g106
Nsg107
Nsg41
S'is_intercept'
p125
sg15
Nsg19
Nsg109
S'bool'
p126
sg16
Nsbag1
(g103
g3
NtRp127
(dp128
g106
Nsg107
Nsg41
S'is_fallback'
p129
sg15
Nsg19
Nsg109
S'bool'
p130
sg16
Nsbag1
(g103
g3
NtRp131
(dp132
g106
Nsg107
Nsg41
S'is_foreign'
p133
sg15
Nsg19
Nsg109
S'bool'
p134
sg16
Nsbag1
(g103
g3
NtRp135
(dp136
g106
Nsg107
Nsg41
S'is_explicit'
p137
sg15
Nsg19
Nsg109
S'bool'
p138
sg16
Nsbag1
(g103
g3
NtRp139
(dp140
g106
Nsg107
Nsg41
S'response_id'
p141
sg15
Nsg19
Nsg109
S'int64'
p142
sg16
Nsbasg16
Nsg19
Nsbsg15
Nsg16
Nsg41
S'AppCacheResourceInfo'
p143
sg19
Nsbag1
(g95
g3
NtRp144
(dp145
g98
g1
(g99
g3
NtRp146
(dp147
g10
(lp148
g1
(g103
g3
NtRp149
(dp150
g106
Nsg107
Nsg41
S'message'
p151
sg15
Nsg19
Nsg109
S'string'
p152
sg16
Nsbag1
(g103
g3
NtRp153
(dp154
g106
Nsg107
(S'IDENTIFIER'
p155
S'APPCACHE_UNKNOWN_ERROR'
tp156
sg41
S'reason'
p157
sg15
Nsg19
Nsg109
S'AppCacheErrorReason'
p158
sg16
Nsbag1
(g103
g3
NtRp159
(dp160
g106
Nsg107
Nsg41
S'url'
p161
sg15
Nsg19
Nsg109
S'url.mojom.Url'
p162
sg16
Nsbag1
(g103
g3
NtRp163
(dp164
g106
Nsg107
Nsg41
S'status'
p165
sg15
Nsg19
Nsg109
S'int32'
p166
sg16
Nsbag1
(g103
g3
NtRp167
(dp168
g106
Nsg107
Nsg41
S'is_cross_origin'
p169
sg15
Nsg19
Nsg109
S'bool'
p170
sg16
Nsbasg16
Nsg19
Nsbsg15
Nsg16
Nsg41
S'AppCacheErrorDetails'
p171
sg19
Nsbag1
(cmojom.parse.ast
Interface
p172
g3
NtRp173
(dp174
g98
g1
(cmojom.parse.ast
InterfaceBody
p175
g3
NtRp176
(dp177
g10
(lp178
g1
(cmojom.parse.ast
Method
p179
g3
NtRp180
(dp181
g106
Nsg41
S'RegisterHost'
p182
sS'parameter_list'
p183
g1
(cmojom.parse.ast
ParameterList
p184
g3
NtRp185
(dp186
g10
(lp187
g1
(cmojom.parse.ast
Parameter
p188
g3
NtRp189
(dp190
g106
Nsg41
S'host_id'
p191
sg15
Nsg19
g20
sg109
S'int32'
p192
sg16
I57
sbasg16
I57
sg19
g20
sbsg15
Nsg19
Nsg16
NsS'response_parameter_list'
p193
Nsbag1
(g179
g3
NtRp194
(dp195
g106
Nsg41
S'UnregisterHost'
p196
sg183
g1
(g184
g3
NtRp197
(dp198
g10
(lp199
g1
(g188
g3
NtRp200
(dp201
g106
Nsg41
S'host_id'
p202
sg15
Nsg19
g20
sg109
S'int32'
p203
sg16
I60
sbasg16
I60
sg19
g20
sbsg15
Nsg19
Nsg16
Nsg193
Nsbag1
(g179
g3
NtRp204
(dp205
g106
Nsg41
S'SetSpawningHostId'
p206
sg183
g1
(g184
g3
NtRp207
(dp208
g10
(lp209
g1
(g188
g3
NtRp210
(dp211
g106
Nsg41
S'host_id'
p212
sg15
Nsg19
g20
sg109
S'int32'
p213
sg16
I66
sbag1
(g188
g3
NtRp214
(dp215
g106
Nsg41
S'spawning_host_id'
p216
sg15
Nsg19
g20
sg109
S'int32'
p217
sg16
I66
sbasg16
I66
sg19
g20
sbsg15
Nsg19
Nsg16
Nsg193
Nsbag1
(g179
g3
NtRp218
(dp219
g106
Nsg41
S'SelectCache'
p220
sg183
g1
(g184
g3
NtRp221
(dp222
g10
(lp223
g1
(g188
g3
NtRp224
(dp225
g106
Nsg41
S'host_id'
p226
sg15
Nsg19
g20
sg109
S'int32'
p227
sg16
I76
sbag1
(g188
g3
NtRp228
(dp229
g106
Nsg41
S'document_url'
p230
sg15
Nsg19
g20
sg109
S'url.mojom.Url'
p231
sg16
I77
sbag1
(g188
g3
NtRp232
(dp233
g106
Nsg41
S'appcache_document_was_loaded_from'
p234
sg15
Nsg19
g20
sg109
S'int64'
p235
sg16
I78
sbag1
(g188
g3
NtRp236
(dp237
g106
Nsg41
S'opt_manifest_url'
p238
sg15
Nsg19
g20
sg109
S'url.mojom.Url'
p239
sg16
I79
sbasg16
I76
sg19
g20
sbsg15
Nsg19
Nsg16
Nsg193
Nsbag1
(g179
g3
NtRp240
(dp241
g106
Nsg41
S'SelectCacheForSharedWorker'
p242
sg183
g1
(g184
g3
NtRp243
(dp244
g10
(lp245
g1
(g188
g3
NtRp246
(dp247
g106
Nsg41
S'host_id'
p248
sg15
Nsg19
g20
sg109
S'int32'
p249
sg16
I82
sbag1
(g188
g3
NtRp250
(dp251
g106
Nsg41
S'appcache_id'
p252
sg15
Nsg19
g20
sg109
S'int64'
p253
sg16
I82
sbasg16
I82
sg19
g20
sbsg15
Nsg19
Nsg16
Nsg193
Nsbag1
(g179
g3
NtRp254
(dp255
g106
Nsg41
S'MarkAsForeignEntry'
p256
sg183
g1
(g184
g3
NtRp257
(dp258
g10
(lp259
g1
(g188
g3
NtRp260
(dp261
g106
Nsg41
S'host_id'
p262
sg15
Nsg19
g20
sg109
S'int32'
p263
sg16
I85
sbag1
(g188
g3
NtRp264
(dp265
g106
Nsg41
S'document_url'
p266
sg15
Nsg19
g20
sg109
S'url.mojom.Url'
p267
sg16
I86
sbag1
(g188
g3
NtRp268
(dp269
g106
Nsg41
S'appcache_document_was_loaded_from'
p270
sg15
Nsg19
g20
sg109
S'int64'
p271
sg16
I87
sbasg16
I85
sg19
g20
sbsg15
Nsg19
Nsg16
Nsg193
Nsbag1
(g179
g3
NtRp272
(dp273
g106
Nsg41
S'GetStatus'
p274
sg183
g1
(g184
g3
NtRp275
(dp276
g10
(lp277
g1
(g188
g3
NtRp278
(dp279
g106
Nsg41
S'host_id'
p280
sg15
Nsg19
g20
sg109
S'int32'
p281
sg16
I91
sbasg16
I91
sg19
g20
sbsg15
g1
(cmojom.parse.ast
AttributeList
p282
g3
NtRp283
(dp284
g10
(lp285
g1
(cmojom.parse.ast
Attribute
p286
g3
NtRp287
(dp288
g40
I01
sg16
I90
sS'key'
p289
S'Sync'
p290
sg19
g20
sbasg16
I90
sg19
g20
sbsg19
Nsg16
Nsg193
g1
(g184
g3
NtRp291
(dp292
g10
(lp293
g1
(g188
g3
NtRp294
(dp295
g106
Nsg41
S'status'
p296
sg15
Nsg19
g20
sg109
S'AppCacheStatus'
p297
sg16
I91
sbasg16
I91
sg19
g20
sbsbag1
(g179
g3
NtRp298
(dp299
g106
Nsg41
S'StartUpdate'
p300
sg183
g1
(g184
g3
NtRp301
(dp302
g10
(lp303
g1
(g188
g3
NtRp304
(dp305
g106
Nsg41
S'host_id'
p306
sg15
Nsg19
g20
sg109
S'int32'
p307
sg16
I95
sbasg16
I95
sg19
g20
sbsg15
g1
(g282
g3
NtRp308
(dp309
g10
(lp310
g1
(g286
g3
NtRp311
(dp312
g40
I01
sg16
I94
sg289
S'Sync'
p313
sg19
g20
sbasg16
I94
sg19
g20
sbsg19
Nsg16
Nsg193
g1
(g184
g3
NtRp314
(dp315
g10
(lp316
g1
(g188
g3
NtRp317
(dp318
g106
Nsg41
S'success'
p319
sg15
Nsg19
g20
sg109
S'bool'
p320
sg16
I95
sbasg16
I95
sg19
g20
sbsbag1
(g179
g3
NtRp321
(dp322
g106
Nsg41
S'SwapCache'
p323
sg183
g1
(g184
g3
NtRp324
(dp325
g10
(lp326
g1
(g188
g3
NtRp327
(dp328
g106
Nsg41
S'host_id'
p329
sg15
Nsg19
g20
sg109
S'int32'
p330
sg16
I99
sbasg16
I99
sg19
g20
sbsg15
g1
(g282
g3
NtRp331
(dp332
g10
(lp333
g1
(g286
g3
NtRp334
(dp335
g40
I01
sg16
I98
sg289
S'Sync'
p336
sg19
g20
sbasg16
I98
sg19
g20
sbsg19
Nsg16
Nsg193
g1
(g184
g3
NtRp337
(dp338
g10
(lp339
g1
(g188
g3
NtRp340
(dp341
g106
Nsg41
S'success'
p342
sg15
Nsg19
g20
sg109
S'bool'
p343
sg16
I99
sbasg16
I99
sg19
g20
sbsbag1
(g179
g3
NtRp344
(dp345
g106
Nsg41
S'GetResourceList'
p346
sg183
g1
(g184
g3
NtRp347
(dp348
g10
(lp349
g1
(g188
g3
NtRp350
(dp351
g106
Nsg41
S'host_id'
p352
sg15
Nsg19
g20
sg109
S'int32'
p353
sg16
I103
sbasg16
I103
sg19
g20
sbsg15
g1
(g282
g3
NtRp354
(dp355
g10
(lp356
g1
(g286
g3
NtRp357
(dp358
g40
I01
sg16
I102
sg289
S'Sync'
p359
sg19
g20
sbasg16
I102
sg19
g20
sbsg19
Nsg16
Nsg193
g1
(g184
g3
NtRp360
(dp361
g10
(lp362
g1
(g188
g3
NtRp363
(dp364
g106
Nsg41
S'resources'
p365
sg15
Nsg19
g20
sg109
S'AppCacheResourceInfo[]'
p366
sg16
I103
sbasg16
I103
sg19
g20
sbsbasg16
Nsg19
Nsbsg15
Nsg16
Nsg41
S'AppCacheBackend'
p367
sg19
Nsbag1
(g172
g3
NtRp368
(dp369
g98
g1
(g175
g3
NtRp370
(dp371
g10
(lp372
g1
(g179
g3
NtRp373
(dp374
g106
Nsg41
S'CacheSelected'
p375
sg183
g1
(g184
g3
NtRp376
(dp377
g10
(lp378
g1
(g188
g3
NtRp379
(dp380
g106
Nsg41
S'host_id'
p381
sg15
Nsg19
g20
sg109
S'int32'
p382
sg16
I110
sbag1
(g188
g3
NtRp383
(dp384
g106
Nsg41
S'info'
p385
sg15
Nsg19
g20
sg109
S'AppCacheInfo'
p386
sg16
I110
sbasg16
I110
sg19
g20
sbsg15
Nsg19
Nsg16
Nsg193
Nsbag1
(g179
g3
NtRp387
(dp388
g106
Nsg41
S'StatusChanged'
p389
sg183
g1
(g184
g3
NtRp390
(dp391
g10
(lp392
g1
(g188
g3
NtRp393
(dp394
g106
Nsg41
S'host_ids'
p395
sg15
Nsg19
g20
sg109
S'int32[]'
p396
sg16
I113
sbag1
(g188
g3
NtRp397
(dp398
g106
Nsg41
S'status'
p399
sg15
Nsg19
g20
sg109
S'AppCacheStatus'
p400
sg16
I113
sbasg16
I113
sg19
g20
sbsg15
Nsg19
Nsg16
Nsg193
Nsbag1
(g179
g3
NtRp401
(dp402
g106
Nsg41
S'EventRaised'
p403
sg183
g1
(g184
g3
NtRp404
(dp405
g10
(lp406
g1
(g188
g3
NtRp407
(dp408
g106
Nsg41
S'host_ids'
p409
sg15
Nsg19
g20
sg109
S'int32[]'
p410
sg16
I117
sbag1
(g188
g3
NtRp411
(dp412
g106
Nsg41
S'event_id'
p413
sg15
Nsg19
g20
sg109
S'AppCacheEventID'
p414
sg16
I117
sbasg16
I117
sg19
g20
sbsg15
Nsg19
Nsg16
Nsg193
Nsbag1
(g179
g3
NtRp415
(dp416
g106
Nsg41
S'ProgressEventRaised'
p417
sg183
g1
(g184
g3
NtRp418
(dp419
g10
(lp420
g1
(g188
g3
NtRp421
(dp422
g106
Nsg41
S'host_ids'
p423
sg15
Nsg19
g20
sg109
S'int32[]'
p424
sg16
I120
sbag1
(g188
g3
NtRp425
(dp426
g106
Nsg41
S'url'
p427
sg15
Nsg19
g20
sg109
S'url.mojom.Url'
p428
sg16
I121
sbag1
(g188
g3
NtRp429
(dp430
g106
Nsg41
S'total'
p431
sg15
Nsg19
g20
sg109
S'int32'
p432
sg16
I122
sbag1
(g188
g3
NtRp433
(dp434
g106
Nsg41
S'complete'
p435
sg15
Nsg19
g20
sg109
S'int32'
p436
sg16
I123
sbasg16
I120
sg19
g20
sbsg15
Nsg19
Nsg16
Nsg193
Nsbag1
(g179
g3
NtRp437
(dp438
g106
Nsg41
S'ErrorEventRaised'
p439
sg183
g1
(g184
g3
NtRp440
(dp441
g10
(lp442
g1
(g188
g3
NtRp443
(dp444
g106
Nsg41
S'host_ids'
p445
sg15
Nsg19
g20
sg109
S'int32[]'
p446
sg16
I126
sbag1
(g188
g3
NtRp447
(dp448
g106
Nsg41
S'error_details'
p449
sg15
Nsg19
g20
sg109
S'AppCacheErrorDetails'
p450
sg16
I126
sbasg16
I126
sg19
g20
sbsg15
Nsg19
Nsg16
Nsg193
Nsbag1
(g179
g3
NtRp451
(dp452
g106
Nsg41
S'LogMessage'
p453
sg183
g1
(g184
g3
NtRp454
(dp455
g10
(lp456
g1
(g188
g3
NtRp457
(dp458
g106
Nsg41
S'host_id'
p459
sg15
Nsg19
g20
sg109
S'int32'
p460
sg16
I129
sbag1
(g188
g3
NtRp461
(dp462
g106
Nsg41
S'log_level'
p463
sg15
Nsg19
g20
sg109
S'int32'
p464
sg16
I129
sbag1
(g188
g3
NtRp465
(dp466
g106
Nsg41
S'message'
p467
sg15
Nsg19
g20
sg109
S'string'
p468
sg16
I129
sbasg16
I129
sg19
g20
sbsg15
Nsg19
Nsg16
Nsg193
Nsbag1
(g179
g3
NtRp469
(dp470
g106
Nsg41
S'ContentBlocked'
p471
sg183
g1
(g184
g3
NtRp472
(dp473
g10
(lp474
g1
(g188
g3
NtRp475
(dp476
g106
Nsg41
S'host_id'
p477
sg15
Nsg19
g20
sg109
S'int32'
p478
sg16
I132
sbag1
(g188
g3
NtRp479
(dp480
g106
Nsg41
S'manifest_url'
p481
sg15
Nsg19
g20
sg109
S'url.mojom.Url'
p482
sg16
I132
sbasg16
I132
sg19
g20
sbsg15
Nsg19
Nsg16
Nsg193
Nsbag1
(g179
g3
NtRp483
(dp484
g106
Nsg41
S'SetSubresourceFactory'
p485
sg183
g1
(g184
g3
NtRp486
(dp487
g10
(lp488
g1
(g188
g3
NtRp489
(dp490
g106
Nsg41
S'host_id'
p491
sg15
Nsg19
g20
sg109
S'int32'
p492
sg16
I136
sbag1
(g188
g3
NtRp493
(dp494
g106
Nsg41
S'url_loader_factory'
p495
sg15
Nsg19
g20
sg109
S'network.mojom.URLLoaderFactory'
p496
sg16
I137
sbasg16
I136
sg19
g20
sbsg15
Nsg19
Nsg16
Nsg193
Nsbasg16
Nsg19
Nsbsg15
Nsg16
Nsg41
S'AppCacheFrontend'
p497
sg19
Nsbasg16
NsS'module'
p498
g1
(cmojom.parse.ast
Module
p499
g3
NtRp500
(dp501
S'mojom_namespace'
p502
(g155
S'content.mojom'
tp503
sg16
I5
sg15
Nsg19
g20
sbsg19
Nsb.