ccopy_reg
_reconstructor
p1
(cmojom.parse.ast
Mojom
p2
c__builtin__
object
p3
NtRp4
(dp5
S'import_list'
p6
g1
(cmojom.parse.ast
ImportList
p7
g3
NtRp8
(dp9
S'items'
p10
(lp11
sS'lineno'
p12
NsS'filename'
p13
NsbsS'definition_list'
p14
(lp15
g1
(cmojom.parse.ast
Enum
p16
g3
NtRp17
(dp18
S'attribute_list'
p19
NsS'enum_value_list'
p20
g1
(cmojom.parse.ast
EnumValueList
p21
g3
NtRp22
(dp23
g10
(lp24
g1
(cmojom.parse.ast
EnumValue
p25
g3
NtRp26
(dp27
g19
NsS'value'
p28
S'-1'
p29
sg12
I10
sS'mojom_name'
p30
S'UNKNOWN'
p31
sg13
S'../../content/common/child_memory_coordinator.mojom'
p32
sbag1
(g25
g3
NtRp33
(dp34
g19
Nsg28
S'0'
sg12
I11
sg30
S'NORMAL'
p35
sg13
g32
sbag1
(g25
g3
NtRp36
(dp37
g19
Nsg28
S'1'
sg12
I12
sg30
S'THROTTLED'
p38
sg13
g32
sbag1
(g25
g3
NtRp39
(dp40
g19
Nsg28
S'2'
sg12
I13
sg30
S'SUSPENDED'
p41
sg13
g32
sbasg12
I10
sg13
g32
sbsg12
I9
sg30
S'MemoryState'
p42
sg13
g32
sbag1
(cmojom.parse.ast
Interface
p43
g3
NtRp44
(dp45
S'body'
p46
g1
(cmojom.parse.ast
InterfaceBody
p47
g3
NtRp48
(dp49
g10
(lp50
g1
(cmojom.parse.ast
Method
p51
g3
NtRp52
(dp53
S'ordinal'
p54
Nsg30
S'OnStateChange'
p55
sS'parameter_list'
p56
g1
(cmojom.parse.ast
ParameterList
p57
g3
NtRp58
(dp59
g10
(lp60
g1
(cmojom.parse.ast
Parameter
p61
g3
NtRp62
(dp63
g54
Nsg30
S'state'
p64
sg19
Nsg13
g32
sS'typename'
p65
S'MemoryState'
p66
sg12
I22
sbasg12
I22
sg13
g32
sbsg19
Nsg13
Nsg12
NsS'response_parameter_list'
p67
Nsbag1
(g51
g3
NtRp68
(dp69
g54
Nsg30
S'PurgeMemory'
p70
sg56
g1
(g57
g3
NtRp71
(dp72
g10
(lp73
sg12
Nsg13
Nsbsg19
Nsg13
Nsg12
Nsg67
Nsbasg12
Nsg13
Nsbsg19
Nsg12
Nsg30
S'ChildMemoryCoordinator'
p74
sg13
Nsbasg12
NsS'module'
p75
g1
(cmojom.parse.ast
Module
p76
g3
NtRp77
(dp78
S'mojom_namespace'
p79
(S'IDENTIFIER'
p80
S'content.mojom'
tp81
sg12
I5
sg19
Nsg13
g32
sbsg13
Nsb.