ccopy_reg
_reconstructor
p1
(cmojom.parse.ast
Mojom
p2
c__builtin__
object
p3
NtRp4
(dp5
S'import_list'
p6
g1
(cmojom.parse.ast
ImportList
p7
g3
NtRp8
(dp9
S'items'
p10
(lp11
g1
(cmojom.parse.ast
Import
p12
g3
NtRp13
(dp14
S'attribute_list'
p15
NsS'lineno'
p16
I7
sS'import_filename'
p17
S'content/common/navigation_params.mojom'
p18
sS'filename'
p19
S'../../content/common/frame.mojom'
p20
sbag1
(g12
g3
NtRp21
(dp22
g15
Nsg16
I8
sg17
S'content/common/service_worker/controller_service_worker.mojom'
p23
sg19
g20
sbag1
(g12
g3
NtRp24
(dp25
g15
Nsg16
I9
sg17
S'content/common/url_loader_factory_bundle.mojom'
p26
sg19
g20
sbag1
(g12
g3
NtRp27
(dp28
g15
Nsg16
I10
sg17
S'content/public/common/resource_type.mojom'
p29
sg19
g20
sbag1
(g12
g3
NtRp30
(dp31
g15
Nsg16
I11
sg17
S'content/public/common/resource_load_info.mojom'
p32
sg19
g20
sbag1
(g12
g3
NtRp33
(dp34
g15
Nsg16
I12
sg17
S'content/public/common/transferrable_url_loader.mojom'
p35
sg19
g20
sbag1
(g12
g3
NtRp36
(dp37
g15
Nsg16
I13
sg17
S'content/public/common/window_container_type.mojom'
p38
sg19
g20
sbag1
(g12
g3
NtRp39
(dp40
g15
Nsg16
I14
sg17
S'mojo/public/mojom/base/string16.mojom'
p41
sg19
g20
sbag1
(g12
g3
NtRp42
(dp43
g15
Nsg16
I15
sg17
S'mojo/public/mojom/base/unguessable_token.mojom'
p44
sg19
g20
sbag1
(g12
g3
NtRp45
(dp46
g15
Nsg16
I16
sg17
S'services/network/public/mojom/url_loader.mojom'
p47
sg19
g20
sbag1
(g12
g3
NtRp48
(dp49
g15
Nsg16
I17
sg17
S'services/service_manager/public/mojom/interface_provider.mojom'
p50
sg19
g20
sbag1
(g12
g3
NtRp51
(dp52
g15
Nsg16
I18
sg17
S'services/viz/public/interfaces/compositing/surface_id.mojom'
p53
sg19
g20
sbag1
(g12
g3
NtRp54
(dp55
g15
Nsg16
I19
sg17
S'third_party/blink/public/mojom/blob/blob_url_store.mojom'
p56
sg19
g20
sbag1
(g12
g3
NtRp57
(dp58
g15
Nsg16
I20
sg17
S'third_party/blink/public/mojom/feature_policy/feature_policy.mojom'
p59
sg19
g20
sbag1
(g12
g3
NtRp60
(dp61
g15
Nsg16
I21
sg17
S'third_party/blink/public/platform/referrer.mojom'
p62
sg19
g20
sbag1
(g12
g3
NtRp63
(dp64
g15
Nsg16
I22
sg17
S'third_party/blink/public/web/commit_result.mojom'
p65
sg19
g20
sbag1
(g12
g3
NtRp66
(dp67
g15
Nsg16
I23
sg17
S'third_party/blink/public/web/window_features.mojom'
p68
sg19
g20
sbag1
(g12
g3
NtRp69
(dp70
g15
Nsg16
I24
sg17
S'ui/base/mojo/window_open_disposition.mojom'
p71
sg19
g20
sbag1
(g12
g3
NtRp72
(dp73
g15
Nsg16
I25
sg17
S'url/mojom/url.mojom'
p74
sg19
g20
sbag1
(g12
g3
NtRp75
(dp76
g15
Nsg16
I26
sg17
S'ui/gfx/geometry/mojo/geometry.mojom'
p77
sg19
g20
sbasg16
I7
sg19
g20
sbsS'definition_list'
p78
(lp79
g1
(cmojom.parse.ast
Const
p80
g3
NtRp81
(dp82
S'mojom_name'
p83
S'kNavigation_FrameSpec'
p84
sg15
NsS'value'
p85
S'"navigation:frame"'
p86
sg19
NsS'typename'
p87
S'string'
p88
sg16
Nsbag1
(cmojom.parse.ast
Interface
p89
g3
NtRp90
(dp91
S'body'
p92
g1
(cmojom.parse.ast
InterfaceBody
p93
g3
NtRp94
(dp95
g10
(lp96
g1
(cmojom.parse.ast
Method
p97
g3
NtRp98
(dp99
S'ordinal'
p100
Nsg83
S'GetInterfaceProvider'
p101
sS'parameter_list'
p102
g1
(cmojom.parse.ast
ParameterList
p103
g3
NtRp104
(dp105
g10
(lp106
g1
(cmojom.parse.ast
Parameter
p107
g3
NtRp108
(dp109
g100
Nsg83
S'interfaces'
p110
sg15
Nsg19
g20
sg87
S'service_manager.mojom.InterfaceProvider&'
p111
sg16
I34
sbasg16
I34
sg19
g20
sbsg15
Nsg19
Nsg16
NsS'response_parameter_list'
p112
Nsbag1
(g97
g3
NtRp113
(dp114
g100
Nsg83
S'GetCanonicalUrlForSharing'
p115
sg102
g1
(g103
g3
NtRp116
(dp117
g10
(lp118
sg16
Nsg19
Nsbsg15
Nsg19
Nsg16
Nsg112
g1
(g103
g3
NtRp119
(dp120
g10
(lp121
g1
(g107
g3
NtRp122
(dp123
g100
Nsg83
S'canonical_url'
p124
sg15
Nsg19
g20
sg87
S'url.mojom.Url?'
p125
sg16
I35
sbasg16
I35
sg19
g20
sbsbasg16
Nsg19
Nsbsg15
Nsg16
Nsg83
S'Frame'
p126
sg19
Nsbag1
(cmojom.parse.ast
Struct
p127
g3
NtRp128
(dp129
g92
Nsg15
g1
(cmojom.parse.ast
AttributeList
p130
g3
NtRp131
(dp132
g10
(lp133
g1
(cmojom.parse.ast
Attribute
p134
g3
NtRp135
(dp136
g85
I01
sg16
I46
sS'key'
p137
S'Native'
p138
sg19
g20
sbasg16
I46
sg19
g20
sbsg16
Nsg83
S'CommonNavigationParams'
p139
sg19
Nsbag1
(g127
g3
NtRp140
(dp141
g92
Nsg15
g1
(g130
g3
NtRp142
(dp143
g10
(lp144
g1
(g134
g3
NtRp145
(dp146
g85
I01
sg16
I50
sg137
S'Native'
p147
sg19
g20
sbasg16
I50
sg19
g20
sbsg16
Nsg83
S'RequestNavigationParams'
p148
sg19
Nsbag1
(g89
g3
NtRp149
(dp150
g92
g1
(g93
g3
NtRp151
(dp152
g10
(lp153
g1
(g97
g3
NtRp154
(dp155
g100
Nsg83
S'CommitNavigation'
p156
sg102
g1
(g103
g3
NtRp157
(dp158
g10
(lp159
g1
(g107
g3
NtRp160
(dp161
g100
Nsg83
S'head'
p162
sg15
Nsg19
g20
sg87
S'network.mojom.URLResponseHead'
p163
sg16
I85
sbag1
(g107
g3
NtRp164
(dp165
g100
Nsg83
S'common_params'
p166
sg15
Nsg19
g20
sg87
S'CommonNavigationParams'
p167
sg16
I86
sbag1
(g107
g3
NtRp168
(dp169
g100
Nsg83
S'request_params'
p170
sg15
Nsg19
g20
sg87
S'RequestNavigationParams'
p171
sg16
I87
sbag1
(g107
g3
NtRp172
(dp173
g100
Nsg83
S'url_loader_client_endpoints'
p174
sg15
Nsg19
g20
sg87
S'network.mojom.URLLoaderClientEndpoints?'
p175
sg16
I88
sbag1
(g107
g3
NtRp176
(dp177
g100
Nsg83
S'subresource_loader_factories'
p178
sg15
Nsg19
g20
sg87
S'URLLoaderFactoryBundle?'
p179
sg16
I89
sbag1
(g107
g3
NtRp180
(dp181
g100
Nsg83
S'subresource_overrides'
p182
sg15
Nsg19
g20
sg87
S'TransferrableURLLoader[]?'
p183
sg16
I90
sbag1
(g107
g3
NtRp184
(dp185
g100
Nsg83
S'controller_service_worker_info'
p186
sg15
Nsg19
g20
sg87
S'ControllerServiceWorkerInfo?'
p187
sg16
I91
sbag1
(g107
g3
NtRp188
(dp189
g100
Nsg83
S'devtools_navigation_token'
p190
sg15
Nsg19
g20
sg87
S'mojo_base.mojom.UnguessableToken'
p191
sg16
I92
sbasg16
I85
sg19
g20
sbsg15
Nsg19
Nsg16
Nsg112
Nsbag1
(g97
g3
NtRp192
(dp193
g100
Nsg83
S'CommitFailedNavigation'
p194
sg102
g1
(g103
g3
NtRp195
(dp196
g10
(lp197
g1
(g107
g3
NtRp198
(dp199
g100
Nsg83
S'common_params'
p200
sg15
Nsg19
g20
sg87
S'CommonNavigationParams'
p201
sg16
I104
sbag1
(g107
g3
NtRp202
(dp203
g100
Nsg83
S'request_params'
p204
sg15
Nsg19
g20
sg87
S'RequestNavigationParams'
p205
sg16
I105
sbag1
(g107
g3
NtRp206
(dp207
g100
Nsg83
S'has_stale_copy_in_cache'
p208
sg15
Nsg19
g20
sg87
S'bool'
p209
sg16
I106
sbag1
(g107
g3
NtRp210
(dp211
g100
Nsg83
S'error_code'
p212
sg15
Nsg19
g20
sg87
S'int32'
p213
sg16
I107
sbag1
(g107
g3
NtRp214
(dp215
g100
Nsg83
S'error_page_content'
p216
sg15
Nsg19
g20
sg87
S'string?'
p217
sg16
I108
sbag1
(g107
g3
NtRp218
(dp219
g100
Nsg83
S'subresource_loader_factories'
p220
sg15
Nsg19
g20
sg87
S'URLLoaderFactoryBundle?'
p221
sg16
I109
sbasg16
I104
sg19
g20
sbsg15
Nsg19
Nsg16
Nsg112
Nsbag1
(g97
g3
NtRp222
(dp223
g100
Nsg83
S'CommitSameDocumentNavigation'
p224
sg102
g1
(g103
g3
NtRp225
(dp226
g10
(lp227
g1
(g107
g3
NtRp228
(dp229
g100
Nsg83
S'common_params'
p230
sg15
Nsg19
g20
sg87
S'CommonNavigationParams'
p231
sg16
I117
sbag1
(g107
g3
NtRp232
(dp233
g100
Nsg83
S'request_params'
p234
sg15
Nsg19
g20
sg87
S'RequestNavigationParams'
p235
sg16
I118
sbasg16
I117
sg19
g20
sbsg15
Nsg19
Nsg16
Nsg112
g1
(g103
g3
NtRp236
(dp237
g10
(lp238
g1
(g107
g3
NtRp239
(dp240
g100
Nsg83
S'commit_result'
p241
sg15
Nsg19
g20
sg87
S'blink.mojom.CommitResult'
p242
sg16
I119
sbasg16
I119
sg19
g20
sbsbag1
(g97
g3
NtRp243
(dp244
g100
Nsg83
S'HandleRendererDebugURL'
p245
sg102
g1
(g103
g3
NtRp246
(dp247
g10
(lp248
g1
(g107
g3
NtRp249
(dp250
g100
Nsg83
S'url'
p251
sg15
Nsg19
g20
sg87
S'url.mojom.Url'
p252
sg16
I122
sbasg16
I122
sg19
g20
sbsg15
Nsg19
Nsg16
Nsg112
Nsbag1
(g97
g3
NtRp253
(dp254
g100
Nsg83
S'UpdateSubresourceLoaderFactories'
p255
sg102
g1
(g103
g3
NtRp256
(dp257
g10
(lp258
g1
(g107
g3
NtRp259
(dp260
g100
Nsg83
S'subresource_loader_factories'
p261
sg15
Nsg19
g20
sg87
S'URLLoaderFactoryBundle'
p262
sg16
I132
sbasg16
I132
sg19
g20
sbsg15
Nsg19
Nsg16
Nsg112
Nsbasg16
Nsg19
Nsbsg15
Nsg16
Nsg83
S'FrameNavigationControl'
p263
sg19
Nsbag1
(g89
g3
NtRp264
(dp265
g92
g1
(g93
g3
NtRp266
(dp267
g10
(lp268
g1
(g97
g3
NtRp269
(dp270
g100
Nsg83
S'AllowBindings'
p271
sg102
g1
(g103
g3
NtRp272
(dp273
g10
(lp274
g1
(g107
g3
NtRp275
(dp276
g100
Nsg83
S'enabled_bindings_flags'
p277
sg15
Nsg19
g20
sg87
S'int32'
p278
sg16
I142
sbasg16
I142
sg19
g20
sbsg15
Nsg19
Nsg16
Nsg112
Nsbasg16
Nsg19
Nsbsg15
Nsg16
Nsg83
S'FrameBindingsControl'
p279
sg19
Nsbag1
(g89
g3
NtRp280
(dp281
g92
g1
(g93
g3
NtRp282
(dp283
g10
(lp284
g1
(g97
g3
NtRp285
(dp286
g100
Nsg83
S'CreateFrame'
p287
sg102
g1
(g103
g3
NtRp288
(dp289
g10
(lp290
g1
(g107
g3
NtRp291
(dp292
g100
Nsg83
S'frame_routing_id'
p293
sg15
Nsg19
g20
sg87
S'int32'
p294
sg16
I148
sbag1
(g107
g3
NtRp295
(dp296
g100
Nsg83
S'frame'
p297
sg15
Nsg19
g20
sg87
S'Frame&'
p298
sg16
I148
sbasg16
I148
sg19
g20
sbsg15
Nsg19
Nsg16
Nsg112
Nsbasg16
Nsg19
Nsbsg15
Nsg16
Nsg83
S'FrameFactory'
p299
sg19
Nsbag1
(g127
g3
NtRp300
(dp301
g92
g1
(cmojom.parse.ast
StructBody
p302
g3
NtRp303
(dp304
g10
(lp305
g1
(cmojom.parse.ast
StructField
p306
g3
NtRp307
(dp308
g100
NsS'default_value'
p309
Nsg83
S'user_gesture'
p310
sg15
Nsg19
Nsg87
S'bool'
p311
sg16
Nsbag1
(g306
g3
NtRp312
(dp313
g100
Nsg309
Nsg83
S'window_container_type'
p314
sg15
Nsg19
Nsg87
S'WindowContainerType'
p315
sg16
Nsbag1
(g306
g3
NtRp316
(dp317
g100
Nsg309
Nsg83
S'session_storage_namespace_id'
p318
sg15
Nsg19
Nsg87
S'string'
p319
sg16
Nsbag1
(g306
g3
NtRp320
(dp321
g100
Nsg309
Nsg83
S'clone_from_session_storage_namespace_id'
p322
sg15
Nsg19
Nsg87
S'string'
p323
sg16
Nsbag1
(g306
g3
NtRp324
(dp325
g100
Nsg309
Nsg83
S'frame_name'
p326
sg15
Nsg19
Nsg87
S'string'
p327
sg16
Nsbag1
(g306
g3
NtRp328
(dp329
g100
Nsg309
Nsg83
S'opener_suppressed'
p330
sg15
Nsg19
Nsg87
S'bool'
p331
sg16
Nsbag1
(g306
g3
NtRp332
(dp333
g100
Nsg309
Nsg83
S'disposition'
p334
sg15
Nsg19
Nsg87
S'ui.mojom.WindowOpenDisposition'
p335
sg16
Nsbag1
(g306
g3
NtRp336
(dp337
g100
Nsg309
Nsg83
S'target_url'
p338
sg15
Nsg19
Nsg87
S'url.mojom.Url'
p339
sg16
Nsbag1
(g306
g3
NtRp340
(dp341
g100
Nsg309
Nsg83
S'referrer'
p342
sg15
Nsg19
Nsg87
S'blink.mojom.Referrer'
p343
sg16
Nsbag1
(g306
g3
NtRp344
(dp345
g100
Nsg309
Nsg83
S'features'
p346
sg15
Nsg19
Nsg87
S'blink.mojom.WindowFeatures'
p347
sg16
Nsbasg16
Nsg19
Nsbsg15
Nsg16
Nsg83
S'CreateNewWindowParams'
p348
sg19
Nsbag1
(cmojom.parse.ast
Enum
p349
g3
NtRp350
(dp351
g15
NsS'enum_value_list'
p352
g1
(cmojom.parse.ast
EnumValueList
p353
g3
NtRp354
(dp355
g10
(lp356
g1
(cmojom.parse.ast
EnumValue
p357
g3
NtRp358
(dp359
g15
Nsg85
Nsg16
I193
sg83
S'kIgnore'
p360
sg19
g20
sbag1
(g357
g3
NtRp361
(dp362
g15
Nsg85
Nsg16
I195
sg83
S'kReuse'
p363
sg19
g20
sbag1
(g357
g3
NtRp364
(dp365
g15
Nsg85
Nsg16
I197
sg83
S'kSuccess'
p366
sg19
g20
sbasg16
I193
sg19
g20
sbsg16
I190
sg83
S'CreateNewWindowStatus'
p367
sg19
g20
sbag1
(g127
g3
NtRp368
(dp369
g92
g1
(g302
g3
NtRp370
(dp371
g10
(lp372
g1
(g306
g3
NtRp373
(dp374
g100
Nsg309
Nsg83
S'route_id'
p375
sg15
Nsg19
Nsg87
S'int32'
p376
sg16
Nsbag1
(g306
g3
NtRp377
(dp378
g100
Nsg309
Nsg83
S'main_frame_route_id'
p379
sg15
Nsg19
Nsg87
S'int32'
p380
sg16
Nsbag1
(g306
g3
NtRp381
(dp382
g100
Nsg309
Nsg83
S'main_frame_widget_route_id'
p383
sg15
Nsg19
Nsg87
S'int32'
p384
sg16
Nsbag1
(g306
g3
NtRp385
(dp386
g100
Nsg309
Nsg83
S'main_frame_interface_provider'
p387
sg15
Nsg19
Nsg87
S'service_manager.mojom.InterfaceProvider'
p388
sg16
Nsbag1
(g306
g3
NtRp389
(dp390
g100
Nsg309
Nsg83
S'cloned_session_storage_namespace_id'
p391
sg15
Nsg19
Nsg87
S'string'
p392
sg16
Nsbag1
(g306
g3
NtRp393
(dp394
g100
Nsg309
Nsg83
S'devtools_main_frame_token'
p395
sg15
Nsg19
Nsg87
S'mojo_base.mojom.UnguessableToken'
p396
sg16
Nsbasg16
Nsg19
Nsbsg15
Nsg16
Nsg83
S'CreateNewWindowReply'
p397
sg19
Nsbag1
(g89
g3
NtRp398
(dp399
g92
g1
(g93
g3
NtRp400
(dp401
g10
(lp402
sg16
Nsg19
Nsbsg15
Nsg16
Nsg83
S'KeepAliveHandle'
p403
sg19
Nsbag1
(g127
g3
NtRp404
(dp405
g92
Nsg15
g1
(g130
g3
NtRp406
(dp407
g10
(lp408
g1
(g134
g3
NtRp409
(dp410
g85
I01
sg16
I231
sg137
S'Native'
p411
sg19
g20
sbasg16
I231
sg19
g20
sbsg16
Nsg83
S'DidCommitProvisionalLoadParams'
p412
sg19
Nsbag1
(g89
g3
NtRp413
(dp414
g92
g1
(g93
g3
NtRp415
(dp416
g10
(lp417
g1
(g97
g3
NtRp418
(dp419
g100
Nsg83
S'CreateNewWindow'
p420
sg102
g1
(g103
g3
NtRp421
(dp422
g10
(lp423
g1
(g107
g3
NtRp424
(dp425
g100
Nsg83
S'params'
p426
sg15
Nsg19
g20
sg87
S'CreateNewWindowParams'
p427
sg16
I239
sbasg16
I239
sg19
g20
sbsg15
g1
(g130
g3
NtRp428
(dp429
g10
(lp430
g1
(g134
g3
NtRp431
(dp432
g85
I01
sg16
I239
sg137
S'Sync'
p433
sg19
g20
sbasg16
I239
sg19
g20
sbsg19
Nsg16
Nsg112
g1
(g103
g3
NtRp434
(dp435
g10
(lp436
g1
(g107
g3
NtRp437
(dp438
g100
Nsg83
S'status'
p439
sg15
Nsg19
g20
sg87
S'CreateNewWindowStatus'
p440
sg16
I240
sbag1
(g107
g3
NtRp441
(dp442
g100
Nsg83
S'reply'
p443
sg15
Nsg19
g20
sg87
S'CreateNewWindowReply?'
p444
sg16
I240
sbasg16
I240
sg19
g20
sbsbag1
(g97
g3
NtRp445
(dp446
g100
Nsg83
S'IssueKeepAliveHandle'
p447
sg102
g1
(g103
g3
NtRp448
(dp449
g10
(lp450
g1
(g107
g3
NtRp451
(dp452
g100
Nsg83
S'keep_alive_handle'
p453
sg15
Nsg19
g20
sg87
S'KeepAliveHandle&'
p454
sg16
I243
sbasg16
I243
sg19
g20
sbsg15
Nsg19
Nsg16
Nsg112
Nsbag1
(g97
g3
NtRp455
(dp456
g100
Nsg83
S'DidCommitProvisionalLoad'
p457
sg102
g1
(g103
g3
NtRp458
(dp459
g10
(lp460
g1
(g107
g3
NtRp461
(dp462
g100
Nsg83
S'params'
p463
sg15
Nsg19
g20
sg87
S'DidCommitProvisionalLoadParams'
p464
sg16
I260
sbag1
(g107
g3
NtRp465
(dp466
g100
Nsg83
S'interface_provider_request'
p467
sg15
Nsg19
g20
sg87
S'service_manager.mojom.InterfaceProvider&?'
p468
sg16
I261
sbasg16
I260
sg19
g20
sbsg15
Nsg19
Nsg16
Nsg112
Nsbag1
(g97
g3
NtRp469
(dp470
g100
Nsg83
S'DidCommitSameDocumentNavigation'
p471
sg102
g1
(g103
g3
NtRp472
(dp473
g10
(lp474
g1
(g107
g3
NtRp475
(dp476
g100
Nsg83
S'params'
p477
sg15
Nsg19
g20
sg87
S'DidCommitProvisionalLoadParams'
p478
sg16
I266
sbasg16
I266
sg19
g20
sbsg15
Nsg19
Nsg16
Nsg112
Nsbag1
(g97
g3
NtRp479
(dp480
g100
Nsg83
S'BeginNavigation'
p481
sg102
g1
(g103
g3
NtRp482
(dp483
g10
(lp484
g1
(g107
g3
NtRp485
(dp486
g100
Nsg83
S'common_params'
p487
sg15
Nsg19
g20
sg87
S'CommonNavigationParams'
p488
sg16
I278
sbag1
(g107
g3
NtRp489
(dp490
g100
Nsg83
S'begin_params'
p491
sg15
Nsg19
g20
sg87
S'BeginNavigationParams'
p492
sg16
I279
sbag1
(g107
g3
NtRp493
(dp494
g100
Nsg83
S'blob_url_token'
p495
sg15
Nsg19
g20
sg87
S'blink.mojom.BlobURLToken?'
p496
sg16
I280
sbasg16
I278
sg19
g20
sbsg15
Nsg19
Nsg16
Nsg112
Nsbag1
(g97
g3
NtRp497
(dp498
g100
Nsg83
S'SubresourceResponseStarted'
p499
sg102
g1
(g103
g3
NtRp500
(dp501
g10
(lp502
g1
(g107
g3
NtRp503
(dp504
g100
Nsg83
S'url'
p505
sg15
Nsg19
g20
sg87
S'url.mojom.Url'
p506
sg16
I285
sbag1
(g107
g3
NtRp507
(dp508
g100
Nsg83
S'cert_status'
p509
sg15
Nsg19
g20
sg87
S'uint32'
p510
sg16
I285
sbasg16
I285
sg19
g20
sbsg15
Nsg19
Nsg16
Nsg112
Nsbag1
(g97
g3
NtRp511
(dp512
g100
Nsg83
S'ResourceLoadComplete'
p513
sg102
g1
(g103
g3
NtRp514
(dp515
g10
(lp516
g1
(g107
g3
NtRp517
(dp518
g100
Nsg83
S'url_load_info'
p519
sg15
Nsg19
g20
sg87
S'ResourceLoadInfo'
p520
sg16
I288
sbasg16
I288
sg19
g20
sbsg15
Nsg19
Nsg16
Nsg112
Nsbag1
(g97
g3
NtRp521
(dp522
g100
Nsg83
S'DidChangeName'
p523
sg102
g1
(g103
g3
NtRp524
(dp525
g10
(lp526
g1
(g107
g3
NtRp527
(dp528
g100
Nsg83
S'name'
p529
sg15
Nsg19
g20
sg87
S'string'
p530
sg16
I291
sbag1
(g107
g3
NtRp531
(dp532
g100
Nsg83
S'unique_name'
p533
sg15
Nsg19
g20
sg87
S'string'
p534
sg16
I291
sbasg16
I291
sg19
g20
sbsg15
Nsg19
Nsg16
Nsg112
Nsbag1
(g97
g3
NtRp535
(dp536
g100
Nsg83
S'EnforceInsecureRequestPolicy'
p537
sg102
g1
(g103
g3
NtRp538
(dp539
g10
(lp540
g1
(g107
g3
NtRp541
(dp542
g100
Nsg83
S'policy_bitmap'
p543
sg15
Nsg19
g20
sg87
S'uint8'
p544
sg16
I300
sbasg16
I300
sg19
g20
sbsg15
Nsg19
Nsg16
Nsg112
Nsbag1
(g97
g3
NtRp545
(dp546
g100
Nsg83
S'EnforceInsecureNavigationsSet'
p547
sg102
g1
(g103
g3
NtRp548
(dp549
g10
(lp550
g1
(g107
g3
NtRp551
(dp552
g100
Nsg83
S'set'
p553
sg15
Nsg19
g20
sg87
S'uint32[]'
p554
sg16
I302
sbasg16
I302
sg19
g20
sbsg15
Nsg19
Nsg16
Nsg112
Nsbag1
(g97
g3
NtRp555
(dp556
g100
Nsg83
S'DidSetFramePolicyHeaders'
p557
sg102
g1
(g103
g3
NtRp558
(dp559
g10
(lp560
g1
(g107
g3
NtRp561
(dp562
g100
Nsg83
S'sandbox_flags'
p563
sg15
Nsg19
g20
sg87
S'blink.mojom.WebSandboxFlags'
p564
sg16
I312
sbag1
(g107
g3
NtRp565
(dp566
g100
Nsg83
S'parsed_header'
p567
sg15
Nsg19
g20
sg87
S'blink.mojom.ParsedFeaturePolicyDeclaration[]'
p568
sg16
I313
sbasg16
I312
sg19
g20
sbsg15
Nsg19
Nsg16
Nsg112
Nsbag1
(g97
g3
NtRp569
(dp570
g100
Nsg83
S'CancelInitialHistoryLoad'
p571
sg102
g1
(g103
g3
NtRp572
(dp573
g10
(lp574
sg16
Nsg19
Nsbsg15
Nsg19
Nsg16
Nsg112
Nsbag1
(g97
g3
NtRp575
(dp576
g100
Nsg83
S'UpdateEncoding'
p577
sg102
g1
(g103
g3
NtRp578
(dp579
g10
(lp580
g1
(g107
g3
NtRp581
(dp582
g100
Nsg83
S'encoding_name'
p583
sg15
Nsg19
g20
sg87
S'string'
p584
sg16
I322
sbasg16
I322
sg19
g20
sbsg15
Nsg19
Nsg16
Nsg112
Nsbag1
(g97
g3
NtRp585
(dp586
g100
Nsg83
S'FrameSizeChanged'
p587
sg102
g1
(g103
g3
NtRp588
(dp589
g10
(lp590
g1
(g107
g3
NtRp591
(dp592
g100
Nsg83
S'size'
p593
sg15
Nsg19
g20
sg87
S'gfx.mojom.Size'
p594
sg16
I327
sbasg16
I327
sg19
g20
sbsg15
Nsg19
Nsg16
Nsg112
Nsbasg16
Nsg19
Nsbsg15
Nsg16
Nsg83
S'FrameHost'
p595
sg19
Nsbasg16
NsS'module'
p596
g1
(cmojom.parse.ast
Module
p597
g3
NtRp598
(dp599
S'mojom_namespace'
p600
(S'IDENTIFIER'
p601
S'content.mojom'
tp602
sg16
I5
sg15
Nsg19
g20
sbsg19
Nsb.