ccopy_reg
_reconstructor
p1
(cmojom.parse.ast
Mojom
p2
c__builtin__
object
p3
NtRp4
(dp5
S'import_list'
p6
g1
(cmojom.parse.ast
ImportList
p7
g3
NtRp8
(dp9
S'items'
p10
(lp11
g1
(cmojom.parse.ast
Import
p12
g3
NtRp13
(dp14
S'attribute_list'
p15
NsS'lineno'
p16
I7
sS'import_filename'
p17
S'components/services/leveldb/public/interfaces/leveldb.mojom'
p18
sS'filename'
p19
S'../../content/common/leveldb_wrapper.mojom'
p20
sbasg16
I7
sg19
g20
sbsS'definition_list'
p21
(lp22
g1
(cmojom.parse.ast
Interface
p23
g3
NtRp24
(dp25
S'body'
p26
g1
(cmojom.parse.ast
InterfaceBody
p27
g3
NtRp28
(dp29
g10
(lp30
g1
(cmojom.parse.ast
Method
p31
g3
NtRp32
(dp33
S'ordinal'
p34
NsS'mojom_name'
p35
S'KeyAdded'
p36
sS'parameter_list'
p37
g1
(cmojom.parse.ast
ParameterList
p38
g3
NtRp39
(dp40
g10
(lp41
g1
(cmojom.parse.ast
Parameter
p42
g3
NtRp43
(dp44
g34
Nsg35
S'key'
p45
sg15
Nsg19
g20
sS'typename'
p46
S'uint8[]'
p47
sg16
I13
sbag1
(g42
g3
NtRp48
(dp49
g34
Nsg35
S'value'
p50
sg15
Nsg19
g20
sg46
S'uint8[]'
p51
sg16
I13
sbag1
(g42
g3
NtRp52
(dp53
g34
Nsg35
S'source'
p54
sg15
Nsg19
g20
sg46
S'string'
p55
sg16
I13
sbasg16
I13
sg19
g20
sbsg15
Nsg19
Nsg16
NsS'response_parameter_list'
p56
Nsbag1
(g31
g3
NtRp57
(dp58
g34
Nsg35
S'KeyChanged'
p59
sg37
g1
(g38
g3
NtRp60
(dp61
g10
(lp62
g1
(g42
g3
NtRp63
(dp64
g34
Nsg35
S'key'
p65
sg15
Nsg19
g20
sg46
S'uint8[]'
p66
sg16
I14
sbag1
(g42
g3
NtRp67
(dp68
g34
Nsg35
S'new_value'
p69
sg15
Nsg19
g20
sg46
S'uint8[]'
p70
sg16
I14
sbag1
(g42
g3
NtRp71
(dp72
g34
Nsg35
S'old_value'
p73
sg15
Nsg19
g20
sg46
S'uint8[]'
p74
sg16
I14
sbag1
(g42
g3
NtRp75
(dp76
g34
Nsg35
S'source'
p77
sg15
Nsg19
g20
sg46
S'string'
p78
sg16
I15
sbasg16
I14
sg19
g20
sbsg15
Nsg19
Nsg16
Nsg56
Nsbag1
(g31
g3
NtRp79
(dp80
g34
Nsg35
S'KeyDeleted'
p81
sg37
g1
(g38
g3
NtRp82
(dp83
g10
(lp84
g1
(g42
g3
NtRp85
(dp86
g34
Nsg35
S'key'
p87
sg15
Nsg19
g20
sg46
S'uint8[]'
p88
sg16
I16
sbag1
(g42
g3
NtRp89
(dp90
g34
Nsg35
S'old_value'
p91
sg15
Nsg19
g20
sg46
S'uint8[]'
p92
sg16
I16
sbag1
(g42
g3
NtRp93
(dp94
g34
Nsg35
S'source'
p95
sg15
Nsg19
g20
sg46
S'string'
p96
sg16
I16
sbasg16
I16
sg19
g20
sbsg15
Nsg19
Nsg16
Nsg56
Nsbag1
(g31
g3
NtRp97
(dp98
g34
Nsg35
S'AllDeleted'
p99
sg37
g1
(g38
g3
NtRp100
(dp101
g10
(lp102
g1
(g42
g3
NtRp103
(dp104
g34
Nsg35
S'source'
p105
sg15
Nsg19
g20
sg46
S'string'
p106
sg16
I17
sbasg16
I17
sg19
g20
sbsg15
Nsg19
Nsg16
Nsg56
Nsbag1
(g31
g3
NtRp107
(dp108
g34
Nsg35
S'ShouldSendOldValueOnMutations'
p109
sg37
g1
(g38
g3
NtRp110
(dp111
g10
(lp112
g1
(g42
g3
NtRp113
(dp114
g34
Nsg35
S'value'
p115
sg15
Nsg19
g20
sg46
S'bool'
p116
sg16
I23
sbasg16
I23
sg19
g20
sbsg15
Nsg19
Nsg16
Nsg56
Nsbasg16
Nsg19
Nsbsg15
Nsg16
Nsg35
S'LevelDBObserver'
p117
sg19
Nsbag1
(cmojom.parse.ast
Struct
p118
g3
NtRp119
(dp120
g26
g1
(cmojom.parse.ast
StructBody
p121
g3
NtRp122
(dp123
g10
(lp124
g1
(cmojom.parse.ast
StructField
p125
g3
NtRp126
(dp127
g34
NsS'default_value'
p128
Nsg35
S'key'
p129
sg15
Nsg19
Nsg46
S'uint8[]'
p130
sg16
Nsbag1
(g125
g3
NtRp131
(dp132
g34
Nsg128
Nsg35
S'value'
p133
sg15
Nsg19
Nsg46
S'uint8[]'
p134
sg16
Nsbasg16
Nsg19
Nsbsg15
Nsg16
Nsg35
S'KeyValue'
p135
sg19
Nsbag1
(g23
g3
NtRp136
(dp137
g26
g1
(g27
g3
NtRp138
(dp139
g10
(lp140
g1
(g31
g3
NtRp141
(dp142
g34
Nsg35
S'Complete'
p143
sg37
g1
(g38
g3
NtRp144
(dp145
g10
(lp146
g1
(g42
g3
NtRp147
(dp148
g34
Nsg35
S'success'
p149
sg15
Nsg19
g20
sg46
S'bool'
p150
sg16
I38
sbasg16
I38
sg19
g20
sbsg15
Nsg19
Nsg16
Nsg56
Nsbasg16
Nsg19
Nsbsg15
Nsg16
Nsg35
S'LevelDBWrapperGetAllCallback'
p151
sg19
Nsbag1
(g23
g3
NtRp152
(dp153
g26
g1
(g27
g3
NtRp154
(dp155
g10
(lp156
g1
(g31
g3
NtRp157
(dp158
g34
Nsg35
S'AddObserver'
p159
sg37
g1
(g38
g3
NtRp160
(dp161
g10
(lp162
g1
(g42
g3
NtRp163
(dp164
g34
Nsg35
S'observer'
p165
sg15
Nsg19
g20
sg46
S'asso<LevelDBObserver>'
p166
sg16
I47
sbasg16
I47
sg19
g20
sbsg15
Nsg19
Nsg16
Nsg56
Nsbag1
(g31
g3
NtRp167
(dp168
g34
Nsg35
S'Put'
p169
sg37
g1
(g38
g3
NtRp170
(dp171
g10
(lp172
g1
(g42
g3
NtRp173
(dp174
g34
Nsg35
S'key'
p175
sg15
Nsg19
g20
sg46
S'uint8[]'
p176
sg16
I58
sbag1
(g42
g3
NtRp177
(dp178
g34
Nsg35
S'value'
p179
sg15
Nsg19
g20
sg46
S'uint8[]'
p180
sg16
I58
sbag1
(g42
g3
NtRp181
(dp182
g34
Nsg35
S'client_old_value'
p183
sg15
Nsg19
g20
sg46
S'uint8[]?'
p184
sg16
I58
sbag1
(g42
g3
NtRp185
(dp186
g34
Nsg35
S'source'
p187
sg15
Nsg19
g20
sg46
S'string'
p188
sg16
I59
sbasg16
I58
sg19
g20
sbsg15
Nsg19
Nsg16
Nsg56
g1
(g38
g3
NtRp189
(dp190
g10
(lp191
g1
(g42
g3
NtRp192
(dp193
g34
Nsg35
S'success'
p194
sg15
Nsg19
g20
sg46
S'bool'
p195
sg16
I60
sbasg16
I60
sg19
g20
sbsbag1
(g31
g3
NtRp196
(dp197
g34
Nsg35
S'Delete'
p198
sg37
g1
(g38
g3
NtRp199
(dp200
g10
(lp201
g1
(g42
g3
NtRp202
(dp203
g34
Nsg35
S'key'
p204
sg15
Nsg19
g20
sg46
S'uint8[]'
p205
sg16
I72
sbag1
(g42
g3
NtRp206
(dp207
g34
Nsg35
S'client_old_value'
p208
sg15
Nsg19
g20
sg46
S'uint8[]?'
p209
sg16
I72
sbag1
(g42
g3
NtRp210
(dp211
g34
Nsg35
S'source'
p212
sg15
Nsg19
g20
sg46
S'string'
p213
sg16
I72
sbasg16
I72
sg19
g20
sbsg15
Nsg19
Nsg16
Nsg56
g1
(g38
g3
NtRp214
(dp215
g10
(lp216
g1
(g42
g3
NtRp217
(dp218
g34
Nsg35
S'success'
p219
sg15
Nsg19
g20
sg46
S'bool'
p220
sg16
I73
sbasg16
I73
sg19
g20
sbsbag1
(g31
g3
NtRp221
(dp222
g34
Nsg35
S'DeleteAll'
p223
sg37
g1
(g38
g3
NtRp224
(dp225
g10
(lp226
g1
(g42
g3
NtRp227
(dp228
g34
Nsg35
S'source'
p229
sg15
Nsg19
g20
sg46
S'string'
p230
sg16
I76
sbasg16
I76
sg19
g20
sbsg15
Nsg19
Nsg16
Nsg56
g1
(g38
g3
NtRp231
(dp232
g10
(lp233
g1
(g42
g3
NtRp234
(dp235
g34
Nsg35
S'success'
p236
sg15
Nsg19
g20
sg46
S'bool'
p237
sg16
I76
sbasg16
I76
sg19
g20
sbsbag1
(g31
g3
NtRp238
(dp239
g34
Nsg35
S'Get'
p240
sg37
g1
(g38
g3
NtRp241
(dp242
g10
(lp243
g1
(g42
g3
NtRp244
(dp245
g34
Nsg35
S'key'
p246
sg15
Nsg19
g20
sg46
S'uint8[]'
p247
sg16
I82
sbasg16
I82
sg19
g20
sbsg15
Nsg19
Nsg16
Nsg56
g1
(g38
g3
NtRp248
(dp249
g10
(lp250
g1
(g42
g3
NtRp251
(dp252
g34
Nsg35
S'success'
p253
sg15
Nsg19
g20
sg46
S'bool'
p254
sg16
I82
sbag1
(g42
g3
NtRp255
(dp256
g34
Nsg35
S'value'
p257
sg15
Nsg19
g20
sg46
S'uint8[]'
p258
sg16
I82
sbasg16
I82
sg19
g20
sbsbag1
(g31
g3
NtRp259
(dp260
g34
Nsg35
S'GetAll'
p261
sg37
g1
(g38
g3
NtRp262
(dp263
g10
(lp264
g1
(g42
g3
NtRp265
(dp266
g34
Nsg35
S'complete_callback'
p267
sg15
Nsg19
g20
sg46
S'asso<LevelDBWrapperGetAllCallback>'
p268
sg16
I86
sbasg16
I86
sg19
g20
sbsg15
g1
(cmojom.parse.ast
AttributeList
p269
g3
NtRp270
(dp271
g10
(lp272
g1
(cmojom.parse.ast
Attribute
p273
g3
NtRp274
(dp275
S'value'
p276
I01
sg16
I85
sS'key'
p277
S'Sync'
p278
sg19
g20
sbasg16
I85
sg19
g20
sbsg19
Nsg16
Nsg56
g1
(g38
g3
NtRp279
(dp280
g10
(lp281
g1
(g42
g3
NtRp282
(dp283
g34
Nsg35
S'status'
p284
sg15
Nsg19
g20
sg46
S'leveldb.mojom.DatabaseError'
p285
sg16
I87
sbag1
(g42
g3
NtRp286
(dp287
g34
Nsg35
S'data'
p288
sg15
Nsg19
g20
sg46
S'KeyValue[]'
p289
sg16
I87
sbasg16
I87
sg19
g20
sbsbasg16
Nsg19
Nsbsg15
Nsg16
Nsg35
S'LevelDBWrapper'
p290
sg19
Nsbasg16
NsS'module'
p291
g1
(cmojom.parse.ast
Module
p292
g3
NtRp293
(dp294
S'mojom_namespace'
p295
(S'IDENTIFIER'
p296
S'content.mojom'
tp297
sg16
I5
sg15
Nsg19
g20
sbsg19
Nsb.