ccopy_reg
_reconstructor
p1
(cmojom.parse.ast
Mojom
p2
c__builtin__
object
p3
NtRp4
(dp5
S'import_list'
p6
g1
(cmojom.parse.ast
ImportList
p7
g3
NtRp8
(dp9
S'items'
p10
(lp11
g1
(cmojom.parse.ast
Import
p12
g3
NtRp13
(dp14
S'attribute_list'
p15
NsS'lineno'
p16
I7
sS'import_filename'
p17
S'mojo/public/mojom/base/unguessable_token.mojom'
p18
sS'filename'
p19
S'../../content/common/render_widget_window_tree_client_factory.mojom'
p20
sbag1
(g12
g3
NtRp21
(dp22
g15
Nsg16
I8
sg17
S'services/ui/public/interfaces/window_tree.mojom'
p23
sg19
g20
sbasg16
I7
sg19
g20
sbsS'definition_list'
p24
(lp25
g1
(cmojom.parse.ast
Interface
p26
g3
NtRp27
(dp28
S'body'
p29
g1
(cmojom.parse.ast
InterfaceBody
p30
g3
NtRp31
(dp32
g10
(lp33
g1
(cmojom.parse.ast
Method
p34
g3
NtRp35
(dp36
S'ordinal'
p37
NsS'mojom_name'
p38
S'Embed'
p39
sS'parameter_list'
p40
g1
(cmojom.parse.ast
ParameterList
p41
g3
NtRp42
(dp43
g10
(lp44
g1
(cmojom.parse.ast
Parameter
p45
g3
NtRp46
(dp47
g37
Nsg38
S'frame_routing_id'
p48
sg15
Nsg19
g20
sS'typename'
p49
S'uint32'
p50
sg16
I14
sbag1
(g45
g3
NtRp51
(dp52
g37
Nsg38
S'token'
p53
sg15
Nsg19
g20
sg49
S'mojo_base.mojom.UnguessableToken'
p54
sg16
I14
sbasg16
I14
sg19
g20
sbsg15
Nsg19
Nsg16
NsS'response_parameter_list'
p55
Nsbag1
(g34
g3
NtRp56
(dp57
g37
Nsg38
S'DestroyFrame'
p58
sg40
g1
(g41
g3
NtRp59
(dp60
g10
(lp61
g1
(g45
g3
NtRp62
(dp63
g37
Nsg38
S'frame_routing_id'
p64
sg15
Nsg19
g20
sg49
S'uint32'
p65
sg16
I19
sbasg16
I19
sg19
g20
sbsg15
Nsg19
Nsg16
Nsg55
Nsbasg16
Nsg19
Nsbsg15
Nsg16
Nsg38
S'RenderWidgetWindowTreeClient'
p66
sg19
Nsbag1
(g26
g3
NtRp67
(dp68
g29
g1
(g30
g3
NtRp69
(dp70
g10
(lp71
g1
(g34
g3
NtRp72
(dp73
g37
Nsg38
S'CreateWindowTreeClientForRenderWidget'
p74
sg40
g1
(g41
g3
NtRp75
(dp76
g10
(lp77
g1
(g45
g3
NtRp78
(dp79
g37
Nsg38
S'render_widget_host_routing_id'
p80
sg15
Nsg19
g20
sg49
S'uint32'
p81
sg16
I24
sbag1
(g45
g3
NtRp82
(dp83
g37
Nsg38
S'window_tree_client'
p84
sg15
Nsg19
g20
sg49
S'ui.mojom.WindowTreeClient&'
p85
sg16
I25
sbag1
(g45
g3
NtRp86
(dp87
g37
Nsg38
S'render_widget_window_tree_client_request'
p88
sg15
Nsg19
g20
sg49
S'RenderWidgetWindowTreeClient&'
p89
sg16
I26
sbasg16
I24
sg19
g20
sbsg15
Nsg19
Nsg16
Nsg55
Nsbasg16
Nsg19
Nsbsg15
Nsg16
Nsg38
S'RenderWidgetWindowTreeClientFactory'
p90
sg19
Nsbasg16
NsS'module'
p91
g1
(cmojom.parse.ast
Module
p92
g3
NtRp93
(dp94
S'mojom_namespace'
p95
(S'IDENTIFIER'
p96
S'content.mojom'
tp97
sg16
I5
sg15
Nsg19
g20
sbsg19
Nsb.