ccopy_reg
_reconstructor
p1
(cmojom.parse.ast
Mojom
p2
c__builtin__
object
p3
NtRp4
(dp5
S'import_list'
p6
g1
(cmojom.parse.ast
ImportList
p7
g3
NtRp8
(dp9
S'items'
p10
(lp11
g1
(cmojom.parse.ast
Import
p12
g3
NtRp13
(dp14
S'attribute_list'
p15
NsS'lineno'
p16
I7
sS'import_filename'
p17
S'services/network/public/mojom/url_loader_factory.mojom'
p18
sS'filename'
p19
S'../../content/common/renderer_host.mojom'
p20
sbasg16
I7
sg19
g20
sbsS'definition_list'
p21
(lp22
g1
(cmojom.parse.ast
Interface
p23
g3
NtRp24
(dp25
S'body'
p26
g1
(cmojom.parse.ast
InterfaceBody
p27
g3
NtRp28
(dp29
g10
(lp30
g1
(cmojom.parse.ast
Method
p31
g3
NtRp32
(dp33
S'ordinal'
p34
NsS'mojom_name'
p35
S'GetBlobURLLoaderFactory'
p36
sS'parameter_list'
p37
g1
(cmojom.parse.ast
ParameterList
p38
g3
NtRp39
(dp40
g10
(lp41
g1
(cmojom.parse.ast
Parameter
p42
g3
NtRp43
(dp44
g34
Nsg35
S'loader'
p45
sg15
Nsg19
g20
sS'typename'
p46
S'network.mojom.URLLoaderFactory&'
p47
sg16
I13
sbasg16
I13
sg19
g20
sbsg15
Nsg19
Nsg16
NsS'response_parameter_list'
p48
Nsbag1
(g31
g3
NtRp49
(dp50
g34
Nsg35
S'GetBrowserHistogram'
p51
sg37
g1
(g38
g3
NtRp52
(dp53
g10
(lp54
g1
(g42
g3
NtRp55
(dp56
g34
Nsg35
S'name'
p57
sg15
Nsg19
g20
sg46
S'string'
p58
sg16
I19
sbasg16
I19
sg19
g20
sbsg15
g1
(cmojom.parse.ast
AttributeList
p59
g3
NtRp60
(dp61
g10
(lp62
g1
(cmojom.parse.ast
Attribute
p63
g3
NtRp64
(dp65
S'value'
p66
I01
sg16
I18
sS'key'
p67
S'Sync'
p68
sg19
g20
sbasg16
I18
sg19
g20
sbsg19
Nsg16
Nsg48
g1
(g38
g3
NtRp69
(dp70
g10
(lp71
g1
(g42
g3
NtRp72
(dp73
g34
Nsg35
S'histogram_json'
p74
sg15
Nsg19
g20
sg46
S'string'
p75
sg16
I19
sbasg16
I19
sg19
g20
sbsbag1
(g31
g3
NtRp76
(dp77
g34
Nsg35
S'SuddenTerminationChanged'
p78
sg37
g1
(g38
g3
NtRp79
(dp80
g10
(lp81
g1
(g42
g3
NtRp82
(dp83
g34
Nsg35
S'enabled'
p84
sg15
Nsg19
g20
sg46
S'bool'
p85
sg16
I23
sbasg16
I23
sg19
g20
sbsg15
Nsg19
Nsg16
Nsg48
Nsbag1
(g31
g3
NtRp86
(dp87
g34
Nsg35
S'ShutdownRequest'
p88
sg37
g1
(g38
g3
NtRp89
(dp90
g10
(lp91
sg16
Nsg19
Nsbsg15
Nsg19
Nsg16
Nsg48
Nsbasg16
Nsg19
Nsbsg15
Nsg16
Nsg35
S'RendererHost'
p92
sg19
Nsbasg16
NsS'module'
p93
g1
(cmojom.parse.ast
Module
p94
g3
NtRp95
(dp96
S'mojom_namespace'
p97
(S'IDENTIFIER'
p98
S'content.mojom'
tp99
sg16
I5
sg15
Nsg19
g20
sbsg19
Nsb.