ccopy_reg
_reconstructor
p1
(cmojom.parse.ast
Mojom
p2
c__builtin__
object
p3
NtRp4
(dp5
S'import_list'
p6
g1
(cmojom.parse.ast
ImportList
p7
g3
NtRp8
(dp9
S'items'
p10
(lp11
g1
(cmojom.parse.ast
Import
p12
g3
NtRp13
(dp14
S'attribute_list'
p15
NsS'lineno'
p16
I7
sS'import_filename'
p17
S'services/viz/public/interfaces/compositing/local_surface_id.mojom'
p18
sS'filename'
p19
S'../../content/common/render_frame_metadata.mojom'
p20
sbag1
(g12
g3
NtRp21
(dp22
g15
Nsg16
I8
sg17
S'services/viz/public/interfaces/compositing/selection.mojom'
p23
sg19
g20
sbag1
(g12
g3
NtRp24
(dp25
g15
Nsg16
I9
sg17
S'ui/gfx/geometry/mojo/geometry.mojom'
p26
sg19
g20
sbasg16
I7
sg19
g20
sbsS'definition_list'
p27
(lp28
g1
(cmojom.parse.ast
Struct
p29
g3
NtRp30
(dp31
S'body'
p32
g1
(cmojom.parse.ast
StructBody
p33
g3
NtRp34
(dp35
g10
(lp36
g1
(cmojom.parse.ast
StructField
p37
g3
NtRp38
(dp39
S'ordinal'
p40
NsS'default_value'
p41
NsS'mojom_name'
p42
S'root_background_color'
p43
sg15
Nsg19
NsS'typename'
p44
S'uint32'
p45
sg16
Nsbag1
(g37
g3
NtRp46
(dp47
g40
Nsg41
Nsg42
S'root_scroll_offset'
p48
sg15
Nsg19
Nsg44
S'gfx.mojom.Vector2dF?'
p49
sg16
Nsbag1
(g37
g3
NtRp50
(dp51
g40
Nsg41
Nsg42
S'is_scroll_offset_at_top'
p52
sg15
Nsg19
Nsg44
S'bool'
p53
sg16
Nsbag1
(g37
g3
NtRp54
(dp55
g40
Nsg41
Nsg42
S'selection'
p56
sg15
Nsg19
Nsg44
S'viz.mojom.Selection'
p57
sg16
Nsbag1
(g37
g3
NtRp58
(dp59
g40
Nsg41
Nsg42
S'is_mobile_optimized'
p60
sg15
Nsg19
Nsg44
S'bool'
p61
sg16
Nsbag1
(g37
g3
NtRp62
(dp63
g40
Nsg41
Nsg42
S'device_scale_factor'
p64
sg15
Nsg19
Nsg44
S'float'
p65
sg16
Nsbag1
(g37
g3
NtRp66
(dp67
g40
Nsg41
Nsg42
S'viewport_size_in_pixels'
p68
sg15
Nsg19
Nsg44
S'gfx.mojom.Size'
p69
sg16
Nsbag1
(g37
g3
NtRp70
(dp71
g40
Nsg41
Nsg42
S'local_surface_id'
p72
sg15
Nsg19
Nsg44
S'viz.mojom.LocalSurfaceId?'
p73
sg16
Nsbag1
(g37
g3
NtRp74
(dp75
g40
Nsg41
Nsg42
S'top_controls_height'
p76
sg15
Nsg19
Nsg44
S'float'
p77
sg16
Nsbag1
(g37
g3
NtRp78
(dp79
g40
Nsg41
Nsg42
S'top_controls_shown_ratio'
p80
sg15
Nsg19
Nsg44
S'float'
p81
sg16
Nsbag1
(g37
g3
NtRp82
(dp83
g40
Nsg41
Nsg42
S'bottom_controls_height'
p84
sg15
Nsg19
Nsg44
S'float'
p85
sg16
Nsbag1
(g37
g3
NtRp86
(dp87
g40
Nsg41
Nsg42
S'bottom_controls_shown_ratio'
p88
sg15
Nsg19
Nsg44
S'float'
p89
sg16
Nsbasg16
Nsg19
Nsbsg15
Nsg16
Nsg42
S'RenderFrameMetadata'
p90
sg19
Nsbag1
(cmojom.parse.ast
Interface
p91
g3
NtRp92
(dp93
g32
g1
(cmojom.parse.ast
InterfaceBody
p94
g3
NtRp95
(dp96
g10
(lp97
g1
(cmojom.parse.ast
Method
p98
g3
NtRp99
(dp100
g40
Nsg42
S'ReportAllFrameSubmissionsForTesting'
p101
sS'parameter_list'
p102
g1
(cmojom.parse.ast
ParameterList
p103
g3
NtRp104
(dp105
g10
(lp106
g1
(cmojom.parse.ast
Parameter
p107
g3
NtRp108
(dp109
g40
Nsg42
S'enabled'
p110
sg15
Nsg19
g20
sg44
S'bool'
p111
sg16
I62
sbasg16
I62
sg19
g20
sbsg15
Nsg19
Nsg16
NsS'response_parameter_list'
p112
Nsbasg16
Nsg19
Nsbsg15
Nsg16
Nsg42
S'RenderFrameMetadataObserver'
p113
sg19
Nsbag1
(g91
g3
NtRp114
(dp115
g32
g1
(g94
g3
NtRp116
(dp117
g10
(lp118
g1
(g98
g3
NtRp119
(dp120
g40
Nsg42
S'OnRenderFrameMetadataChanged'
p121
sg102
g1
(g103
g3
NtRp122
(dp123
g10
(lp124
g1
(g107
g3
NtRp125
(dp126
g40
Nsg42
S'frame_token'
p127
sg15
Nsg19
g20
sg44
S'uint32'
p128
sg16
I70
sbag1
(g107
g3
NtRp129
(dp130
g40
Nsg42
S'metadata'
p131
sg15
Nsg19
g20
sg44
S'RenderFrameMetadata'
p132
sg16
I70
sbasg16
I70
sg19
g20
sbsg15
Nsg19
Nsg16
Nsg112
Nsbag1
(g98
g3
NtRp133
(dp134
g40
Nsg42
S'OnFrameSubmissionForTesting'
p135
sg102
g1
(g103
g3
NtRp136
(dp137
g10
(lp138
g1
(g107
g3
NtRp139
(dp140
g40
Nsg42
S'frame_token'
p141
sg15
Nsg19
g20
sg44
S'uint32'
p142
sg16
I73
sbasg16
I73
sg19
g20
sbsg15
Nsg19
Nsg16
Nsg112
Nsbasg16
Nsg19
Nsbsg15
Nsg16
Nsg42
S'RenderFrameMetadataObserverClient'
p143
sg19
Nsbasg16
NsS'module'
p144
g1
(cmojom.parse.ast
Module
p145
g3
NtRp146
(dp147
S'mojom_namespace'
p148
(S'IDENTIFIER'
p149
S'content.mojom'
tp150
sg16
I5
sg15
Nsg19
g20
sbsg19
Nsb.