ccopy_reg
_reconstructor
p1
(cmojom.parse.ast
Mojom
p2
c__builtin__
object
p3
NtRp4
(dp5
S'import_list'
p6
g1
(cmojom.parse.ast
ImportList
p7
g3
NtRp8
(dp9
S'items'
p10
(lp11
g1
(cmojom.parse.ast
Import
p12
g3
NtRp13
(dp14
S'attribute_list'
p15
NsS'lineno'
p16
I7
sS'import_filename'
p17
S'content/common/native_types.mojom'
p18
sS'filename'
p19
S'../../content/common/renderer.mojom'
p20
sbag1
(g12
g3
NtRp21
(dp22
g15
Nsg16
I8
sg17
S'content/common/service_worker/embedded_worker.mojom'
p23
sg19
g20
sbag1
(g12
g3
NtRp24
(dp25
g15
Nsg16
I9
sg17
S'ipc/constants.mojom'
p26
sg19
g20
sbag1
(g12
g3
NtRp27
(dp28
g15
Nsg16
I10
sg17
S'mojo/public/mojom/base/time.mojom'
p29
sg19
g20
sbag1
(g12
g3
NtRp30
(dp31
g15
Nsg16
I11
sg17
S'mojo/public/mojom/base/unguessable_token.mojom'
p32
sg19
g20
sbag1
(g12
g3
NtRp33
(dp34
g15
Nsg16
I12
sg17
S'services/network/public/mojom/network_types.mojom'
p35
sg19
g20
sbag1
(g12
g3
NtRp36
(dp37
g15
Nsg16
I13
sg17
S'services/service_manager/public/mojom/interface_provider.mojom'
p38
sg19
g20
sbag1
(g12
g3
NtRp39
(dp40
g15
Nsg16
I14
sg17
S'services/service_manager/public/mojom/service.mojom'
p41
sg19
g20
sbag1
(g12
g3
NtRp42
(dp43
g15
Nsg16
I15
sg17
S'ui/gfx/geometry/mojo/geometry.mojom'
p44
sg19
g20
sbag1
(g12
g3
NtRp45
(dp46
g15
Nsg16
I16
sg17
S'ui/gfx/mojo/icc_profile.mojom'
p47
sg19
g20
sbasg16
I7
sg19
g20
sbsS'definition_list'
p48
(lp49
g1
(cmojom.parse.ast
Struct
p50
g3
NtRp51
(dp52
S'body'
p53
g1
(cmojom.parse.ast
StructBody
p54
g3
NtRp55
(dp56
g10
(lp57
g1
(cmojom.parse.ast
StructField
p58
g3
NtRp59
(dp60
S'ordinal'
p61
NsS'default_value'
p62
NsS'mojom_name'
p63
S'renderer_preferences'
p64
sg15
Nsg19
NsS'typename'
p65
S'RendererPreferences'
p66
sg16
Nsbag1
(g58
g3
NtRp67
(dp68
g61
Nsg62
Nsg63
S'web_preferences'
p69
sg15
Nsg19
Nsg65
S'WebPreferences'
p70
sg16
Nsbag1
(g58
g3
NtRp71
(dp72
g61
Nsg62
(S'IDENTIFIER'
p73
S'IPC.mojom.kRoutingIdNone'
tp74
sg63
S'view_id'
p75
sg15
Nsg19
Nsg65
S'int32'
p76
sg16
Nsbag1
(g58
g3
NtRp77
(dp78
g61
Nsg62
(g73
S'IPC.mojom.kRoutingIdNone'
tp79
sg63
S'main_frame_routing_id'
p80
sg15
Nsg19
Nsg65
S'int32'
p81
sg16
Nsbag1
(g58
g3
NtRp82
(dp83
g61
Nsg62
Nsg63
S'main_frame_interface_provider'
p84
sg15
Nsg19
Nsg65
S'service_manager.mojom.InterfaceProvider?'
p85
sg16
Nsbag1
(g58
g3
NtRp86
(dp87
g61
Nsg62
(g73
S'IPC.mojom.kRoutingIdNone'
tp88
sg63
S'main_frame_widget_routing_id'
p89
sg15
Nsg19
Nsg65
S'int32'
p90
sg16
Nsbag1
(g58
g3
NtRp91
(dp92
g61
Nsg62
Nsg63
S'session_storage_namespace_id'
p93
sg15
Nsg19
Nsg65
S'string'
p94
sg16
Nsbag1
(g58
g3
NtRp95
(dp96
g61
Nsg62
(g73
S'IPC.mojom.kRoutingIdNone'
tp97
sg63
S'opener_frame_route_id'
p98
sg15
Nsg19
Nsg65
S'int32'
p99
sg16
Nsbag1
(g58
g3
NtRp100
(dp101
g61
Nsg62
Nsg63
S'swapped_out'
p102
sg15
Nsg19
Nsg65
S'bool'
p103
sg16
Nsbag1
(g58
g3
NtRp104
(dp105
g61
Nsg62
Nsg63
S'replicated_frame_state'
p106
sg15
Nsg19
Nsg65
S'FrameReplicationState'
p107
sg16
Nsbag1
(g58
g3
NtRp108
(dp109
g61
Nsg62
Nsg63
S'devtools_main_frame_token'
p110
sg15
Nsg19
Nsg65
S'mojo_base.mojom.UnguessableToken'
p111
sg16
Nsbag1
(g58
g3
NtRp112
(dp113
g61
Nsg62
(g73
S'IPC.mojom.kRoutingIdNone'
tp114
sg63
S'proxy_routing_id'
p115
sg15
Nsg19
Nsg65
S'int32'
p116
sg16
Nsbag1
(g58
g3
NtRp117
(dp118
g61
Nsg62
Nsg63
S'hidden'
p119
sg15
Nsg19
Nsg65
S'bool'
p120
sg16
Nsbag1
(g58
g3
NtRp121
(dp122
g61
Nsg62
Nsg63
S'never_visible'
p123
sg15
Nsg19
Nsg65
S'bool'
p124
sg16
Nsbag1
(g58
g3
NtRp125
(dp126
g61
Nsg62
Nsg63
S'window_was_created_with_opener'
p127
sg15
Nsg19
Nsg65
S'bool'
p128
sg16
Nsbag1
(g58
g3
NtRp129
(dp130
g61
Nsg62
Nsg63
S'has_committed_real_load'
p131
sg15
Nsg19
Nsg65
S'bool'
p132
sg16
Nsbag1
(g58
g3
NtRp133
(dp134
g61
Nsg62
Nsg63
S'visual_properties'
p135
sg15
Nsg19
Nsg65
S'VisualProperties'
p136
sg16
Nsbag1
(g58
g3
NtRp137
(dp138
g61
Nsg62
Nsg63
S'page_zoom_level'
p139
sg15
Nsg19
Nsg65
S'double'
p140
sg16
Nsbag1
(g58
g3
NtRp141
(dp142
g61
Nsg62
Nsg63
S'renderer_wide_named_frame_lookup'
p143
sg15
Nsg19
Nsg65
S'bool'
p144
sg16
Nsbasg16
Nsg19
Nsbsg15
Nsg16
Nsg63
S'CreateViewParams'
p145
sg19
Nsbag1
(g50
g3
NtRp146
(dp147
g53
g1
(g54
g3
NtRp148
(dp149
g10
(lp150
g1
(g58
g3
NtRp151
(dp152
g61
Nsg62
Nsg63
S'routing_id'
p153
sg15
Nsg19
Nsg65
S'int32'
p154
sg16
Nsbag1
(g58
g3
NtRp155
(dp156
g61
Nsg62
Nsg63
S'hidden'
p157
sg15
Nsg19
Nsg65
S'bool'
p158
sg16
Nsbasg16
Nsg19
Nsbsg15
Nsg16
Nsg63
S'CreateFrameWidgetParams'
p159
sg19
Nsbag1
(g50
g3
NtRp160
(dp161
g53
g1
(g54
g3
NtRp162
(dp163
g10
(lp164
g1
(g58
g3
NtRp165
(dp166
g61
Nsg62
Nsg63
S'routing_id'
p167
sg15
Nsg19
Nsg65
S'int32'
p168
sg16
Nsbag1
(g58
g3
NtRp169
(dp170
g61
Nsg62
Nsg63
S'proxy_routing_id'
p171
sg15
Nsg19
Nsg65
S'int32'
p172
sg16
Nsbag1
(g58
g3
NtRp173
(dp174
g61
Nsg62
Nsg63
S'opener_routing_id'
p175
sg15
Nsg19
Nsg65
S'int32'
p176
sg16
Nsbag1
(g58
g3
NtRp177
(dp178
g61
Nsg62
Nsg63
S'parent_routing_id'
p179
sg15
Nsg19
Nsg65
S'int32'
p180
sg16
Nsbag1
(g58
g3
NtRp181
(dp182
g61
Nsg62
Nsg63
S'previous_sibling_routing_id'
p183
sg15
Nsg19
Nsg65
S'int32'
p184
sg16
Nsbag1
(g58
g3
NtRp185
(dp186
g61
Nsg62
Nsg63
S'interface_provider'
p187
sg15
Nsg19
Nsg65
S'service_manager.mojom.InterfaceProvider'
p188
sg16
Nsbag1
(g58
g3
NtRp189
(dp190
g61
Nsg62
Nsg63
S'replication_state'
p191
sg15
Nsg19
Nsg65
S'FrameReplicationState'
p192
sg16
Nsbag1
(g58
g3
NtRp193
(dp194
g61
Nsg62
Nsg63
S'devtools_frame_token'
p195
sg15
Nsg19
Nsg65
S'mojo_base.mojom.UnguessableToken'
p196
sg16
Nsbag1
(g58
g3
NtRp197
(dp198
g61
Nsg62
Nsg63
S'frame_owner_properties'
p199
sg15
Nsg19
Nsg65
S'FrameOwnerProperties'
p200
sg16
Nsbag1
(g58
g3
NtRp201
(dp202
g61
Nsg62
Nsg63
S'widget_params'
p203
sg15
Nsg19
Nsg65
S'CreateFrameWidgetParams'
p204
sg16
Nsbag1
(g58
g3
NtRp205
(dp206
g61
Nsg62
Nsg63
S'has_committed_real_load'
p207
sg15
Nsg19
Nsg65
S'bool'
p208
sg16
Nsbasg16
Nsg19
Nsbsg15
Nsg16
Nsg63
S'CreateFrameParams'
p209
sg19
Nsbag1
(g50
g3
NtRp210
(dp211
g53
g1
(g54
g3
NtRp212
(dp213
g10
(lp214
g1
(g58
g3
NtRp215
(dp216
g61
Nsg62
Nsg63
S'initial_button_delay'
p217
sg15
Nsg19
Nsg65
S'float'
p218
sg16
Nsbag1
(g58
g3
NtRp219
(dp220
g61
Nsg62
Nsg63
S'autoscroll_button_delay'
p221
sg15
Nsg19
Nsg65
S'float'
p222
sg16
Nsbag1
(g58
g3
NtRp223
(dp224
g61
Nsg62
Nsg63
S'jump_on_track_click'
p225
sg15
Nsg19
Nsg65
S'bool'
p226
sg16
Nsbag1
(g58
g3
NtRp227
(dp228
g61
Nsg62
Nsg63
S'preferred_scroller_style'
p229
sg15
Nsg19
Nsg65
S'ScrollerStyle'
p230
sg16
Nsbag1
(g58
g3
NtRp231
(dp232
g61
Nsg62
Nsg63
S'redraw'
p233
sg15
Nsg19
Nsg65
S'bool'
p234
sg16
Nsbag1
(g58
g3
NtRp235
(dp236
g61
Nsg62
Nsg63
S'button_placement'
p237
sg15
Nsg19
Nsg65
S'ScrollbarButtonsPlacement'
p238
sg16
Nsbag1
(g58
g3
NtRp239
(dp240
g61
Nsg62
Nsg63
S'scroll_view_rubber_banding'
p241
sg15
Nsg19
Nsg65
S'bool'
p242
sg16
Nsbasg16
Nsg19
Nsbsg15
Nsg16
Nsg63
S'UpdateScrollbarThemeParams'
p243
sg19
Nsbag1
(cmojom.parse.ast
Interface
p244
g3
NtRp245
(dp246
g53
g1
(cmojom.parse.ast
InterfaceBody
p247
g3
NtRp248
(dp249
g10
(lp250
g1
(cmojom.parse.ast
Method
p251
g3
NtRp252
(dp253
g61
Nsg63
S'CreateEmbedderRendererService'
p254
sS'parameter_list'
p255
g1
(cmojom.parse.ast
ParameterList
p256
g3
NtRp257
(dp258
g10
(lp259
g1
(cmojom.parse.ast
Parameter
p260
g3
NtRp261
(dp262
g61
Nsg63
S'service_request'
p263
sg15
Nsg19
g20
sg65
S'service_manager.mojom.Service&'
p264
sg16
I176
sbasg16
I176
sg19
g20
sbsg15
Nsg19
Nsg16
NsS'response_parameter_list'
p265
Nsbag1
(g251
g3
NtRp266
(dp267
g61
Nsg63
S'CreateView'
p268
sg255
g1
(g256
g3
NtRp269
(dp270
g10
(lp271
g1
(g260
g3
NtRp272
(dp273
g61
Nsg63
S'params'
p274
sg15
Nsg19
g20
sg65
S'CreateViewParams'
p275
sg16
I179
sbasg16
I179
sg19
g20
sbsg15
Nsg19
Nsg16
Nsg265
Nsbag1
(g251
g3
NtRp276
(dp277
g61
Nsg63
S'CreateFrame'
p278
sg255
g1
(g256
g3
NtRp279
(dp280
g10
(lp281
g1
(g260
g3
NtRp282
(dp283
g61
Nsg63
S'params'
p284
sg15
Nsg19
g20
sg65
S'CreateFrameParams'
p285
sg16
I182
sbasg16
I182
sg19
g20
sbsg15
Nsg19
Nsg16
Nsg265
Nsbag1
(g251
g3
NtRp286
(dp287
g61
Nsg63
S'CreateFrameProxy'
p288
sg255
g1
(g256
g3
NtRp289
(dp290
g10
(lp291
g1
(g260
g3
NtRp292
(dp293
g61
Nsg63
S'routing_id'
p294
sg15
Nsg19
g20
sg65
S'int32'
p295
sg16
I194
sbag1
(g260
g3
NtRp296
(dp297
g61
Nsg63
S'render_view_routing_id'
p298
sg15
Nsg19
g20
sg65
S'int32'
p299
sg16
I194
sbag1
(g260
g3
NtRp300
(dp301
g61
Nsg63
S'opener_routing_id'
p302
sg15
Nsg19
g20
sg65
S'int32'
p303
sg16
I195
sbag1
(g260
g3
NtRp304
(dp305
g61
Nsg63
S'parent_routing_id'
p306
sg15
Nsg19
g20
sg65
S'int32'
p307
sg16
I195
sbag1
(g260
g3
NtRp308
(dp309
g61
Nsg63
S'replication_state'
p310
sg15
Nsg19
g20
sg65
S'FrameReplicationState'
p311
sg16
I196
sbag1
(g260
g3
NtRp312
(dp313
g61
Nsg63
S'devtools_frame_token'
p314
sg15
Nsg19
g20
sg65
S'mojo_base.mojom.UnguessableToken'
p315
sg16
I197
sbasg16
I194
sg19
g20
sbsg15
Nsg19
Nsg16
Nsg265
Nsbag1
(g251
g3
NtRp316
(dp317
g61
Nsg63
S'SetUpEmbeddedWorkerChannelForServiceWorker'
p318
sg255
g1
(g256
g3
NtRp319
(dp320
g10
(lp321
g1
(g260
g3
NtRp322
(dp323
g61
Nsg63
S'client_request'
p324
sg15
Nsg19
g20
sg65
S'EmbeddedWorkerInstanceClient&'
p325
sg16
I204
sbasg16
I204
sg19
g20
sbsg15
Nsg19
Nsg16
Nsg265
Nsbag1
(g251
g3
NtRp326
(dp327
g61
Nsg63
S'OnNetworkConnectionChanged'
p328
sg255
g1
(g256
g3
NtRp329
(dp330
g10
(lp331
g1
(g260
g3
NtRp332
(dp333
g61
Nsg63
S'connection_type'
p334
sg15
Nsg19
g20
sg65
S'NetworkConnectionType'
p335
sg16
I208
sbag1
(g260
g3
NtRp336
(dp337
g61
Nsg63
S'max_bandwidth_mbps'
p338
sg15
Nsg19
g20
sg65
S'double'
p339
sg16
I209
sbasg16
I208
sg19
g20
sbsg15
Nsg19
Nsg16
Nsg265
Nsbag1
(g251
g3
NtRp340
(dp341
g61
Nsg63
S'OnNetworkQualityChanged'
p342
sg255
g1
(g256
g3
NtRp343
(dp344
g10
(lp345
g1
(g260
g3
NtRp346
(dp347
g61
Nsg63
S'effective_connection_type'
p348
sg15
Nsg19
g20
sg65
S'network.mojom.EffectiveConnectionType'
p349
sg16
I219
sbag1
(g260
g3
NtRp350
(dp351
g61
Nsg63
S'http_rtt'
p352
sg15
Nsg19
g20
sg65
S'mojo_base.mojom.TimeDelta'
p353
sg16
I220
sbag1
(g260
g3
NtRp354
(dp355
g61
Nsg63
S'transport_rtt'
p356
sg15
Nsg19
g20
sg65
S'mojo_base.mojom.TimeDelta'
p357
sg16
I221
sbag1
(g260
g3
NtRp358
(dp359
g61
Nsg63
S'bandwidth_kbps'
p360
sg15
Nsg19
g20
sg65
S'double'
p361
sg16
I222
sbasg16
I219
sg19
g20
sbsg15
Nsg19
Nsg16
Nsg265
Nsbag1
(g251
g3
NtRp362
(dp363
g61
Nsg63
S'SetWebKitSharedTimersSuspended'
p364
sg255
g1
(g256
g3
NtRp365
(dp366
g10
(lp367
g1
(g260
g3
NtRp368
(dp369
g61
Nsg63
S'suspend'
p370
sg15
Nsg19
g20
sg65
S'bool'
p371
sg16
I226
sbasg16
I226
sg19
g20
sbsg15
Nsg19
Nsg16
Nsg265
Nsbag1
(g251
g3
NtRp372
(dp373
g61
Nsg63
S'SetUserAgent'
p374
sg255
g1
(g256
g3
NtRp375
(dp376
g10
(lp377
g1
(g260
g3
NtRp378
(dp379
g61
Nsg63
S'user_agent'
p380
sg15
Nsg19
g20
sg65
S'string'
p381
sg16
I232
sbasg16
I232
sg19
g20
sbsg15
Nsg19
Nsg16
Nsg265
Nsbag1
(g251
g3
NtRp382
(dp383
g61
Nsg63
S'UpdateScrollbarTheme'
p384
sg255
g1
(g256
g3
NtRp385
(dp386
g10
(lp387
g1
(g260
g3
NtRp388
(dp389
g61
Nsg63
S'params'
p390
sg15
Nsg19
g20
sg65
S'UpdateScrollbarThemeParams'
p391
sg16
I236
sbasg16
I236
sg19
g20
sbsg15
Nsg19
Nsg16
Nsg265
Nsbag1
(g251
g3
NtRp392
(dp393
g61
Nsg63
S'OnSystemColorsChanged'
p394
sg255
g1
(g256
g3
NtRp395
(dp396
g10
(lp397
g1
(g260
g3
NtRp398
(dp399
g61
Nsg63
S'aqua_color_variant'
p400
sg15
Nsg19
g20
sg65
S'int32'
p401
sg16
I239
sbag1
(g260
g3
NtRp402
(dp403
g61
Nsg63
S'highlight_text_color'
p404
sg15
Nsg19
g20
sg65
S'string'
p405
sg16
I239
sbag1
(g260
g3
NtRp406
(dp407
g61
Nsg63
S'highlight_color'
p408
sg15
Nsg19
g20
sg65
S'string'
p409
sg16
I240
sbasg16
I239
sg19
g20
sbsg15
Nsg19
Nsg16
Nsg265
Nsbag1
(g251
g3
NtRp410
(dp411
g61
Nsg63
S'PurgePluginListCache'
p412
sg255
g1
(g256
g3
NtRp413
(dp414
g10
(lp415
g1
(g260
g3
NtRp416
(dp417
g61
Nsg63
S'reload_pages'
p418
sg15
Nsg19
g20
sg65
S'bool'
p419
sg16
I244
sbasg16
I244
sg19
g20
sbsg15
Nsg19
Nsg16
Nsg265
Nsbag1
(g251
g3
NtRp420
(dp421
g61
Nsg63
S'SetProcessBackgrounded'
p422
sg255
g1
(g256
g3
NtRp423
(dp424
g10
(lp425
g1
(g260
g3
NtRp426
(dp427
g61
Nsg63
S'background'
p428
sg15
Nsg19
g20
sg65
S'bool'
p429
sg16
I248
sbasg16
I248
sg19
g20
sbsg15
Nsg19
Nsg16
Nsg265
Nsbag1
(g251
g3
NtRp430
(dp431
g61
Nsg63
S'SetSchedulerKeepActive'
p432
sg255
g1
(g256
g3
NtRp433
(dp434
g10
(lp435
g1
(g260
g3
NtRp436
(dp437
g61
Nsg63
S'keep_active'
p438
sg15
Nsg19
g20
sg65
S'bool'
p439
sg16
I253
sbasg16
I253
sg19
g20
sbsg15
Nsg19
Nsg16
Nsg265
Nsbag1
(g251
g3
NtRp440
(dp441
g61
Nsg63
S'ProcessPurgeAndSuspend'
p442
sg255
g1
(g256
g3
NtRp443
(dp444
g10
(lp445
sg16
Nsg19
Nsbsg15
Nsg19
Nsg16
Nsg265
Nsbasg16
Nsg19
Nsbsg15
Nsg16
Nsg63
S'Renderer'
p446
sg19
Nsbasg16
NsS'module'
p447
g1
(cmojom.parse.ast
Module
p448
g3
NtRp449
(dp450
S'mojom_namespace'
p451
(g73
S'content.mojom'
tp452
sg16
I5
sg15
Nsg19
g20
sbsg19
Nsb.