ccopy_reg
_reconstructor
p1
(cmojom.parse.ast
Mojom
p2
c__builtin__
object
p3
NtRp4
(dp5
S'import_list'
p6
g1
(cmojom.parse.ast
ImportList
p7
g3
NtRp8
(dp9
S'items'
p10
(lp11
g1
(cmojom.parse.ast
Import
p12
g3
NtRp13
(dp14
S'attribute_list'
p15
NsS'lineno'
p16
I7
sS'import_filename'
p17
S'content/common/input/input_handler.mojom'
p18
sS'filename'
p19
S'../../content/common/render_message_filter.mojom'
p20
sbag1
(g12
g3
NtRp21
(dp22
g15
Nsg16
I8
sg17
S'content/common/native_types.mojom'
p23
sg19
g20
sbag1
(g12
g3
NtRp24
(dp25
g15
Nsg16
I9
sg17
S'content/common/widget.mojom'
p26
sg19
g20
sbag1
(g12
g3
NtRp27
(dp28
g15
Nsg16
I10
sg17
S'mojo/public/mojom/base/thread_priority.mojom'
p29
sg19
g20
sbag1
(g12
g3
NtRp30
(dp31
g15
Nsg16
I11
sg17
S'mojo/public/mojom/base/time.mojom'
p32
sg19
g20
sbag1
(g12
g3
NtRp33
(dp34
g15
Nsg16
I12
sg17
S'url/mojom/origin.mojom'
p35
sg19
g20
sbag1
(g12
g3
NtRp36
(dp37
g15
Nsg16
I13
sg17
S'url/mojom/url.mojom'
p38
sg19
g20
sbasg16
I7
sg19
g20
sbsS'definition_list'
p39
(lp40
g1
(cmojom.parse.ast
Interface
p41
g3
NtRp42
(dp43
S'body'
p44
g1
(cmojom.parse.ast
InterfaceBody
p45
g3
NtRp46
(dp47
g10
(lp48
g1
(cmojom.parse.ast
Method
p49
g3
NtRp50
(dp51
S'ordinal'
p52
NsS'mojom_name'
p53
S'GenerateRoutingID'
p54
sS'parameter_list'
p55
g1
(cmojom.parse.ast
ParameterList
p56
g3
NtRp57
(dp58
g10
(lp59
sg16
Nsg19
Nsbsg15
g1
(cmojom.parse.ast
AttributeList
p60
g3
NtRp61
(dp62
g10
(lp63
g1
(cmojom.parse.ast
Attribute
p64
g3
NtRp65
(dp66
S'value'
p67
I01
sg16
I17
sS'key'
p68
S'Sync'
p69
sg19
g20
sbasg16
I17
sg19
g20
sbsg19
Nsg16
NsS'response_parameter_list'
p70
g1
(g56
g3
NtRp71
(dp72
g10
(lp73
g1
(cmojom.parse.ast
Parameter
p74
g3
NtRp75
(dp76
g52
Nsg53
S'routing_id'
p77
sg15
Nsg19
g20
sS'typename'
p78
S'int32'
p79
sg16
I17
sbasg16
I17
sg19
g20
sbsbag1
(g49
g3
NtRp80
(dp81
g52
Nsg53
S'CreateNewWidget'
p82
sg55
g1
(g56
g3
NtRp83
(dp84
g10
(lp85
g1
(g74
g3
NtRp86
(dp87
g52
Nsg53
S'opener_id'
p88
sg15
Nsg19
g20
sg78
S'int32'
p89
sg16
I21
sbag1
(g74
g3
NtRp90
(dp91
g52
Nsg53
S'popup_type'
p92
sg15
Nsg19
g20
sg78
S'content.mojom.WebPopupType'
p93
sg16
I21
sbag1
(g74
g3
NtRp94
(dp95
g52
Nsg53
S'widget'
p96
sg15
Nsg19
g20
sg78
S'Widget'
p97
sg16
I21
sbasg16
I21
sg19
g20
sbsg15
g1
(g60
g3
NtRp98
(dp99
g10
(lp100
g1
(g64
g3
NtRp101
(dp102
g67
I01
sg16
I21
sg68
S'Sync'
p103
sg19
g20
sbasg16
I21
sg19
g20
sbsg19
Nsg16
Nsg70
g1
(g56
g3
NtRp104
(dp105
g10
(lp106
g1
(g74
g3
NtRp107
(dp108
g52
Nsg53
S'route_id'
p109
sg15
Nsg19
g20
sg78
S'int32'
p110
sg16
I22
sbasg16
I22
sg19
g20
sbsbag1
(g49
g3
NtRp111
(dp112
g52
Nsg53
S'CreateFullscreenWidget'
p113
sg55
g1
(g56
g3
NtRp114
(dp115
g10
(lp116
g1
(g74
g3
NtRp117
(dp118
g52
Nsg53
S'opener_id'
p119
sg15
Nsg19
g20
sg78
S'int32'
p120
sg16
I25
sbag1
(g74
g3
NtRp121
(dp122
g52
Nsg53
S'widget'
p123
sg15
Nsg19
g20
sg78
S'Widget'
p124
sg16
I25
sbasg16
I25
sg19
g20
sbsg15
g1
(g60
g3
NtRp125
(dp126
g10
(lp127
g1
(g64
g3
NtRp128
(dp129
g67
I01
sg16
I25
sg68
S'Sync'
p130
sg19
g20
sbasg16
I25
sg19
g20
sbsg19
Nsg16
Nsg70
g1
(g56
g3
NtRp131
(dp132
g10
(lp133
g1
(g74
g3
NtRp134
(dp135
g52
Nsg53
S'route_id'
p136
sg15
Nsg19
g20
sg78
S'int32'
p137
sg16
I26
sbasg16
I26
sg19
g20
sbsbag1
(g49
g3
NtRp138
(dp139
g52
Nsg53
S'DidGenerateCacheableMetadata'
p140
sg55
g1
(g56
g3
NtRp141
(dp142
g10
(lp143
g1
(g74
g3
NtRp144
(dp145
g52
Nsg53
S'url'
p146
sg15
Nsg19
g20
sg78
S'url.mojom.Url'
p147
sg16
I30
sbag1
(g74
g3
NtRp148
(dp149
g52
Nsg53
S'expected_response_time'
p150
sg15
Nsg19
g20
sg78
S'mojo_base.mojom.Time'
p151
sg16
I31
sbag1
(g74
g3
NtRp152
(dp153
g52
Nsg53
S'data'
p154
sg15
Nsg19
g20
sg78
S'uint8[]'
p155
sg16
I32
sbasg16
I30
sg19
g20
sbsg15
Nsg19
Nsg16
Nsg70
Nsbag1
(g49
g3
NtRp156
(dp157
g52
Nsg53
S'DidGenerateCacheableMetadataInCacheStorage'
p158
sg55
g1
(g56
g3
NtRp159
(dp160
g10
(lp161
g1
(g74
g3
NtRp162
(dp163
g52
Nsg53
S'url'
p164
sg15
Nsg19
g20
sg78
S'url.mojom.Url'
p165
sg16
I36
sbag1
(g74
g3
NtRp166
(dp167
g52
Nsg53
S'expected_response_time'
p168
sg15
Nsg19
g20
sg78
S'mojo_base.mojom.Time'
p169
sg16
I36
sbag1
(g74
g3
NtRp170
(dp171
g52
Nsg53
S'data'
p172
sg15
Nsg19
g20
sg78
S'uint8[]'
p173
sg16
I37
sbag1
(g74
g3
NtRp174
(dp175
g52
Nsg53
S'cache_storage_origin'
p176
sg15
Nsg19
g20
sg78
S'url.mojom.Origin'
p177
sg16
I37
sbag1
(g74
g3
NtRp178
(dp179
g52
Nsg53
S'cache_storage_cache_name'
p180
sg15
Nsg19
g20
sg78
S'string'
p181
sg16
I38
sbasg16
I36
sg19
g20
sbsg15
Nsg19
Nsg16
Nsg70
Nsbag1
(g49
g3
NtRp182
(dp183
g52
Nsg53
S'HasGpuProcess'
p184
sg55
g1
(g56
g3
NtRp185
(dp186
g10
(lp187
sg16
Nsg19
Nsbsg15
g1
(g60
g3
NtRp188
(dp189
g10
(lp190
g1
(g64
g3
NtRp191
(dp192
g67
I01
sg16
I41
sg68
S'Sync'
p193
sg19
g20
sbasg16
I41
sg19
g20
sbsg19
Nsg16
Nsg70
g1
(g56
g3
NtRp194
(dp195
g10
(lp196
g1
(g74
g3
NtRp197
(dp198
g52
Nsg53
S'has_gpu_process'
p199
sg15
Nsg19
g20
sg78
S'bool'
p200
sg16
I41
sbasg16
I41
sg19
g20
sbsbag1
(g49
g3
NtRp201
(dp202
g52
Nsg53
S'SetThreadPriority'
p203
sg55
g1
(g56
g3
NtRp204
(dp205
g10
(lp206
g1
(g74
g3
NtRp207
(dp208
g52
Nsg53
S'platform_thread_id'
p209
sg15
Nsg19
g20
sg78
S'int32'
p210
sg16
I45
sbag1
(g74
g3
NtRp211
(dp212
g52
Nsg53
S'thread_priority'
p213
sg15
Nsg19
g20
sg78
S'mojo_base.mojom.ThreadPriority'
p214
sg16
I46
sbasg16
I45
sg19
g20
sbsg15
g1
(g60
g3
NtRp215
(dp216
g10
(lp217
g1
(g64
g3
NtRp218
(dp219
g67
S'supports_thread_priorities'
p220
sg16
I44
sg68
S'EnableIf'
p221
sg19
g20
sbasg16
I44
sg19
g20
sbsg19
Nsg16
Nsg70
Nsbasg16
Nsg19
Nsbsg15
Nsg16
Nsg53
S'RenderMessageFilter'
p222
sg19
Nsbasg16
NsS'module'
p223
g1
(cmojom.parse.ast
Module
p224
g3
NtRp225
(dp226
S'mojom_namespace'
p227
(S'IDENTIFIER'
p228
S'content.mojom'
tp229
sg16
I5
sg15
Nsg19
g20
sbsg19
Nsb.