ccopy_reg
_reconstructor
p1
(cmojom.parse.ast
Mojom
p2
c__builtin__
object
p3
NtRp4
(dp5
S'import_list'
p6
g1
(cmojom.parse.ast
ImportList
p7
g3
NtRp8
(dp9
S'items'
p10
(lp11
g1
(cmojom.parse.ast
Import
p12
g3
NtRp13
(dp14
S'attribute_list'
p15
NsS'lineno'
p16
I7
sS'import_filename'
p17
S'device/usb/public/mojom/device.mojom'
p18
sS'filename'
p19
S'../../device/usb/public/mojom/device_manager.mojom'
p20
sbag1
(g12
g3
NtRp21
(dp22
g15
Nsg16
I8
sg17
S'mojo/public/mojom/base/string16.mojom'
p23
sg19
g20
sbasg16
I7
sg19
g20
sbsS'definition_list'
p24
(lp25
g1
(cmojom.parse.ast
Struct
p26
g3
NtRp27
(dp28
S'body'
p29
g1
(cmojom.parse.ast
StructBody
p30
g3
NtRp31
(dp32
g10
(lp33
g1
(cmojom.parse.ast
StructField
p34
g3
NtRp35
(dp36
S'ordinal'
p37
NsS'default_value'
p38
NsS'mojom_name'
p39
S'has_vendor_id'
p40
sg15
Nsg19
NsS'typename'
p41
S'bool'
p42
sg16
Nsbag1
(g34
g3
NtRp43
(dp44
g37
Nsg38
Nsg39
S'vendor_id'
p45
sg15
Nsg19
Nsg41
S'uint16'
p46
sg16
Nsbag1
(g34
g3
NtRp47
(dp48
g37
Nsg38
Nsg39
S'has_product_id'
p49
sg15
Nsg19
Nsg41
S'bool'
p50
sg16
Nsbag1
(g34
g3
NtRp51
(dp52
g37
Nsg38
Nsg39
S'product_id'
p53
sg15
Nsg19
Nsg41
S'uint16'
p54
sg16
Nsbag1
(g34
g3
NtRp55
(dp56
g37
Nsg38
Nsg39
S'has_class_code'
p57
sg15
Nsg19
Nsg41
S'bool'
p58
sg16
Nsbag1
(g34
g3
NtRp59
(dp60
g37
Nsg38
Nsg39
S'class_code'
p61
sg15
Nsg19
Nsg41
S'uint8'
p62
sg16
Nsbag1
(g34
g3
NtRp63
(dp64
g37
Nsg38
Nsg39
S'has_subclass_code'
p65
sg15
Nsg19
Nsg41
S'bool'
p66
sg16
Nsbag1
(g34
g3
NtRp67
(dp68
g37
Nsg38
Nsg39
S'subclass_code'
p69
sg15
Nsg19
Nsg41
S'uint8'
p70
sg16
Nsbag1
(g34
g3
NtRp71
(dp72
g37
Nsg38
Nsg39
S'has_protocol_code'
p73
sg15
Nsg19
Nsg41
S'bool'
p74
sg16
Nsbag1
(g34
g3
NtRp75
(dp76
g37
Nsg38
Nsg39
S'protocol_code'
p77
sg15
Nsg19
Nsg41
S'uint8'
p78
sg16
Nsbag1
(g34
g3
NtRp79
(dp80
g37
Nsg38
Nsg39
S'serial_number'
p81
sg15
Nsg19
Nsg41
S'mojo_base.mojom.String16?'
p82
sg16
Nsbasg16
Nsg19
Nsbsg15
Nsg16
Nsg39
S'UsbDeviceFilter'
p83
sg19
Nsbag1
(g26
g3
NtRp84
(dp85
g29
g1
(g30
g3
NtRp86
(dp87
g10
(lp88
g1
(g34
g3
NtRp89
(dp90
g37
Nsg38
Nsg39
S'filters'
p91
sg15
Nsg19
Nsg41
S'UsbDeviceFilter[]'
p92
sg16
Nsbasg16
Nsg19
Nsbsg15
Nsg16
Nsg39
S'UsbEnumerationOptions'
p93
sg19
Nsbag1
(cmojom.parse.ast
Interface
p94
g3
NtRp95
(dp96
g29
g1
(cmojom.parse.ast
InterfaceBody
p97
g3
NtRp98
(dp99
g10
(lp100
g1
(cmojom.parse.ast
Method
p101
g3
NtRp102
(dp103
g37
Nsg39
S'GetDevices'
p104
sS'parameter_list'
p105
g1
(cmojom.parse.ast
ParameterList
p106
g3
NtRp107
(dp108
g10
(lp109
g1
(cmojom.parse.ast
Parameter
p110
g3
NtRp111
(dp112
g37
Nsg39
S'options'
p113
sg15
Nsg19
g20
sg41
S'UsbEnumerationOptions?'
p114
sg16
I36
sbasg16
I36
sg19
g20
sbsg15
Nsg19
Nsg16
NsS'response_parameter_list'
p115
g1
(g106
g3
NtRp116
(dp117
g10
(lp118
g1
(g110
g3
NtRp119
(dp120
g37
Nsg39
S'results'
p121
sg15
Nsg19
g20
sg41
S'UsbDeviceInfo[]'
p122
sg16
I36
sbasg16
I36
sg19
g20
sbsbag1
(g101
g3
NtRp123
(dp124
g37
Nsg39
S'GetDevice'
p125
sg105
g1
(g106
g3
NtRp126
(dp127
g10
(lp128
g1
(g110
g3
NtRp129
(dp130
g37
Nsg39
S'guid'
p131
sg15
Nsg19
g20
sg41
S'string'
p132
sg16
I39
sbag1
(g110
g3
NtRp133
(dp134
g37
Nsg39
S'device_request'
p135
sg15
Nsg19
g20
sg41
S'UsbDevice&'
p136
sg16
I39
sbasg16
I39
sg19
g20
sbsg15
Nsg19
Nsg16
Nsg115
Nsbag1
(g101
g3
NtRp137
(dp138
g37
Nsg39
S'SetClient'
p139
sg105
g1
(g106
g3
NtRp140
(dp141
g10
(lp142
g1
(g110
g3
NtRp143
(dp144
g37
Nsg39
S'client'
p145
sg15
Nsg19
g20
sg41
S'UsbDeviceManagerClient'
p146
sg16
I43
sbasg16
I43
sg19
g20
sbsg15
Nsg19
Nsg16
Nsg115
Nsbasg16
Nsg19
Nsbsg15
Nsg16
Nsg39
S'UsbDeviceManager'
p147
sg19
Nsbag1
(g94
g3
NtRp148
(dp149
g29
g1
(g97
g3
NtRp150
(dp151
g10
(lp152
g1
(g101
g3
NtRp153
(dp154
g37
Nsg39
S'OnDeviceAdded'
p155
sg105
g1
(g106
g3
NtRp156
(dp157
g10
(lp158
g1
(g110
g3
NtRp159
(dp160
g37
Nsg39
S'device_info'
p161
sg15
Nsg19
g20
sg41
S'UsbDeviceInfo'
p162
sg16
I48
sbasg16
I48
sg19
g20
sbsg15
Nsg19
Nsg16
Nsg115
Nsbag1
(g101
g3
NtRp163
(dp164
g37
Nsg39
S'OnDeviceRemoved'
p165
sg105
g1
(g106
g3
NtRp166
(dp167
g10
(lp168
g1
(g110
g3
NtRp169
(dp170
g37
Nsg39
S'device_info'
p171
sg15
Nsg19
g20
sg41
S'UsbDeviceInfo'
p172
sg16
I51
sbasg16
I51
sg19
g20
sbsg15
Nsg19
Nsg16
Nsg115
Nsbasg16
Nsg19
Nsbsg15
Nsg16
Nsg39
S'UsbDeviceManagerClient'
p173
sg19
Nsbasg16
NsS'module'
p174
g1
(cmojom.parse.ast
Module
p175
g3
NtRp176
(dp177
S'mojom_namespace'
p178
(S'IDENTIFIER'
p179
S'device.mojom'
tp180
sg16
I5
sg15
Nsg19
g20
sbsg19
Nsb.