ccopy_reg
_reconstructor
p1
(cmojom.parse.ast
Mojom
p2
c__builtin__
object
p3
NtRp4
(dp5
S'import_list'
p6
g1
(cmojom.parse.ast
ImportList
p7
g3
NtRp8
(dp9
S'items'
p10
(lp11
g1
(cmojom.parse.ast
Import
p12
g3
NtRp13
(dp14
S'attribute_list'
p15
NsS'lineno'
p16
I7
sS'import_filename'
p17
S'mojo/public/mojom/base/string16.mojom'
p18
sS'filename'
p19
S'../../device/usb/public/mojom/device.mojom'
p20
sbasg16
I7
sg19
g20
sbsS'definition_list'
p21
(lp22
g1
(cmojom.parse.ast
Enum
p23
g3
NtRp24
(dp25
g15
NsS'enum_value_list'
p26
g1
(cmojom.parse.ast
EnumValueList
p27
g3
NtRp28
(dp29
g10
(lp30
g1
(cmojom.parse.ast
EnumValue
p31
g3
NtRp32
(dp33
g15
NsS'value'
p34
Nsg16
I11
sS'mojom_name'
p35
S'OK'
p36
sg19
g20
sbag1
(g31
g3
NtRp37
(dp38
g15
Nsg34
Nsg16
I14
sg35
S'ACCESS_DENIED'
p39
sg19
g20
sbag1
(g31
g3
NtRp40
(dp41
g15
Nsg34
Nsg16
I17
sg35
S'ALREADY_OPEN'
p42
sg19
g20
sbasg16
I11
sg19
g20
sbsg16
I9
sg35
S'UsbOpenDeviceError'
p43
sg19
g20
sbag1
(g23
g3
NtRp44
(dp45
g15
Nsg26
g1
(g27
g3
NtRp46
(dp47
g10
(lp48
g1
(g31
g3
NtRp49
(dp50
g15
Nsg34
S'0'
sg16
I22
sg35
S'INBOUND'
p51
sg19
g20
sbag1
(g31
g3
NtRp52
(dp53
g15
Nsg34
Nsg16
I23
sg35
S'OUTBOUND'
p54
sg19
g20
sbasg16
I22
sg19
g20
sbsg16
I21
sg35
S'UsbTransferDirection'
p55
sg19
g20
sbag1
(g23
g3
NtRp56
(dp57
g15
Nsg26
g1
(g27
g3
NtRp58
(dp59
g10
(lp60
g1
(g31
g3
NtRp61
(dp62
g15
Nsg34
Nsg16
I27
sg35
S'STANDARD'
p63
sg19
g20
sbag1
(g31
g3
NtRp64
(dp65
g15
Nsg34
Nsg16
I28
sg35
S'CLASS'
p66
sg19
g20
sbag1
(g31
g3
NtRp67
(dp68
g15
Nsg34
Nsg16
I29
sg35
S'VENDOR'
p69
sg19
g20
sbag1
(g31
g3
NtRp70
(dp71
g15
Nsg34
Nsg16
I30
sg35
S'RESERVED'
p72
sg19
g20
sbasg16
I27
sg19
g20
sbsg16
I26
sg35
S'UsbControlTransferType'
p73
sg19
g20
sbag1
(g23
g3
NtRp74
(dp75
g15
Nsg26
g1
(g27
g3
NtRp76
(dp77
g10
(lp78
g1
(g31
g3
NtRp79
(dp80
g15
Nsg34
Nsg16
I35
sg35
S'DEVICE'
p81
sg19
g20
sbag1
(g31
g3
NtRp82
(dp83
g15
Nsg34
Nsg16
I36
sg35
S'INTERFACE'
p84
sg19
g20
sbag1
(g31
g3
NtRp85
(dp86
g15
Nsg34
Nsg16
I37
sg35
S'ENDPOINT'
p87
sg19
g20
sbag1
(g31
g3
NtRp88
(dp89
g15
Nsg34
Nsg16
I38
sg35
S'OTHER'
p90
sg19
g20
sbasg16
I35
sg19
g20
sbsg16
I34
sg35
S'UsbControlTransferRecipient'
p91
sg19
g20
sbag1
(g23
g3
NtRp92
(dp93
g15
Nsg26
g1
(g27
g3
NtRp94
(dp95
g10
(lp96
g1
(g31
g3
NtRp97
(dp98
g15
Nsg34
S'0'
sg16
I42
sg35
S'CONTROL'
p99
sg19
g20
sbag1
(g31
g3
NtRp100
(dp101
g15
Nsg34
Nsg16
I43
sg35
S'ISOCHRONOUS'
p102
sg19
g20
sbag1
(g31
g3
NtRp103
(dp104
g15
Nsg34
Nsg16
I44
sg35
S'BULK'
p105
sg19
g20
sbag1
(g31
g3
NtRp106
(dp107
g15
Nsg34
Nsg16
I45
sg35
S'INTERRUPT'
p108
sg19
g20
sbasg16
I42
sg19
g20
sbsg16
I41
sg35
S'UsbTransferType'
p109
sg19
g20
sbag1
(cmojom.parse.ast
Struct
p110
g3
NtRp111
(dp112
S'body'
p113
g1
(cmojom.parse.ast
StructBody
p114
g3
NtRp115
(dp116
g10
(lp117
g1
(cmojom.parse.ast
StructField
p118
g3
NtRp119
(dp120
S'ordinal'
p121
NsS'default_value'
p122
Nsg35
S'endpoint_number'
p123
sg15
Nsg19
NsS'typename'
p124
S'uint8'
p125
sg16
Nsbag1
(g118
g3
NtRp126
(dp127
g121
Nsg122
Nsg35
S'direction'
p128
sg15
Nsg19
Nsg124
S'UsbTransferDirection'
p129
sg16
Nsbag1
(g118
g3
NtRp130
(dp131
g121
Nsg122
Nsg35
S'type'
p132
sg15
Nsg19
Nsg124
S'UsbTransferType'
p133
sg16
Nsbag1
(g118
g3
NtRp134
(dp135
g121
Nsg122
Nsg35
S'packet_size'
p136
sg15
Nsg19
Nsg124
S'uint32'
p137
sg16
Nsbasg16
Nsg19
Nsbsg15
Nsg16
Nsg35
S'UsbEndpointInfo'
p138
sg19
Nsbag1
(g110
g3
NtRp139
(dp140
g113
g1
(g114
g3
NtRp141
(dp142
g10
(lp143
g1
(g118
g3
NtRp144
(dp145
g121
Nsg122
Nsg35
S'alternate_setting'
p146
sg15
Nsg19
Nsg124
S'uint8'
p147
sg16
Nsbag1
(g118
g3
NtRp148
(dp149
g121
Nsg122
Nsg35
S'class_code'
p150
sg15
Nsg19
Nsg124
S'uint8'
p151
sg16
Nsbag1
(g118
g3
NtRp152
(dp153
g121
Nsg122
Nsg35
S'subclass_code'
p154
sg15
Nsg19
Nsg124
S'uint8'
p155
sg16
Nsbag1
(g118
g3
NtRp156
(dp157
g121
Nsg122
Nsg35
S'protocol_code'
p158
sg15
Nsg19
Nsg124
S'uint8'
p159
sg16
Nsbag1
(g118
g3
NtRp160
(dp161
g121
Nsg122
Nsg35
S'interface_name'
p162
sg15
Nsg19
Nsg124
S'mojo_base.mojom.String16?'
p163
sg16
Nsbag1
(g118
g3
NtRp164
(dp165
g121
Nsg122
Nsg35
S'endpoints'
p166
sg15
Nsg19
Nsg124
S'UsbEndpointInfo[]'
p167
sg16
Nsbasg16
Nsg19
Nsbsg15
Nsg16
Nsg35
S'UsbAlternateInterfaceInfo'
p168
sg19
Nsbag1
(g110
g3
NtRp169
(dp170
g113
g1
(g114
g3
NtRp171
(dp172
g10
(lp173
g1
(g118
g3
NtRp174
(dp175
g121
Nsg122
Nsg35
S'interface_number'
p176
sg15
Nsg19
Nsg124
S'uint8'
p177
sg16
Nsbag1
(g118
g3
NtRp178
(dp179
g121
Nsg122
Nsg35
S'alternates'
p180
sg15
Nsg19
Nsg124
S'UsbAlternateInterfaceInfo[]'
p181
sg16
Nsbasg16
Nsg19
Nsbsg15
Nsg16
Nsg35
S'UsbInterfaceInfo'
p182
sg19
Nsbag1
(g110
g3
NtRp183
(dp184
g113
g1
(g114
g3
NtRp185
(dp186
g10
(lp187
g1
(g118
g3
NtRp188
(dp189
g121
Nsg122
Nsg35
S'configuration_value'
p190
sg15
Nsg19
Nsg124
S'uint8'
p191
sg16
Nsbag1
(g118
g3
NtRp192
(dp193
g121
Nsg122
Nsg35
S'configuration_name'
p194
sg15
Nsg19
Nsg124
S'mojo_base.mojom.String16?'
p195
sg16
Nsbag1
(g118
g3
NtRp196
(dp197
g121
Nsg122
Nsg35
S'interfaces'
p198
sg15
Nsg19
Nsg124
S'UsbInterfaceInfo[]'
p199
sg16
Nsbasg16
Nsg19
Nsbsg15
Nsg16
Nsg35
S'UsbConfigurationInfo'
p200
sg19
Nsbag1
(g110
g3
NtRp201
(dp202
g113
g1
(g114
g3
NtRp203
(dp204
g10
(lp205
g1
(g118
g3
NtRp206
(dp207
g121
Nsg122
Nsg35
S'guid'
p208
sg15
Nsg19
Nsg124
S'string'
p209
sg16
Nsbag1
(g118
g3
NtRp210
(dp211
g121
Nsg122
Nsg35
S'usb_version_major'
p212
sg15
Nsg19
Nsg124
S'uint8'
p213
sg16
Nsbag1
(g118
g3
NtRp214
(dp215
g121
Nsg122
Nsg35
S'usb_version_minor'
p216
sg15
Nsg19
Nsg124
S'uint8'
p217
sg16
Nsbag1
(g118
g3
NtRp218
(dp219
g121
Nsg122
Nsg35
S'usb_version_subminor'
p220
sg15
Nsg19
Nsg124
S'uint8'
p221
sg16
Nsbag1
(g118
g3
NtRp222
(dp223
g121
Nsg122
Nsg35
S'class_code'
p224
sg15
Nsg19
Nsg124
S'uint8'
p225
sg16
Nsbag1
(g118
g3
NtRp226
(dp227
g121
Nsg122
Nsg35
S'subclass_code'
p228
sg15
Nsg19
Nsg124
S'uint8'
p229
sg16
Nsbag1
(g118
g3
NtRp230
(dp231
g121
Nsg122
Nsg35
S'protocol_code'
p232
sg15
Nsg19
Nsg124
S'uint8'
p233
sg16
Nsbag1
(g118
g3
NtRp234
(dp235
g121
Nsg122
Nsg35
S'vendor_id'
p236
sg15
Nsg19
Nsg124
S'uint16'
p237
sg16
Nsbag1
(g118
g3
NtRp238
(dp239
g121
Nsg122
Nsg35
S'product_id'
p240
sg15
Nsg19
Nsg124
S'uint16'
p241
sg16
Nsbag1
(g118
g3
NtRp242
(dp243
g121
Nsg122
Nsg35
S'device_version_major'
p244
sg15
Nsg19
Nsg124
S'uint8'
p245
sg16
Nsbag1
(g118
g3
NtRp246
(dp247
g121
Nsg122
Nsg35
S'device_version_minor'
p248
sg15
Nsg19
Nsg124
S'uint8'
p249
sg16
Nsbag1
(g118
g3
NtRp250
(dp251
g121
Nsg122
Nsg35
S'device_version_subminor'
p252
sg15
Nsg19
Nsg124
S'uint8'
p253
sg16
Nsbag1
(g118
g3
NtRp254
(dp255
g121
Nsg122
Nsg35
S'manufacturer_name'
p256
sg15
Nsg19
Nsg124
S'mojo_base.mojom.String16?'
p257
sg16
Nsbag1
(g118
g3
NtRp258
(dp259
g121
Nsg122
Nsg35
S'product_name'
p260
sg15
Nsg19
Nsg124
S'mojo_base.mojom.String16?'
p261
sg16
Nsbag1
(g118
g3
NtRp262
(dp263
g121
Nsg122
Nsg35
S'serial_number'
p264
sg15
Nsg19
Nsg124
S'mojo_base.mojom.String16?'
p265
sg16
Nsbag1
(g118
g3
NtRp266
(dp267
g121
Nsg122
Nsg35
S'active_configuration'
p268
sg15
Nsg19
Nsg124
S'uint8'
p269
sg16
Nsbag1
(g118
g3
NtRp270
(dp271
g121
Nsg122
Nsg35
S'configurations'
p272
sg15
Nsg19
Nsg124
S'UsbConfigurationInfo[]'
p273
sg16
Nsbasg16
Nsg19
Nsbsg15
Nsg16
Nsg35
S'UsbDeviceInfo'
p274
sg19
Nsbag1
(g110
g3
NtRp275
(dp276
g113
g1
(g114
g3
NtRp277
(dp278
g10
(lp279
g1
(g118
g3
NtRp280
(dp281
g121
Nsg122
Nsg35
S'type'
p282
sg15
Nsg19
Nsg124
S'UsbControlTransferType'
p283
sg16
Nsbag1
(g118
g3
NtRp284
(dp285
g121
Nsg122
Nsg35
S'recipient'
p286
sg15
Nsg19
Nsg124
S'UsbControlTransferRecipient'
p287
sg16
Nsbag1
(g118
g3
NtRp288
(dp289
g121
Nsg122
Nsg35
S'request'
p290
sg15
Nsg19
Nsg124
S'uint8'
p291
sg16
Nsbag1
(g118
g3
NtRp292
(dp293
g121
Nsg122
Nsg35
S'value'
p294
sg15
Nsg19
Nsg124
S'uint16'
p295
sg16
Nsbag1
(g118
g3
NtRp296
(dp297
g121
Nsg122
Nsg35
S'index'
p298
sg15
Nsg19
Nsg124
S'uint16'
p299
sg16
Nsbasg16
Nsg19
Nsbsg15
Nsg16
Nsg35
S'UsbControlTransferParams'
p300
sg19
Nsbag1
(g23
g3
NtRp301
(dp302
g15
Nsg26
g1
(g27
g3
NtRp303
(dp304
g10
(lp305
g1
(g31
g3
NtRp306
(dp307
g15
Nsg34
S'0'
sg16
I107
sg35
S'COMPLETED'
p308
sg19
g20
sbag1
(g31
g3
NtRp309
(dp310
g15
Nsg34
Nsg16
I110
sg35
S'TRANSFER_ERROR'
p311
sg19
g20
sbag1
(g31
g3
NtRp312
(dp313
g15
Nsg34
Nsg16
I113
sg35
S'TIMEOUT'
p314
sg19
g20
sbag1
(g31
g3
NtRp315
(dp316
g15
Nsg34
Nsg16
I116
sg35
S'CANCELLED'
p317
sg19
g20
sbag1
(g31
g3
NtRp318
(dp319
g15
Nsg34
Nsg16
I119
sg35
S'STALLED'
p320
sg19
g20
sbag1
(g31
g3
NtRp321
(dp322
g15
Nsg34
Nsg16
I122
sg35
S'DISCONNECT'
p323
sg19
g20
sbag1
(g31
g3
NtRp324
(dp325
g15
Nsg34
Nsg16
I126
sg35
S'BABBLE'
p326
sg19
g20
sbag1
(g31
g3
NtRp327
(dp328
g15
Nsg34
Nsg16
I130
sg35
S'SHORT_PACKET'
p329
sg19
g20
sbag1
(g31
g3
NtRp330
(dp331
g15
Nsg34
Nsg16
I133
sg35
S'PERMISSION_DENIED'
p332
sg19
g20
sbasg16
I107
sg19
g20
sbsg16
I105
sg35
S'UsbTransferStatus'
p333
sg19
g20
sbag1
(g110
g3
NtRp334
(dp335
g113
g1
(g114
g3
NtRp336
(dp337
g10
(lp338
g1
(g118
g3
NtRp339
(dp340
g121
Nsg122
Nsg35
S'length'
p341
sg15
Nsg19
Nsg124
S'uint32'
p342
sg16
Nsbag1
(g118
g3
NtRp343
(dp344
g121
Nsg122
Nsg35
S'transferred_length'
p345
sg15
Nsg19
Nsg124
S'uint32'
p346
sg16
Nsbag1
(g118
g3
NtRp347
(dp348
g121
Nsg122
Nsg35
S'status'
p349
sg15
Nsg19
Nsg124
S'UsbTransferStatus'
p350
sg16
Nsbasg16
Nsg19
Nsbsg15
Nsg16
Nsg35
S'UsbIsochronousPacket'
p351
sg19
Nsbag1
(cmojom.parse.ast
Interface
p352
g3
NtRp353
(dp354
g113
g1
(cmojom.parse.ast
InterfaceBody
p355
g3
NtRp356
(dp357
g10
(lp358
g1
(cmojom.parse.ast
Method
p359
g3
NtRp360
(dp361
g121
Nsg35
S'Open'
p362
sS'parameter_list'
p363
g1
(cmojom.parse.ast
ParameterList
p364
g3
NtRp365
(dp366
g10
(lp367
sg16
Nsg19
Nsbsg15
Nsg19
Nsg16
NsS'response_parameter_list'
p368
g1
(g364
g3
NtRp369
(dp370
g10
(lp371
g1
(cmojom.parse.ast
Parameter
p372
g3
NtRp373
(dp374
g121
Nsg35
S'error'
p375
sg15
Nsg19
g20
sg124
S'UsbOpenDeviceError'
p376
sg16
I144
sbasg16
I144
sg19
g20
sbsbag1
(g359
g3
NtRp377
(dp378
g121
Nsg35
S'Close'
p379
sg363
g1
(g364
g3
NtRp380
(dp381
g10
(lp382
sg16
Nsg19
Nsbsg15
Nsg19
Nsg16
Nsg368
g1
(g364
g3
NtRp383
(dp384
g10
(lp385
sg16
Nsg19
Nsbsbag1
(g359
g3
NtRp386
(dp387
g121
Nsg35
S'SetConfiguration'
p388
sg363
g1
(g364
g3
NtRp389
(dp390
g10
(lp391
g1
(g372
g3
NtRp392
(dp393
g121
Nsg35
S'value'
p394
sg15
Nsg19
g20
sg124
S'uint8'
p395
sg16
I151
sbasg16
I151
sg19
g20
sbsg15
Nsg19
Nsg16
Nsg368
g1
(g364
g3
NtRp396
(dp397
g10
(lp398
g1
(g372
g3
NtRp399
(dp400
g121
Nsg35
S'success'
p401
sg15
Nsg19
g20
sg124
S'bool'
p402
sg16
I151
sbasg16
I151
sg19
g20
sbsbag1
(g359
g3
NtRp403
(dp404
g121
Nsg35
S'ClaimInterface'
p405
sg363
g1
(g364
g3
NtRp406
(dp407
g10
(lp408
g1
(g372
g3
NtRp409
(dp410
g121
Nsg35
S'interface_number'
p411
sg15
Nsg19
g20
sg124
S'uint8'
p412
sg16
I154
sbasg16
I154
sg19
g20
sbsg15
Nsg19
Nsg16
Nsg368
g1
(g364
g3
NtRp413
(dp414
g10
(lp415
g1
(g372
g3
NtRp416
(dp417
g121
Nsg35
S'success'
p418
sg15
Nsg19
g20
sg124
S'bool'
p419
sg16
I154
sbasg16
I154
sg19
g20
sbsbag1
(g359
g3
NtRp420
(dp421
g121
Nsg35
S'ReleaseInterface'
p422
sg363
g1
(g364
g3
NtRp423
(dp424
g10
(lp425
g1
(g372
g3
NtRp426
(dp427
g121
Nsg35
S'interface_number'
p428
sg15
Nsg19
g20
sg124
S'uint8'
p429
sg16
I157
sbasg16
I157
sg19
g20
sbsg15
Nsg19
Nsg16
Nsg368
g1
(g364
g3
NtRp430
(dp431
g10
(lp432
g1
(g372
g3
NtRp433
(dp434
g121
Nsg35
S'success'
p435
sg15
Nsg19
g20
sg124
S'bool'
p436
sg16
I157
sbasg16
I157
sg19
g20
sbsbag1
(g359
g3
NtRp437
(dp438
g121
Nsg35
S'SetInterfaceAlternateSetting'
p439
sg363
g1
(g364
g3
NtRp440
(dp441
g10
(lp442
g1
(g372
g3
NtRp443
(dp444
g121
Nsg35
S'interface_number'
p445
sg15
Nsg19
g20
sg124
S'uint8'
p446
sg16
I160
sbag1
(g372
g3
NtRp447
(dp448
g121
Nsg35
S'alternate_setting'
p449
sg15
Nsg19
g20
sg124
S'uint8'
p450
sg16
I160
sbasg16
I160
sg19
g20
sbsg15
Nsg19
Nsg16
Nsg368
g1
(g364
g3
NtRp451
(dp452
g10
(lp453
g1
(g372
g3
NtRp454
(dp455
g121
Nsg35
S'success'
p456
sg15
Nsg19
g20
sg124
S'bool'
p457
sg16
I161
sbasg16
I161
sg19
g20
sbsbag1
(g359
g3
NtRp458
(dp459
g121
Nsg35
S'Reset'
p460
sg363
g1
(g364
g3
NtRp461
(dp462
g10
(lp463
sg16
Nsg19
Nsbsg15
Nsg19
Nsg16
Nsg368
g1
(g364
g3
NtRp464
(dp465
g10
(lp466
g1
(g372
g3
NtRp467
(dp468
g121
Nsg35
S'success'
p469
sg15
Nsg19
g20
sg124
S'bool'
p470
sg16
I164
sbasg16
I164
sg19
g20
sbsbag1
(g359
g3
NtRp471
(dp472
g121
Nsg35
S'ClearHalt'
p473
sg363
g1
(g364
g3
NtRp474
(dp475
g10
(lp476
g1
(g372
g3
NtRp477
(dp478
g121
Nsg35
S'endpoint'
p479
sg15
Nsg19
g20
sg124
S'uint8'
p480
sg16
I167
sbasg16
I167
sg19
g20
sbsg15
Nsg19
Nsg16
Nsg368
g1
(g364
g3
NtRp481
(dp482
g10
(lp483
g1
(g372
g3
NtRp484
(dp485
g121
Nsg35
S'success'
p486
sg15
Nsg19
g20
sg124
S'bool'
p487
sg16
I167
sbasg16
I167
sg19
g20
sbsbag1
(g359
g3
NtRp488
(dp489
g121
Nsg35
S'ControlTransferIn'
p490
sg363
g1
(g364
g3
NtRp491
(dp492
g10
(lp493
g1
(g372
g3
NtRp494
(dp495
g121
Nsg35
S'params'
p496
sg15
Nsg19
g20
sg124
S'UsbControlTransferParams'
p497
sg16
I180
sbag1
(g372
g3
NtRp498
(dp499
g121
Nsg35
S'length'
p500
sg15
Nsg19
g20
sg124
S'uint32'
p501
sg16
I181
sbag1
(g372
g3
NtRp502
(dp503
g121
Nsg35
S'timeout'
p504
sg15
Nsg19
g20
sg124
S'uint32'
p505
sg16
I182
sbasg16
I180
sg19
g20
sbsg15
Nsg19
Nsg16
Nsg368
g1
(g364
g3
NtRp506
(dp507
g10
(lp508
g1
(g372
g3
NtRp509
(dp510
g121
Nsg35
S'status'
p511
sg15
Nsg19
g20
sg124
S'UsbTransferStatus'
p512
sg16
I183
sbag1
(g372
g3
NtRp513
(dp514
g121
Nsg35
S'data'
p515
sg15
Nsg19
g20
sg124
S'uint8[]'
p516
sg16
I183
sbasg16
I183
sg19
g20
sbsbag1
(g359
g3
NtRp517
(dp518
g121
Nsg35
S'ControlTransferOut'
p519
sg363
g1
(g364
g3
NtRp520
(dp521
g10
(lp522
g1
(g372
g3
NtRp523
(dp524
g121
Nsg35
S'params'
p525
sg15
Nsg19
g20
sg124
S'UsbControlTransferParams'
p526
sg16
I194
sbag1
(g372
g3
NtRp527
(dp528
g121
Nsg35
S'data'
p529
sg15
Nsg19
g20
sg124
S'uint8[]'
p530
sg16
I195
sbag1
(g372
g3
NtRp531
(dp532
g121
Nsg35
S'timeout'
p533
sg15
Nsg19
g20
sg124
S'uint32'
p534
sg16
I196
sbasg16
I194
sg19
g20
sbsg15
Nsg19
Nsg16
Nsg368
g1
(g364
g3
NtRp535
(dp536
g10
(lp537
g1
(g372
g3
NtRp538
(dp539
g121
Nsg35
S'status'
p540
sg15
Nsg19
g20
sg124
S'UsbTransferStatus'
p541
sg16
I197
sbasg16
I197
sg19
g20
sbsbag1
(g359
g3
NtRp542
(dp543
g121
Nsg35
S'GenericTransferIn'
p544
sg363
g1
(g364
g3
NtRp545
(dp546
g10
(lp547
g1
(g372
g3
NtRp548
(dp549
g121
Nsg35
S'endpoint_number'
p550
sg15
Nsg19
g20
sg124
S'uint8'
p551
sg16
I212
sbag1
(g372
g3
NtRp552
(dp553
g121
Nsg35
S'length'
p554
sg15
Nsg19
g20
sg124
S'uint32'
p555
sg16
I212
sbag1
(g372
g3
NtRp556
(dp557
g121
Nsg35
S'timeout'
p558
sg15
Nsg19
g20
sg124
S'uint32'
p559
sg16
I212
sbasg16
I212
sg19
g20
sbsg15
Nsg19
Nsg16
Nsg368
g1
(g364
g3
NtRp560
(dp561
g10
(lp562
g1
(g372
g3
NtRp563
(dp564
g121
Nsg35
S'status'
p565
sg15
Nsg19
g20
sg124
S'UsbTransferStatus'
p566
sg16
I213
sbag1
(g372
g3
NtRp567
(dp568
g121
Nsg35
S'data'
p569
sg15
Nsg19
g20
sg124
S'uint8[]'
p570
sg16
I213
sbasg16
I213
sg19
g20
sbsbag1
(g359
g3
NtRp571
(dp572
g121
Nsg35
S'GenericTransferOut'
p573
sg363
g1
(g364
g3
NtRp574
(dp575
g10
(lp576
g1
(g372
g3
NtRp577
(dp578
g121
Nsg35
S'endpoint_number'
p579
sg15
Nsg19
g20
sg124
S'uint8'
p580
sg16
I226
sbag1
(g372
g3
NtRp581
(dp582
g121
Nsg35
S'data'
p583
sg15
Nsg19
g20
sg124
S'uint8[]'
p584
sg16
I226
sbag1
(g372
g3
NtRp585
(dp586
g121
Nsg35
S'timeout'
p587
sg15
Nsg19
g20
sg124
S'uint32'
p588
sg16
I226
sbasg16
I226
sg19
g20
sbsg15
Nsg19
Nsg16
Nsg368
g1
(g364
g3
NtRp589
(dp590
g10
(lp591
g1
(g372
g3
NtRp592
(dp593
g121
Nsg35
S'status'
p594
sg15
Nsg19
g20
sg124
S'UsbTransferStatus'
p595
sg16
I227
sbasg16
I227
sg19
g20
sbsbag1
(g359
g3
NtRp596
(dp597
g121
Nsg35
S'IsochronousTransferIn'
p598
sg363
g1
(g364
g3
NtRp599
(dp600
g10
(lp601
g1
(g372
g3
NtRp602
(dp603
g121
Nsg35
S'endpoint_number'
p604
sg15
Nsg19
g20
sg124
S'uint8'
p605
sg16
I247
sbag1
(g372
g3
NtRp606
(dp607
g121
Nsg35
S'packet_lengths'
p608
sg15
Nsg19
g20
sg124
S'uint32[]'
p609
sg16
I248
sbag1
(g372
g3
NtRp610
(dp611
g121
Nsg35
S'timeout'
p612
sg15
Nsg19
g20
sg124
S'uint32'
p613
sg16
I249
sbasg16
I247
sg19
g20
sbsg15
Nsg19
Nsg16
Nsg368
g1
(g364
g3
NtRp614
(dp615
g10
(lp616
g1
(g372
g3
NtRp617
(dp618
g121
Nsg35
S'data'
p619
sg15
Nsg19
g20
sg124
S'uint8[]'
p620
sg16
I250
sbag1
(g372
g3
NtRp621
(dp622
g121
Nsg35
S'packets'
p623
sg15
Nsg19
g20
sg124
S'UsbIsochronousPacket[]'
p624
sg16
I250
sbasg16
I250
sg19
g20
sbsbag1
(g359
g3
NtRp625
(dp626
g121
Nsg35
S'IsochronousTransferOut'
p627
sg363
g1
(g364
g3
NtRp628
(dp629
g10
(lp630
g1
(g372
g3
NtRp631
(dp632
g121
Nsg35
S'endpoint_number'
p633
sg15
Nsg19
g20
sg124
S'uint8'
p634
sg16
I268
sbag1
(g372
g3
NtRp635
(dp636
g121
Nsg35
S'data'
p637
sg15
Nsg19
g20
sg124
S'uint8[]'
p638
sg16
I269
sbag1
(g372
g3
NtRp639
(dp640
g121
Nsg35
S'packet_lengths'
p641
sg15
Nsg19
g20
sg124
S'uint32[]'
p642
sg16
I270
sbag1
(g372
g3
NtRp643
(dp644
g121
Nsg35
S'timeout'
p645
sg15
Nsg19
g20
sg124
S'uint32'
p646
sg16
I271
sbasg16
I268
sg19
g20
sbsg15
Nsg19
Nsg16
Nsg368
g1
(g364
g3
NtRp647
(dp648
g10
(lp649
g1
(g372
g3
NtRp650
(dp651
g121
Nsg35
S'packets'
p652
sg15
Nsg19
g20
sg124
S'UsbIsochronousPacket[]'
p653
sg16
I272
sbasg16
I272
sg19
g20
sbsbasg16
Nsg19
Nsbsg15
Nsg16
Nsg35
S'UsbDevice'
p654
sg19
Nsbasg16
NsS'module'
p655
g1
(cmojom.parse.ast
Module
p656
g3
NtRp657
(dp658
S'mojom_namespace'
p659
(S'IDENTIFIER'
p660
S'device.mojom'
tp661
sg16
I5
sg15
Nsg19
g20
sbsg19
Nsb.