ccopy_reg
_reconstructor
p1
(cmojom.parse.ast
Mojom
p2
c__builtin__
object
p3
NtRp4
(dp5
S'import_list'
p6
g1
(cmojom.parse.ast
ImportList
p7
g3
NtRp8
(dp9
S'items'
p10
(lp11
sS'lineno'
p12
NsS'filename'
p13
NsbsS'definition_list'
p14
(lp15
g1
(cmojom.parse.ast
Const
p16
g3
NtRp17
(dp18
S'mojom_name'
p19
S'kTraceEventDataSourceName'
p20
sS'attribute_list'
p21
NsS'value'
p22
S'"org.chromium.trace_event"'
p23
sg13
NsS'typename'
p24
S'string'
p25
sg12
Nsbag1
(cmojom.parse.ast
Struct
p26
g3
NtRp27
(dp28
S'body'
p29
g1
(cmojom.parse.ast
StructBody
p30
g3
NtRp31
(dp32
g10
(lp33
g1
(cmojom.parse.ast
StructField
p34
g3
NtRp35
(dp36
S'ordinal'
p37
NsS'default_value'
p38
Nsg19
S'page'
p39
sg21
Nsg13
Nsg24
S'uint32'
p40
sg12
Nsbag1
(g34
g3
NtRp41
(dp42
g37
Nsg38
Nsg19
S'chunk'
p43
sg21
Nsg13
Nsg24
S'uint32'
p44
sg12
Nsbag1
(g34
g3
NtRp45
(dp46
g37
Nsg38
Nsg19
S'target_buffer'
p47
sg21
Nsg13
Nsg24
S'uint32'
p48
sg12
Nsbasg12
Nsg13
Nsbsg21
Nsg12
Nsg19
S'ChunksToMove'
p49
sg13
Nsbag1
(g26
g3
NtRp50
(dp51
g29
g1
(g30
g3
NtRp52
(dp53
g10
(lp54
g1
(g34
g3
NtRp55
(dp56
g37
Nsg38
Nsg19
S'offset'
p57
sg21
Nsg13
Nsg24
S'uint32'
p58
sg12
Nsbag1
(g34
g3
NtRp59
(dp60
g37
Nsg38
Nsg19
S'data'
p61
sg21
Nsg13
Nsg24
S'string'
p62
sg12
Nsbasg12
Nsg13
Nsbsg21
Nsg12
Nsg19
S'ChunkPatch'
p63
sg13
Nsbag1
(g26
g3
NtRp64
(dp65
g29
g1
(g30
g3
NtRp66
(dp67
g10
(lp68
g1
(g34
g3
NtRp69
(dp70
g37
Nsg38
Nsg19
S'target_buffer'
p71
sg21
Nsg13
Nsg24
S'uint32'
p72
sg12
Nsbag1
(g34
g3
NtRp73
(dp74
g37
Nsg38
Nsg19
S'writer_id'
p75
sg21
Nsg13
Nsg24
S'uint32'
p76
sg12
Nsbag1
(g34
g3
NtRp77
(dp78
g37
Nsg38
Nsg19
S'chunk_id'
p79
sg21
Nsg13
Nsg24
S'uint32'
p80
sg12
Nsbag1
(g34
g3
NtRp81
(dp82
g37
Nsg38
Nsg19
S'patches'
p83
sg21
Nsg13
Nsg24
S'ChunkPatch[]'
p84
sg12
Nsbag1
(g34
g3
NtRp85
(dp86
g37
Nsg38
Nsg19
S'has_more_patches'
p87
sg21
Nsg13
Nsg24
S'bool'
p88
sg12
Nsbasg12
Nsg13
Nsbsg21
Nsg12
Nsg19
S'ChunksToPatch'
p89
sg13
Nsbag1
(g26
g3
NtRp90
(dp91
g29
g1
(g30
g3
NtRp92
(dp93
g10
(lp94
g1
(g34
g3
NtRp95
(dp96
g37
Nsg38
Nsg19
S'chunks_to_move'
p97
sg21
Nsg13
Nsg24
S'ChunksToMove[]'
p98
sg12
Nsbag1
(g34
g3
NtRp99
(dp100
g37
Nsg38
Nsg19
S'chunks_to_patch'
p101
sg21
Nsg13
Nsg24
S'ChunksToPatch[]'
p102
sg12
Nsbasg12
Nsg13
Nsbsg21
Nsg12
Nsg19
S'CommitDataRequest'
p103
sg13
Nsbag1
(g26
g3
NtRp104
(dp105
g29
g1
(g30
g3
NtRp106
(dp107
g10
(lp108
g1
(g34
g3
NtRp109
(dp110
g37
Nsg38
Nsg19
S'name'
p111
sg21
Nsg13
Nsg24
S'string'
p112
sg12
Nsbag1
(g34
g3
NtRp113
(dp114
g37
Nsg38
Nsg19
S'trace_config'
p115
sg21
Nsg13
Nsg24
S'string'
p116
sg12
Nsbag1
(g34
g3
NtRp117
(dp118
g37
Nsg38
Nsg19
S'target_buffer'
p119
sg21
Nsg13
Nsg24
S'uint32'
p120
sg12
Nsbasg12
Nsg13
Nsbsg21
Nsg12
Nsg19
S'DataSourceConfig'
p121
sg13
Nsbag1
(cmojom.parse.ast
Interface
p122
g3
NtRp123
(dp124
g29
g1
(cmojom.parse.ast
InterfaceBody
p125
g3
NtRp126
(dp127
g10
(lp128
g1
(cmojom.parse.ast
Method
p129
g3
NtRp130
(dp131
g37
Nsg19
S'CommitData'
p132
sS'parameter_list'
p133
g1
(cmojom.parse.ast
ParameterList
p134
g3
NtRp135
(dp136
g10
(lp137
g1
(cmojom.parse.ast
Parameter
p138
g3
NtRp139
(dp140
g37
Nsg19
S'data_request'
p141
sg21
Nsg13
S'../../services/tracing/public/mojom/perfetto_service.mojom'
p142
sg24
S'CommitDataRequest'
p143
sg12
I75
sbasg12
I75
sg13
g142
sbsg21
Nsg13
Nsg12
NsS'response_parameter_list'
p144
Nsbasg12
Nsg13
Nsbsg21
Nsg12
Nsg19
S'ProducerHost'
p145
sg13
Nsbag1
(g122
g3
NtRp146
(dp147
g29
g1
(g125
g3
NtRp148
(dp149
g10
(lp150
g1
(g129
g3
NtRp151
(dp152
g37
Nsg19
S'OnTracingStart'
p153
sg133
g1
(g134
g3
NtRp154
(dp155
g10
(lp156
g1
(g138
g3
NtRp157
(dp158
g37
Nsg19
S'shared_memory'
p159
sg21
Nsg13
g142
sg24
S'handle<shared_buffer>'
p160
sg12
I79
sbasg12
I79
sg13
g142
sbsg21
Nsg13
Nsg12
Nsg144
Nsbag1
(g129
g3
NtRp161
(dp162
g37
Nsg19
S'CreateDataSourceInstance'
p163
sg133
g1
(g134
g3
NtRp164
(dp165
g10
(lp166
g1
(g138
g3
NtRp167
(dp168
g37
Nsg19
S'id'
p169
sg21
Nsg13
g142
sg24
S'uint64'
p170
sg12
I83
sbag1
(g138
g3
NtRp171
(dp172
g37
Nsg19
S'data_source_config'
p173
sg21
Nsg13
g142
sg24
S'DataSourceConfig'
p174
sg12
I83
sbasg12
I83
sg13
g142
sbsg21
Nsg13
Nsg12
Nsg144
Nsbag1
(g129
g3
NtRp175
(dp176
g37
Nsg19
S'TearDownDataSourceInstance'
p177
sg133
g1
(g134
g3
NtRp178
(dp179
g10
(lp180
g1
(g138
g3
NtRp181
(dp182
g37
Nsg19
S'id'
p183
sg21
Nsg13
g142
sg24
S'uint64'
p184
sg12
I86
sbasg12
I86
sg13
g142
sbsg21
Nsg13
Nsg12
Nsg144
Nsbag1
(g129
g3
NtRp185
(dp186
g37
Nsg19
S'Flush'
p187
sg133
g1
(g134
g3
NtRp188
(dp189
g10
(lp190
g1
(g138
g3
NtRp191
(dp192
g37
Nsg19
S'flush_request_id'
p193
sg21
Nsg13
g142
sg24
S'uint64'
p194
sg12
I87
sbag1
(g138
g3
NtRp195
(dp196
g37
Nsg19
S'data_source_ids'
p197
sg21
Nsg13
g142
sg24
S'uint64[]'
p198
sg12
I87
sbasg12
I87
sg13
g142
sbsg21
Nsg13
Nsg12
Nsg144
Nsbasg12
Nsg13
Nsbsg21
Nsg12
Nsg19
S'ProducerClient'
p199
sg13
Nsbag1
(g122
g3
NtRp200
(dp201
g29
g1
(g125
g3
NtRp202
(dp203
g10
(lp204
g1
(g129
g3
NtRp205
(dp206
g37
Nsg19
S'ConnectToProducerHost'
p207
sg133
g1
(g134
g3
NtRp208
(dp209
g10
(lp210
g1
(g138
g3
NtRp211
(dp212
g37
Nsg19
S'producer_client'
p213
sg21
Nsg13
g142
sg24
S'ProducerClient'
p214
sg12
I91
sbag1
(g138
g3
NtRp215
(dp216
g37
Nsg19
S'producer_host'
p217
sg21
Nsg13
g142
sg24
S'ProducerHost&'
p218
sg12
I91
sbasg12
I91
sg13
g142
sbsg21
Nsg13
Nsg12
Nsg144
Nsbasg12
Nsg13
Nsbsg21
Nsg12
Nsg19
S'PerfettoService'
p219
sg13
Nsbasg12
NsS'module'
p220
g1
(cmojom.parse.ast
Module
p221
g3
NtRp222
(dp223
S'mojom_namespace'
p224
(S'IDENTIFIER'
p225
S'tracing.mojom'
tp226
sg12
I5
sg21
Nsg13
g142
sbsg13
Nsb.