ccopy_reg
_reconstructor
p1
(cmojom.parse.ast
Mojom
p2
c__builtin__
object
p3
NtRp4
(dp5
S'import_list'
p6
g1
(cmojom.parse.ast
ImportList
p7
g3
NtRp8
(dp9
S'items'
p10
(lp11
g1
(cmojom.parse.ast
Import
p12
g3
NtRp13
(dp14
S'attribute_list'
p15
NsS'lineno'
p16
I7
sS'import_filename'
p17
S'mojo/public/mojom/base/time.mojom'
p18
sS'filename'
p19
S'../../services/tracing/public/mojom/tracing.mojom'
p20
sbag1
(g12
g3
NtRp21
(dp22
g15
Nsg16
I8
sg17
S'mojo/public/mojom/base/values.mojom'
p23
sg19
g20
sbasg16
I7
sg19
g20
sbsS'definition_list'
p24
(lp25
g1
(cmojom.parse.ast
Enum
p26
g3
NtRp27
(dp28
g15
NsS'enum_value_list'
p29
g1
(cmojom.parse.ast
EnumValueList
p30
g3
NtRp31
(dp32
g10
(lp33
g1
(cmojom.parse.ast
EnumValue
p34
g3
NtRp35
(dp36
g15
NsS'value'
p37
Nsg16
I18
sS'mojom_name'
p38
S'ARRAY'
p39
sg19
g20
sbag1
(g34
g3
NtRp40
(dp41
g15
Nsg37
Nsg16
I19
sg38
S'OBJECT'
p42
sg19
g20
sbag1
(g34
g3
NtRp43
(dp44
g15
Nsg37
Nsg16
I20
sg38
S'STRING'
p45
sg19
g20
sbasg16
I18
sg19
g20
sbsg16
I17
sg38
S'TraceDataType'
p46
sg19
g20
sbag1
(cmojom.parse.ast
Interface
p47
g3
NtRp48
(dp49
S'body'
p50
g1
(cmojom.parse.ast
InterfaceBody
p51
g3
NtRp52
(dp53
g10
(lp54
g1
(cmojom.parse.ast
Method
p55
g3
NtRp56
(dp57
S'ordinal'
p58
Nsg38
S'RegisterAgent'
p59
sS'parameter_list'
p60
g1
(cmojom.parse.ast
ParameterList
p61
g3
NtRp62
(dp63
g10
(lp64
g1
(cmojom.parse.ast
Parameter
p65
g3
NtRp66
(dp67
g58
Nsg38
S'agent'
p68
sg15
Nsg19
g20
sS'typename'
p69
S'Agent'
p70
sg16
I31
sbag1
(g65
g3
NtRp71
(dp72
g58
Nsg38
S'label'
p73
sg15
Nsg19
g20
sg69
S'string'
p74
sg16
I31
sbag1
(g65
g3
NtRp75
(dp76
g58
Nsg38
S'type'
p77
sg15
Nsg19
g20
sg69
S'TraceDataType'
p78
sg16
I31
sbag1
(g65
g3
NtRp79
(dp80
g58
Nsg38
S'supports_explicit_clock_sync_'
p81
sg15
Nsg19
g20
sg69
S'bool'
p82
sg16
I32
sbasg16
I31
sg19
g20
sbsg15
Nsg19
Nsg16
NsS'response_parameter_list'
p83
Nsbasg16
Nsg19
Nsbsg15
Nsg16
Nsg38
S'AgentRegistry'
p84
sg19
Nsbag1
(g47
g3
NtRp85
(dp86
g50
g1
(g51
g3
NtRp87
(dp88
g10
(lp89
g1
(g55
g3
NtRp90
(dp91
g58
Nsg38
S'StartTracing'
p92
sg60
g1
(g61
g3
NtRp93
(dp94
g10
(lp95
g1
(g65
g3
NtRp96
(dp97
g58
Nsg38
S'config'
p98
sg15
Nsg19
g20
sg69
S'string'
p99
sg16
I40
sbag1
(g65
g3
NtRp100
(dp101
g58
Nsg38
S'coordinator_time'
p102
sg15
Nsg19
g20
sg69
S'mojo_base.mojom.TimeTicks'
p103
sg16
I40
sbasg16
I40
sg19
g20
sbsg15
Nsg19
Nsg16
Nsg83
g1
(g61
g3
NtRp104
(dp105
g10
(lp106
g1
(g65
g3
NtRp107
(dp108
g58
Nsg38
S'success'
p109
sg15
Nsg19
g20
sg69
S'bool'
p110
sg16
I41
sbasg16
I41
sg19
g20
sbsbag1
(g55
g3
NtRp111
(dp112
g58
Nsg38
S'StopAndFlush'
p113
sg60
g1
(g61
g3
NtRp114
(dp115
g10
(lp116
g1
(g65
g3
NtRp117
(dp118
g58
Nsg38
S'recorder'
p119
sg15
Nsg19
g20
sg69
S'Recorder'
p120
sg16
I42
sbasg16
I42
sg19
g20
sbsg15
Nsg19
Nsg16
Nsg83
Nsbag1
(g55
g3
NtRp121
(dp122
g58
Nsg38
S'RequestClockSyncMarker'
p123
sg60
g1
(g61
g3
NtRp124
(dp125
g10
(lp126
g1
(g65
g3
NtRp127
(dp128
g58
Nsg38
S'sync_id'
p129
sg15
Nsg19
g20
sg69
S'string'
p130
sg16
I43
sbasg16
I43
sg19
g20
sbsg15
Nsg19
Nsg16
Nsg83
g1
(g61
g3
NtRp131
(dp132
g10
(lp133
g1
(g65
g3
NtRp134
(dp135
g58
Nsg38
S'issue_ts'
p136
sg15
Nsg19
g20
sg69
S'mojo_base.mojom.TimeTicks'
p137
sg16
I44
sbag1
(g65
g3
NtRp138
(dp139
g58
Nsg38
S'issue_end_ts'
p140
sg15
Nsg19
g20
sg69
S'mojo_base.mojom.TimeTicks'
p141
sg16
I45
sbasg16
I44
sg19
g20
sbsbag1
(g55
g3
NtRp142
(dp143
g58
Nsg38
S'RequestBufferStatus'
p144
sg60
g1
(g61
g3
NtRp145
(dp146
g10
(lp147
sg16
Nsg19
Nsbsg15
Nsg19
Nsg16
Nsg83
g1
(g61
g3
NtRp148
(dp149
g10
(lp150
g1
(g65
g3
NtRp151
(dp152
g58
Nsg38
S'capacity'
p153
sg15
Nsg19
g20
sg69
S'uint32'
p154
sg16
I46
sbag1
(g65
g3
NtRp155
(dp156
g58
Nsg38
S'count'
p157
sg15
Nsg19
g20
sg69
S'uint32'
p158
sg16
I46
sbasg16
I46
sg19
g20
sbsbag1
(g55
g3
NtRp159
(dp160
g58
Nsg38
S'GetCategories'
p161
sg60
g1
(g61
g3
NtRp162
(dp163
g10
(lp164
sg16
Nsg19
Nsbsg15
Nsg19
Nsg16
Nsg83
g1
(g61
g3
NtRp165
(dp166
g10
(lp167
g1
(g65
g3
NtRp168
(dp169
g58
Nsg38
S'categories'
p170
sg15
Nsg19
g20
sg69
S'string'
p171
sg16
I47
sbasg16
I47
sg19
g20
sbsbasg16
Nsg19
Nsbsg15
Nsg16
Nsg38
S'Agent'
p172
sg19
Nsbag1
(g47
g3
NtRp173
(dp174
g50
g1
(g51
g3
NtRp175
(dp176
g10
(lp177
g1
(g55
g3
NtRp178
(dp179
g58
Nsg38
S'AddChunk'
p180
sg60
g1
(g61
g3
NtRp181
(dp182
g10
(lp183
g1
(g65
g3
NtRp184
(dp185
g58
Nsg38
S'chunk'
p186
sg15
Nsg19
g20
sg69
S'string'
p187
sg16
I55
sbasg16
I55
sg19
g20
sbsg15
Nsg19
Nsg16
Nsg83
Nsbag1
(g55
g3
NtRp188
(dp189
g58
Nsg38
S'AddMetadata'
p190
sg60
g1
(g61
g3
NtRp191
(dp192
g10
(lp193
g1
(g65
g3
NtRp194
(dp195
g58
Nsg38
S'metadata'
p196
sg15
Nsg19
g20
sg69
S'mojo_base.mojom.DictionaryValue'
p197
sg16
I56
sbasg16
I56
sg19
g20
sbsg15
Nsg19
Nsg16
Nsg83
Nsbasg16
Nsg19
Nsbsg15
Nsg16
Nsg38
S'Recorder'
p198
sg19
Nsbag1
(g47
g3
NtRp199
(dp200
g50
g1
(g51
g3
NtRp201
(dp202
g10
(lp203
g1
(g55
g3
NtRp204
(dp205
g58
Nsg38
S'StartTracing'
p206
sg60
g1
(g61
g3
NtRp207
(dp208
g10
(lp209
g1
(g65
g3
NtRp210
(dp211
g58
Nsg38
S'config'
p212
sg15
Nsg19
g20
sg69
S'string'
p213
sg16
I66
sbasg16
I66
sg19
g20
sbsg15
Nsg19
Nsg16
Nsg83
g1
(g61
g3
NtRp214
(dp215
g10
(lp216
g1
(g65
g3
NtRp217
(dp218
g58
Nsg38
S'success'
p219
sg15
Nsg19
g20
sg69
S'bool'
p220
sg16
I66
sbasg16
I66
sg19
g20
sbsbag1
(g55
g3
NtRp221
(dp222
g58
Nsg38
S'StopAndFlush'
p223
sg60
g1
(g61
g3
NtRp224
(dp225
g10
(lp226
g1
(g65
g3
NtRp227
(dp228
g58
Nsg38
S'stream'
p229
sg15
Nsg19
g20
sg69
S'handle<data_pipe_producer>'
p230
sg16
I67
sbasg16
I67
sg19
g20
sbsg15
Nsg19
Nsg16
Nsg83
g1
(g61
g3
NtRp231
(dp232
g10
(lp233
g1
(g65
g3
NtRp234
(dp235
g58
Nsg38
S'metadata'
p236
sg15
Nsg19
g20
sg69
S'mojo_base.mojom.DictionaryValue'
p237
sg16
I68
sbasg16
I68
sg19
g20
sbsbag1
(g55
g3
NtRp238
(dp239
g58
Nsg38
S'StopAndFlushAgent'
p240
sg60
g1
(g61
g3
NtRp241
(dp242
g10
(lp243
g1
(g65
g3
NtRp244
(dp245
g58
Nsg38
S'stream'
p246
sg15
Nsg19
g20
sg69
S'handle<data_pipe_producer>'
p247
sg16
I71
sbag1
(g65
g3
NtRp248
(dp249
g58
Nsg38
S'agent_label'
p250
sg15
Nsg19
g20
sg69
S'string'
p251
sg16
I71
sbasg16
I71
sg19
g20
sbsg15
Nsg19
Nsg16
Nsg83
g1
(g61
g3
NtRp252
(dp253
g10
(lp254
g1
(g65
g3
NtRp255
(dp256
g58
Nsg38
S'metadata'
p257
sg15
Nsg19
g20
sg69
S'mojo_base.mojom.DictionaryValue'
p258
sg16
I72
sbasg16
I72
sg19
g20
sbsbag1
(g55
g3
NtRp259
(dp260
g58
Nsg38
S'IsTracing'
p261
sg60
g1
(g61
g3
NtRp262
(dp263
g10
(lp264
sg16
Nsg19
Nsbsg15
Nsg19
Nsg16
Nsg83
g1
(g61
g3
NtRp265
(dp266
g10
(lp267
g1
(g65
g3
NtRp268
(dp269
g58
Nsg38
S'is_tracing'
p270
sg15
Nsg19
g20
sg69
S'bool'
p271
sg16
I73
sbasg16
I73
sg19
g20
sbsbag1
(g55
g3
NtRp272
(dp273
g58
Nsg38
S'RequestBufferUsage'
p274
sg60
g1
(g61
g3
NtRp275
(dp276
g10
(lp277
sg16
Nsg19
Nsbsg15
Nsg19
Nsg16
Nsg83
g1
(g61
g3
NtRp278
(dp279
g10
(lp280
g1
(g65
g3
NtRp281
(dp282
g58
Nsg38
S'success'
p283
sg15
Nsg19
g20
sg69
S'bool'
p284
sg16
I74
sbag1
(g65
g3
NtRp285
(dp286
g58
Nsg38
S'percent_full'
p287
sg15
Nsg19
g20
sg69
S'float'
p288
sg16
I74
sbag1
(g65
g3
NtRp289
(dp290
g58
Nsg38
S'approximate_count'
p291
sg15
Nsg19
g20
sg69
S'uint32'
p292
sg16
I75
sbasg16
I74
sg19
g20
sbsbag1
(g55
g3
NtRp293
(dp294
g58
Nsg38
S'GetCategories'
p295
sg60
g1
(g61
g3
NtRp296
(dp297
g10
(lp298
sg16
Nsg19
Nsbsg15
Nsg19
Nsg16
Nsg83
g1
(g61
g3
NtRp299
(dp300
g10
(lp301
g1
(g65
g3
NtRp302
(dp303
g58
Nsg38
S'success'
p304
sg15
Nsg19
g20
sg69
S'bool'
p305
sg16
I76
sbag1
(g65
g3
NtRp306
(dp307
g58
Nsg38
S'categories'
p308
sg15
Nsg19
g20
sg69
S'string'
p309
sg16
I76
sbasg16
I76
sg19
g20
sbsbasg16
Nsg19
Nsbsg15
Nsg16
Nsg38
S'Coordinator'
p310
sg19
Nsbasg16
NsS'module'
p311
g1
(cmojom.parse.ast
Module
p312
g3
NtRp313
(dp314
S'mojom_namespace'
p315
(S'IDENTIFIER'
p316
S'tracing.mojom'
tp317
sg16
I5
sg15
Nsg19
g20
sbsg19
Nsb.