ccopy_reg
_reconstructor
p1
(cmojom.parse.ast
Mojom
p2
c__builtin__
object
p3
NtRp4
(dp5
S'import_list'
p6
g1
(cmojom.parse.ast
ImportList
p7
g3
NtRp8
(dp9
S'items'
p10
(lp11
g1
(cmojom.parse.ast
Import
p12
g3
NtRp13
(dp14
S'attribute_list'
p15
NsS'lineno'
p16
I7
sS'import_filename'
p17
S'gpu/ipc/common/gpu_feature_info.mojom'
p18
sS'filename'
p19
S'../../services/viz/privileged/interfaces/gl/gpu_host.mojom'
p20
sbag1
(g12
g3
NtRp21
(dp22
g15
Nsg16
I8
sg17
S'gpu/ipc/common/gpu_info.mojom'
p23
sg19
g20
sbag1
(g12
g3
NtRp24
(dp25
g15
Nsg16
I9
sg17
S'gpu/ipc/common/surface_handle.mojom'
p26
sg19
g20
sbag1
(g12
g3
NtRp27
(dp28
g15
Nsg16
I10
sg17
S'services/viz/privileged/interfaces/gl/context_lost_reason.mojom'
p29
sg19
g20
sbag1
(g12
g3
NtRp30
(dp31
g15
Nsg16
I11
sg17
S'url/mojom/url.mojom'
p32
sg19
g20
sbasg16
I7
sg19
g20
sbsS'definition_list'
p33
(lp34
g1
(cmojom.parse.ast
Interface
p35
g3
NtRp36
(dp37
S'body'
p38
g1
(cmojom.parse.ast
InterfaceBody
p39
g3
NtRp40
(dp41
g10
(lp42
g1
(cmojom.parse.ast
Method
p43
g3
NtRp44
(dp45
S'ordinal'
p46
NsS'mojom_name'
p47
S'DidInitialize'
p48
sS'parameter_list'
p49
g1
(cmojom.parse.ast
ParameterList
p50
g3
NtRp51
(dp52
g10
(lp53
g1
(cmojom.parse.ast
Parameter
p54
g3
NtRp55
(dp56
g46
Nsg47
S'gpu_info'
p57
sg15
Nsg19
g20
sS'typename'
p58
S'gpu.mojom.GpuInfo'
p59
sg16
I19
sbag1
(g54
g3
NtRp60
(dp61
g46
Nsg47
S'gpu_feature_info'
p62
sg15
Nsg19
g20
sg58
S'gpu.mojom.GpuFeatureInfo'
p63
sg16
I20
sbag1
(g54
g3
NtRp64
(dp65
g46
Nsg47
S'gpu_info_for_hardware_gpu'
p66
sg15
Nsg19
g20
sg58
S'gpu.mojom.GpuInfo?'
p67
sg16
I21
sbag1
(g54
g3
NtRp68
(dp69
g46
Nsg47
S'gpu_feature_info_for_hardware_gpu'
p70
sg15
Nsg19
g20
sg58
S'gpu.mojom.GpuFeatureInfo?'
p71
sg16
I22
sbasg16
I19
sg19
g20
sbsg15
Nsg19
Nsg16
NsS'response_parameter_list'
p72
Nsbag1
(g43
g3
NtRp73
(dp74
g46
Nsg47
S'DidFailInitialize'
p75
sg49
g1
(g50
g3
NtRp76
(dp77
g10
(lp78
sg16
Nsg19
Nsbsg15
Nsg19
Nsg16
Nsg72
Nsbag1
(g43
g3
NtRp79
(dp80
g46
Nsg47
S'DidCreateContextSuccessfully'
p81
sg49
g1
(g50
g3
NtRp82
(dp83
g10
(lp84
sg16
Nsg19
Nsbsg15
Nsg19
Nsg16
Nsg72
Nsbag1
(g43
g3
NtRp85
(dp86
g46
Nsg47
S'DidCreateOffscreenContext'
p87
sg49
g1
(g50
g3
NtRp88
(dp89
g10
(lp90
g1
(g54
g3
NtRp91
(dp92
g46
Nsg47
S'url'
p93
sg15
Nsg19
g20
sg58
S'url.mojom.Url'
p94
sg16
I26
sbasg16
I26
sg19
g20
sbsg15
Nsg19
Nsg16
Nsg72
Nsbag1
(g43
g3
NtRp95
(dp96
g46
Nsg47
S'DidDestroyOffscreenContext'
p97
sg49
g1
(g50
g3
NtRp98
(dp99
g10
(lp100
g1
(g54
g3
NtRp101
(dp102
g46
Nsg47
S'url'
p103
sg15
Nsg19
g20
sg58
S'url.mojom.Url'
p104
sg16
I27
sbasg16
I27
sg19
g20
sbsg15
Nsg19
Nsg16
Nsg72
Nsbag1
(g43
g3
NtRp105
(dp106
g46
Nsg47
S'DidDestroyChannel'
p107
sg49
g1
(g50
g3
NtRp108
(dp109
g10
(lp110
g1
(g54
g3
NtRp111
(dp112
g46
Nsg47
S'client_id'
p113
sg15
Nsg19
g20
sg58
S'int32'
p114
sg16
I29
sbasg16
I29
sg19
g20
sbsg15
Nsg19
Nsg16
Nsg72
Nsbag1
(g43
g3
NtRp115
(dp116
g46
Nsg47
S'DidLoseContext'
p117
sg49
g1
(g50
g3
NtRp118
(dp119
g10
(lp120
g1
(g54
g3
NtRp121
(dp122
g46
Nsg47
S'offscreen'
p123
sg15
Nsg19
g20
sg58
S'bool'
p124
sg16
I30
sbag1
(g54
g3
NtRp125
(dp126
g46
Nsg47
S'reason'
p127
sg15
Nsg19
g20
sg58
S'ContextLostReason'
p128
sg16
I31
sbag1
(g54
g3
NtRp129
(dp130
g46
Nsg47
S'active_url'
p131
sg15
Nsg19
g20
sg58
S'url.mojom.Url'
p132
sg16
I32
sbasg16
I30
sg19
g20
sbsg15
Nsg19
Nsg16
Nsg72
Nsbag1
(g43
g3
NtRp133
(dp134
g46
Nsg47
S'SetChildSurface'
p135
sg49
g1
(g50
g3
NtRp136
(dp137
g10
(lp138
g1
(g54
g3
NtRp139
(dp140
g46
Nsg47
S'parent'
p141
sg15
Nsg19
g20
sg58
S'gpu.mojom.SurfaceHandle'
p142
sg16
I34
sbag1
(g54
g3
NtRp143
(dp144
g46
Nsg47
S'child'
p145
sg15
Nsg19
g20
sg58
S'gpu.mojom.SurfaceHandle'
p146
sg16
I35
sbasg16
I34
sg19
g20
sbsg15
Nsg19
Nsg16
Nsg72
Nsbag1
(g43
g3
NtRp147
(dp148
g46
Nsg47
S'StoreShaderToDisk'
p149
sg49
g1
(g50
g3
NtRp150
(dp151
g10
(lp152
g1
(g54
g3
NtRp153
(dp154
g46
Nsg47
S'client_id'
p155
sg15
Nsg19
g20
sg58
S'int32'
p156
sg16
I36
sbag1
(g54
g3
NtRp157
(dp158
g46
Nsg47
S'key'
p159
sg15
Nsg19
g20
sg58
S'string'
p160
sg16
I36
sbag1
(g54
g3
NtRp161
(dp162
g46
Nsg47
S'shader'
p163
sg15
Nsg19
g20
sg58
S'string'
p164
sg16
I36
sbasg16
I36
sg19
g20
sbsg15
Nsg19
Nsg16
Nsg72
Nsbag1
(g43
g3
NtRp165
(dp166
g46
Nsg47
S'RecordLogMessage'
p167
sg49
g1
(g50
g3
NtRp168
(dp169
g10
(lp170
g1
(g54
g3
NtRp171
(dp172
g46
Nsg47
S'severity'
p173
sg15
Nsg19
g20
sg58
S'int32'
p174
sg16
I38
sbag1
(g54
g3
NtRp175
(dp176
g46
Nsg47
S'header'
p177
sg15
Nsg19
g20
sg58
S'string'
p178
sg16
I38
sbag1
(g54
g3
NtRp179
(dp180
g46
Nsg47
S'message'
p181
sg15
Nsg19
g20
sg58
S'string'
p182
sg16
I38
sbasg16
I38
sg19
g20
sbsg15
Nsg19
Nsg16
Nsg72
Nsbasg16
Nsg19
Nsbsg15
Nsg16
Nsg47
S'GpuHost'
p183
sg19
Nsbasg16
NsS'module'
p184
g1
(cmojom.parse.ast
Module
p185
g3
NtRp186
(dp187
S'mojom_namespace'
p188
(S'IDENTIFIER'
p189
S'viz.mojom'
tp190
sg16
I5
sg15
Nsg19
g20
sbsg19
Nsb.