ccopy_reg
_reconstructor
p1
(cmojom.parse.ast
Mojom
p2
c__builtin__
object
p3
NtRp4
(dp5
S'import_list'
p6
g1
(cmojom.parse.ast
ImportList
p7
g3
NtRp8
(dp9
S'items'
p10
(lp11
g1
(cmojom.parse.ast
Import
p12
g3
NtRp13
(dp14
S'attribute_list'
p15
NsS'lineno'
p16
I7
sS'import_filename'
p17
S'components/arc/common/protected_buffer_manager.mojom'
p18
sS'filename'
p19
S'../../services/viz/privileged/interfaces/gl/gpu_service.mojom'
p20
sbag1
(g12
g3
NtRp21
(dp22
g15
Nsg16
I8
sg17
S'components/arc/common/video_decode_accelerator.mojom'
p23
sg19
g20
sbag1
(g12
g3
NtRp24
(dp25
g15
Nsg16
I9
sg17
S'components/arc/common/video_encode_accelerator.mojom'
p26
sg19
g20
sbag1
(g12
g3
NtRp27
(dp28
g15
Nsg16
I10
sg17
S'components/arc/common/video_protected_buffer_allocator.mojom'
p29
sg19
g20
sbag1
(g12
g3
NtRp30
(dp31
g15
Nsg16
I11
sg17
S'gpu/ipc/common/gpu_info.mojom'
p32
sg19
g20
sbag1
(g12
g3
NtRp33
(dp34
g15
Nsg16
I12
sg17
S'gpu/ipc/common/memory_stats.mojom'
p35
sg19
g20
sbag1
(g12
g3
NtRp36
(dp37
g15
Nsg16
I13
sg17
S'gpu/ipc/common/surface_handle.mojom'
p38
sg19
g20
sbag1
(g12
g3
NtRp39
(dp40
g15
Nsg16
I14
sg17
S'gpu/ipc/common/sync_token.mojom'
p41
sg19
g20
sbag1
(g12
g3
NtRp42
(dp43
g15
Nsg16
I15
sg17
S'media/mojo/interfaces/jpeg_decode_accelerator.mojom'
p44
sg19
g20
sbag1
(g12
g3
NtRp45
(dp46
g15
Nsg16
I16
sg17
S'media/mojo/interfaces/jpeg_encode_accelerator.mojom'
p47
sg19
g20
sbag1
(g12
g3
NtRp48
(dp49
g15
Nsg16
I17
sg17
S'media/mojo/interfaces/video_encode_accelerator.mojom'
p50
sg19
g20
sbag1
(g12
g3
NtRp51
(dp52
g15
Nsg16
I18
sg17
S'ui/gfx/geometry/mojo/geometry.mojom'
p53
sg19
g20
sbag1
(g12
g3
NtRp54
(dp55
g15
Nsg16
I19
sg17
S'ui/gfx/mojo/buffer_types.mojom'
p56
sg19
g20
sbasg16
I7
sg19
g20
sbsS'definition_list'
p57
(lp58
g1
(cmojom.parse.ast
Interface
p59
g3
NtRp60
(dp61
S'body'
p62
g1
(cmojom.parse.ast
InterfaceBody
p63
g3
NtRp64
(dp65
g10
(lp66
g1
(cmojom.parse.ast
Method
p67
g3
NtRp68
(dp69
S'ordinal'
p70
NsS'mojom_name'
p71
S'EstablishGpuChannel'
p72
sS'parameter_list'
p73
g1
(cmojom.parse.ast
ParameterList
p74
g3
NtRp75
(dp76
g10
(lp77
g1
(cmojom.parse.ast
Parameter
p78
g3
NtRp79
(dp80
g70
Nsg71
S'client_id'
p81
sg15
Nsg19
g20
sS'typename'
p82
S'int32'
p83
sg16
I24
sbag1
(g78
g3
NtRp84
(dp85
g70
Nsg71
S'client_tracing_id'
p86
sg15
Nsg19
g20
sg82
S'uint64'
p87
sg16
I25
sbag1
(g78
g3
NtRp88
(dp89
g70
Nsg71
S'is_gpu_host'
p90
sg15
Nsg19
g20
sg82
S'bool'
p91
sg16
I26
sbasg16
I24
sg19
g20
sbsg15
Nsg19
Nsg16
NsS'response_parameter_list'
p92
g1
(g74
g3
NtRp93
(dp94
g10
(lp95
g1
(g78
g3
NtRp96
(dp97
g70
Nsg71
S'channel_handle'
p98
sg15
Nsg19
g20
sg82
S'handle<message_pipe>?'
p99
sg16
I27
sbasg16
I27
sg19
g20
sbsbag1
(g67
g3
NtRp100
(dp101
g70
Nsg71
S'CloseChannel'
p102
sg73
g1
(g74
g3
NtRp103
(dp104
g10
(lp105
g1
(g78
g3
NtRp106
(dp107
g70
Nsg71
S'client_id'
p108
sg15
Nsg19
g20
sg82
S'int32'
p109
sg16
I31
sbasg16
I31
sg19
g20
sbsg15
Nsg19
Nsg16
Nsg92
Nsbag1
(g67
g3
NtRp110
(dp111
g70
Nsg71
S'CreateJpegDecodeAccelerator'
p112
sg73
g1
(g74
g3
NtRp113
(dp114
g10
(lp115
g1
(g78
g3
NtRp116
(dp117
g70
Nsg71
S'jda'
p118
sg15
Nsg19
g20
sg82
S'media.mojom.JpegDecodeAccelerator&'
p119
sg16
I51
sbasg16
I51
sg19
g20
sbsg15
Nsg19
Nsg16
Nsg92
Nsbag1
(g67
g3
NtRp120
(dp121
g70
Nsg71
S'CreateJpegEncodeAccelerator'
p122
sg73
g1
(g74
g3
NtRp123
(dp124
g10
(lp125
g1
(g78
g3
NtRp126
(dp127
g70
Nsg71
S'jea'
p128
sg15
Nsg19
g20
sg82
S'media.mojom.JpegEncodeAccelerator&'
p129
sg16
I54
sbasg16
I54
sg19
g20
sbsg15
Nsg19
Nsg16
Nsg92
Nsbag1
(g67
g3
NtRp130
(dp131
g70
Nsg71
S'CreateVideoEncodeAcceleratorProvider'
p132
sg73
g1
(g74
g3
NtRp133
(dp134
g10
(lp135
g1
(g78
g3
NtRp136
(dp137
g70
Nsg71
S'vea_provider'
p138
sg15
Nsg19
g20
sg82
S'media.mojom.VideoEncodeAcceleratorProvider&'
p139
sg16
I58
sbasg16
I58
sg19
g20
sbsg15
Nsg19
Nsg16
Nsg92
Nsbag1
(g67
g3
NtRp140
(dp141
g70
Nsg71
S'CreateGpuMemoryBuffer'
p142
sg73
g1
(g74
g3
NtRp143
(dp144
g10
(lp145
g1
(g78
g3
NtRp146
(dp147
g70
Nsg71
S'id'
p148
sg15
Nsg19
g20
sg82
S'gfx.mojom.GpuMemoryBufferId'
p149
sg16
I60
sbag1
(g78
g3
NtRp150
(dp151
g70
Nsg71
S'size'
p152
sg15
Nsg19
g20
sg82
S'gfx.mojom.Size'
p153
sg16
I61
sbag1
(g78
g3
NtRp154
(dp155
g70
Nsg71
S'format'
p156
sg15
Nsg19
g20
sg82
S'gfx.mojom.BufferFormat'
p157
sg16
I62
sbag1
(g78
g3
NtRp158
(dp159
g70
Nsg71
S'usage'
p160
sg15
Nsg19
g20
sg82
S'gfx.mojom.BufferUsage'
p161
sg16
I63
sbag1
(g78
g3
NtRp162
(dp163
g70
Nsg71
S'client_id'
p164
sg15
Nsg19
g20
sg82
S'int32'
p165
sg16
I64
sbag1
(g78
g3
NtRp166
(dp167
g70
Nsg71
S'surface_handle'
p168
sg15
Nsg19
g20
sg82
S'gpu.mojom.SurfaceHandle'
p169
sg16
I65
sbasg16
I60
sg19
g20
sbsg15
Nsg19
Nsg16
Nsg92
g1
(g74
g3
NtRp170
(dp171
g10
(lp172
g1
(g78
g3
NtRp173
(dp174
g70
Nsg71
S'buffer_handle'
p175
sg15
Nsg19
g20
sg82
S'gfx.mojom.GpuMemoryBufferHandle'
p176
sg16
I66
sbasg16
I66
sg19
g20
sbsbag1
(g67
g3
NtRp177
(dp178
g70
Nsg71
S'DestroyGpuMemoryBuffer'
p179
sg73
g1
(g74
g3
NtRp180
(dp181
g10
(lp182
g1
(g78
g3
NtRp183
(dp184
g70
Nsg71
S'id'
p185
sg15
Nsg19
g20
sg82
S'gfx.mojom.GpuMemoryBufferId'
p186
sg16
I68
sbag1
(g78
g3
NtRp187
(dp188
g70
Nsg71
S'client_id'
p189
sg15
Nsg19
g20
sg82
S'int32'
p190
sg16
I69
sbag1
(g78
g3
NtRp191
(dp192
g70
Nsg71
S'sync_token'
p193
sg15
Nsg19
g20
sg82
S'gpu.mojom.SyncToken'
p194
sg16
I70
sbasg16
I68
sg19
g20
sbsg15
Nsg19
Nsg16
Nsg92
Nsbag1
(g67
g3
NtRp195
(dp196
g70
Nsg71
S'GetVideoMemoryUsageStats'
p197
sg73
g1
(g74
g3
NtRp198
(dp199
g10
(lp200
sg16
Nsg19
Nsbsg15
Nsg19
Nsg16
Nsg92
g1
(g74
g3
NtRp201
(dp202
g10
(lp203
g1
(g78
g3
NtRp204
(dp205
g70
Nsg71
S'stats'
p206
sg15
Nsg19
g20
sg82
S'gpu.mojom.VideoMemoryUsageStats'
p207
sg16
I72
sbasg16
I72
sg19
g20
sbsbag1
(g67
g3
NtRp208
(dp209
g70
Nsg71
S'RequestCompleteGpuInfo'
p210
sg73
g1
(g74
g3
NtRp211
(dp212
g10
(lp213
sg16
Nsg19
Nsbsg15
Nsg19
Nsg16
Nsg92
g1
(g74
g3
NtRp214
(dp215
g10
(lp216
g1
(g78
g3
NtRp217
(dp218
g70
Nsg71
S'gpu_info'
p219
sg15
Nsg19
g20
sg82
S'gpu.mojom.GpuInfo'
p220
sg16
I74
sbasg16
I74
sg19
g20
sbsbag1
(g67
g3
NtRp221
(dp222
g70
Nsg71
S'GetGpuSupportedRuntimeVersion'
p223
sg73
g1
(g74
g3
NtRp224
(dp225
g10
(lp226
sg16
Nsg19
Nsbsg15
Nsg19
Nsg16
Nsg92
g1
(g74
g3
NtRp227
(dp228
g10
(lp229
g1
(g78
g3
NtRp230
(dp231
g70
Nsg71
S'gpu_info'
p232
sg15
Nsg19
g20
sg82
S'gpu.mojom.GpuInfo'
p233
sg16
I75
sbasg16
I75
sg19
g20
sbsbag1
(g67
g3
NtRp234
(dp235
g70
Nsg71
S'RequestHDRStatus'
p236
sg73
g1
(g74
g3
NtRp237
(dp238
g10
(lp239
sg16
Nsg19
Nsbsg15
Nsg19
Nsg16
Nsg92
g1
(g74
g3
NtRp240
(dp241
g10
(lp242
g1
(g78
g3
NtRp243
(dp244
g70
Nsg71
S'hdr_enabled'
p245
sg15
Nsg19
g20
sg82
S'bool'
p246
sg16
I79
sbasg16
I79
sg19
g20
sbsbag1
(g67
g3
NtRp247
(dp248
g70
Nsg71
S'LoadedShader'
p249
sg73
g1
(g74
g3
NtRp250
(dp251
g10
(lp252
g1
(g78
g3
NtRp253
(dp254
g70
Nsg71
S'key'
p255
sg15
Nsg19
g20
sg82
S'string'
p256
sg16
I84
sbag1
(g78
g3
NtRp257
(dp258
g70
Nsg71
S'data'
p259
sg15
Nsg19
g20
sg82
S'string'
p260
sg16
I84
sbasg16
I84
sg19
g20
sbsg15
Nsg19
Nsg16
Nsg92
Nsbag1
(g67
g3
NtRp261
(dp262
g70
Nsg71
S'DestroyingVideoSurface'
p263
sg73
g1
(g74
g3
NtRp264
(dp265
g10
(lp266
g1
(g78
g3
NtRp267
(dp268
g70
Nsg71
S'surface_id'
p269
sg15
Nsg19
g20
sg82
S'int32'
p270
sg16
I87
sbasg16
I87
sg19
g20
sbsg15
Nsg19
Nsg16
Nsg92
g1
(g74
g3
NtRp271
(dp272
g10
(lp273
sg16
Nsg19
Nsbsbag1
(g67
g3
NtRp274
(dp275
g70
Nsg71
S'WakeUpGpu'
p276
sg73
g1
(g74
g3
NtRp277
(dp278
g10
(lp279
sg16
Nsg19
Nsbsg15
Nsg19
Nsg16
Nsg92
Nsbag1
(g67
g3
NtRp280
(dp281
g70
Nsg71
S'GpuSwitched'
p282
sg73
g1
(g74
g3
NtRp283
(dp284
g10
(lp285
sg16
Nsg19
Nsbsg15
Nsg19
Nsg16
Nsg92
Nsbag1
(g67
g3
NtRp286
(dp287
g70
Nsg71
S'DestroyAllChannels'
p288
sg73
g1
(g74
g3
NtRp289
(dp290
g10
(lp291
sg16
Nsg19
Nsbsg15
Nsg19
Nsg16
Nsg92
Nsbag1
(g67
g3
NtRp292
(dp293
g70
Nsg71
S'OnBackgroundCleanup'
p294
sg73
g1
(g74
g3
NtRp295
(dp296
g10
(lp297
sg16
Nsg19
Nsbsg15
Nsg19
Nsg16
Nsg92
Nsbag1
(g67
g3
NtRp298
(dp299
g70
Nsg71
S'OnBackgrounded'
p300
sg73
g1
(g74
g3
NtRp301
(dp302
g10
(lp303
sg16
Nsg19
Nsbsg15
Nsg19
Nsg16
Nsg92
Nsbag1
(g67
g3
NtRp304
(dp305
g70
Nsg71
S'OnForegrounded'
p306
sg73
g1
(g74
g3
NtRp307
(dp308
g10
(lp309
sg16
Nsg19
Nsbsg15
Nsg19
Nsg16
Nsg92
Nsbag1
(g67
g3
NtRp310
(dp311
g70
Nsg71
S'Crash'
p312
sg73
g1
(g74
g3
NtRp313
(dp314
g10
(lp315
sg16
Nsg19
Nsbsg15
Nsg19
Nsg16
Nsg92
Nsbag1
(g67
g3
NtRp316
(dp317
g70
Nsg71
S'Hang'
p318
sg73
g1
(g74
g3
NtRp319
(dp320
g10
(lp321
sg16
Nsg19
Nsbsg15
Nsg19
Nsg16
Nsg92
Nsbag1
(g67
g3
NtRp322
(dp323
g70
Nsg71
S'ThrowJavaException'
p324
sg73
g1
(g74
g3
NtRp325
(dp326
g10
(lp327
sg16
Nsg19
Nsbsg15
Nsg19
Nsg16
Nsg92
Nsbag1
(g67
g3
NtRp328
(dp329
g70
Nsg71
S'Stop'
p330
sg73
g1
(g74
g3
NtRp331
(dp332
g10
(lp333
sg16
Nsg19
Nsbsg15
Nsg19
Nsg16
Nsg92
g1
(g74
g3
NtRp334
(dp335
g10
(lp336
sg16
Nsg19
Nsbsbasg16
Nsg19
Nsbsg15
Nsg16
Nsg71
S'GpuService'
p337
sg19
Nsbasg16
NsS'module'
p338
g1
(cmojom.parse.ast
Module
p339
g3
NtRp340
(dp341
S'mojom_namespace'
p342
(S'IDENTIFIER'
p343
S'viz.mojom'
tp344
sg16
I5
sg15
Nsg19
g20
sbsg19
Nsb.