ccopy_reg
_reconstructor
p1
(cmojom.parse.ast
Mojom
p2
c__builtin__
object
p3
NtRp4
(dp5
S'import_list'
p6
g1
(cmojom.parse.ast
ImportList
p7
g3
NtRp8
(dp9
S'items'
p10
(lp11
g1
(cmojom.parse.ast
Import
p12
g3
NtRp13
(dp14
S'attribute_list'
p15
NsS'lineno'
p16
I7
sS'import_filename'
p17
S'ui/gfx/geometry/mojo/geometry.mojom'
p18
sS'filename'
p19
S'../../services/ui/public/interfaces/display/display_controller.mojom'
p20
sbasg16
I7
sg19
g20
sbsS'definition_list'
p21
(lp22
g1
(cmojom.parse.ast
Interface
p23
g3
NtRp24
(dp25
S'body'
p26
g1
(cmojom.parse.ast
InterfaceBody
p27
g3
NtRp28
(dp29
g10
(lp30
g1
(cmojom.parse.ast
Method
p31
g3
NtRp32
(dp33
S'ordinal'
p34
NsS'mojom_name'
p35
S'IncreaseInternalDisplayZoom'
p36
sS'parameter_list'
p37
g1
(cmojom.parse.ast
ParameterList
p38
g3
NtRp39
(dp40
g10
(lp41
sg16
Nsg19
Nsbsg15
Nsg19
Nsg16
NsS'response_parameter_list'
p42
Nsbag1
(g31
g3
NtRp43
(dp44
g34
Nsg35
S'DecreaseInternalDisplayZoom'
p45
sg37
g1
(g38
g3
NtRp46
(dp47
g10
(lp48
sg16
Nsg19
Nsbsg15
Nsg19
Nsg16
Nsg42
Nsbag1
(g31
g3
NtRp49
(dp50
g34
Nsg35
S'ResetInternalDisplayZoom'
p51
sg37
g1
(g38
g3
NtRp52
(dp53
g10
(lp54
sg16
Nsg19
Nsbsg15
Nsg19
Nsg16
Nsg42
Nsbag1
(g31
g3
NtRp55
(dp56
g34
Nsg35
S'RotateCurrentDisplayCW'
p57
sg37
g1
(g38
g3
NtRp58
(dp59
g10
(lp60
sg16
Nsg19
Nsbsg15
Nsg19
Nsg16
Nsg42
Nsbag1
(g31
g3
NtRp61
(dp62
g34
Nsg35
S'SwapPrimaryDisplay'
p63
sg37
g1
(g38
g3
NtRp64
(dp65
g10
(lp66
sg16
Nsg19
Nsbsg15
Nsg19
Nsg16
Nsg42
Nsbag1
(g31
g3
NtRp67
(dp68
g34
Nsg35
S'ToggleMirrorMode'
p69
sg37
g1
(g38
g3
NtRp70
(dp71
g10
(lp72
sg16
Nsg19
Nsbsg15
Nsg19
Nsg16
Nsg42
Nsbag1
(g31
g3
NtRp73
(dp74
g34
Nsg35
S'TakeDisplayControl'
p75
sg37
g1
(g38
g3
NtRp76
(dp77
g10
(lp78
sg16
Nsg19
Nsbsg15
Nsg19
Nsg16
Nsg42
g1
(g38
g3
NtRp79
(dp80
g10
(lp81
g1
(cmojom.parse.ast
Parameter
p82
g3
NtRp83
(dp84
g34
Nsg35
S'status'
p85
sg15
Nsg19
g20
sS'typename'
p86
S'bool'
p87
sg16
I38
sbasg16
I38
sg19
g20
sbsbag1
(g31
g3
NtRp88
(dp89
g34
Nsg35
S'RelinquishDisplayControl'
p90
sg37
g1
(g38
g3
NtRp91
(dp92
g10
(lp93
sg16
Nsg19
Nsbsg15
Nsg19
Nsg16
Nsg42
g1
(g38
g3
NtRp94
(dp95
g10
(lp96
g1
(g82
g3
NtRp97
(dp98
g34
Nsg35
S'status'
p99
sg15
Nsg19
g20
sg86
S'bool'
p100
sg16
I42
sbasg16
I42
sg19
g20
sbsbag1
(g31
g3
NtRp101
(dp102
g34
Nsg35
S'SetDisplayWorkArea'
p103
sg37
g1
(g38
g3
NtRp104
(dp105
g10
(lp106
g1
(g82
g3
NtRp107
(dp108
g34
Nsg35
S'display_id'
p109
sg15
Nsg19
g20
sg86
S'int64'
p110
sg16
I48
sbag1
(g82
g3
NtRp111
(dp112
g34
Nsg35
S'size'
p113
sg15
Nsg19
g20
sg86
S'gfx.mojom.Size'
p114
sg16
I49
sbag1
(g82
g3
NtRp115
(dp116
g34
Nsg35
S'insets'
p117
sg15
Nsg19
g20
sg86
S'gfx.mojom.Insets'
p118
sg16
I50
sbasg16
I48
sg19
g20
sbsg15
Nsg19
Nsg16
Nsg42
Nsbasg16
Nsg19
Nsbsg15
Nsg16
Nsg35
S'DisplayController'
p119
sg19
Nsbasg16
NsS'module'
p120
g1
(cmojom.parse.ast
Module
p121
g3
NtRp122
(dp123
S'mojom_namespace'
p124
(S'IDENTIFIER'
p125
S'display.mojom'
tp126
sg16
I5
sg15
Nsg19
g20
sbsg19
Nsb.