ccopy_reg
_reconstructor
p1
(cmojom.parse.ast
Mojom
p2
c__builtin__
object
p3
NtRp4
(dp5
S'import_list'
p6
g1
(cmojom.parse.ast
ImportList
p7
g3
NtRp8
(dp9
S'items'
p10
(lp11
sS'lineno'
p12
NsS'filename'
p13
NsbsS'definition_list'
p14
(lp15
g1
(cmojom.parse.ast
Interface
p16
g3
NtRp17
(dp18
S'body'
p19
g1
(cmojom.parse.ast
InterfaceBody
p20
g3
NtRp21
(dp22
g10
(lp23
g1
(cmojom.parse.ast
Method
p24
g3
NtRp25
(dp26
S'ordinal'
p27
NsS'mojom_name'
p28
S'QueryContentProtectionStatus'
p29
sS'parameter_list'
p30
g1
(cmojom.parse.ast
ParameterList
p31
g3
NtRp32
(dp33
g10
(lp34
g1
(cmojom.parse.ast
Parameter
p35
g3
NtRp36
(dp37
g27
Nsg28
S'display_id'
p38
sS'attribute_list'
p39
Nsg13
S'../../services/ui/public/interfaces/display/output_protection.mojom'
p40
sS'typename'
p41
S'int64'
p42
sg12
I19
sbasg12
I19
sg13
g40
sbsg39
Nsg13
Nsg12
NsS'response_parameter_list'
p43
g1
(g31
g3
NtRp44
(dp45
g10
(lp46
g1
(g35
g3
NtRp47
(dp48
g27
Nsg28
S'success'
p49
sg39
Nsg13
g40
sg41
S'bool'
p50
sg12
I19
sbag1
(g35
g3
NtRp51
(dp52
g27
Nsg28
S'link_mask'
p53
sg39
Nsg13
g40
sg41
S'uint32'
p54
sg12
I20
sbag1
(g35
g3
NtRp55
(dp56
g27
Nsg28
S'protection_mask'
p57
sg39
Nsg13
g40
sg41
S'uint32'
p58
sg12
I21
sbasg12
I19
sg13
g40
sbsbag1
(g24
g3
NtRp59
(dp60
g27
Nsg28
S'SetContentProtection'
p61
sg30
g1
(g31
g3
NtRp62
(dp63
g10
(lp64
g1
(g35
g3
NtRp65
(dp66
g27
Nsg28
S'display_id'
p67
sg39
Nsg13
g40
sg41
S'int64'
p68
sg12
I30
sbag1
(g35
g3
NtRp69
(dp70
g27
Nsg28
S'desired_method_mask'
p71
sg39
Nsg13
g40
sg41
S'uint32'
p72
sg12
I31
sbasg12
I30
sg13
g40
sbsg39
Nsg13
Nsg12
Nsg43
g1
(g31
g3
NtRp73
(dp74
g10
(lp75
g1
(g35
g3
NtRp76
(dp77
g27
Nsg28
S'success'
p78
sg39
Nsg13
g40
sg41
S'bool'
p79
sg12
I31
sbasg12
I31
sg13
g40
sbsbasg12
Nsg13
Nsbsg39
Nsg12
Nsg28
S'OutputProtection'
p80
sg13
Nsbasg12
NsS'module'
p81
g1
(cmojom.parse.ast
Module
p82
g3
NtRp83
(dp84
S'mojom_namespace'
p85
(S'IDENTIFIER'
p86
S'display.mojom'
tp87
sg12
I5
sg39
Nsg13
g40
sbsg13
Nsb.