ccopy_reg
_reconstructor
p1
(cmojom.parse.ast
Mojom
p2
c__builtin__
object
p3
NtRp4
(dp5
S'import_list'
p6
g1
(cmojom.parse.ast
ImportList
p7
g3
NtRp8
(dp9
S'items'
p10
(lp11
g1
(cmojom.parse.ast
Import
p12
g3
NtRp13
(dp14
S'attribute_list'
p15
NsS'lineno'
p16
I7
sS'import_filename'
p17
S'mojo/public/mojom/base/file_path.mojom'
p18
sS'filename'
p19
S'../../chrome/services/removable_storage_writer/public/mojom/removable_storage_writer.mojom'
p20
sbasg16
I7
sg19
g20
sbsS'definition_list'
p21
(lp22
g1
(cmojom.parse.ast
Interface
p23
g3
NtRp24
(dp25
S'body'
p26
g1
(cmojom.parse.ast
InterfaceBody
p27
g3
NtRp28
(dp29
g10
(lp30
g1
(cmojom.parse.ast
Const
p31
g3
NtRp32
(dp33
S'mojom_name'
p34
S'kTestDevice'
p35
sg15
NsS'value'
p36
S'"chrome://test-removable-storage-writer"'
p37
sg19
NsS'typename'
p38
S'string'
p39
sg16
Nsbag1
(cmojom.parse.ast
Method
p40
g3
NtRp41
(dp42
S'ordinal'
p43
Nsg34
S'Write'
p44
sS'parameter_list'
p45
g1
(cmojom.parse.ast
ParameterList
p46
g3
NtRp47
(dp48
g10
(lp49
g1
(cmojom.parse.ast
Parameter
p50
g3
NtRp51
(dp52
g43
Nsg34
S'source'
p53
sg15
Nsg19
g20
sg38
S'mojo_base.mojom.FilePath'
p54
sg16
I14
sbag1
(g50
g3
NtRp55
(dp56
g43
Nsg34
S'target'
p57
sg15
Nsg19
g20
sg38
S'mojo_base.mojom.FilePath'
p58
sg16
I15
sbag1
(g50
g3
NtRp59
(dp60
g43
Nsg34
S'client'
p61
sg15
Nsg19
g20
sg38
S'RemovableStorageWriterClient'
p62
sg16
I16
sbasg16
I14
sg19
g20
sbsg15
Nsg19
Nsg16
NsS'response_parameter_list'
p63
Nsbag1
(g40
g3
NtRp64
(dp65
g43
Nsg34
S'Verify'
p66
sg45
g1
(g46
g3
NtRp67
(dp68
g10
(lp69
g1
(g50
g3
NtRp70
(dp71
g43
Nsg34
S'source'
p72
sg15
Nsg19
g20
sg38
S'mojo_base.mojom.FilePath'
p73
sg16
I21
sbag1
(g50
g3
NtRp74
(dp75
g43
Nsg34
S'target'
p76
sg15
Nsg19
g20
sg38
S'mojo_base.mojom.FilePath'
p77
sg16
I22
sbag1
(g50
g3
NtRp78
(dp79
g43
Nsg34
S'client'
p80
sg15
Nsg19
g20
sg38
S'RemovableStorageWriterClient'
p81
sg16
I23
sbasg16
I21
sg19
g20
sbsg15
Nsg19
Nsg16
Nsg63
Nsbasg16
Nsg19
Nsbsg15
Nsg16
Nsg34
S'RemovableStorageWriter'
p82
sg19
Nsbag1
(g23
g3
NtRp83
(dp84
g26
g1
(g27
g3
NtRp85
(dp86
g10
(lp87
g1
(g40
g3
NtRp88
(dp89
g43
Nsg34
S'Progress'
p90
sg45
g1
(g46
g3
NtRp91
(dp92
g10
(lp93
g1
(g50
g3
NtRp94
(dp95
g43
Nsg34
S'progress'
p96
sg15
Nsg19
g20
sg38
S'int64'
p97
sg16
I29
sbasg16
I29
sg19
g20
sbsg15
Nsg19
Nsg16
Nsg63
Nsbag1
(g40
g3
NtRp98
(dp99
g43
Nsg34
S'Complete'
p100
sg45
g1
(g46
g3
NtRp101
(dp102
g10
(lp103
g1
(g50
g3
NtRp104
(dp105
g43
Nsg34
S'error'
p106
sg15
Nsg19
g20
sg38
S'string?'
p107
sg16
I30
sbasg16
I30
sg19
g20
sbsg15
Nsg19
Nsg16
Nsg63
Nsbasg16
Nsg19
Nsbsg15
Nsg16
Nsg34
S'RemovableStorageWriterClient'
p108
sg19
Nsbasg16
NsS'module'
p109
g1
(cmojom.parse.ast
Module
p110
g3
NtRp111
(dp112
S'mojom_namespace'
p113
(S'IDENTIFIER'
p114
S'chrome.mojom'
tp115
sg16
I5
sg15
Nsg19
g20
sbsg19
Nsb.