ccopy_reg
_reconstructor
p1
(cmojom.parse.ast
Mojom
p2
c__builtin__
object
p3
NtRp4
(dp5
S'import_list'
p6
g1
(cmojom.parse.ast
ImportList
p7
g3
NtRp8
(dp9
S'items'
p10
(lp11
g1
(cmojom.parse.ast
Import
p12
g3
NtRp13
(dp14
S'attribute_list'
p15
NsS'lineno'
p16
I7
sS'import_filename'
p17
S'device/bluetooth/public/mojom/device.mojom'
p18
sS'filename'
p19
S'../../device/bluetooth/public/mojom/adapter.mojom'
p20
sbasg16
I7
sg19
g20
sbsS'definition_list'
p21
(lp22
g1
(cmojom.parse.ast
Enum
p23
g3
NtRp24
(dp25
g15
NsS'enum_value_list'
p26
g1
(cmojom.parse.ast
EnumValueList
p27
g3
NtRp28
(dp29
g10
(lp30
g1
(cmojom.parse.ast
EnumValue
p31
g3
NtRp32
(dp33
g15
NsS'value'
p34
Nsg16
I12
sS'mojom_name'
p35
S'SUCCESS'
p36
sg19
g20
sbag1
(g31
g3
NtRp37
(dp38
g15
Nsg34
Nsg16
I13
sg35
S'AUTH_CANCELED'
p39
sg19
g20
sbag1
(g31
g3
NtRp40
(dp41
g15
Nsg34
Nsg16
I14
sg35
S'AUTH_FAILED'
p42
sg19
g20
sbag1
(g31
g3
NtRp43
(dp44
g15
Nsg34
Nsg16
I15
sg35
S'AUTH_REJECTED'
p45
sg19
g20
sbag1
(g31
g3
NtRp46
(dp47
g15
Nsg34
Nsg16
I16
sg35
S'AUTH_TIMEOUT'
p48
sg19
g20
sbag1
(g31
g3
NtRp49
(dp50
g15
Nsg34
Nsg16
I17
sg35
S'FAILED'
p51
sg19
g20
sbag1
(g31
g3
NtRp52
(dp53
g15
Nsg34
Nsg16
I18
sg35
S'INPROGRESS'
p54
sg19
g20
sbag1
(g31
g3
NtRp55
(dp56
g15
Nsg34
Nsg16
I19
sg35
S'UNKNOWN'
p57
sg19
g20
sbag1
(g31
g3
NtRp58
(dp59
g15
Nsg34
Nsg16
I20
sg35
S'UNSUPPORTED_DEVICE'
p60
sg19
g20
sbag1
(g31
g3
NtRp61
(dp62
g15
Nsg34
Nsg16
I21
sg35
S'DEVICE_NO_LONGER_IN_RANGE'
p63
sg19
g20
sbasg16
I12
sg19
g20
sbsg16
I11
sg35
S'ConnectResult'
p64
sg19
g20
sbag1
(cmojom.parse.ast
Struct
p65
g3
NtRp66
(dp67
S'body'
p68
g1
(cmojom.parse.ast
StructBody
p69
g3
NtRp70
(dp71
g10
(lp72
g1
(cmojom.parse.ast
StructField
p73
g3
NtRp74
(dp75
S'ordinal'
p76
NsS'default_value'
p77
Nsg35
S'address'
p78
sg15
Nsg19
NsS'typename'
p79
S'string'
p80
sg16
Nsbag1
(g73
g3
NtRp81
(dp82
g76
Nsg77
Nsg35
S'name'
p83
sg15
Nsg19
Nsg79
S'string'
p84
sg16
Nsbag1
(g73
g3
NtRp85
(dp86
g76
Nsg77
Nsg35
S'initialized'
p87
sg15
Nsg19
Nsg79
S'bool'
p88
sg16
Nsbag1
(g73
g3
NtRp89
(dp90
g76
Nsg77
Nsg35
S'present'
p91
sg15
Nsg19
Nsg79
S'bool'
p92
sg16
Nsbag1
(g73
g3
NtRp93
(dp94
g76
Nsg77
Nsg35
S'powered'
p95
sg15
Nsg19
Nsg79
S'bool'
p96
sg16
Nsbag1
(g73
g3
NtRp97
(dp98
g76
Nsg77
Nsg35
S'discoverable'
p99
sg15
Nsg19
Nsg79
S'bool'
p100
sg16
Nsbag1
(g73
g3
NtRp101
(dp102
g76
Nsg77
Nsg35
S'discovering'
p103
sg15
Nsg19
Nsg79
S'bool'
p104
sg16
Nsbasg16
Nsg19
Nsbsg15
Nsg16
Nsg35
S'AdapterInfo'
p105
sg19
Nsbag1
(cmojom.parse.ast
Interface
p106
g3
NtRp107
(dp108
g68
g1
(cmojom.parse.ast
InterfaceBody
p109
g3
NtRp110
(dp111
g10
(lp112
g1
(cmojom.parse.ast
Method
p113
g3
NtRp114
(dp115
g76
Nsg35
S'IsActive'
p116
sS'parameter_list'
p117
g1
(cmojom.parse.ast
ParameterList
p118
g3
NtRp119
(dp120
g10
(lp121
sg16
Nsg19
Nsbsg15
Nsg19
Nsg16
NsS'response_parameter_list'
p122
g1
(g118
g3
NtRp123
(dp124
g10
(lp125
g1
(cmojom.parse.ast
Parameter
p126
g3
NtRp127
(dp128
g76
Nsg35
S'active'
p129
sg15
Nsg19
g20
sg79
S'bool'
p130
sg16
I41
sbasg16
I41
sg19
g20
sbsbag1
(g113
g3
NtRp131
(dp132
g76
Nsg35
S'Stop'
p133
sg117
g1
(g118
g3
NtRp134
(dp135
g10
(lp136
sg16
Nsg19
Nsbsg15
Nsg19
Nsg16
Nsg122
g1
(g118
g3
NtRp137
(dp138
g10
(lp139
g1
(g126
g3
NtRp140
(dp141
g76
Nsg35
S'success'
p142
sg15
Nsg19
g20
sg79
S'bool'
p143
sg16
I51
sbasg16
I51
sg19
g20
sbsbasg16
Nsg19
Nsbsg15
Nsg16
Nsg35
S'DiscoverySession'
p144
sg19
Nsbag1
(g106
g3
NtRp145
(dp146
g68
g1
(g109
g3
NtRp147
(dp148
g10
(lp149
g1
(g113
g3
NtRp150
(dp151
g76
Nsg35
S'ConnectToDevice'
p152
sg117
g1
(g118
g3
NtRp153
(dp154
g10
(lp155
g1
(g126
g3
NtRp156
(dp157
g76
Nsg35
S'address'
p158
sg15
Nsg19
g20
sg79
S'string'
p159
sg16
I58
sbasg16
I58
sg19
g20
sbsg15
Nsg19
Nsg16
Nsg122
g1
(g118
g3
NtRp160
(dp161
g10
(lp162
g1
(g126
g3
NtRp163
(dp164
g76
Nsg35
S'result'
p165
sg15
Nsg19
g20
sg79
S'ConnectResult'
p166
sg16
I58
sbag1
(g126
g3
NtRp167
(dp168
g76
Nsg35
S'device'
p169
sg15
Nsg19
g20
sg79
S'Device?'
p170
sg16
I58
sbasg16
I58
sg19
g20
sbsbag1
(g113
g3
NtRp171
(dp172
g76
Nsg35
S'GetDevices'
p173
sg117
g1
(g118
g3
NtRp174
(dp175
g10
(lp176
sg16
Nsg19
Nsbsg15
Nsg19
Nsg16
Nsg122
g1
(g118
g3
NtRp177
(dp178
g10
(lp179
g1
(g126
g3
NtRp180
(dp181
g76
Nsg35
S'devices'
p182
sg15
Nsg19
g20
sg79
S'DeviceInfo[]'
p183
sg16
I63
sbasg16
I63
sg19
g20
sbsbag1
(g113
g3
NtRp184
(dp185
g76
Nsg35
S'GetInfo'
p186
sg117
g1
(g118
g3
NtRp187
(dp188
g10
(lp189
sg16
Nsg19
Nsbsg15
Nsg19
Nsg16
Nsg122
g1
(g118
g3
NtRp190
(dp191
g10
(lp192
g1
(g126
g3
NtRp193
(dp194
g76
Nsg35
S'info'
p195
sg15
Nsg19
g20
sg79
S'AdapterInfo'
p196
sg16
I66
sbasg16
I66
sg19
g20
sbsbag1
(g113
g3
NtRp197
(dp198
g76
Nsg35
S'SetClient'
p199
sg117
g1
(g118
g3
NtRp200
(dp201
g10
(lp202
g1
(g126
g3
NtRp203
(dp204
g76
Nsg35
S'client'
p205
sg15
Nsg19
g20
sg79
S'AdapterClient'
p206
sg16
I69
sbasg16
I69
sg19
g20
sbsg15
Nsg19
Nsg16
Nsg122
Nsbag1
(g113
g3
NtRp207
(dp208
g76
Nsg35
S'StartDiscoverySession'
p209
sg117
g1
(g118
g3
NtRp210
(dp211
g10
(lp212
sg16
Nsg19
Nsbsg15
Nsg19
Nsg16
Nsg122
g1
(g118
g3
NtRp213
(dp214
g10
(lp215
g1
(g126
g3
NtRp216
(dp217
g76
Nsg35
S'session'
p218
sg15
Nsg19
g20
sg79
S'DiscoverySession?'
p219
sg16
I73
sbasg16
I73
sg19
g20
sbsbasg16
Nsg19
Nsbsg15
Nsg16
Nsg35
S'Adapter'
p220
sg19
Nsbag1
(g106
g3
NtRp221
(dp222
g68
g1
(g109
g3
NtRp223
(dp224
g10
(lp225
g1
(g113
g3
NtRp226
(dp227
g76
Nsg35
S'PresentChanged'
p228
sg117
g1
(g118
g3
NtRp229
(dp230
g10
(lp231
g1
(g126
g3
NtRp232
(dp233
g76
Nsg35
S'present'
p234
sg15
Nsg19
g20
sg79
S'bool'
p235
sg16
I78
sbasg16
I78
sg19
g20
sbsg15
Nsg19
Nsg16
Nsg122
Nsbag1
(g113
g3
NtRp236
(dp237
g76
Nsg35
S'PoweredChanged'
p238
sg117
g1
(g118
g3
NtRp239
(dp240
g10
(lp241
g1
(g126
g3
NtRp242
(dp243
g76
Nsg35
S'powered'
p244
sg15
Nsg19
g20
sg79
S'bool'
p245
sg16
I81
sbasg16
I81
sg19
g20
sbsg15
Nsg19
Nsg16
Nsg122
Nsbag1
(g113
g3
NtRp246
(dp247
g76
Nsg35
S'DiscoverableChanged'
p248
sg117
g1
(g118
g3
NtRp249
(dp250
g10
(lp251
g1
(g126
g3
NtRp252
(dp253
g76
Nsg35
S'discoverable'
p254
sg15
Nsg19
g20
sg79
S'bool'
p255
sg16
I84
sbasg16
I84
sg19
g20
sbsg15
Nsg19
Nsg16
Nsg122
Nsbag1
(g113
g3
NtRp256
(dp257
g76
Nsg35
S'DiscoveringChanged'
p258
sg117
g1
(g118
g3
NtRp259
(dp260
g10
(lp261
g1
(g126
g3
NtRp262
(dp263
g76
Nsg35
S'discovering'
p264
sg15
Nsg19
g20
sg79
S'bool'
p265
sg16
I87
sbasg16
I87
sg19
g20
sbsg15
Nsg19
Nsg16
Nsg122
Nsbag1
(g113
g3
NtRp266
(dp267
g76
Nsg35
S'DeviceAdded'
p268
sg117
g1
(g118
g3
NtRp269
(dp270
g10
(lp271
g1
(g126
g3
NtRp272
(dp273
g76
Nsg35
S'device'
p274
sg15
Nsg19
g20
sg79
S'DeviceInfo'
p275
sg16
I90
sbasg16
I90
sg19
g20
sbsg15
Nsg19
Nsg16
Nsg122
Nsbag1
(g113
g3
NtRp276
(dp277
g76
Nsg35
S'DeviceChanged'
p278
sg117
g1
(g118
g3
NtRp279
(dp280
g10
(lp281
g1
(g126
g3
NtRp282
(dp283
g76
Nsg35
S'device'
p284
sg15
Nsg19
g20
sg79
S'DeviceInfo'
p285
sg16
I99
sbasg16
I99
sg19
g20
sbsg15
Nsg19
Nsg16
Nsg122
Nsbag1
(g113
g3
NtRp286
(dp287
g76
Nsg35
S'DeviceRemoved'
p288
sg117
g1
(g118
g3
NtRp289
(dp290
g10
(lp291
g1
(g126
g3
NtRp292
(dp293
g76
Nsg35
S'device'
p294
sg15
Nsg19
g20
sg79
S'DeviceInfo'
p295
sg16
I102
sbasg16
I102
sg19
g20
sbsg15
Nsg19
Nsg16
Nsg122
Nsbasg16
Nsg19
Nsbsg15
Nsg16
Nsg35
S'AdapterClient'
p296
sg19
Nsbasg16
NsS'module'
p297
g1
(cmojom.parse.ast
Module
p298
g3
NtRp299
(dp300
S'mojom_namespace'
p301
(S'IDENTIFIER'
p302
S'bluetooth.mojom'
tp303
sg16
I5
sg15
Nsg19
g20
sbsg19
Nsb.