ccopy_reg
_reconstructor
p1
(cmojom.parse.ast
Mojom
p2
c__builtin__
object
p3
NtRp4
(dp5
S'import_list'
p6
g1
(cmojom.parse.ast
ImportList
p7
g3
NtRp8
(dp9
S'items'
p10
(lp11
g1
(cmojom.parse.ast
Import
p12
g3
NtRp13
(dp14
S'attribute_list'
p15
NsS'lineno'
p16
I7
sS'import_filename'
p17
S'device/bluetooth/public/mojom/uuid.mojom'
p18
sS'filename'
p19
S'../../device/bluetooth/public/mojom/device.mojom'
p20
sbasg16
I7
sg19
g20
sbsS'definition_list'
p21
(lp22
g1
(cmojom.parse.ast
Enum
p23
g3
NtRp24
(dp25
g15
NsS'enum_value_list'
p26
g1
(cmojom.parse.ast
EnumValueList
p27
g3
NtRp28
(dp29
g10
(lp30
g1
(cmojom.parse.ast
EnumValue
p31
g3
NtRp32
(dp33
g15
NsS'value'
p34
S'0'
sg16
I20
sS'mojom_name'
p35
S'NONE'
p36
sg19
g20
sbag1
(g31
g3
NtRp37
(dp38
g15
Nsg34
S'1'
sg16
I21
sg35
S'BROADCAST'
p39
sg19
g20
sbag1
(g31
g3
NtRp40
(dp41
g15
Nsg34
S'2'
sg16
I22
sg35
S'READ'
p42
sg19
g20
sbag1
(g31
g3
NtRp43
(dp44
g15
Nsg34
S'4'
sg16
I23
sg35
S'WRITE_WITHOUT_RESPONSE'
p45
sg19
g20
sbag1
(g31
g3
NtRp46
(dp47
g15
Nsg34
S'8'
sg16
I24
sg35
S'WRITE'
p48
sg19
g20
sbag1
(g31
g3
NtRp49
(dp50
g15
Nsg34
S'16'
p51
sg16
I25
sg35
S'NOTIFY'
p52
sg19
g20
sbag1
(g31
g3
NtRp53
(dp54
g15
Nsg34
S'32'
p55
sg16
I26
sg35
S'INDICATE'
p56
sg19
g20
sbag1
(g31
g3
NtRp57
(dp58
g15
Nsg34
S'64'
p59
sg16
I27
sg35
S'AUTHENTICATED_SIGNED_WRITES'
p60
sg19
g20
sbag1
(g31
g3
NtRp61
(dp62
g15
Nsg34
S'128'
p63
sg16
I28
sg35
S'EXTENDED_PROPERTIES'
p64
sg19
g20
sbag1
(g31
g3
NtRp65
(dp66
g15
Nsg34
S'256'
p67
sg16
I29
sg35
S'RELIABLE_WRITE'
p68
sg19
g20
sbag1
(g31
g3
NtRp69
(dp70
g15
Nsg34
S'512'
p71
sg16
I30
sg35
S'WRITABLE_AUXILIARIES'
p72
sg19
g20
sbag1
(g31
g3
NtRp73
(dp74
g15
Nsg34
S'1024'
p75
sg16
I31
sg35
S'READ_ENCRYPTED'
p76
sg19
g20
sbag1
(g31
g3
NtRp77
(dp78
g15
Nsg34
S'2048'
p79
sg16
I32
sg35
S'WRITE_ENCRYPTED'
p80
sg19
g20
sbag1
(g31
g3
NtRp81
(dp82
g15
Nsg34
S'4096'
p83
sg16
I33
sg35
S'READ_ENCRYPTED_AUTHENTICATED'
p84
sg19
g20
sbag1
(g31
g3
NtRp85
(dp86
g15
Nsg34
S'8192'
p87
sg16
I34
sg35
S'WRITE_ENCRYPTED_AUTHENTICATED'
p88
sg19
g20
sbasg16
I20
sg19
g20
sbsg16
I19
sg35
S'Property'
p89
sg19
g20
sbag1
(g23
g3
NtRp90
(dp91
g15
Nsg26
g1
(g27
g3
NtRp92
(dp93
g10
(lp94
g1
(g31
g3
NtRp95
(dp96
g15
Nsg34
Nsg16
I38
sg35
S'SUCCESS'
p97
sg19
g20
sbag1
(g31
g3
NtRp98
(dp99
g15
Nsg34
Nsg16
I39
sg35
S'UNKNOWN'
p100
sg19
g20
sbag1
(g31
g3
NtRp101
(dp102
g15
Nsg34
Nsg16
I40
sg35
S'FAILED'
p103
sg19
g20
sbag1
(g31
g3
NtRp104
(dp105
g15
Nsg34
Nsg16
I41
sg35
S'IN_PROGRESS'
p106
sg19
g20
sbag1
(g31
g3
NtRp107
(dp108
g15
Nsg34
Nsg16
I42
sg35
S'INVALID_LENGTH'
p109
sg19
g20
sbag1
(g31
g3
NtRp110
(dp111
g15
Nsg34
Nsg16
I43
sg35
S'NOT_PERMITTED'
p112
sg19
g20
sbag1
(g31
g3
NtRp113
(dp114
g15
Nsg34
Nsg16
I44
sg35
S'NOT_AUTHORIZED'
p115
sg19
g20
sbag1
(g31
g3
NtRp116
(dp117
g15
Nsg34
Nsg16
I45
sg35
S'NOT_PAIRED'
p118
sg19
g20
sbag1
(g31
g3
NtRp119
(dp120
g15
Nsg34
Nsg16
I46
sg35
S'NOT_SUPPORTED'
p121
sg19
g20
sbag1
(g31
g3
NtRp122
(dp123
g15
Nsg34
Nsg16
I47
sg35
S'SERVICE_NOT_FOUND'
p124
sg19
g20
sbag1
(g31
g3
NtRp125
(dp126
g15
Nsg34
Nsg16
I48
sg35
S'CHARACTERISTIC_NOT_FOUND'
p127
sg19
g20
sbag1
(g31
g3
NtRp128
(dp129
g15
Nsg34
Nsg16
I49
sg35
S'DESCRIPTOR_NOT_FOUND'
p130
sg19
g20
sbasg16
I38
sg19
g20
sbsg16
I37
sg35
S'GattResult'
p131
sg19
g20
sbag1
(cmojom.parse.ast
Struct
p132
g3
NtRp133
(dp134
S'body'
p135
g1
(cmojom.parse.ast
StructBody
p136
g3
NtRp137
(dp138
g10
(lp139
g1
(cmojom.parse.ast
StructField
p140
g3
NtRp141
(dp142
S'ordinal'
p143
NsS'default_value'
p144
Nsg35
S'value'
p145
sg15
Nsg19
NsS'typename'
p146
S'int8'
p147
sg16
Nsbasg16
Nsg19
Nsbsg15
Nsg16
Nsg35
S'RSSIWrapper'
p148
sg19
Nsbag1
(g132
g3
NtRp149
(dp150
g135
g1
(g136
g3
NtRp151
(dp152
g10
(lp153
g1
(g140
g3
NtRp154
(dp155
g143
Nsg144
Nsg35
S'name'
p156
sg15
Nsg19
Nsg146
S'string?'
p157
sg16
Nsbag1
(g140
g3
NtRp158
(dp159
g143
Nsg144
Nsg35
S'name_for_display'
p160
sg15
Nsg19
Nsg146
S'string'
p161
sg16
Nsbag1
(g140
g3
NtRp162
(dp163
g143
Nsg144
Nsg35
S'address'
p164
sg15
Nsg19
Nsg146
S'string'
p165
sg16
Nsbag1
(g140
g3
NtRp166
(dp167
g143
Nsg144
Nsg35
S'is_gatt_connected'
p168
sg15
Nsg19
Nsg146
S'bool'
p169
sg16
Nsbag1
(g140
g3
NtRp170
(dp171
g143
Nsg144
Nsg35
S'rssi'
p172
sg15
Nsg19
Nsg146
S'RSSIWrapper?'
p173
sg16
Nsbasg16
Nsg19
Nsbsg15
Nsg16
Nsg35
S'DeviceInfo'
p174
sg19
Nsbag1
(g132
g3
NtRp175
(dp176
g135
g1
(g136
g3
NtRp177
(dp178
g10
(lp179
g1
(g140
g3
NtRp180
(dp181
g143
Nsg144
Nsg35
S'id'
p182
sg15
Nsg19
Nsg146
S'string'
p183
sg16
Nsbag1
(g140
g3
NtRp184
(dp185
g143
Nsg144
Nsg35
S'uuid'
p186
sg15
Nsg19
Nsg146
S'UUID'
p187
sg16
Nsbag1
(g140
g3
NtRp188
(dp189
g143
Nsg144
Nsg35
S'is_primary'
p190
sg15
Nsg19
Nsg146
S'bool'
p191
sg16
Nsbasg16
Nsg19
Nsbsg15
Nsg16
Nsg35
S'ServiceInfo'
p192
sg19
Nsbag1
(g132
g3
NtRp193
(dp194
g135
g1
(g136
g3
NtRp195
(dp196
g10
(lp197
g1
(g140
g3
NtRp198
(dp199
g143
Nsg144
Nsg35
S'id'
p200
sg15
Nsg19
Nsg146
S'string'
p201
sg16
Nsbag1
(g140
g3
NtRp202
(dp203
g143
Nsg144
Nsg35
S'uuid'
p204
sg15
Nsg19
Nsg146
S'UUID'
p205
sg16
Nsbag1
(g140
g3
NtRp206
(dp207
g143
Nsg144
Nsg35
S'properties'
p208
sg15
Nsg19
Nsg146
S'uint32'
p209
sg16
Nsbag1
(g140
g3
NtRp210
(dp211
g143
Nsg144
Nsg35
S'last_known_value'
p212
sg15
Nsg19
Nsg146
S'uint8[]'
p213
sg16
Nsbasg16
Nsg19
Nsbsg15
Nsg16
Nsg35
S'CharacteristicInfo'
p214
sg19
Nsbag1
(g132
g3
NtRp215
(dp216
g135
g1
(g136
g3
NtRp217
(dp218
g10
(lp219
g1
(g140
g3
NtRp220
(dp221
g143
Nsg144
Nsg35
S'id'
p222
sg15
Nsg19
Nsg146
S'string'
p223
sg16
Nsbag1
(g140
g3
NtRp224
(dp225
g143
Nsg144
Nsg35
S'uuid'
p226
sg15
Nsg19
Nsg146
S'UUID'
p227
sg16
Nsbag1
(g140
g3
NtRp228
(dp229
g143
Nsg144
Nsg35
S'last_known_value'
p230
sg15
Nsg19
Nsg146
S'uint8[]'
p231
sg16
Nsbasg16
Nsg19
Nsbsg15
Nsg16
Nsg35
S'DescriptorInfo'
p232
sg19
Nsbag1
(cmojom.parse.ast
Interface
p233
g3
NtRp234
(dp235
g135
g1
(cmojom.parse.ast
InterfaceBody
p236
g3
NtRp237
(dp238
g10
(lp239
g1
(cmojom.parse.ast
Method
p240
g3
NtRp241
(dp242
g143
Nsg35
S'Disconnect'
p243
sS'parameter_list'
p244
g1
(cmojom.parse.ast
ParameterList
p245
g3
NtRp246
(dp247
g10
(lp248
sg16
Nsg19
Nsbsg15
Nsg19
Nsg16
NsS'response_parameter_list'
p249
Nsbag1
(g240
g3
NtRp250
(dp251
g143
Nsg35
S'GetInfo'
p252
sg244
g1
(g245
g3
NtRp253
(dp254
g10
(lp255
sg16
Nsg19
Nsbsg15
Nsg19
Nsg16
Nsg249
g1
(g245
g3
NtRp256
(dp257
g10
(lp258
g1
(cmojom.parse.ast
Parameter
p259
g3
NtRp260
(dp261
g143
Nsg35
S'info'
p262
sg15
Nsg19
g20
sg146
S'DeviceInfo?'
p263
sg16
I90
sbasg16
I90
sg19
g20
sbsbag1
(g240
g3
NtRp264
(dp265
g143
Nsg35
S'GetServices'
p266
sg244
g1
(g245
g3
NtRp267
(dp268
g10
(lp269
sg16
Nsg19
Nsbsg15
Nsg19
Nsg16
Nsg249
g1
(g245
g3
NtRp270
(dp271
g10
(lp272
g1
(g259
g3
NtRp273
(dp274
g143
Nsg35
S'services'
p275
sg15
Nsg19
g20
sg146
S'ServiceInfo[]'
p276
sg16
I93
sbasg16
I93
sg19
g20
sbsbag1
(g240
g3
NtRp277
(dp278
g143
Nsg35
S'GetCharacteristics'
p279
sg244
g1
(g245
g3
NtRp280
(dp281
g10
(lp282
g1
(g259
g3
NtRp283
(dp284
g143
Nsg35
S'service_id'
p285
sg15
Nsg19
g20
sg146
S'string'
p286
sg16
I99
sbasg16
I99
sg19
g20
sbsg15
Nsg19
Nsg16
Nsg249
g1
(g245
g3
NtRp287
(dp288
g10
(lp289
g1
(g259
g3
NtRp290
(dp291
g143
Nsg35
S'characteristics'
p292
sg15
Nsg19
g20
sg146
S'CharacteristicInfo[]?'
p293
sg16
I100
sbasg16
I100
sg19
g20
sbsbag1
(g240
g3
NtRp294
(dp295
g143
Nsg35
S'ReadValueForCharacteristic'
p296
sg244
g1
(g245
g3
NtRp297
(dp298
g10
(lp299
g1
(g259
g3
NtRp300
(dp301
g143
Nsg35
S'service_id'
p302
sg15
Nsg19
g20
sg146
S'string'
p303
sg16
I104
sbag1
(g259
g3
NtRp304
(dp305
g143
Nsg35
S'characteristic_id'
p306
sg15
Nsg19
g20
sg146
S'string'
p307
sg16
I104
sbasg16
I104
sg19
g20
sbsg15
Nsg19
Nsg16
Nsg249
g1
(g245
g3
NtRp308
(dp309
g10
(lp310
g1
(g259
g3
NtRp311
(dp312
g143
Nsg35
S'result'
p313
sg15
Nsg19
g20
sg146
S'GattResult'
p314
sg16
I105
sbag1
(g259
g3
NtRp315
(dp316
g143
Nsg35
S'value'
p317
sg15
Nsg19
g20
sg146
S'uint8[]?'
p318
sg16
I105
sbasg16
I105
sg19
g20
sbsbag1
(g240
g3
NtRp319
(dp320
g143
Nsg35
S'WriteValueForCharacteristic'
p321
sg244
g1
(g245
g3
NtRp322
(dp323
g10
(lp324
g1
(g259
g3
NtRp325
(dp326
g143
Nsg35
S'service_id'
p327
sg15
Nsg19
g20
sg146
S'string'
p328
sg16
I109
sbag1
(g259
g3
NtRp329
(dp330
g143
Nsg35
S'characteristic_id'
p331
sg15
Nsg19
g20
sg146
S'string'
p332
sg16
I109
sbag1
(g259
g3
NtRp333
(dp334
g143
Nsg35
S'value'
p335
sg15
Nsg19
g20
sg146
S'uint8[]'
p336
sg16
I110
sbasg16
I109
sg19
g20
sbsg15
Nsg19
Nsg16
Nsg249
g1
(g245
g3
NtRp337
(dp338
g10
(lp339
g1
(g259
g3
NtRp340
(dp341
g143
Nsg35
S'result'
p342
sg15
Nsg19
g20
sg146
S'GattResult'
p343
sg16
I110
sbasg16
I110
sg19
g20
sbsbag1
(g240
g3
NtRp344
(dp345
g143
Nsg35
S'GetDescriptors'
p346
sg244
g1
(g245
g3
NtRp347
(dp348
g10
(lp349
g1
(g259
g3
NtRp350
(dp351
g143
Nsg35
S'service_id'
p352
sg15
Nsg19
g20
sg146
S'string'
p353
sg16
I117
sbag1
(g259
g3
NtRp354
(dp355
g143
Nsg35
S'characteristic_id'
p356
sg15
Nsg19
g20
sg146
S'string'
p357
sg16
I117
sbasg16
I117
sg19
g20
sbsg15
Nsg19
Nsg16
Nsg249
g1
(g245
g3
NtRp358
(dp359
g10
(lp360
g1
(g259
g3
NtRp361
(dp362
g143
Nsg35
S'descriptors'
p363
sg15
Nsg19
g20
sg146
S'DescriptorInfo[]?'
p364
sg16
I118
sbasg16
I118
sg19
g20
sbsbag1
(g240
g3
NtRp365
(dp366
g143
Nsg35
S'ReadValueForDescriptor'
p367
sg244
g1
(g245
g3
NtRp368
(dp369
g10
(lp370
g1
(g259
g3
NtRp371
(dp372
g143
Nsg35
S'service_id'
p373
sg15
Nsg19
g20
sg146
S'string'
p374
sg16
I123
sbag1
(g259
g3
NtRp375
(dp376
g143
Nsg35
S'characteristic_id'
p377
sg15
Nsg19
g20
sg146
S'string'
p378
sg16
I123
sbag1
(g259
g3
NtRp379
(dp380
g143
Nsg35
S'descriptor_id'
p381
sg15
Nsg19
g20
sg146
S'string'
p382
sg16
I124
sbasg16
I123
sg19
g20
sbsg15
Nsg19
Nsg16
Nsg249
g1
(g245
g3
NtRp383
(dp384
g10
(lp385
g1
(g259
g3
NtRp386
(dp387
g143
Nsg35
S'result'
p388
sg15
Nsg19
g20
sg146
S'GattResult'
p389
sg16
I124
sbag1
(g259
g3
NtRp390
(dp391
g143
Nsg35
S'value'
p392
sg15
Nsg19
g20
sg146
S'uint8[]?'
p393
sg16
I124
sbasg16
I124
sg19
g20
sbsbag1
(g240
g3
NtRp394
(dp395
g143
Nsg35
S'WriteValueForDescriptor'
p396
sg244
g1
(g245
g3
NtRp397
(dp398
g10
(lp399
g1
(g259
g3
NtRp400
(dp401
g143
Nsg35
S'service_id'
p402
sg15
Nsg19
g20
sg146
S'string'
p403
sg16
I129
sbag1
(g259
g3
NtRp404
(dp405
g143
Nsg35
S'characteristic_id'
p406
sg15
Nsg19
g20
sg146
S'string'
p407
sg16
I129
sbag1
(g259
g3
NtRp408
(dp409
g143
Nsg35
S'descriptor_id'
p410
sg15
Nsg19
g20
sg146
S'string'
p411
sg16
I130
sbag1
(g259
g3
NtRp412
(dp413
g143
Nsg35
S'value'
p414
sg15
Nsg19
g20
sg146
S'uint8[]'
p415
sg16
I130
sbasg16
I129
sg19
g20
sbsg15
Nsg19
Nsg16
Nsg249
g1
(g245
g3
NtRp416
(dp417
g10
(lp418
g1
(g259
g3
NtRp419
(dp420
g143
Nsg35
S'result'
p421
sg15
Nsg19
g20
sg146
S'GattResult'
p422
sg16
I130
sbasg16
I130
sg19
g20
sbsbasg16
Nsg19
Nsbsg15
Nsg16
Nsg35
S'Device'
p423
sg19
Nsbasg16
NsS'module'
p424
g1
(cmojom.parse.ast
Module
p425
g3
NtRp426
(dp427
S'mojom_namespace'
p428
(S'IDENTIFIER'
p429
S'bluetooth.mojom'
tp430
sg16
I5
sg15
Nsg19
g20
sbsg19
Nsb.