ccopy_reg
_reconstructor
p1
(cmojom.parse.ast
Mojom
p2
c__builtin__
object
p3
NtRp4
(dp5
S'import_list'
p6
g1
(cmojom.parse.ast
ImportList
p7
g3
NtRp8
(dp9
S'items'
p10
(lp11
g1
(cmojom.parse.ast
Import
p12
g3
NtRp13
(dp14
S'attribute_list'
p15
NsS'lineno'
p16
I7
sS'import_filename'
p17
S'mojo/public/mojom/base/process_id.mojom'
p18
sS'filename'
p19
S'../../services/resource_coordinator/public/mojom/coordination_unit.mojom'
p20
sbag1
(g12
g3
NtRp21
(dp22
g15
Nsg16
I8
sg17
S'mojo/public/mojom/base/time.mojom'
p23
sg19
g20
sbag1
(g12
g3
NtRp24
(dp25
g15
Nsg16
I9
sg17
S'services/resource_coordinator/public/mojom/lifecycle.mojom'
p26
sg19
g20
sbag1
(g12
g3
NtRp27
(dp28
g15
Nsg16
I10
sg17
S'services/resource_coordinator/public/mojom/signals.mojom'
p29
sg19
g20
sbasg16
I7
sg19
g20
sbsS'definition_list'
p30
(lp31
g1
(cmojom.parse.ast
Enum
p32
g3
NtRp33
(dp34
g15
NsS'enum_value_list'
p35
g1
(cmojom.parse.ast
EnumValueList
p36
g3
NtRp37
(dp38
g10
(lp39
g1
(cmojom.parse.ast
EnumValue
p40
g3
NtRp41
(dp42
g15
NsS'value'
p43
Nsg16
I16
sS'mojom_name'
p44
S'kFrame'
p45
sg19
g20
sbag1
(g40
g3
NtRp46
(dp47
g15
Nsg43
Nsg16
I17
sg44
S'kPage'
p48
sg19
g20
sbag1
(g40
g3
NtRp49
(dp50
g15
Nsg43
Nsg16
I18
sg44
S'kProcess'
p51
sg19
g20
sbag1
(g40
g3
NtRp52
(dp53
g15
Nsg43
Nsg16
I19
sg44
S'kSystem'
p54
sg19
g20
sbasg16
I16
sg19
g20
sbsg16
I15
sg44
S'CoordinationUnitType'
p55
sg19
g20
sbag1
(cmojom.parse.ast
Struct
p56
g3
NtRp57
(dp58
S'body'
p59
g1
(cmojom.parse.ast
StructBody
p60
g3
NtRp61
(dp62
g10
(lp63
g1
(cmojom.parse.ast
StructField
p64
g3
NtRp65
(dp66
S'ordinal'
p67
NsS'default_value'
p68
Nsg44
S'type'
p69
sg15
Nsg19
NsS'typename'
p70
S'CoordinationUnitType'
p71
sg16
Nsbag1
(g64
g3
NtRp72
(dp73
g67
Nsg68
Nsg44
S'id'
p74
sg15
Nsg19
Nsg70
S'int64'
p75
sg16
Nsbasg16
Nsg19
Nsbsg15
Nsg16
Nsg44
S'CoordinationUnitID'
p76
sg19
Nsbag1
(g56
g3
NtRp77
(dp78
g59
g1
(g60
g3
NtRp79
(dp80
g10
(lp81
g1
(g64
g3
NtRp82
(dp83
g67
Nsg68
Nsg44
S'pid'
p84
sg15
Nsg19
Nsg70
S'mojo_base.mojom.ProcessId'
p85
sg16
Nsbag1
(g64
g3
NtRp86
(dp87
g67
Nsg68
Nsg44
S'cpu_usage'
p88
sg15
Nsg19
Nsg70
S'mojo_base.mojom.TimeDelta'
p89
sg16
Nsbag1
(g64
g3
NtRp90
(dp91
g67
Nsg68
S'0'
sg44
S'private_footprint_kb'
p92
sg15
Nsg19
Nsg70
S'uint32'
p93
sg16
Nsbasg16
Nsg19
Nsbsg15
Nsg16
Nsg44
S'ProcessResourceMeasurement'
p94
sg19
Nsbag1
(g56
g3
NtRp95
(dp96
g59
g1
(g60
g3
NtRp97
(dp98
g10
(lp99
g1
(g64
g3
NtRp100
(dp101
g67
Nsg68
Nsg44
S'batch_started_time'
p102
sg15
Nsg19
Nsg70
S'mojo_base.mojom.TimeTicks'
p103
sg16
Nsbag1
(g64
g3
NtRp104
(dp105
g67
Nsg68
Nsg44
S'batch_ended_time'
p106
sg15
Nsg19
Nsg70
S'mojo_base.mojom.TimeTicks'
p107
sg16
Nsbag1
(g64
g3
NtRp108
(dp109
g67
Nsg68
Nsg44
S'measurements'
p110
sg15
Nsg19
Nsg70
S'ProcessResourceMeasurement[]'
p111
sg16
Nsbasg16
Nsg19
Nsbsg15
Nsg16
Nsg44
S'ProcessResourceMeasurementBatch'
p112
sg19
Nsbag1
(cmojom.parse.ast
Interface
p113
g3
NtRp114
(dp115
g59
g1
(cmojom.parse.ast
InterfaceBody
p116
g3
NtRp117
(dp118
g10
(lp119
g1
(cmojom.parse.ast
Method
p120
g3
NtRp121
(dp122
g67
Nsg44
S'GetID'
p123
sS'parameter_list'
p124
g1
(cmojom.parse.ast
ParameterList
p125
g3
NtRp126
(dp127
g10
(lp128
sg16
Nsg19
Nsbsg15
Nsg19
Nsg16
NsS'response_parameter_list'
p129
g1
(g125
g3
NtRp130
(dp131
g10
(lp132
g1
(cmojom.parse.ast
Parameter
p133
g3
NtRp134
(dp135
g67
Nsg44
S'id'
p136
sg15
Nsg19
g20
sg70
S'CoordinationUnitID'
p137
sg16
I55
sbasg16
I55
sg19
g20
sbsbag1
(g120
g3
NtRp138
(dp139
g67
Nsg44
S'AddBinding'
p140
sg124
g1
(g125
g3
NtRp141
(dp142
g10
(lp143
g1
(g133
g3
NtRp144
(dp145
g67
Nsg44
S'request'
p146
sg15
Nsg19
g20
sg70
S'FrameCoordinationUnit&'
p147
sg16
I58
sbasg16
I58
sg19
g20
sbsg15
Nsg19
Nsg16
Nsg129
Nsbag1
(g120
g3
NtRp148
(dp149
g67
Nsg44
S'AddChildFrame'
p150
sg124
g1
(g125
g3
NtRp151
(dp152
g10
(lp153
g1
(g133
g3
NtRp154
(dp155
g67
Nsg44
S'cu_id'
p156
sg15
Nsg19
g20
sg70
S'CoordinationUnitID'
p157
sg16
I59
sbasg16
I59
sg19
g20
sbsg15
Nsg19
Nsg16
Nsg129
Nsbag1
(g120
g3
NtRp158
(dp159
g67
Nsg44
S'RemoveChildFrame'
p160
sg124
g1
(g125
g3
NtRp161
(dp162
g10
(lp163
g1
(g133
g3
NtRp164
(dp165
g67
Nsg44
S'cu_id'
p166
sg15
Nsg19
g20
sg70
S'CoordinationUnitID'
p167
sg16
I60
sbasg16
I60
sg19
g20
sbsg15
Nsg19
Nsg16
Nsg129
Nsbag1
(g120
g3
NtRp168
(dp169
g67
Nsg44
S'SetAudibility'
p170
sg124
g1
(g125
g3
NtRp171
(dp172
g10
(lp173
g1
(g133
g3
NtRp174
(dp175
g67
Nsg44
S'audible'
p176
sg15
Nsg19
g20
sg70
S'bool'
p177
sg16
I63
sbasg16
I63
sg19
g20
sbsg15
Nsg19
Nsg16
Nsg129
Nsbag1
(g120
g3
NtRp178
(dp179
g67
Nsg44
S'SetNetworkAlmostIdle'
p180
sg124
g1
(g125
g3
NtRp181
(dp182
g10
(lp183
g1
(g133
g3
NtRp184
(dp185
g67
Nsg44
S'idle'
p186
sg15
Nsg19
g20
sg70
S'bool'
p187
sg16
I64
sbasg16
I64
sg19
g20
sbsg15
Nsg19
Nsg16
Nsg129
Nsbag1
(g120
g3
NtRp188
(dp189
g67
Nsg44
S'SetLifecycleState'
p190
sg124
g1
(g125
g3
NtRp191
(dp192
g10
(lp193
g1
(g133
g3
NtRp194
(dp195
g67
Nsg44
S'state'
p196
sg15
Nsg19
g20
sg70
S'LifecycleState'
p197
sg16
I65
sbasg16
I65
sg19
g20
sbsg15
Nsg19
Nsg16
Nsg129
Nsbag1
(g120
g3
NtRp198
(dp199
g67
Nsg44
S'OnAlertFired'
p200
sg124
g1
(g125
g3
NtRp201
(dp202
g10
(lp203
sg16
Nsg19
Nsbsg15
Nsg19
Nsg16
Nsg129
Nsbag1
(g120
g3
NtRp204
(dp205
g67
Nsg44
S'OnNonPersistentNotificationCreated'
p206
sg124
g1
(g125
g3
NtRp207
(dp208
g10
(lp209
sg16
Nsg19
Nsbsg15
Nsg19
Nsg16
Nsg129
Nsbasg16
Nsg19
Nsbsg15
Nsg16
Nsg44
S'FrameCoordinationUnit'
p210
sg19
Nsbag1
(g113
g3
NtRp211
(dp212
g59
g1
(g116
g3
NtRp213
(dp214
g10
(lp215
g1
(g120
g3
NtRp216
(dp217
g67
Nsg44
S'GetID'
p218
sg124
g1
(g125
g3
NtRp219
(dp220
g10
(lp221
sg16
Nsg19
Nsbsg15
Nsg19
Nsg16
Nsg129
g1
(g125
g3
NtRp222
(dp223
g10
(lp224
g1
(g133
g3
NtRp225
(dp226
g67
Nsg44
S'id'
p227
sg15
Nsg19
g20
sg70
S'CoordinationUnitID'
p228
sg16
I76
sbasg16
I76
sg19
g20
sbsbag1
(g120
g3
NtRp229
(dp230
g67
Nsg44
S'AddBinding'
p231
sg124
g1
(g125
g3
NtRp232
(dp233
g10
(lp234
g1
(g133
g3
NtRp235
(dp236
g67
Nsg44
S'request'
p237
sg15
Nsg19
g20
sg70
S'PageCoordinationUnit&'
p238
sg16
I79
sbasg16
I79
sg19
g20
sbsg15
Nsg19
Nsg16
Nsg129
Nsbag1
(g120
g3
NtRp239
(dp240
g67
Nsg44
S'AddFrame'
p241
sg124
g1
(g125
g3
NtRp242
(dp243
g10
(lp244
g1
(g133
g3
NtRp245
(dp246
g67
Nsg44
S'cu_id'
p247
sg15
Nsg19
g20
sg70
S'CoordinationUnitID'
p248
sg16
I80
sbasg16
I80
sg19
g20
sbsg15
Nsg19
Nsg16
Nsg129
Nsbag1
(g120
g3
NtRp249
(dp250
g67
Nsg44
S'RemoveFrame'
p251
sg124
g1
(g125
g3
NtRp252
(dp253
g10
(lp254
g1
(g133
g3
NtRp255
(dp256
g67
Nsg44
S'cu_id'
p257
sg15
Nsg19
g20
sg70
S'CoordinationUnitID'
p258
sg16
I81
sbasg16
I81
sg19
g20
sbsg15
Nsg19
Nsg16
Nsg129
Nsbag1
(g120
g3
NtRp259
(dp260
g67
Nsg44
S'SetIsLoading'
p261
sg124
g1
(g125
g3
NtRp262
(dp263
g10
(lp264
g1
(g133
g3
NtRp265
(dp266
g67
Nsg44
S'is_loading'
p267
sg15
Nsg19
g20
sg70
S'bool'
p268
sg16
I84
sbasg16
I84
sg19
g20
sbsg15
Nsg19
Nsg16
Nsg129
Nsbag1
(g120
g3
NtRp269
(dp270
g67
Nsg44
S'SetVisibility'
p271
sg124
g1
(g125
g3
NtRp272
(dp273
g10
(lp274
g1
(g133
g3
NtRp275
(dp276
g67
Nsg44
S'visible'
p277
sg15
Nsg19
g20
sg70
S'bool'
p278
sg16
I85
sbasg16
I85
sg19
g20
sbsg15
Nsg19
Nsg16
Nsg129
Nsbag1
(g120
g3
NtRp279
(dp280
g67
Nsg44
S'SetUKMSourceId'
p281
sg124
g1
(g125
g3
NtRp282
(dp283
g10
(lp284
g1
(g133
g3
NtRp285
(dp286
g67
Nsg44
S'ukm_source_id'
p287
sg15
Nsg19
g20
sg70
S'int64'
p288
sg16
I86
sbasg16
I86
sg19
g20
sbsg15
Nsg19
Nsg16
Nsg129
Nsbag1
(g120
g3
NtRp289
(dp290
g67
Nsg44
S'OnFaviconUpdated'
p291
sg124
g1
(g125
g3
NtRp292
(dp293
g10
(lp294
sg16
Nsg19
Nsbsg15
Nsg19
Nsg16
Nsg129
Nsbag1
(g120
g3
NtRp295
(dp296
g67
Nsg44
S'OnTitleUpdated'
p297
sg124
g1
(g125
g3
NtRp298
(dp299
g10
(lp300
sg16
Nsg19
Nsbsg15
Nsg19
Nsg16
Nsg129
Nsbag1
(g120
g3
NtRp301
(dp302
g67
Nsg44
S'OnMainFrameNavigationCommitted'
p303
sg124
g1
(g125
g3
NtRp304
(dp305
g10
(lp306
sg16
Nsg19
Nsbsg15
Nsg19
Nsg16
Nsg129
Nsbasg16
Nsg19
Nsbsg15
Nsg16
Nsg44
S'PageCoordinationUnit'
p307
sg19
Nsbag1
(g113
g3
NtRp308
(dp309
g59
g1
(g116
g3
NtRp310
(dp311
g10
(lp312
g1
(g120
g3
NtRp313
(dp314
g67
Nsg44
S'GetID'
p315
sg124
g1
(g125
g3
NtRp316
(dp317
g10
(lp318
sg16
Nsg19
Nsbsg15
Nsg19
Nsg16
Nsg129
g1
(g125
g3
NtRp319
(dp320
g10
(lp321
g1
(g133
g3
NtRp322
(dp323
g67
Nsg44
S'id'
p324
sg15
Nsg19
g20
sg70
S'CoordinationUnitID'
p325
sg16
I98
sbasg16
I98
sg19
g20
sbsbag1
(g120
g3
NtRp326
(dp327
g67
Nsg44
S'AddBinding'
p328
sg124
g1
(g125
g3
NtRp329
(dp330
g10
(lp331
g1
(g133
g3
NtRp332
(dp333
g67
Nsg44
S'request'
p334
sg15
Nsg19
g20
sg70
S'ProcessCoordinationUnit&'
p335
sg16
I101
sbasg16
I101
sg19
g20
sbsg15
Nsg19
Nsg16
Nsg129
Nsbag1
(g120
g3
NtRp336
(dp337
g67
Nsg44
S'AddFrame'
p338
sg124
g1
(g125
g3
NtRp339
(dp340
g10
(lp341
g1
(g133
g3
NtRp342
(dp343
g67
Nsg44
S'cu_id'
p344
sg15
Nsg19
g20
sg70
S'CoordinationUnitID'
p345
sg16
I102
sbasg16
I102
sg19
g20
sbsg15
Nsg19
Nsg16
Nsg129
Nsbag1
(g120
g3
NtRp346
(dp347
g67
Nsg44
S'RemoveFrame'
p348
sg124
g1
(g125
g3
NtRp349
(dp350
g10
(lp351
g1
(g133
g3
NtRp352
(dp353
g67
Nsg44
S'cu_id'
p354
sg15
Nsg19
g20
sg70
S'CoordinationUnitID'
p355
sg16
I103
sbasg16
I103
sg19
g20
sbsg15
Nsg19
Nsg16
Nsg129
Nsbag1
(g120
g3
NtRp356
(dp357
g67
Nsg44
S'SetCPUUsage'
p358
sg124
g1
(g125
g3
NtRp359
(dp360
g10
(lp361
g1
(g133
g3
NtRp362
(dp363
g67
Nsg44
S'cpu_usage'
p364
sg15
Nsg19
g20
sg70
S'double'
p365
sg16
I106
sbasg16
I106
sg19
g20
sbsg15
Nsg19
Nsg16
Nsg129
Nsbag1
(g120
g3
NtRp366
(dp367
g67
Nsg44
S'SetExpectedTaskQueueingDuration'
p368
sg124
g1
(g125
g3
NtRp369
(dp370
g10
(lp371
g1
(g133
g3
NtRp372
(dp373
g67
Nsg44
S'duration'
p374
sg15
Nsg19
g20
sg70
S'mojo_base.mojom.TimeDelta'
p375
sg16
I107
sbasg16
I107
sg19
g20
sbsg15
Nsg19
Nsg16
Nsg129
Nsbag1
(g120
g3
NtRp376
(dp377
g67
Nsg44
S'SetLaunchTime'
p378
sg124
g1
(g125
g3
NtRp379
(dp380
g10
(lp381
g1
(g133
g3
NtRp382
(dp383
g67
Nsg44
S'launch_time'
p384
sg15
Nsg19
g20
sg70
S'mojo_base.mojom.Time'
p385
sg16
I108
sbasg16
I108
sg19
g20
sbsg15
Nsg19
Nsg16
Nsg129
Nsbag1
(g120
g3
NtRp386
(dp387
g67
Nsg44
S'SetMainThreadTaskLoadIsLow'
p388
sg124
g1
(g125
g3
NtRp389
(dp390
g10
(lp391
g1
(g133
g3
NtRp392
(dp393
g67
Nsg44
S'main_thread_task_load_is_low'
p394
sg15
Nsg19
g20
sg70
S'bool'
p395
sg16
I109
sbasg16
I109
sg19
g20
sbsg15
Nsg19
Nsg16
Nsg129
Nsbag1
(g120
g3
NtRp396
(dp397
g67
Nsg44
S'SetPID'
p398
sg124
g1
(g125
g3
NtRp399
(dp400
g10
(lp401
g1
(g133
g3
NtRp402
(dp403
g67
Nsg44
S'pid'
p404
sg15
Nsg19
g20
sg70
S'int64'
p405
sg16
I110
sbasg16
I110
sg19
g20
sbsg15
Nsg19
Nsg16
Nsg129
Nsbasg16
Nsg19
Nsbsg15
Nsg16
Nsg44
S'ProcessCoordinationUnit'
p406
sg19
Nsbag1
(g113
g3
NtRp407
(dp408
g59
g1
(g116
g3
NtRp409
(dp410
g10
(lp411
g1
(g120
g3
NtRp412
(dp413
g67
Nsg44
S'GetID'
p414
sg124
g1
(g125
g3
NtRp415
(dp416
g10
(lp417
sg16
Nsg19
Nsbsg15
Nsg19
Nsg16
Nsg129
g1
(g125
g3
NtRp418
(dp419
g10
(lp420
g1
(g133
g3
NtRp421
(dp422
g67
Nsg44
S'id'
p423
sg15
Nsg19
g20
sg70
S'CoordinationUnitID'
p424
sg16
I116
sbasg16
I116
sg19
g20
sbsbag1
(g120
g3
NtRp425
(dp426
g67
Nsg44
S'AddBinding'
p427
sg124
g1
(g125
g3
NtRp428
(dp429
g10
(lp430
g1
(g133
g3
NtRp431
(dp432
g67
Nsg44
S'request'
p433
sg15
Nsg19
g20
sg70
S'SystemCoordinationUnit&'
p434
sg16
I119
sbasg16
I119
sg19
g20
sbsg15
Nsg19
Nsg16
Nsg129
Nsbag1
(g120
g3
NtRp435
(dp436
g67
Nsg44
S'OnProcessCPUUsageReady'
p437
sg124
g1
(g125
g3
NtRp438
(dp439
g10
(lp440
sg16
Nsg19
Nsbsg15
Nsg19
Nsg16
Nsg129
Nsbag1
(g120
g3
NtRp441
(dp442
g67
Nsg44
S'DistributeMeasurementBatch'
p443
sg124
g1
(g125
g3
NtRp444
(dp445
g10
(lp446
g1
(g133
g3
NtRp447
(dp448
g67
Nsg44
S'measurement_batch'
p449
sg15
Nsg19
g20
sg70
S'ProcessResourceMeasurementBatch'
p450
sg16
I130
sbasg16
I130
sg19
g20
sbsg15
Nsg19
Nsg16
Nsg129
Nsbasg16
Nsg19
Nsbsg15
Nsg16
Nsg44
S'SystemCoordinationUnit'
p451
sg19
Nsbasg16
NsS'module'
p452
g1
(cmojom.parse.ast
Module
p453
g3
NtRp454
(dp455
S'mojom_namespace'
p456
(S'IDENTIFIER'
p457
S'resource_coordinator.mojom'
tp458
sg16
I5
sg15
Nsg19
g20
sbsg19
Nsb.