ccopy_reg
_reconstructor
p1
(cmojom.parse.ast
Mojom
p2
c__builtin__
object
p3
NtRp4
(dp5
S'import_list'
p6
g1
(cmojom.parse.ast
ImportList
p7
g3
NtRp8
(dp9
S'items'
p10
(lp11
g1
(cmojom.parse.ast
Import
p12
g3
NtRp13
(dp14
S'attribute_list'
p15
NsS'lineno'
p16
I7
sS'import_filename'
p17
S'services/resource_coordinator/public/mojom/coordination_unit.mojom'
p18
sS'filename'
p19
S'../../services/resource_coordinator/public/mojom/coordination_unit_provider.mojom'
p20
sbasg16
I7
sg19
g20
sbsS'definition_list'
p21
(lp22
g1
(cmojom.parse.ast
Interface
p23
g3
NtRp24
(dp25
S'body'
p26
g1
(cmojom.parse.ast
InterfaceBody
p27
g3
NtRp28
(dp29
g10
(lp30
g1
(cmojom.parse.ast
Method
p31
g3
NtRp32
(dp33
S'ordinal'
p34
NsS'mojom_name'
p35
S'CreateFrameCoordinationUnit'
p36
sS'parameter_list'
p37
g1
(cmojom.parse.ast
ParameterList
p38
g3
NtRp39
(dp40
g10
(lp41
g1
(cmojom.parse.ast
Parameter
p42
g3
NtRp43
(dp44
g34
Nsg35
S'request'
p45
sg15
Nsg19
g20
sS'typename'
p46
S'FrameCoordinationUnit&'
p47
sg16
I11
sbag1
(g42
g3
NtRp48
(dp49
g34
Nsg35
S'id'
p50
sg15
Nsg19
g20
sg46
S'CoordinationUnitID'
p51
sg16
I11
sbasg16
I11
sg19
g20
sbsg15
Nsg19
Nsg16
NsS'response_parameter_list'
p52
Nsbag1
(g31
g3
NtRp53
(dp54
g34
Nsg35
S'CreatePageCoordinationUnit'
p55
sg37
g1
(g38
g3
NtRp56
(dp57
g10
(lp58
g1
(g42
g3
NtRp59
(dp60
g34
Nsg35
S'request'
p61
sg15
Nsg19
g20
sg46
S'PageCoordinationUnit&'
p62
sg16
I12
sbag1
(g42
g3
NtRp63
(dp64
g34
Nsg35
S'id'
p65
sg15
Nsg19
g20
sg46
S'CoordinationUnitID'
p66
sg16
I12
sbasg16
I12
sg19
g20
sbsg15
Nsg19
Nsg16
Nsg52
Nsbag1
(g31
g3
NtRp67
(dp68
g34
Nsg35
S'CreateProcessCoordinationUnit'
p69
sg37
g1
(g38
g3
NtRp70
(dp71
g10
(lp72
g1
(g42
g3
NtRp73
(dp74
g34
Nsg35
S'request'
p75
sg15
Nsg19
g20
sg46
S'ProcessCoordinationUnit&'
p76
sg16
I13
sbag1
(g42
g3
NtRp77
(dp78
g34
Nsg35
S'id'
p79
sg15
Nsg19
g20
sg46
S'CoordinationUnitID'
p80
sg16
I13
sbasg16
I13
sg19
g20
sbsg15
Nsg19
Nsg16
Nsg52
Nsbag1
(g31
g3
NtRp81
(dp82
g34
Nsg35
S'GetSystemCoordinationUnit'
p83
sg37
g1
(g38
g3
NtRp84
(dp85
g10
(lp86
g1
(g42
g3
NtRp87
(dp88
g34
Nsg35
S'request'
p89
sg15
Nsg19
g20
sg46
S'SystemCoordinationUnit&'
p90
sg16
I16
sbasg16
I16
sg19
g20
sbsg15
Nsg19
Nsg16
Nsg52
Nsbasg16
Nsg19
Nsbsg15
Nsg16
Nsg35
S'CoordinationUnitProvider'
p91
sg19
Nsbasg16
NsS'module'
p92
g1
(cmojom.parse.ast
Module
p93
g3
NtRp94
(dp95
S'mojom_namespace'
p96
(S'IDENTIFIER'
p97
S'resource_coordinator.mojom'
tp98
sg16
I5
sg15
Nsg19
g20
sbsg19
Nsb.