ccopy_reg
_reconstructor
p1
(cmojom.parse.ast
Mojom
p2
c__builtin__
object
p3
NtRp4
(dp5
S'import_list'
p6
g1
(cmojom.parse.ast
ImportList
p7
g3
NtRp8
(dp9
S'items'
p10
(lp11
g1
(cmojom.parse.ast
Import
p12
g3
NtRp13
(dp14
S'attribute_list'
p15
NsS'lineno'
p16
I7
sS'import_filename'
p17
S'services/resource_coordinator/public/mojom/coordination_unit.mojom'
p18
sS'filename'
p19
S'../../services/resource_coordinator/public/mojom/coordination_unit_introspector.mojom'
p20
sbag1
(g12
g3
NtRp21
(dp22
g15
Nsg16
I8
sg17
S'mojo/public/mojom/base/process_id.mojom'
p23
sg19
g20
sbag1
(g12
g3
NtRp24
(dp25
g15
Nsg16
I9
sg17
S'mojo/public/mojom/base/time.mojom'
p26
sg19
g20
sbasg16
I7
sg19
g20
sbsS'definition_list'
p27
(lp28
g1
(cmojom.parse.ast
Struct
p29
g3
NtRp30
(dp31
S'body'
p32
g1
(cmojom.parse.ast
StructBody
p33
g3
NtRp34
(dp35
g10
(lp36
g1
(cmojom.parse.ast
StructField
p37
g3
NtRp38
(dp39
S'ordinal'
p40
NsS'default_value'
p41
NsS'mojom_name'
p42
S'ukm_source_id'
p43
sg15
Nsg19
NsS'typename'
p44
S'int64'
p45
sg16
Nsbag1
(g37
g3
NtRp46
(dp47
g40
Nsg41
Nsg42
S'is_visible'
p48
sg15
Nsg19
Nsg44
S'bool'
p49
sg16
Nsbag1
(g37
g3
NtRp50
(dp51
g40
Nsg41
Nsg42
S'time_since_last_navigation'
p52
sg15
Nsg19
Nsg44
S'mojo_base.mojom.TimeDelta'
p53
sg16
Nsbag1
(g37
g3
NtRp54
(dp55
g40
Nsg41
Nsg42
S'time_since_last_visibility_change'
p56
sg15
Nsg19
Nsg44
S'mojo_base.mojom.TimeDelta'
p57
sg16
Nsbasg16
Nsg19
Nsbsg15
Nsg16
Nsg42
S'PageInfo'
p58
sg19
Nsbag1
(g29
g3
NtRp59
(dp60
g32
g1
(g33
g3
NtRp61
(dp62
g10
(lp63
g1
(g37
g3
NtRp64
(dp65
g40
Nsg41
Nsg42
S'pid'
p66
sg15
Nsg19
Nsg44
S'mojo_base.mojom.ProcessId'
p67
sg16
Nsbag1
(g37
g3
NtRp68
(dp69
g40
Nsg41
Nsg42
S'page_infos'
p70
sg15
Nsg19
Nsg44
S'PageInfo[]'
p71
sg16
Nsbag1
(g37
g3
NtRp72
(dp73
g40
Nsg41
Nsg42
S'launch_time'
p74
sg15
Nsg19
Nsg44
S'mojo_base.mojom.Time?'
p75
sg16
Nsbasg16
Nsg19
Nsbsg15
Nsg16
Nsg42
S'ProcessInfo'
p76
sg19
Nsbag1
(cmojom.parse.ast
Interface
p77
g3
NtRp78
(dp79
g32
g1
(cmojom.parse.ast
InterfaceBody
p80
g3
NtRp81
(dp82
g10
(lp83
g1
(cmojom.parse.ast
Method
p84
g3
NtRp85
(dp86
g40
Nsg42
S'GetProcessToURLMap'
p87
sS'parameter_list'
p88
g1
(cmojom.parse.ast
ParameterList
p89
g3
NtRp90
(dp91
g10
(lp92
sg16
Nsg19
Nsbsg15
Nsg19
Nsg16
NsS'response_parameter_list'
p93
g1
(g89
g3
NtRp94
(dp95
g10
(lp96
g1
(cmojom.parse.ast
Parameter
p97
g3
NtRp98
(dp99
g40
Nsg42
S'process_infos'
p100
sg15
Nsg19
g20
sg44
S'ProcessInfo[]'
p101
sg16
I27
sbasg16
I27
sg19
g20
sbsbasg16
Nsg19
Nsbsg15
Nsg16
Nsg42
S'CoordinationUnitIntrospector'
p102
sg19
Nsbasg16
NsS'module'
p103
g1
(cmojom.parse.ast
Module
p104
g3
NtRp105
(dp106
S'mojom_namespace'
p107
(S'IDENTIFIER'
p108
S'resource_coordinator.mojom'
tp109
sg16
I5
sg15
Nsg19
g20
sbsg19
Nsb.