ccopy_reg
_reconstructor
p1
(cmojom.parse.ast
Mojom
p2
c__builtin__
object
p3
NtRp4
(dp5
S'import_list'
p6
g1
(cmojom.parse.ast
ImportList
p7
g3
NtRp8
(dp9
S'items'
p10
(lp11
g1
(cmojom.parse.ast
Import
p12
g3
NtRp13
(dp14
S'attribute_list'
p15
NsS'lineno'
p16
I7
sS'import_filename'
p17
S'services/resource_coordinator/public/mojom/coordination_unit.mojom'
p18
sS'filename'
p19
S'../../services/resource_coordinator/public/mojom/page_signal.mojom'
p20
sbag1
(g12
g3
NtRp21
(dp22
g15
Nsg16
I8
sg17
S'services/resource_coordinator/public/mojom/lifecycle.mojom'
p23
sg19
g20
sbag1
(g12
g3
NtRp24
(dp25
g15
Nsg16
I9
sg17
S'mojo/public/mojom/base/time.mojom'
p26
sg19
g20
sbasg16
I7
sg19
g20
sbsS'definition_list'
p27
(lp28
g1
(cmojom.parse.ast
Interface
p29
g3
NtRp30
(dp31
S'body'
p32
g1
(cmojom.parse.ast
InterfaceBody
p33
g3
NtRp34
(dp35
g10
(lp36
g1
(cmojom.parse.ast
Method
p37
g3
NtRp38
(dp39
S'ordinal'
p40
NsS'mojom_name'
p41
S'NotifyPageAlmostIdle'
p42
sS'parameter_list'
p43
g1
(cmojom.parse.ast
ParameterList
p44
g3
NtRp45
(dp46
g10
(lp47
g1
(cmojom.parse.ast
Parameter
p48
g3
NtRp49
(dp50
g40
Nsg41
S'cu_id'
p51
sg15
Nsg19
g20
sS'typename'
p52
S'CoordinationUnitID'
p53
sg16
I18
sbasg16
I18
sg19
g20
sbsg15
Nsg19
Nsg16
NsS'response_parameter_list'
p54
Nsbag1
(g37
g3
NtRp55
(dp56
g40
Nsg41
S'SetExpectedTaskQueueingDuration'
p57
sg43
g1
(g44
g3
NtRp58
(dp59
g10
(lp60
g1
(g48
g3
NtRp61
(dp62
g40
Nsg41
S'cu_id'
p63
sg15
Nsg19
g20
sg52
S'CoordinationUnitID'
p64
sg16
I19
sbag1
(g48
g3
NtRp65
(dp66
g40
Nsg41
S'duration'
p67
sg15
Nsg19
g20
sg52
S'mojo_base.mojom.TimeDelta'
p68
sg16
I20
sbasg16
I19
sg19
g20
sbsg15
Nsg19
Nsg16
Nsg54
Nsbag1
(g37
g3
NtRp69
(dp70
g40
Nsg41
S'SetLifecycleState'
p71
sg43
g1
(g44
g3
NtRp72
(dp73
g10
(lp74
g1
(g48
g3
NtRp75
(dp76
g40
Nsg41
S'cu_id'
p77
sg15
Nsg19
g20
sg52
S'CoordinationUnitID'
p78
sg16
I21
sbag1
(g48
g3
NtRp79
(dp80
g40
Nsg41
S'state'
p81
sg15
Nsg19
g20
sg52
S'LifecycleState'
p82
sg16
I22
sbasg16
I21
sg19
g20
sbsg15
Nsg19
Nsg16
Nsg54
Nsbasg16
Nsg19
Nsbsg15
Nsg16
Nsg41
S'PageSignalReceiver'
p83
sg19
Nsbag1
(g29
g3
NtRp84
(dp85
g32
g1
(g33
g3
NtRp86
(dp87
g10
(lp88
g1
(g37
g3
NtRp89
(dp90
g40
Nsg41
S'AddReceiver'
p91
sg43
g1
(g44
g3
NtRp92
(dp93
g10
(lp94
g1
(g48
g3
NtRp95
(dp96
g40
Nsg41
S'receiver'
p97
sg15
Nsg19
g20
sg52
S'PageSignalReceiver'
p98
sg16
I30
sbasg16
I30
sg19
g20
sbsg15
Nsg19
Nsg16
Nsg54
Nsbasg16
Nsg19
Nsbsg15
Nsg16
Nsg41
S'PageSignalGenerator'
p99
sg19
Nsbasg16
NsS'module'
p100
g1
(cmojom.parse.ast
Module
p101
g3
NtRp102
(dp103
S'mojom_namespace'
p104
(S'IDENTIFIER'
p105
S'resource_coordinator.mojom'
tp106
sg16
I5
sg15
Nsg19
g20
sbsg19
Nsb.