ccopy_reg
_reconstructor
p1
(cmojom.parse.ast
Mojom
p2
c__builtin__
object
p3
NtRp4
(dp5
S'import_list'
p6
g1
(cmojom.parse.ast
ImportList
p7
g3
NtRp8
(dp9
S'items'
p10
(lp11
sS'lineno'
p12
NsS'filename'
p13
NsbsS'definition_list'
p14
(lp15
g1
(cmojom.parse.ast
Enum
p16
g3
NtRp17
(dp18
S'attribute_list'
p19
NsS'enum_value_list'
p20
g1
(cmojom.parse.ast
EnumValueList
p21
g3
NtRp22
(dp23
g10
(lp24
g1
(cmojom.parse.ast
EnumValue
p25
g3
NtRp26
(dp27
g19
NsS'value'
p28
Nsg12
I8
sS'mojom_name'
p29
S'kTestEvent'
p30
sg13
S'../../services/resource_coordinator/public/mojom/signals.mojom'
p31
sbag1
(g25
g3
NtRp32
(dp33
g19
Nsg28
Nsg12
I9
sg29
S'kAlertFired'
p34
sg13
g31
sbag1
(g25
g3
NtRp35
(dp36
g19
Nsg28
Nsg12
I10
sg29
S'kFaviconUpdated'
p37
sg13
g31
sbag1
(g25
g3
NtRp38
(dp39
g19
Nsg28
Nsg12
I12
sg29
S'kNavigationCommitted'
p40
sg13
g31
sbag1
(g25
g3
NtRp41
(dp42
g19
Nsg28
Nsg12
I15
sg29
S'kNonPersistentNotificationCreated'
p43
sg13
g31
sbag1
(g25
g3
NtRp44
(dp45
g19
Nsg28
Nsg12
I16
sg29
S'kTitleUpdated'
p46
sg13
g31
sbag1
(g25
g3
NtRp47
(dp48
g19
Nsg28
Nsg12
I19
sg29
S'kProcessCPUUsageReady'
p49
sg13
g31
sbasg12
I8
sg13
g31
sbsg12
I7
sg29
S'Event'
p50
sg13
g31
sbag1
(g16
g3
NtRp51
(dp52
g19
Nsg20
g1
(g21
g3
NtRp53
(dp54
g10
(lp55
g1
(g25
g3
NtRp56
(dp57
g19
Nsg28
Nsg12
I25
sg29
S'kTest'
p58
sg13
g31
sbag1
(g25
g3
NtRp59
(dp60
g19
Nsg28
Nsg12
I26
sg29
S'kAudible'
p61
sg13
g31
sbag1
(g25
g3
NtRp62
(dp63
g19
Nsg28
Nsg12
I27
sg29
S'kCPUUsage'
p64
sg13
g31
sbag1
(g25
g3
NtRp65
(dp66
g19
Nsg28
Nsg12
I28
sg29
S'kExpectedTaskQueueingDuration'
p67
sg13
g31
sbag1
(g25
g3
NtRp68
(dp69
g19
Nsg28
Nsg12
I29
sg29
S'kLaunchTime'
p70
sg13
g31
sbag1
(g25
g3
NtRp71
(dp72
g19
Nsg28
Nsg12
I30
sg29
S'kMainThreadTaskLoadIsLow'
p73
sg13
g31
sbag1
(g25
g3
NtRp74
(dp75
g19
Nsg28
Nsg12
I33
sg29
S'kNetworkAlmostIdle'
p76
sg13
g31
sbag1
(g25
g3
NtRp77
(dp78
g19
Nsg28
Nsg12
I34
sg29
S'kPID'
p79
sg13
g31
sbag1
(g25
g3
NtRp80
(dp81
g19
Nsg28
Nsg12
I35
sg29
S'kVisible'
p82
sg13
g31
sbag1
(g25
g3
NtRp83
(dp84
g19
Nsg28
Nsg12
I36
sg29
S'kUKMSourceId'
p85
sg13
g31
sbag1
(g25
g3
NtRp86
(dp87
g19
Nsg28
Nsg12
I38
sg29
S'kIsLoading'
p88
sg13
g31
sbag1
(g25
g3
NtRp89
(dp90
g19
Nsg28
Nsg12
I39
sg29
S'kLifecycleState'
p91
sg13
g31
sbasg12
I25
sg13
g31
sbsg12
I24
sg29
S'PropertyType'
p92
sg13
g31
sbasg12
NsS'module'
p93
g1
(cmojom.parse.ast
Module
p94
g3
NtRp95
(dp96
S'mojom_namespace'
p97
(S'IDENTIFIER'
p98
S'resource_coordinator.mojom'
tp99
sg12
I5
sg19
Nsg13
g31
sbsg13
Nsb.