ccopy_reg
_reconstructor
p1
(cmojom.parse.ast
Mojom
p2
c__builtin__
object
p3
NtRp4
(dp5
S'import_list'
p6
g1
(cmojom.parse.ast
ImportList
p7
g3
NtRp8
(dp9
S'items'
p10
(lp11
sS'lineno'
p12
NsS'filename'
p13
NsbsS'definition_list'
p14
(lp15
g1
(cmojom.parse.ast
Enum
p16
g3
NtRp17
(dp18
S'attribute_list'
p19
g1
(cmojom.parse.ast
AttributeList
p20
g3
NtRp21
(dp22
g10
(lp23
g1
(cmojom.parse.ast
Attribute
p24
g3
NtRp25
(dp26
S'value'
p27
I01
sg12
I16
sS'key'
p28
S'Extensible'
p29
sg13
S'../../components/chrome_cleaner/public/interfaces/chrome_prompt.mojom'
p30
sbasg12
I16
sg13
g30
sbsS'enum_value_list'
p31
g1
(cmojom.parse.ast
EnumValueList
p32
g3
NtRp33
(dp34
g10
(lp35
g1
(cmojom.parse.ast
EnumValue
p36
g3
NtRp37
(dp38
g19
Nsg27
S'0'
sg12
I18
sS'mojom_name'
p39
S'UNSPECIFIED'
p40
sg13
g30
sbag1
(g36
g3
NtRp41
(dp42
g19
Nsg27
S'1'
sg12
I21
sg39
S'ACCEPTED_WITH_LOGS'
p43
sg13
g30
sbag1
(g36
g3
NtRp44
(dp45
g19
Nsg27
S'2'
sg12
I24
sg39
S'ACCEPTED_WITHOUT_LOGS'
p46
sg13
g30
sbag1
(g36
g3
NtRp47
(dp48
g19
Nsg27
S'3'
sg12
I26
sg39
S'DENIED'
p49
sg13
g30
sbag1
(g36
g3
NtRp50
(dp51
g19
Nsg27
Nsg12
I27
sg39
S'NUM_VALUES'
p52
sg13
g30
sbasg12
I18
sg13
g30
sbsg12
I17
sg39
S'PromptAcceptance'
p53
sg13
g30
sbag1
(cmojom.parse.ast
Struct
p54
g3
NtRp55
(dp56
S'body'
p57
g1
(cmojom.parse.ast
StructBody
p58
g3
NtRp59
(dp60
g10
(lp61
g1
(cmojom.parse.ast
StructField
p62
g3
NtRp63
(dp64
S'ordinal'
p65
NsS'default_value'
p66
Nsg39
S'value'
p67
sg19
Nsg13
NsS'typename'
p68
S'uint16[]'
p69
sg12
Nsbasg12
Nsg13
Nsbsg19
Nsg12
Nsg39
S'FilePath'
p70
sg13
Nsbag1
(g54
g3
NtRp71
(dp72
g57
g1
(g58
g3
NtRp73
(dp74
g10
(lp75
g1
(g62
g3
NtRp76
(dp77
g65
Nsg66
Nsg39
S'value'
p78
sg19
Nsg13
Nsg68
S'uint16[]'
p79
sg12
Nsbasg12
Nsg13
Nsbsg19
Nsg12
Nsg39
S'RegistryKey'
p80
sg13
Nsbag1
(cmojom.parse.ast
Interface
p81
g3
NtRp82
(dp83
g57
g1
(cmojom.parse.ast
InterfaceBody
p84
g3
NtRp85
(dp86
g10
(lp87
g1
(cmojom.parse.ast
Method
p88
g3
NtRp89
(dp90
g65
Nsg39
S'PromptUser'
p91
sS'parameter_list'
p92
g1
(cmojom.parse.ast
ParameterList
p93
g3
NtRp94
(dp95
g10
(lp96
g1
(cmojom.parse.ast
Parameter
p97
g3
NtRp98
(dp99
g65
Nsg39
S'files_to_delete'
p100
sg19
Nsg13
g30
sg68
S'FilePath[]'
p101
sg12
I50
sbag1
(g97
g3
NtRp102
(dp103
g65
Nsg39
S'registry_keys'
p104
sg19
g1
(g20
g3
NtRp105
(dp106
g10
(lp107
g1
(g24
g3
NtRp108
(dp109
g27
I1
sg12
I51
sg28
S'MinVersion'
p110
sg13
g30
sbasg12
I51
sg13
g30
sbsg13
g30
sg68
S'RegistryKey[]?'
p111
sg12
I51
sbasg12
I50
sg13
g30
sbsg19
Nsg13
Nsg12
NsS'response_parameter_list'
p112
g1
(g93
g3
NtRp113
(dp114
g10
(lp115
g1
(g97
g3
NtRp116
(dp117
g65
Nsg39
S'prompt_acceptance'
p118
sg19
Nsg13
g30
sg68
S'PromptAcceptance'
p119
sg12
I52
sbasg12
I52
sg13
g30
sbsbasg12
Nsg13
Nsbsg19
Nsg12
Nsg39
S'ChromePrompt'
p120
sg13
Nsbasg12
NsS'module'
p121
g1
(cmojom.parse.ast
Module
p122
g3
NtRp123
(dp124
S'mojom_namespace'
p125
(S'IDENTIFIER'
p126
S'chrome_cleaner.mojom'
tp127
sg12
I5
sg19
Nsg13
g30
sbsg13
Nsb.