ccopy_reg
_reconstructor
p1
(cmojom.parse.ast
Mojom
p2
c__builtin__
object
p3
NtRp4
(dp5
S'import_list'
p6
g1
(cmojom.parse.ast
ImportList
p7
g3
NtRp8
(dp9
S'items'
p10
(lp11
g1
(cmojom.parse.ast
Import
p12
g3
NtRp13
(dp14
S'attribute_list'
p15
NsS'lineno'
p16
I7
sS'import_filename'
p17
S'mojo/public/mojom/base/text_direction.mojom'
p18
sS'filename'
p19
S'../../services/ui/public/interfaces/ime/ime.mojom'
p20
sbag1
(g12
g3
NtRp21
(dp22
g15
Nsg16
I8
sg17
S'mojo/public/mojom/base/string16.mojom'
p23
sg19
g20
sbag1
(g12
g3
NtRp24
(dp25
g15
Nsg16
I9
sg17
S'ui/events/mojo/event.mojom'
p26
sg19
g20
sbag1
(g12
g3
NtRp27
(dp28
g15
Nsg16
I10
sg17
S'ui/gfx/geometry/mojo/geometry.mojom'
p29
sg19
g20
sbag1
(g12
g3
NtRp30
(dp31
g15
Nsg16
I11
sg17
S'ui/gfx/range/mojo/range.mojom'
p32
sg19
g20
sbag1
(g12
g3
NtRp33
(dp34
g15
Nsg16
I12
sg17
S'ui/platform_window/mojo/text_input_state.mojom'
p35
sg19
g20
sbasg16
I7
sg19
g20
sbsS'definition_list'
p36
(lp37
g1
(cmojom.parse.ast
Enum
p38
g3
NtRp39
(dp40
g15
NsS'enum_value_list'
p41
g1
(cmojom.parse.ast
EnumValueList
p42
g3
NtRp43
(dp44
g10
(lp45
g1
(cmojom.parse.ast
EnumValue
p46
g3
NtRp47
(dp48
g15
NsS'value'
p49
Nsg16
I17
sS'mojom_name'
p50
S'kCursor'
p51
sg19
g20
sbag1
(g46
g3
NtRp52
(dp53
g15
Nsg49
Nsg16
I20
sg50
S'kComposition'
p54
sg19
g20
sbasg16
I17
sg19
g20
sbsg16
I15
sg50
S'CandidateWindowPosition'
p55
sg19
g20
sbag1
(cmojom.parse.ast
Struct
p56
g3
NtRp57
(dp58
S'body'
p59
g1
(cmojom.parse.ast
StructBody
p60
g3
NtRp61
(dp62
g10
(lp63
g1
(cmojom.parse.ast
StructField
p64
g3
NtRp65
(dp66
S'ordinal'
p67
NsS'default_value'
p68
Nsg50
S'page_size'
p69
sg15
Nsg19
NsS'typename'
p70
S'int32'
p71
sg16
Nsbag1
(g64
g3
NtRp72
(dp73
g67
Nsg68
Nsg50
S'vertical'
p74
sg15
Nsg19
Nsg70
S'bool'
p75
sg16
Nsbag1
(g64
g3
NtRp76
(dp77
g67
Nsg68
Nsg50
S'auxiliary_text'
p78
sg15
Nsg19
Nsg70
S'string'
p79
sg16
Nsbag1
(g64
g3
NtRp80
(dp81
g67
Nsg68
Nsg50
S'auxiliary_text_visible'
p82
sg15
Nsg19
Nsg70
S'bool'
p83
sg16
Nsbag1
(g64
g3
NtRp84
(dp85
g67
Nsg68
Nsg50
S'cursor_position'
p86
sg15
Nsg19
Nsg70
S'int32'
p87
sg16
Nsbag1
(g64
g3
NtRp88
(dp89
g67
Nsg68
Nsg50
S'cursor_visible'
p90
sg15
Nsg19
Nsg70
S'bool'
p91
sg16
Nsbag1
(g64
g3
NtRp92
(dp93
g67
Nsg68
Nsg50
S'window_position'
p94
sg15
Nsg19
Nsg70
S'CandidateWindowPosition'
p95
sg16
Nsbasg16
Nsg19
Nsbsg15
Nsg16
Nsg50
S'CandidateWindowProperties'
p96
sg19
Nsbag1
(g56
g3
NtRp97
(dp98
g59
g1
(g60
g3
NtRp99
(dp100
g10
(lp101
g1
(g64
g3
NtRp102
(dp103
g67
Nsg68
Nsg50
S'value'
p104
sg15
Nsg19
Nsg70
S'mojo_base.mojom.String16'
p105
sg16
Nsbag1
(g64
g3
NtRp106
(dp107
g67
Nsg68
Nsg50
S'label'
p108
sg15
Nsg19
Nsg70
S'mojo_base.mojom.String16'
p109
sg16
Nsbag1
(g64
g3
NtRp110
(dp111
g67
Nsg68
Nsg50
S'annotation'
p112
sg15
Nsg19
Nsg70
S'mojo_base.mojom.String16'
p113
sg16
Nsbag1
(g64
g3
NtRp114
(dp115
g67
Nsg68
Nsg50
S'description_title'
p116
sg15
Nsg19
Nsg70
S'mojo_base.mojom.String16'
p117
sg16
Nsbag1
(g64
g3
NtRp118
(dp119
g67
Nsg68
Nsg50
S'description_body'
p120
sg15
Nsg19
Nsg70
S'mojo_base.mojom.String16'
p121
sg16
Nsbasg16
Nsg19
Nsbsg15
Nsg16
Nsg50
S'CandidateWindowEntry'
p122
sg19
Nsbag1
(g38
g3
NtRp123
(dp124
g15
Nsg41
g1
(g42
g3
NtRp125
(dp126
g10
(lp127
g1
(g46
g3
NtRp128
(dp129
g15
Nsg49
Nsg16
I63
sg50
S'kComposition'
p130
sg19
g20
sbag1
(g46
g3
NtRp131
(dp132
g15
Nsg49
Nsg16
I64
sg50
S'kSuggestion'
p133
sg19
g20
sbag1
(g46
g3
NtRp134
(dp135
g15
Nsg49
Nsg16
I65
sg50
S'kMisspellingSuggestion'
p136
sg19
g20
sbasg16
I63
sg19
g20
sbsg16
I62
sg50
S'ImeTextSpanType'
p137
sg19
g20
sbag1
(g38
g3
NtRp138
(dp139
g15
Nsg41
g1
(g42
g3
NtRp140
(dp141
g10
(lp142
g1
(g46
g3
NtRp143
(dp144
g15
Nsg49
Nsg16
I75
sg50
S'kNone'
p145
sg19
g20
sbag1
(g46
g3
NtRp146
(dp147
g15
Nsg49
Nsg16
I76
sg50
S'kThin'
p148
sg19
g20
sbag1
(g46
g3
NtRp149
(dp150
g15
Nsg49
Nsg16
I77
sg50
S'kThick'
p151
sg19
g20
sbasg16
I75
sg19
g20
sbsg16
I74
sg50
S'ImeTextSpanThickness'
p152
sg19
g20
sbag1
(g56
g3
NtRp153
(dp154
g59
g1
(g60
g3
NtRp155
(dp156
g10
(lp157
g1
(g64
g3
NtRp158
(dp159
g67
Nsg68
Nsg50
S'type'
p160
sg15
Nsg19
Nsg70
S'ImeTextSpanType'
p161
sg16
Nsbag1
(g64
g3
NtRp162
(dp163
g67
Nsg68
Nsg50
S'start_offset'
p164
sg15
Nsg19
Nsg70
S'uint32'
p165
sg16
Nsbag1
(g64
g3
NtRp166
(dp167
g67
Nsg68
Nsg50
S'end_offset'
p168
sg15
Nsg19
Nsg70
S'uint32'
p169
sg16
Nsbag1
(g64
g3
NtRp170
(dp171
g67
Nsg68
Nsg50
S'underline_color'
p172
sg15
Nsg19
Nsg70
S'uint32'
p173
sg16
Nsbag1
(g64
g3
NtRp174
(dp175
g67
Nsg68
Nsg50
S'thickness'
p176
sg15
Nsg19
Nsg70
S'ImeTextSpanThickness'
p177
sg16
Nsbag1
(g64
g3
NtRp178
(dp179
g67
Nsg68
Nsg50
S'background_color'
p180
sg15
Nsg19
Nsg70
S'uint32'
p181
sg16
Nsbag1
(g64
g3
NtRp182
(dp183
g67
Nsg68
Nsg50
S'suggestion_highlight_color'
p184
sg15
Nsg19
Nsg70
S'uint32'
p185
sg16
Nsbag1
(g64
g3
NtRp186
(dp187
g67
Nsg68
Nsg50
S'suggestions'
p188
sg15
Nsg19
Nsg70
S'string[]'
p189
sg16
Nsbasg16
Nsg19
Nsbsg15
Nsg16
Nsg50
S'ImeTextSpan'
p190
sg19
Nsbag1
(g56
g3
NtRp191
(dp192
g59
g1
(g60
g3
NtRp193
(dp194
g10
(lp195
g1
(g64
g3
NtRp196
(dp197
g67
Nsg68
Nsg50
S'text'
p198
sg15
Nsg19
Nsg70
S'mojo_base.mojom.String16'
p199
sg16
Nsbag1
(g64
g3
NtRp200
(dp201
g67
Nsg68
Nsg50
S'ime_text_spans'
p202
sg15
Nsg19
Nsg70
S'ImeTextSpan[]'
p203
sg16
Nsbag1
(g64
g3
NtRp204
(dp205
g67
Nsg68
Nsg50
S'selection'
p206
sg15
Nsg19
Nsg70
S'gfx.mojom.Range'
p207
sg16
Nsbasg16
Nsg19
Nsbsg15
Nsg16
Nsg50
S'CompositionText'
p208
sg19
Nsbag1
(g38
g3
NtRp209
(dp210
g15
Nsg41
g1
(g42
g3
NtRp211
(dp212
g10
(lp213
g1
(g46
g3
NtRp214
(dp215
g15
Nsg49
Nsg16
I103
sg50
S'kDefault'
p216
sg19
g20
sbag1
(g46
g3
NtRp217
(dp218
g15
Nsg49
Nsg16
I104
sg50
S'kNone'
p219
sg19
g20
sbag1
(g46
g3
NtRp220
(dp221
g15
Nsg49
Nsg16
I105
sg50
S'kText'
p222
sg19
g20
sbag1
(g46
g3
NtRp223
(dp224
g15
Nsg49
Nsg16
I106
sg50
S'kTel'
p225
sg19
g20
sbag1
(g46
g3
NtRp226
(dp227
g15
Nsg49
Nsg16
I107
sg50
S'kUrl'
p228
sg19
g20
sbag1
(g46
g3
NtRp229
(dp230
g15
Nsg49
Nsg16
I108
sg50
S'kEmail'
p231
sg19
g20
sbag1
(g46
g3
NtRp232
(dp233
g15
Nsg49
Nsg16
I109
sg50
S'kNumeric'
p234
sg19
g20
sbag1
(g46
g3
NtRp235
(dp236
g15
Nsg49
Nsg16
I110
sg50
S'kDecimal'
p237
sg19
g20
sbag1
(g46
g3
NtRp238
(dp239
g15
Nsg49
Nsg16
I111
sg50
S'kSearch'
p240
sg19
g20
sbasg16
I103
sg19
g20
sbsg16
I102
sg50
S'TextInputMode'
p241
sg19
g20
sbag1
(g56
g3
NtRp242
(dp243
g59
g1
(g60
g3
NtRp244
(dp245
g10
(lp246
g1
(g64
g3
NtRp247
(dp248
g67
Nsg68
Nsg50
S'client'
p249
sg15
Nsg19
Nsg70
S'TextInputClient'
p250
sg16
Nsbag1
(g64
g3
NtRp251
(dp252
g67
Nsg68
Nsg50
S'input_method_request'
p253
sg15
Nsg19
Nsg70
S'InputMethod&'
p254
sg16
Nsbag1
(g64
g3
NtRp255
(dp256
g67
Nsg68
Nsg50
S'text_input_type'
p257
sg15
Nsg19
Nsg70
S'TextInputType'
p258
sg16
Nsbag1
(g64
g3
NtRp259
(dp260
g67
Nsg68
Nsg50
S'text_input_mode'
p261
sg15
Nsg19
Nsg70
S'TextInputMode'
p262
sg16
Nsbag1
(g64
g3
NtRp263
(dp264
g67
Nsg68
Nsg50
S'text_direction'
p265
sg15
Nsg19
Nsg70
S'mojo_base.mojom.TextDirection'
p266
sg16
Nsbag1
(g64
g3
NtRp267
(dp268
g67
Nsg68
Nsg50
S'text_input_flags'
p269
sg15
Nsg19
Nsg70
S'int32'
p270
sg16
Nsbag1
(g64
g3
NtRp271
(dp272
g67
Nsg68
Nsg50
S'caret_bounds'
p273
sg15
Nsg19
Nsg70
S'gfx.mojom.Rect'
p274
sg16
Nsbasg16
Nsg19
Nsbsg15
Nsg16
Nsg50
S'StartSessionDetails'
p275
sg19
Nsbag1
(cmojom.parse.ast
Interface
p276
g3
NtRp277
(dp278
g59
g1
(cmojom.parse.ast
InterfaceBody
p279
g3
NtRp280
(dp281
g10
(lp282
g1
(cmojom.parse.ast
Method
p283
g3
NtRp284
(dp285
g67
Nsg50
S'StartSession'
p286
sS'parameter_list'
p287
g1
(cmojom.parse.ast
ParameterList
p288
g3
NtRp289
(dp290
g10
(lp291
g1
(cmojom.parse.ast
Parameter
p292
g3
NtRp293
(dp294
g67
Nsg50
S'details'
p295
sg15
Nsg19
g20
sg70
S'StartSessionDetails'
p296
sg16
I132
sbasg16
I132
sg19
g20
sbsg15
Nsg19
Nsg16
NsS'response_parameter_list'
p297
Nsbasg16
Nsg19
Nsbsg15
Nsg16
Nsg50
S'IMEDriver'
p298
sg19
Nsbag1
(g276
g3
NtRp299
(dp300
g59
g1
(g279
g3
NtRp301
(dp302
g10
(lp303
g1
(g283
g3
NtRp304
(dp305
g67
Nsg50
S'RegisterDriver'
p306
sg287
g1
(g288
g3
NtRp307
(dp308
g10
(lp309
g1
(g292
g3
NtRp310
(dp311
g67
Nsg50
S'driver'
p312
sg15
Nsg19
g20
sg70
S'IMEDriver'
p313
sg16
I138
sbasg16
I138
sg19
g20
sbsg15
Nsg19
Nsg16
Nsg297
Nsbasg16
Nsg19
Nsbsg15
Nsg16
Nsg50
S'IMERegistrar'
p314
sg19
Nsbag1
(g276
g3
NtRp315
(dp316
g59
g1
(g279
g3
NtRp317
(dp318
g10
(lp319
g1
(g283
g3
NtRp320
(dp321
g67
Nsg50
S'OnTextInputTypeChanged'
p322
sg287
g1
(g288
g3
NtRp323
(dp324
g10
(lp325
g1
(g292
g3
NtRp326
(dp327
g67
Nsg50
S'text_input_type'
p328
sg15
Nsg19
g20
sg70
S'TextInputType'
p329
sg16
I145
sbasg16
I145
sg19
g20
sbsg15
Nsg19
Nsg16
Nsg297
Nsbag1
(g283
g3
NtRp330
(dp331
g67
Nsg50
S'OnCaretBoundsChanged'
p332
sg287
g1
(g288
g3
NtRp333
(dp334
g10
(lp335
g1
(g292
g3
NtRp336
(dp337
g67
Nsg50
S'caret_bounds'
p338
sg15
Nsg19
g20
sg70
S'gfx.mojom.Rect'
p339
sg16
I149
sbasg16
I149
sg19
g20
sbsg15
Nsg19
Nsg16
Nsg297
Nsbag1
(g283
g3
NtRp340
(dp341
g67
Nsg50
S'ProcessKeyEvent'
p342
sg287
g1
(g288
g3
NtRp343
(dp344
g10
(lp345
g1
(g292
g3
NtRp346
(dp347
g67
Nsg50
S'key_event'
p348
sg15
Nsg19
g20
sg70
S'ui.mojom.Event'
p349
sg16
I155
sbasg16
I155
sg19
g20
sbsg15
Nsg19
Nsg16
Nsg297
g1
(g288
g3
NtRp350
(dp351
g10
(lp352
g1
(g292
g3
NtRp353
(dp354
g67
Nsg50
S'handled'
p355
sg15
Nsg19
g20
sg70
S'bool'
p356
sg16
I155
sbasg16
I155
sg19
g20
sbsbag1
(g283
g3
NtRp357
(dp358
g67
Nsg50
S'CancelComposition'
p359
sg287
g1
(g288
g3
NtRp360
(dp361
g10
(lp362
sg16
Nsg19
Nsbsg15
Nsg19
Nsg16
Nsg297
Nsbasg16
Nsg19
Nsbsg15
Nsg16
Nsg50
S'InputMethod'
p363
sg19
Nsbag1
(g276
g3
NtRp364
(dp365
g59
g1
(g279
g3
NtRp366
(dp367
g10
(lp368
g1
(g283
g3
NtRp369
(dp370
g67
Nsg50
S'SetCompositionText'
p371
sg287
g1
(g288
g3
NtRp372
(dp373
g10
(lp374
g1
(g292
g3
NtRp375
(dp376
g67
Nsg50
S'composition'
p377
sg15
Nsg19
g20
sg70
S'CompositionText'
p378
sg16
I168
sbasg16
I168
sg19
g20
sbsg15
Nsg19
Nsg16
Nsg297
Nsbag1
(g283
g3
NtRp379
(dp380
g67
Nsg50
S'ConfirmCompositionText'
p381
sg287
g1
(g288
g3
NtRp382
(dp383
g10
(lp384
sg16
Nsg19
Nsbsg15
Nsg19
Nsg16
Nsg297
Nsbag1
(g283
g3
NtRp385
(dp386
g67
Nsg50
S'ClearCompositionText'
p387
sg287
g1
(g288
g3
NtRp388
(dp389
g10
(lp390
sg16
Nsg19
Nsbsg15
Nsg19
Nsg16
Nsg297
Nsbag1
(g283
g3
NtRp391
(dp392
g67
Nsg50
S'InsertText'
p393
sg287
g1
(g288
g3
NtRp394
(dp395
g10
(lp396
g1
(g292
g3
NtRp397
(dp398
g67
Nsg50
S'text'
p399
sg15
Nsg19
g20
sg70
S'mojo_base.mojom.String16'
p400
sg16
I179
sbasg16
I179
sg19
g20
sbsg15
Nsg19
Nsg16
Nsg297
Nsbag1
(g283
g3
NtRp401
(dp402
g67
Nsg50
S'InsertChar'
p403
sg287
g1
(g288
g3
NtRp404
(dp405
g10
(lp406
g1
(g292
g3
NtRp407
(dp408
g67
Nsg50
S'event'
p409
sg15
Nsg19
g20
sg70
S'ui.mojom.Event'
p410
sg16
I184
sbasg16
I184
sg19
g20
sbsg15
Nsg19
Nsg16
Nsg297
Nsbag1
(g283
g3
NtRp411
(dp412
g67
Nsg50
S'DispatchKeyEventPostIME'
p413
sg287
g1
(g288
g3
NtRp414
(dp415
g10
(lp416
g1
(g292
g3
NtRp417
(dp418
g67
Nsg50
S'event'
p419
sg15
Nsg19
g20
sg70
S'ui.mojom.Event'
p420
sg16
I187
sbasg16
I187
sg19
g20
sbsg15
Nsg19
Nsg16
Nsg297
g1
(g288
g3
NtRp421
(dp422
g10
(lp423
g1
(g292
g3
NtRp424
(dp425
g67
Nsg50
S'stopped_propagation'
p426
sg15
Nsg19
g20
sg70
S'bool'
p427
sg16
I187
sbasg16
I187
sg19
g20
sbsbasg16
Nsg19
Nsbsg15
Nsg16
Nsg50
S'TextInputClient'
p428
sg19
Nsbasg16
NsS'module'
p429
g1
(cmojom.parse.ast
Module
p430
g3
NtRp431
(dp432
S'mojom_namespace'
p433
(S'IDENTIFIER'
p434
S'ui.mojom'
tp435
sg16
I5
sg15
Nsg19
g20
sbsg19
Nsb.