ccopy_reg
_reconstructor
p1
(cmojom.parse.ast
Mojom
p2
c__builtin__
object
p3
NtRp4
(dp5
S'import_list'
p6
g1
(cmojom.parse.ast
ImportList
p7
g3
NtRp8
(dp9
S'items'
p10
(lp11
g1
(cmojom.parse.ast
Import
p12
g3
NtRp13
(dp14
S'attribute_list'
p15
NsS'lineno'
p16
I7
sS'import_filename'
p17
S'mojo/public/mojom/base/time.mojom'
p18
sS'filename'
p19
S'../../services/viz/public/interfaces/compositing/begin_frame_args.mojom'
p20
sbasg16
I7
sg19
g20
sbsS'definition_list'
p21
(lp22
g1
(cmojom.parse.ast
Enum
p23
g3
NtRp24
(dp25
g15
NsS'enum_value_list'
p26
g1
(cmojom.parse.ast
EnumValueList
p27
g3
NtRp28
(dp29
g10
(lp30
g1
(cmojom.parse.ast
EnumValue
p31
g3
NtRp32
(dp33
g15
NsS'value'
p34
Nsg16
I10
sS'mojom_name'
p35
S'INVALID'
p36
sg19
g20
sbag1
(g31
g3
NtRp37
(dp38
g15
Nsg34
Nsg16
I11
sg35
S'NORMAL'
p39
sg19
g20
sbag1
(g31
g3
NtRp40
(dp41
g15
Nsg34
Nsg16
I12
sg35
S'MISSED'
p42
sg19
g20
sbag1
(g31
g3
NtRp43
(dp44
g15
Nsg34
Nsg16
I13
sg35
S'BEGIN_FRAME_ARGS_TYPE_MAX'
p45
sg19
g20
sbasg16
I10
sg19
g20
sbsg16
I9
sg35
S'BeginFrameArgsType'
p46
sg19
g20
sbag1
(cmojom.parse.ast
Struct
p47
g3
NtRp48
(dp49
S'body'
p50
g1
(cmojom.parse.ast
StructBody
p51
g3
NtRp52
(dp53
g10
(lp54
g1
(cmojom.parse.ast
StructField
p55
g3
NtRp56
(dp57
S'ordinal'
p58
NsS'default_value'
p59
Nsg35
S'frame_time'
p60
sg15
Nsg19
NsS'typename'
p61
S'mojo_base.mojom.TimeTicks'
p62
sg16
Nsbag1
(g55
g3
NtRp63
(dp64
g58
Nsg59
Nsg35
S'deadline'
p65
sg15
Nsg19
Nsg61
S'mojo_base.mojom.TimeTicks'
p66
sg16
Nsbag1
(g55
g3
NtRp67
(dp68
g58
Nsg59
Nsg35
S'interval'
p69
sg15
Nsg19
Nsg61
S'mojo_base.mojom.TimeDelta'
p70
sg16
Nsbag1
(g55
g3
NtRp71
(dp72
g58
Nsg59
Nsg35
S'source_id'
p73
sg15
Nsg19
Nsg61
S'uint64'
p74
sg16
Nsbag1
(g55
g3
NtRp75
(dp76
g58
Nsg59
Nsg35
S'sequence_number'
p77
sg15
Nsg19
Nsg61
S'uint64'
p78
sg16
Nsbag1
(g55
g3
NtRp79
(dp80
g58
Nsg59
Nsg35
S'type'
p81
sg15
Nsg19
Nsg61
S'BeginFrameArgsType'
p82
sg16
Nsbag1
(g55
g3
NtRp83
(dp84
g58
Nsg59
Nsg35
S'on_critical_path'
p85
sg15
Nsg19
Nsg61
S'bool'
p86
sg16
Nsbag1
(g55
g3
NtRp87
(dp88
g58
Nsg59
Nsg35
S'animate_only'
p89
sg15
Nsg19
Nsg61
S'bool'
p90
sg16
Nsbasg16
Nsg19
Nsbsg15
Nsg16
Nsg35
S'BeginFrameArgs'
p91
sg19
Nsbag1
(g47
g3
NtRp92
(dp93
g50
g1
(g51
g3
NtRp94
(dp95
g10
(lp96
g1
(g55
g3
NtRp97
(dp98
g58
Nsg59
Nsg35
S'source_id'
p99
sg15
Nsg19
Nsg61
S'uint64'
p100
sg16
Nsbag1
(g55
g3
NtRp101
(dp102
g58
Nsg59
Nsg35
S'sequence_number'
p103
sg15
Nsg19
Nsg61
S'uint64'
p104
sg16
Nsbag1
(g55
g3
NtRp105
(dp106
g58
Nsg59
Nsg35
S'has_damage'
p107
sg15
Nsg19
Nsg61
S'bool'
p108
sg16
Nsbasg16
Nsg19
Nsbsg15
Nsg16
Nsg35
S'BeginFrameAck'
p109
sg19
Nsbasg16
NsS'module'
p110
g1
(cmojom.parse.ast
Module
p111
g3
NtRp112
(dp113
S'mojom_namespace'
p114
(S'IDENTIFIER'
p115
S'viz.mojom'
tp116
sg16
I5
sg15
Nsg19
g20
sbsg19
Nsb.