ccopy_reg
_reconstructor
p1
(cmojom.parse.ast
Mojom
p2
c__builtin__
object
p3
NtRp4
(dp5
S'import_list'
p6
g1
(cmojom.parse.ast
ImportList
p7
g3
NtRp8
(dp9
S'items'
p10
(lp11
g1
(cmojom.parse.ast
Import
p12
g3
NtRp13
(dp14
S'attribute_list'
p15
NsS'lineno'
p16
I7
sS'import_filename'
p17
S'services/viz/public/interfaces/compositing/begin_frame_args.mojom'
p18
sS'filename'
p19
S'../../services/viz/public/interfaces/compositing/compositor_frame_metadata.mojom'
p20
sbag1
(g12
g3
NtRp21
(dp22
g15
Nsg16
I8
sg17
S'services/viz/public/interfaces/compositing/frame_deadline.mojom'
p23
sg19
g20
sbag1
(g12
g3
NtRp24
(dp25
g15
Nsg16
I9
sg17
S'services/viz/public/interfaces/compositing/selection.mojom'
p26
sg19
g20
sbag1
(g12
g3
NtRp27
(dp28
g15
Nsg16
I10
sg17
S'services/viz/public/interfaces/compositing/surface_id.mojom'
p29
sg19
g20
sbag1
(g12
g3
NtRp30
(dp31
g15
Nsg16
I11
sg17
S'ui/latency/mojo/latency_info.mojom'
p32
sg19
g20
sbag1
(g12
g3
NtRp33
(dp34
g15
Nsg16
I12
sg17
S'ui/gfx/geometry/mojo/geometry.mojom'
p35
sg19
g20
sbasg16
I7
sg19
g20
sbsS'definition_list'
p36
(lp37
g1
(cmojom.parse.ast
Struct
p38
g3
NtRp39
(dp40
S'body'
p41
g1
(cmojom.parse.ast
StructBody
p42
g3
NtRp43
(dp44
g10
(lp45
g1
(cmojom.parse.ast
StructField
p46
g3
NtRp47
(dp48
S'ordinal'
p49
NsS'default_value'
p50
NsS'mojom_name'
p51
S'device_scale_factor'
p52
sg15
Nsg19
NsS'typename'
p53
S'float'
p54
sg16
Nsbag1
(g46
g3
NtRp55
(dp56
g49
Nsg50
Nsg51
S'root_scroll_offset'
p57
sg15
Nsg19
Nsg53
S'gfx.mojom.Vector2dF'
p58
sg16
Nsbag1
(g46
g3
NtRp59
(dp60
g49
Nsg50
Nsg51
S'page_scale_factor'
p61
sg15
Nsg19
Nsg53
S'float'
p62
sg16
Nsbag1
(g46
g3
NtRp63
(dp64
g49
Nsg50
Nsg51
S'scrollable_viewport_size'
p65
sg15
Nsg19
Nsg53
S'gfx.mojom.SizeF'
p66
sg16
Nsbag1
(g46
g3
NtRp67
(dp68
g49
Nsg50
Nsg51
S'root_layer_size'
p69
sg15
Nsg19
Nsg53
S'gfx.mojom.SizeF'
p70
sg16
Nsbag1
(g46
g3
NtRp71
(dp72
g49
Nsg50
Nsg51
S'min_page_scale_factor'
p73
sg15
Nsg19
Nsg53
S'float'
p74
sg16
Nsbag1
(g46
g3
NtRp75
(dp76
g49
Nsg50
Nsg51
S'max_page_scale_factor'
p77
sg15
Nsg19
Nsg53
S'float'
p78
sg16
Nsbag1
(g46
g3
NtRp79
(dp80
g49
Nsg50
Nsg51
S'root_overflow_y_hidden'
p81
sg15
Nsg19
Nsg53
S'bool'
p82
sg16
Nsbag1
(g46
g3
NtRp83
(dp84
g49
Nsg50
Nsg51
S'may_contain_video'
p85
sg15
Nsg19
Nsg53
S'bool'
p86
sg16
Nsbag1
(g46
g3
NtRp87
(dp88
g49
Nsg50
Nsg51
S'is_resourceless_software_draw_with_scroll_or_animation'
p89
sg15
Nsg19
Nsg53
S'bool'
p90
sg16
Nsbag1
(g46
g3
NtRp91
(dp92
g49
Nsg50
Nsg51
S'top_controls_height'
p93
sg15
Nsg19
Nsg53
S'float'
p94
sg16
Nsbag1
(g46
g3
NtRp95
(dp96
g49
Nsg50
Nsg51
S'top_controls_shown_ratio'
p97
sg15
Nsg19
Nsg53
S'float'
p98
sg16
Nsbag1
(g46
g3
NtRp99
(dp100
g49
Nsg50
Nsg51
S'bottom_controls_height'
p101
sg15
Nsg19
Nsg53
S'float'
p102
sg16
Nsbag1
(g46
g3
NtRp103
(dp104
g49
Nsg50
Nsg51
S'bottom_controls_shown_ratio'
p105
sg15
Nsg19
Nsg53
S'float'
p106
sg16
Nsbag1
(g46
g3
NtRp107
(dp108
g49
Nsg50
Nsg51
S'root_background_color'
p109
sg15
Nsg19
Nsg53
S'uint32'
p110
sg16
Nsbag1
(g46
g3
NtRp111
(dp112
g49
Nsg50
Nsg51
S'selection'
p113
sg15
Nsg19
Nsg53
S'Selection'
p114
sg16
Nsbag1
(g46
g3
NtRp115
(dp116
g49
Nsg50
Nsg51
S'latency_info'
p117
sg15
Nsg19
Nsg53
S'ui.mojom.LatencyInfo[]'
p118
sg16
Nsbag1
(g46
g3
NtRp119
(dp120
g49
Nsg50
Nsg51
S'referenced_surfaces'
p121
sg15
Nsg19
Nsg53
S'SurfaceId[]'
p122
sg16
Nsbag1
(g46
g3
NtRp123
(dp124
g49
Nsg50
Nsg51
S'deadline'
p125
sg15
Nsg19
Nsg53
S'FrameDeadline'
p126
sg16
Nsbag1
(g46
g3
NtRp127
(dp128
g49
Nsg50
Nsg51
S'activation_dependencies'
p129
sg15
Nsg19
Nsg53
S'SurfaceId[]'
p130
sg16
Nsbag1
(g46
g3
NtRp131
(dp132
g49
Nsg50
Nsg51
S'content_source_id'
p133
sg15
Nsg19
Nsg53
S'uint32'
p134
sg16
Nsbag1
(g46
g3
NtRp135
(dp136
g49
Nsg50
Nsg51
S'begin_frame_ack'
p137
sg15
Nsg19
Nsg53
S'BeginFrameAck'
p138
sg16
Nsbag1
(g46
g3
NtRp139
(dp140
g49
Nsg50
Nsg51
S'frame_token'
p141
sg15
Nsg19
Nsg53
S'uint32'
p142
sg16
Nsbag1
(g46
g3
NtRp143
(dp144
g49
Nsg50
Nsg51
S'presentation_token'
p145
sg15
Nsg19
Nsg53
S'uint32'
p146
sg16
Nsbasg16
Nsg19
Nsbsg15
Nsg16
Nsg51
S'CompositorFrameMetadata'
p147
sg19
Nsbasg16
NsS'module'
p148
g1
(cmojom.parse.ast
Module
p149
g3
NtRp150
(dp151
S'mojom_namespace'
p152
(S'IDENTIFIER'
p153
S'viz.mojom'
tp154
sg16
I5
sg15
Nsg19
g20
sbsg19
Nsb.