ccopy_reg
_reconstructor
p1
(cmojom.parse.ast
Mojom
p2
c__builtin__
object
p3
NtRp4
(dp5
S'import_list'
p6
g1
(cmojom.parse.ast
ImportList
p7
g3
NtRp8
(dp9
S'items'
p10
(lp11
g1
(cmojom.parse.ast
Import
p12
g3
NtRp13
(dp14
S'attribute_list'
p15
NsS'lineno'
p16
I7
sS'import_filename'
p17
S'mojo/public/mojom/base/time.mojom'
p18
sS'filename'
p19
S'../../services/viz/public/interfaces/compositing/compositor_frame_sink.mojom'
p20
sbag1
(g12
g3
NtRp21
(dp22
g15
Nsg16
I8
sg17
S'services/viz/public/interfaces/compositing/begin_frame_args.mojom'
p23
sg19
g20
sbag1
(g12
g3
NtRp24
(dp25
g15
Nsg16
I9
sg17
S'services/viz/public/interfaces/compositing/compositor_frame.mojom'
p26
sg19
g20
sbag1
(g12
g3
NtRp27
(dp28
g15
Nsg16
I10
sg17
S'services/viz/public/interfaces/compositing/local_surface_id.mojom'
p29
sg19
g20
sbag1
(g12
g3
NtRp30
(dp31
g15
Nsg16
I11
sg17
S'services/viz/public/interfaces/compositing/returned_resource.mojom'
p32
sg19
g20
sbag1
(g12
g3
NtRp33
(dp34
g15
Nsg16
I12
sg17
S'services/viz/public/interfaces/hit_test/hit_test_region_list.mojom'
p35
sg19
g20
sbag1
(g12
g3
NtRp36
(dp37
g15
Nsg16
I13
sg17
S'ui/gfx/geometry/mojo/geometry.mojom'
p38
sg19
g20
sbag1
(g12
g3
NtRp39
(dp40
g15
Nsg16
I14
sg17
S'gpu/ipc/common/mailbox.mojom'
p41
sg19
g20
sbasg16
I7
sg19
g20
sbsS'definition_list'
p42
(lp43
g1
(cmojom.parse.ast
Interface
p44
g3
NtRp45
(dp46
S'body'
p47
g1
(cmojom.parse.ast
InterfaceBody
p48
g3
NtRp49
(dp50
g10
(lp51
g1
(cmojom.parse.ast
Method
p52
g3
NtRp53
(dp54
S'ordinal'
p55
NsS'mojom_name'
p56
S'SetNeedsBeginFrame'
p57
sS'parameter_list'
p58
g1
(cmojom.parse.ast
ParameterList
p59
g3
NtRp60
(dp61
g10
(lp62
g1
(cmojom.parse.ast
Parameter
p63
g3
NtRp64
(dp65
g55
Nsg56
S'needs_begin_frame'
p66
sg15
Nsg19
g20
sS'typename'
p67
S'bool'
p68
sg16
I25
sbasg16
I25
sg19
g20
sbsg15
Nsg19
Nsg16
NsS'response_parameter_list'
p69
Nsbag1
(g52
g3
NtRp70
(dp71
g55
Nsg56
S'SetWantsAnimateOnlyBeginFrames'
p72
sg58
g1
(g59
g3
NtRp73
(dp74
g10
(lp75
sg16
Nsg19
Nsbsg15
Nsg19
Nsg16
Nsg69
Nsbag1
(g52
g3
NtRp76
(dp77
g55
Nsg56
S'SubmitCompositorFrame'
p78
sg58
g1
(g59
g3
NtRp79
(dp80
g10
(lp81
g1
(g63
g3
NtRp82
(dp83
g55
Nsg56
S'local_surface_id'
p84
sg15
Nsg19
g20
sg67
S'LocalSurfaceId'
p85
sg16
I45
sbag1
(g63
g3
NtRp86
(dp87
g55
Nsg56
S'frame'
p88
sg15
Nsg19
g20
sg67
S'CompositorFrame'
p89
sg16
I46
sbag1
(g63
g3
NtRp90
(dp91
g55
Nsg56
S'hit_test_region_list'
p92
sg15
Nsg19
g20
sg67
S'HitTestRegionList?'
p93
sg16
I47
sbag1
(g63
g3
NtRp94
(dp95
g55
Nsg56
S'submit_time'
p96
sg15
Nsg19
g20
sg67
S'uint64'
p97
sg16
I48
sbasg16
I45
sg19
g20
sbsg15
Nsg19
Nsg16
Nsg69
Nsbag1
(g52
g3
NtRp98
(dp99
g55
Nsg56
S'SubmitCompositorFrameSync'
p100
sg58
g1
(g59
g3
NtRp101
(dp102
g10
(lp103
g1
(g63
g3
NtRp104
(dp105
g55
Nsg56
S'local_surface_id'
p106
sg15
Nsg19
g20
sg67
S'LocalSurfaceId'
p107
sg16
I53
sbag1
(g63
g3
NtRp108
(dp109
g55
Nsg56
S'frame'
p110
sg15
Nsg19
g20
sg67
S'CompositorFrame'
p111
sg16
I54
sbag1
(g63
g3
NtRp112
(dp113
g55
Nsg56
S'hit_test_region_list'
p114
sg15
Nsg19
g20
sg67
S'HitTestRegionList?'
p115
sg16
I55
sbag1
(g63
g3
NtRp116
(dp117
g55
Nsg56
S'submit_time'
p118
sg15
Nsg19
g20
sg67
S'uint64'
p119
sg16
I56
sbasg16
I53
sg19
g20
sbsg15
g1
(cmojom.parse.ast
AttributeList
p120
g3
NtRp121
(dp122
g10
(lp123
g1
(cmojom.parse.ast
Attribute
p124
g3
NtRp125
(dp126
S'value'
p127
I01
sg16
I53
sS'key'
p128
S'Sync'
p129
sg19
g20
sbasg16
I53
sg19
g20
sbsg19
Nsg16
Nsg69
g1
(g59
g3
NtRp130
(dp131
g10
(lp132
g1
(g63
g3
NtRp133
(dp134
g55
Nsg56
S'resources'
p135
sg15
Nsg19
g20
sg67
S'ReturnedResource[]'
p136
sg16
I57
sbasg16
I57
sg19
g20
sbsbag1
(g52
g3
NtRp137
(dp138
g55
Nsg56
S'DidNotProduceFrame'
p139
sg58
g1
(g59
g3
NtRp140
(dp141
g10
(lp142
g1
(g63
g3
NtRp143
(dp144
g55
Nsg56
S'ack'
p145
sg15
Nsg19
g20
sg67
S'BeginFrameAck'
p146
sg16
I61
sbasg16
I61
sg19
g20
sbsg15
Nsg19
Nsg16
Nsg69
Nsbag1
(g52
g3
NtRp147
(dp148
g55
Nsg56
S'DidAllocateSharedBitmap'
p149
sg58
g1
(g59
g3
NtRp150
(dp151
g10
(lp152
g1
(g63
g3
NtRp153
(dp154
g55
Nsg56
S'buffer'
p155
sg15
Nsg19
g20
sg67
S'handle<shared_buffer>'
p156
sg16
I67
sbag1
(g63
g3
NtRp157
(dp158
g55
Nsg56
S'id'
p159
sg15
Nsg19
g20
sg67
S'gpu.mojom.Mailbox'
p160
sg16
I67
sbasg16
I67
sg19
g20
sbsg15
Nsg19
Nsg16
Nsg69
Nsbag1
(g52
g3
NtRp161
(dp162
g55
Nsg56
S'DidDeleteSharedBitmap'
p163
sg58
g1
(g59
g3
NtRp164
(dp165
g10
(lp166
g1
(g63
g3
NtRp167
(dp168
g55
Nsg56
S'id'
p169
sg15
Nsg19
g20
sg67
S'gpu.mojom.Mailbox'
p170
sg16
I73
sbasg16
I73
sg19
g20
sbsg15
Nsg19
Nsg16
Nsg69
Nsbasg16
Nsg19
Nsbsg15
Nsg16
Nsg56
S'CompositorFrameSink'
p171
sg19
Nsbag1
(g44
g3
NtRp172
(dp173
g47
g1
(g48
g3
NtRp174
(dp175
g10
(lp176
g1
(g52
g3
NtRp177
(dp178
g55
Nsg56
S'DidReceiveCompositorFrameAck'
p179
sg58
g1
(g59
g3
NtRp180
(dp181
g10
(lp182
g1
(g63
g3
NtRp183
(dp184
g55
Nsg56
S'resources'
p185
sg15
Nsg19
g20
sg67
S'ReturnedResource[]'
p186
sg16
I84
sbasg16
I84
sg19
g20
sbsg15
Nsg19
Nsg16
Nsg69
Nsbag1
(g52
g3
NtRp187
(dp188
g55
Nsg56
S'DidPresentCompositorFrame'
p189
sg58
g1
(g59
g3
NtRp190
(dp191
g10
(lp192
g1
(g63
g3
NtRp193
(dp194
g55
Nsg56
S'presentation_token'
p195
sg15
Nsg19
g20
sg67
S'uint32'
p196
sg16
I90
sbag1
(g63
g3
NtRp197
(dp198
g55
Nsg56
S'time'
p199
sg15
Nsg19
g20
sg67
S'mojo_base.mojom.TimeTicks'
p200
sg16
I91
sbag1
(g63
g3
NtRp201
(dp202
g55
Nsg56
S'refresh'
p203
sg15
Nsg19
g20
sg67
S'mojo_base.mojom.TimeDelta'
p204
sg16
I92
sbag1
(g63
g3
NtRp205
(dp206
g55
Nsg56
S'flags'
p207
sg15
Nsg19
g20
sg67
S'uint32'
p208
sg16
I93
sbasg16
I90
sg19
g20
sbsg15
Nsg19
Nsg16
Nsg69
Nsbag1
(g52
g3
NtRp209
(dp210
g55
Nsg56
S'DidDiscardCompositorFrame'
p211
sg58
g1
(g59
g3
NtRp212
(dp213
g10
(lp214
g1
(g63
g3
NtRp215
(dp216
g55
Nsg56
S'presentation_token'
p217
sg15
Nsg19
g20
sg67
S'uint32'
p218
sg16
I97
sbasg16
I97
sg19
g20
sbsg15
Nsg19
Nsg16
Nsg69
Nsbag1
(g52
g3
NtRp219
(dp220
g55
Nsg56
S'OnBeginFrame'
p221
sg58
g1
(g59
g3
NtRp222
(dp223
g10
(lp224
g1
(g63
g3
NtRp225
(dp226
g55
Nsg56
S'args'
p227
sg15
Nsg19
g20
sg67
S'BeginFrameArgs'
p228
sg16
I100
sbasg16
I100
sg19
g20
sbsg15
Nsg19
Nsg16
Nsg69
Nsbag1
(g52
g3
NtRp229
(dp230
g55
Nsg56
S'OnBeginFramePausedChanged'
p231
sg58
g1
(g59
g3
NtRp232
(dp233
g10
(lp234
g1
(g63
g3
NtRp235
(dp236
g55
Nsg56
S'paused'
p237
sg15
Nsg19
g20
sg67
S'bool'
p238
sg16
I103
sbasg16
I103
sg19
g20
sbsg15
Nsg19
Nsg16
Nsg69
Nsbag1
(g52
g3
NtRp239
(dp240
g55
Nsg56
S'ReclaimResources'
p241
sg58
g1
(g59
g3
NtRp242
(dp243
g10
(lp244
g1
(g63
g3
NtRp245
(dp246
g55
Nsg56
S'resources'
p247
sg15
Nsg19
g20
sg67
S'ReturnedResource[]'
p248
sg16
I106
sbasg16
I106
sg19
g20
sbsg15
Nsg19
Nsg16
Nsg69
Nsbasg16
Nsg19
Nsbsg15
Nsg16
Nsg56
S'CompositorFrameSinkClient'
p249
sg19
Nsbasg16
NsS'module'
p250
g1
(cmojom.parse.ast
Module
p251
g3
NtRp252
(dp253
S'mojom_namespace'
p254
(S'IDENTIFIER'
p255
S'viz.mojom'
tp256
sg16
I5
sg15
Nsg19
g20
sbsg19
Nsb.