ccopy_reg
_reconstructor
p1
(cmojom.parse.ast
Mojom
p2
c__builtin__
object
p3
NtRp4
(dp5
S'import_list'
p6
g1
(cmojom.parse.ast
ImportList
p7
g3
NtRp8
(dp9
S'items'
p10
(lp11
g1
(cmojom.parse.ast
Import
p12
g3
NtRp13
(dp14
S'attribute_list'
p15
NsS'lineno'
p16
I7
sS'import_filename'
p17
S'services/viz/public/interfaces/compositing/surface_id.mojom'
p18
sS'filename'
p19
S'../../services/viz/public/interfaces/compositing/quads.mojom'
p20
sbag1
(g12
g3
NtRp21
(dp22
g15
Nsg16
I8
sg17
S'services/viz/public/interfaces/compositing/shared_quad_state.mojom'
p23
sg19
g20
sbag1
(g12
g3
NtRp24
(dp25
g15
Nsg16
I9
sg17
S'ui/gfx/geometry/mojo/geometry.mojom'
p26
sg19
g20
sbag1
(g12
g3
NtRp27
(dp28
g15
Nsg16
I10
sg17
S'ui/gfx/mojo/color_space.mojom'
p29
sg19
g20
sbag1
(g12
g3
NtRp30
(dp31
g15
Nsg16
I11
sg17
S'ui/gfx/mojo/transform.mojom'
p32
sg19
g20
sbasg16
I7
sg19
g20
sbsS'definition_list'
p33
(lp34
g1
(cmojom.parse.ast
Struct
p35
g3
NtRp36
(dp37
S'body'
p38
g1
(cmojom.parse.ast
StructBody
p39
g3
NtRp40
(dp41
g10
(lp42
g1
(cmojom.parse.ast
StructField
p43
g3
NtRp44
(dp45
S'ordinal'
p46
NsS'default_value'
p47
NsS'mojom_name'
p48
S'color'
p49
sg15
Nsg19
NsS'typename'
p50
S'uint32'
p51
sg16
Nsbag1
(g43
g3
NtRp52
(dp53
g46
Nsg47
Nsg48
S'width'
p54
sg15
Nsg19
Nsg50
S'int32'
p55
sg16
Nsbasg16
Nsg19
Nsbsg15
Nsg16
Nsg48
S'DebugBorderQuadState'
p56
sg19
Nsbag1
(g35
g3
NtRp57
(dp58
g38
g1
(g39
g3
NtRp59
(dp60
g10
(lp61
g1
(g43
g3
NtRp62
(dp63
g46
Nsg47
Nsg48
S'render_pass_id'
p64
sg15
Nsg19
Nsg50
S'uint64'
p65
sg16
Nsbag1
(g43
g3
NtRp66
(dp67
g46
Nsg47
Nsg48
S'mask_resource_id'
p68
sg15
Nsg19
Nsg50
S'uint32'
p69
sg16
Nsbag1
(g43
g3
NtRp70
(dp71
g46
Nsg47
Nsg48
S'mask_uv_rect'
p72
sg15
Nsg19
Nsg50
S'gfx.mojom.RectF'
p73
sg16
Nsbag1
(g43
g3
NtRp74
(dp75
g46
Nsg47
Nsg48
S'mask_texture_size'
p76
sg15
Nsg19
Nsg50
S'gfx.mojom.Size'
p77
sg16
Nsbag1
(g43
g3
NtRp78
(dp79
g46
Nsg47
Nsg48
S'filters_scale'
p80
sg15
Nsg19
Nsg50
S'gfx.mojom.Vector2dF'
p81
sg16
Nsbag1
(g43
g3
NtRp82
(dp83
g46
Nsg47
Nsg48
S'filters_origin'
p84
sg15
Nsg19
Nsg50
S'gfx.mojom.PointF'
p85
sg16
Nsbag1
(g43
g3
NtRp86
(dp87
g46
Nsg47
Nsg48
S'tex_coord_rect'
p88
sg15
Nsg19
Nsg50
S'gfx.mojom.RectF'
p89
sg16
Nsbag1
(g43
g3
NtRp90
(dp91
g46
Nsg47
Nsg48
S'force_anti_aliasing_off'
p92
sg15
Nsg19
Nsg50
S'bool'
p93
sg16
Nsbasg16
Nsg19
Nsbsg15
Nsg16
Nsg48
S'RenderPassQuadState'
p94
sg19
Nsbag1
(g35
g3
NtRp95
(dp96
g38
g1
(g39
g3
NtRp97
(dp98
g10
(lp99
g1
(g43
g3
NtRp100
(dp101
g46
Nsg47
Nsg48
S'color'
p102
sg15
Nsg19
Nsg50
S'uint32'
p103
sg16
Nsbag1
(g43
g3
NtRp104
(dp105
g46
Nsg47
Nsg48
S'force_anti_aliasing_off'
p106
sg15
Nsg19
Nsg50
S'bool'
p107
sg16
Nsbasg16
Nsg19
Nsbsg15
Nsg16
Nsg48
S'SolidColorQuadState'
p108
sg19
Nsbag1
(g35
g3
NtRp109
(dp110
g38
g1
(g39
g3
NtRp111
(dp112
g10
(lp113
g1
(g43
g3
NtRp114
(dp115
g46
Nsg47
Nsg48
S'resource_id'
p116
sg15
Nsg19
Nsg50
S'uint32'
p117
sg16
Nsbag1
(g43
g3
NtRp118
(dp119
g46
Nsg47
Nsg48
S'resource_size_in_pixels'
p120
sg15
Nsg19
Nsg50
S'gfx.mojom.Size'
p121
sg16
Nsbag1
(g43
g3
NtRp122
(dp123
g46
Nsg47
Nsg48
S'matrix'
p124
sg15
Nsg19
Nsg50
S'gfx.mojom.Transform'
p125
sg16
Nsbasg16
Nsg19
Nsbsg15
Nsg16
Nsg48
S'StreamVideoQuadState'
p126
sg19
Nsbag1
(g35
g3
NtRp127
(dp128
g38
g1
(g39
g3
NtRp129
(dp130
g10
(lp131
g1
(g43
g3
NtRp132
(dp133
g46
Nsg47
Nsg48
S'primary_surface_id'
p134
sg15
Nsg19
Nsg50
S'SurfaceId'
p135
sg16
Nsbag1
(g43
g3
NtRp136
(dp137
g46
Nsg47
Nsg48
S'fallback_surface_id'
p138
sg15
Nsg19
Nsg50
S'SurfaceId?'
p139
sg16
Nsbag1
(g43
g3
NtRp140
(dp141
g46
Nsg47
Nsg48
S'default_background_color'
p142
sg15
Nsg19
Nsg50
S'uint32'
p143
sg16
Nsbag1
(g43
g3
NtRp144
(dp145
g46
Nsg47
Nsg48
S'stretch_content_to_fill_bounds'
p146
sg15
Nsg19
Nsg50
S'bool'
p147
sg16
Nsbasg16
Nsg19
Nsbsg15
Nsg16
Nsg48
S'SurfaceQuadState'
p148
sg19
Nsbag1
(g35
g3
NtRp149
(dp150
g38
g1
(g39
g3
NtRp151
(dp152
g10
(lp153
g1
(g43
g3
NtRp154
(dp155
g46
Nsg47
Nsg48
S'resource_id'
p156
sg15
Nsg19
Nsg50
S'uint32'
p157
sg16
Nsbag1
(g43
g3
NtRp158
(dp159
g46
Nsg47
Nsg48
S'resource_size_in_pixels'
p160
sg15
Nsg19
Nsg50
S'gfx.mojom.Size'
p161
sg16
Nsbag1
(g43
g3
NtRp162
(dp163
g46
Nsg47
Nsg48
S'premultiplied_alpha'
p164
sg15
Nsg19
Nsg50
S'bool'
p165
sg16
Nsbag1
(g43
g3
NtRp166
(dp167
g46
Nsg47
Nsg48
S'uv_top_left'
p168
sg15
Nsg19
Nsg50
S'gfx.mojom.PointF'
p169
sg16
Nsbag1
(g43
g3
NtRp170
(dp171
g46
Nsg47
Nsg48
S'uv_bottom_right'
p172
sg15
Nsg19
Nsg50
S'gfx.mojom.PointF'
p173
sg16
Nsbag1
(g43
g3
NtRp174
(dp175
g46
Nsg47
Nsg48
S'background_color'
p176
sg15
Nsg19
Nsg50
S'uint32'
p177
sg16
Nsbag1
(g43
g3
NtRp178
(dp179
g46
Nsg47
Nsg48
S'vertex_opacity'
p180
sg15
Nsg19
Nsg50
S'float[4]'
p181
sg16
Nsbag1
(g43
g3
NtRp182
(dp183
g46
Nsg47
Nsg48
S'y_flipped'
p184
sg15
Nsg19
Nsg50
S'bool'
p185
sg16
Nsbag1
(g43
g3
NtRp186
(dp187
g46
Nsg47
Nsg48
S'nearest_neighbor'
p188
sg15
Nsg19
Nsg50
S'bool'
p189
sg16
Nsbag1
(g43
g3
NtRp190
(dp191
g46
Nsg47
Nsg48
S'secure_output_only'
p192
sg15
Nsg19
Nsg50
S'bool'
p193
sg16
Nsbasg16
Nsg19
Nsbsg15
Nsg16
Nsg48
S'TextureQuadState'
p194
sg19
Nsbag1
(g35
g3
NtRp195
(dp196
g38
g1
(g39
g3
NtRp197
(dp198
g10
(lp199
g1
(g43
g3
NtRp200
(dp201
g46
Nsg47
Nsg48
S'tex_coord_rect'
p202
sg15
Nsg19
Nsg50
S'gfx.mojom.RectF'
p203
sg16
Nsbag1
(g43
g3
NtRp204
(dp205
g46
Nsg47
Nsg48
S'texture_size'
p206
sg15
Nsg19
Nsg50
S'gfx.mojom.Size'
p207
sg16
Nsbag1
(g43
g3
NtRp208
(dp209
g46
Nsg47
Nsg48
S'swizzle_contents'
p210
sg15
Nsg19
Nsg50
S'bool'
p211
sg16
Nsbag1
(g43
g3
NtRp212
(dp213
g46
Nsg47
Nsg48
S'is_premultiplied'
p214
sg15
Nsg19
Nsg50
S'bool'
p215
sg16
Nsbag1
(g43
g3
NtRp216
(dp217
g46
Nsg47
Nsg48
S'resource_id'
p218
sg15
Nsg19
Nsg50
S'uint32'
p219
sg16
Nsbag1
(g43
g3
NtRp220
(dp221
g46
Nsg47
Nsg48
S'nearest_neighbor'
p222
sg15
Nsg19
Nsg50
S'bool'
p223
sg16
Nsbag1
(g43
g3
NtRp224
(dp225
g46
Nsg47
Nsg48
S'force_anti_aliasing_off'
p226
sg15
Nsg19
Nsg50
S'bool'
p227
sg16
Nsbasg16
Nsg19
Nsbsg15
Nsg16
Nsg48
S'TileQuadState'
p228
sg19
Nsbag1
(g35
g3
NtRp229
(dp230
g38
g1
(g39
g3
NtRp231
(dp232
g10
(lp233
g1
(g43
g3
NtRp234
(dp235
g46
Nsg47
Nsg48
S'ya_tex_coord_rect'
p236
sg15
Nsg19
Nsg50
S'gfx.mojom.RectF'
p237
sg16
Nsbag1
(g43
g3
NtRp238
(dp239
g46
Nsg47
Nsg48
S'uv_tex_coord_rect'
p240
sg15
Nsg19
Nsg50
S'gfx.mojom.RectF'
p241
sg16
Nsbag1
(g43
g3
NtRp242
(dp243
g46
Nsg47
Nsg48
S'ya_tex_size'
p244
sg15
Nsg19
Nsg50
S'gfx.mojom.Size'
p245
sg16
Nsbag1
(g43
g3
NtRp246
(dp247
g46
Nsg47
Nsg48
S'uv_tex_size'
p248
sg15
Nsg19
Nsg50
S'gfx.mojom.Size'
p249
sg16
Nsbag1
(g43
g3
NtRp250
(dp251
g46
Nsg47
Nsg48
S'y_plane_resource_id'
p252
sg15
Nsg19
Nsg50
S'uint32'
p253
sg16
Nsbag1
(g43
g3
NtRp254
(dp255
g46
Nsg47
Nsg48
S'u_plane_resource_id'
p256
sg15
Nsg19
Nsg50
S'uint32'
p257
sg16
Nsbag1
(g43
g3
NtRp258
(dp259
g46
Nsg47
Nsg48
S'v_plane_resource_id'
p260
sg15
Nsg19
Nsg50
S'uint32'
p261
sg16
Nsbag1
(g43
g3
NtRp262
(dp263
g46
Nsg47
Nsg48
S'a_plane_resource_id'
p264
sg15
Nsg19
Nsg50
S'uint32'
p265
sg16
Nsbag1
(g43
g3
NtRp266
(dp267
g46
Nsg47
Nsg48
S'resource_offset'
p268
sg15
Nsg19
Nsg50
S'float'
p269
sg16
Nsbag1
(g43
g3
NtRp270
(dp271
g46
Nsg47
Nsg48
S'resource_multiplier'
p272
sg15
Nsg19
Nsg50
S'float'
p273
sg16
Nsbag1
(g43
g3
NtRp274
(dp275
g46
Nsg47
Nsg48
S'bits_per_channel'
p276
sg15
Nsg19
Nsg50
S'uint32'
p277
sg16
Nsbag1
(g43
g3
NtRp278
(dp279
g46
Nsg47
Nsg48
S'video_color_space'
p280
sg15
Nsg19
Nsg50
S'gfx.mojom.ColorSpace'
p281
sg16
Nsbag1
(g43
g3
NtRp282
(dp283
g46
Nsg47
Nsg48
S'require_overlay'
p284
sg15
Nsg19
Nsg50
S'bool'
p285
sg16
Nsbag1
(g43
g3
NtRp286
(dp287
g46
Nsg47
Nsg48
S'is_protected_video'
p288
sg15
Nsg19
Nsg50
S'bool'
p289
sg16
Nsbasg16
Nsg19
Nsbsg15
Nsg16
Nsg48
S'YUVVideoQuadState'
p290
sg19
Nsbag1
(cmojom.parse.ast
Union
p291
g3
NtRp292
(dp293
g38
g1
(cmojom.parse.ast
UnionBody
p294
g3
NtRp295
(dp296
g10
(lp297
g1
(cmojom.parse.ast
UnionField
p298
g3
NtRp299
(dp300
g46
Nsg48
S'debug_border_quad_state'
p301
sg15
Nsg19
Nsg50
S'DebugBorderQuadState'
p302
sg16
Nsbag1
(g298
g3
NtRp303
(dp304
g46
Nsg48
S'render_pass_quad_state'
p305
sg15
Nsg19
Nsg50
S'RenderPassQuadState'
p306
sg16
Nsbag1
(g298
g3
NtRp307
(dp308
g46
Nsg48
S'solid_color_quad_state'
p309
sg15
Nsg19
Nsg50
S'SolidColorQuadState'
p310
sg16
Nsbag1
(g298
g3
NtRp311
(dp312
g46
Nsg48
S'stream_video_quad_state'
p313
sg15
Nsg19
Nsg50
S'StreamVideoQuadState'
p314
sg16
Nsbag1
(g298
g3
NtRp315
(dp316
g46
Nsg48
S'surface_quad_state'
p317
sg15
Nsg19
Nsg50
S'SurfaceQuadState'
p318
sg16
Nsbag1
(g298
g3
NtRp319
(dp320
g46
Nsg48
S'texture_quad_state'
p321
sg15
Nsg19
Nsg50
S'TextureQuadState'
p322
sg16
Nsbag1
(g298
g3
NtRp323
(dp324
g46
Nsg48
S'tile_quad_state'
p325
sg15
Nsg19
Nsg50
S'TileQuadState'
p326
sg16
Nsbag1
(g298
g3
NtRp327
(dp328
g46
Nsg48
S'yuv_video_quad_state'
p329
sg15
Nsg19
Nsg50
S'YUVVideoQuadState'
p330
sg16
Nsbasg16
Nsg19
Nsbsg15
Nsg16
Nsg48
S'DrawQuadState'
p331
sg19
Nsbag1
(g35
g3
NtRp332
(dp333
g38
g1
(g39
g3
NtRp334
(dp335
g10
(lp336
g1
(g43
g3
NtRp337
(dp338
g46
Nsg47
Nsg48
S'rect'
p339
sg15
Nsg19
Nsg50
S'gfx.mojom.Rect'
p340
sg16
Nsbag1
(g43
g3
NtRp341
(dp342
g46
Nsg47
Nsg48
S'visible_rect'
p343
sg15
Nsg19
Nsg50
S'gfx.mojom.Rect'
p344
sg16
Nsbag1
(g43
g3
NtRp345
(dp346
g46
Nsg47
Nsg48
S'needs_blending'
p347
sg15
Nsg19
Nsg50
S'bool'
p348
sg16
Nsbag1
(g43
g3
NtRp349
(dp350
g46
Nsg47
Nsg48
S'sqs'
p351
sg15
Nsg19
Nsg50
S'SharedQuadState?'
p352
sg16
Nsbag1
(g43
g3
NtRp353
(dp354
g46
Nsg47
Nsg48
S'draw_quad_state'
p355
sg15
Nsg19
Nsg50
S'DrawQuadState'
p356
sg16
Nsbasg16
Nsg19
Nsbsg15
Nsg16
Nsg48
S'DrawQuad'
p357
sg19
Nsbasg16
NsS'module'
p358
g1
(cmojom.parse.ast
Module
p359
g3
NtRp360
(dp361
S'mojom_namespace'
p362
(S'IDENTIFIER'
p363
S'viz.mojom'
tp364
sg16
I5
sg15
Nsg19
g20
sbsg19
Nsb.