ccopy_reg
_reconstructor
p1
(cmojom.parse.ast
Mojom
p2
c__builtin__
object
p3
NtRp4
(dp5
S'import_list'
p6
g1
(cmojom.parse.ast
ImportList
p7
g3
NtRp8
(dp9
S'items'
p10
(lp11
g1
(cmojom.parse.ast
Import
p12
g3
NtRp13
(dp14
S'attribute_list'
p15
NsS'lineno'
p16
I7
sS'import_filename'
p17
S'services/viz/public/interfaces/compositing/copy_output_request.mojom'
p18
sS'filename'
p19
S'../../services/viz/public/interfaces/compositing/render_pass.mojom'
p20
sbag1
(g12
g3
NtRp21
(dp22
g15
Nsg16
I8
sg17
S'services/viz/public/interfaces/compositing/filter_operations.mojom'
p23
sg19
g20
sbag1
(g12
g3
NtRp24
(dp25
g15
Nsg16
I9
sg17
S'services/viz/public/interfaces/compositing/quads.mojom'
p26
sg19
g20
sbag1
(g12
g3
NtRp27
(dp28
g15
Nsg16
I10
sg17
S'ui/gfx/geometry/mojo/geometry.mojom'
p29
sg19
g20
sbag1
(g12
g3
NtRp30
(dp31
g15
Nsg16
I11
sg17
S'ui/gfx/mojo/color_space.mojom'
p32
sg19
g20
sbag1
(g12
g3
NtRp33
(dp34
g15
Nsg16
I12
sg17
S'ui/gfx/mojo/transform.mojom'
p35
sg19
g20
sbasg16
I7
sg19
g20
sbsS'definition_list'
p36
(lp37
g1
(cmojom.parse.ast
Struct
p38
g3
NtRp39
(dp40
S'body'
p41
g1
(cmojom.parse.ast
StructBody
p42
g3
NtRp43
(dp44
g10
(lp45
g1
(cmojom.parse.ast
StructField
p46
g3
NtRp47
(dp48
S'ordinal'
p49
NsS'default_value'
p50
NsS'mojom_name'
p51
S'id'
p52
sg15
Nsg19
NsS'typename'
p53
S'uint64'
p54
sg16
Nsbag1
(g46
g3
NtRp55
(dp56
g49
Nsg50
Nsg51
S'output_rect'
p57
sg15
Nsg19
Nsg53
S'gfx.mojom.Rect'
p58
sg16
Nsbag1
(g46
g3
NtRp59
(dp60
g49
Nsg50
Nsg51
S'damage_rect'
p61
sg15
Nsg19
Nsg53
S'gfx.mojom.Rect'
p62
sg16
Nsbag1
(g46
g3
NtRp63
(dp64
g49
Nsg50
Nsg51
S'transform_to_root_target'
p65
sg15
Nsg19
Nsg53
S'gfx.mojom.Transform'
p66
sg16
Nsbag1
(g46
g3
NtRp67
(dp68
g49
Nsg50
Nsg51
S'filters'
p69
sg15
Nsg19
Nsg53
S'FilterOperations'
p70
sg16
Nsbag1
(g46
g3
NtRp71
(dp72
g49
Nsg50
Nsg51
S'background_filters'
p73
sg15
Nsg19
Nsg53
S'FilterOperations'
p74
sg16
Nsbag1
(g46
g3
NtRp75
(dp76
g49
Nsg50
Nsg51
S'color_space'
p77
sg15
Nsg19
Nsg53
S'gfx.mojom.ColorSpace'
p78
sg16
Nsbag1
(g46
g3
NtRp79
(dp80
g49
Nsg50
Nsg51
S'has_transparent_background'
p81
sg15
Nsg19
Nsg53
S'bool'
p82
sg16
Nsbag1
(g46
g3
NtRp83
(dp84
g49
Nsg50
S'false'
p85
sg51
S'cache_render_pass'
p86
sg15
Nsg19
Nsg53
S'bool'
p87
sg16
Nsbag1
(g46
g3
NtRp88
(dp89
g49
Nsg50
S'false'
p90
sg51
S'has_damage_from_contributing_content'
p91
sg15
Nsg19
Nsg53
S'bool'
p92
sg16
Nsbag1
(g46
g3
NtRp93
(dp94
g49
Nsg50
S'false'
p95
sg51
S'generate_mipmap'
p96
sg15
Nsg19
Nsg53
S'bool'
p97
sg16
Nsbag1
(g46
g3
NtRp98
(dp99
g49
Nsg50
Nsg51
S'copy_requests'
p100
sg15
Nsg19
Nsg53
S'CopyOutputRequest[]'
p101
sg16
Nsbag1
(g46
g3
NtRp102
(dp103
g49
Nsg50
Nsg51
S'quad_list'
p104
sg15
Nsg19
Nsg53
S'DrawQuad[]'
p105
sg16
Nsbasg16
Nsg19
Nsbsg15
Nsg16
Nsg51
S'RenderPass'
p106
sg19
Nsbasg16
NsS'module'
p107
g1
(cmojom.parse.ast
Module
p108
g3
NtRp109
(dp110
S'mojom_namespace'
p111
(S'IDENTIFIER'
p112
S'viz.mojom'
tp113
sg16
I5
sg15
Nsg19
g20
sbsg19
Nsb.