ccopy_reg
_reconstructor
p1
(cmojom.parse.ast
Mojom
p2
c__builtin__
object
p3
NtRp4
(dp5
S'import_list'
p6
g1
(cmojom.parse.ast
ImportList
p7
g3
NtRp8
(dp9
S'items'
p10
(lp11
g1
(cmojom.parse.ast
Import
p12
g3
NtRp13
(dp14
S'attribute_list'
p15
NsS'lineno'
p16
I7
sS'import_filename'
p17
S'ui/gfx/geometry/mojo/geometry.mojom'
p18
sS'filename'
p19
S'../../services/viz/public/interfaces/compositing/shared_quad_state.mojom'
p20
sbag1
(g12
g3
NtRp21
(dp22
g15
Nsg16
I8
sg17
S'ui/gfx/mojo/transform.mojom'
p23
sg19
g20
sbasg16
I7
sg19
g20
sbsS'definition_list'
p24
(lp25
g1
(cmojom.parse.ast
Struct
p26
g3
NtRp27
(dp28
S'body'
p29
g1
(cmojom.parse.ast
StructBody
p30
g3
NtRp31
(dp32
g10
(lp33
g1
(cmojom.parse.ast
StructField
p34
g3
NtRp35
(dp36
S'ordinal'
p37
NsS'default_value'
p38
NsS'mojom_name'
p39
S'quad_to_target_transform'
p40
sg15
Nsg19
NsS'typename'
p41
S'gfx.mojom.Transform'
p42
sg16
Nsbag1
(g34
g3
NtRp43
(dp44
g37
Nsg38
Nsg39
S'quad_layer_rect'
p45
sg15
Nsg19
Nsg41
S'gfx.mojom.Rect'
p46
sg16
Nsbag1
(g34
g3
NtRp47
(dp48
g37
Nsg38
Nsg39
S'visible_quad_layer_rect'
p49
sg15
Nsg19
Nsg41
S'gfx.mojom.Rect'
p50
sg16
Nsbag1
(g34
g3
NtRp51
(dp52
g37
Nsg38
Nsg39
S'clip_rect'
p53
sg15
Nsg19
Nsg41
S'gfx.mojom.Rect'
p54
sg16
Nsbag1
(g34
g3
NtRp55
(dp56
g37
Nsg38
Nsg39
S'is_clipped'
p57
sg15
Nsg19
Nsg41
S'bool'
p58
sg16
Nsbag1
(g34
g3
NtRp59
(dp60
g37
Nsg38
Nsg39
S'are_contents_opaque'
p61
sg15
Nsg19
Nsg41
S'bool'
p62
sg16
Nsbag1
(g34
g3
NtRp63
(dp64
g37
Nsg38
Nsg39
S'opacity'
p65
sg15
Nsg19
Nsg41
S'float'
p66
sg16
Nsbag1
(g34
g3
NtRp67
(dp68
g37
Nsg38
Nsg39
S'blend_mode'
p69
sg15
Nsg19
Nsg41
S'uint32'
p70
sg16
Nsbag1
(g34
g3
NtRp71
(dp72
g37
Nsg38
Nsg39
S'sorting_context_id'
p73
sg15
Nsg19
Nsg41
S'int32'
p74
sg16
Nsbasg16
Nsg19
Nsbsg15
Nsg16
Nsg39
S'SharedQuadState'
p75
sg19
Nsbasg16
NsS'module'
p76
g1
(cmojom.parse.ast
Module
p77
g3
NtRp78
(dp79
S'mojom_namespace'
p80
(S'IDENTIFIER'
p81
S'viz.mojom'
tp82
sg16
I5
sg15
Nsg19
g20
sbsg19
Nsb.