ccopy_reg
_reconstructor
p1
(cmojom.parse.ast
Mojom
p2
c__builtin__
object
p3
NtRp4
(dp5
S'import_list'
p6
g1
(cmojom.parse.ast
ImportList
p7
g3
NtRp8
(dp9
S'items'
p10
(lp11
g1
(cmojom.parse.ast
Import
p12
g3
NtRp13
(dp14
S'attribute_list'
p15
NsS'lineno'
p16
I7
sS'import_filename'
p17
S'gpu/ipc/common/mailbox_holder.mojom'
p18
sS'filename'
p19
S'../../services/viz/public/interfaces/compositing/transferable_resource.mojom'
p20
sbag1
(g12
g3
NtRp21
(dp22
g15
Nsg16
I8
sg17
S'ui/gfx/geometry/mojo/geometry.mojom'
p23
sg19
g20
sbag1
(g12
g3
NtRp24
(dp25
g15
Nsg16
I9
sg17
S'ui/gfx/mojo/color_space.mojom'
p26
sg19
g20
sbag1
(g12
g3
NtRp27
(dp28
g15
Nsg16
I10
sg17
S'ui/gfx/mojo/buffer_types.mojom'
p29
sg19
g20
sbasg16
I7
sg19
g20
sbsS'definition_list'
p30
(lp31
g1
(cmojom.parse.ast
Enum
p32
g3
NtRp33
(dp34
g15
NsS'enum_value_list'
p35
g1
(cmojom.parse.ast
EnumValueList
p36
g3
NtRp37
(dp38
g10
(lp39
g1
(cmojom.parse.ast
EnumValue
p40
g3
NtRp41
(dp42
g15
NsS'value'
p43
Nsg16
I14
sS'mojom_name'
p44
S'RGBA_8888'
p45
sg19
g20
sbag1
(g40
g3
NtRp46
(dp47
g15
Nsg43
Nsg16
I15
sg44
S'RGBA_4444'
p48
sg19
g20
sbag1
(g40
g3
NtRp49
(dp50
g15
Nsg43
Nsg16
I16
sg44
S'BGRA_8888'
p51
sg19
g20
sbag1
(g40
g3
NtRp52
(dp53
g15
Nsg43
Nsg16
I17
sg44
S'ALPHA_8'
p54
sg19
g20
sbag1
(g40
g3
NtRp55
(dp56
g15
Nsg43
Nsg16
I18
sg44
S'LUMINANCE_8'
p57
sg19
g20
sbag1
(g40
g3
NtRp58
(dp59
g15
Nsg43
Nsg16
I19
sg44
S'RGB_565'
p60
sg19
g20
sbag1
(g40
g3
NtRp61
(dp62
g15
Nsg43
Nsg16
I20
sg44
S'ETC1'
p63
sg19
g20
sbag1
(g40
g3
NtRp64
(dp65
g15
Nsg43
Nsg16
I21
sg44
S'RED_8'
p66
sg19
g20
sbag1
(g40
g3
NtRp67
(dp68
g15
Nsg43
Nsg16
I22
sg44
S'LUMINANCE_F16'
p69
sg19
g20
sbag1
(g40
g3
NtRp70
(dp71
g15
Nsg43
Nsg16
I23
sg44
S'RGBA_F16'
p72
sg19
g20
sbag1
(g40
g3
NtRp73
(dp74
g15
Nsg43
Nsg16
I24
sg44
S'R16_EXT'
p75
sg19
g20
sbasg16
I14
sg19
g20
sbsg16
I13
sg44
S'ResourceFormat'
p76
sg19
g20
sbag1
(cmojom.parse.ast
Struct
p77
g3
NtRp78
(dp79
S'body'
p80
g1
(cmojom.parse.ast
StructBody
p81
g3
NtRp82
(dp83
g10
(lp84
g1
(cmojom.parse.ast
StructField
p85
g3
NtRp86
(dp87
S'ordinal'
p88
NsS'default_value'
p89
Nsg44
S'id'
p90
sg15
Nsg19
NsS'typename'
p91
S'uint32'
p92
sg16
Nsbag1
(g85
g3
NtRp93
(dp94
g88
Nsg89
Nsg44
S'format'
p95
sg15
Nsg19
Nsg91
S'ResourceFormat'
p96
sg16
Nsbag1
(g85
g3
NtRp97
(dp98
g88
Nsg89
Nsg44
S'buffer_format'
p99
sg15
Nsg19
Nsg91
S'gfx.mojom.BufferFormat'
p100
sg16
Nsbag1
(g85
g3
NtRp101
(dp102
g88
Nsg89
Nsg44
S'filter'
p103
sg15
Nsg19
Nsg91
S'uint32'
p104
sg16
Nsbag1
(g85
g3
NtRp105
(dp106
g88
Nsg89
Nsg44
S'size'
p107
sg15
Nsg19
Nsg91
S'gfx.mojom.Size'
p108
sg16
Nsbag1
(g85
g3
NtRp109
(dp110
g88
Nsg89
Nsg44
S'mailbox_holder'
p111
sg15
Nsg19
Nsg91
S'gpu.mojom.MailboxHolder'
p112
sg16
Nsbag1
(g85
g3
NtRp113
(dp114
g88
Nsg89
Nsg44
S'read_lock_fences_enabled'
p115
sg15
Nsg19
Nsg91
S'bool'
p116
sg16
Nsbag1
(g85
g3
NtRp117
(dp118
g88
Nsg89
Nsg44
S'is_software'
p119
sg15
Nsg19
Nsg91
S'bool'
p120
sg16
Nsbag1
(g85
g3
NtRp121
(dp122
g88
Nsg89
Nsg44
S'is_overlay_candidate'
p123
sg15
Nsg19
Nsg91
S'bool'
p124
sg16
Nsbag1
(g85
g3
NtRp125
(dp126
g88
Nsg89
Nsg44
S'is_backed_by_surface_texture'
p127
sg15
Nsg19
Nsg91
S'bool'
p128
sg16
Nsbag1
(g85
g3
NtRp129
(dp130
g88
Nsg89
Nsg44
S'wants_promotion_hint'
p131
sg15
Nsg19
Nsg91
S'bool'
p132
sg16
Nsbag1
(g85
g3
NtRp133
(dp134
g88
Nsg89
Nsg44
S'color_space'
p135
sg15
Nsg19
Nsg91
S'gfx.mojom.ColorSpace'
p136
sg16
Nsbasg16
Nsg19
Nsbsg15
Nsg16
Nsg44
S'TransferableResource'
p137
sg19
Nsbasg16
NsS'module'
p138
g1
(cmojom.parse.ast
Module
p139
g3
NtRp140
(dp141
S'mojom_namespace'
p142
(S'IDENTIFIER'
p143
S'viz.mojom'
tp144
sg16
I5
sg15
Nsg19
g20
sbsg19
Nsb.