ccopy_reg
_reconstructor
p1
(cmojom.parse.ast
Mojom
p2
c__builtin__
object
p3
NtRp4
(dp5
S'import_list'
p6
g1
(cmojom.parse.ast
ImportList
p7
g3
NtRp8
(dp9
S'items'
p10
(lp11
g1
(cmojom.parse.ast
Import
p12
g3
NtRp13
(dp14
S'attribute_list'
p15
NsS'lineno'
p16
I7
sS'import_filename'
p17
S'content/public/common/transferrable_url_loader.mojom'
p18
sS'filename'
p19
S'../../extensions/common/mojo/guest_view.mojom'
p20
sbag1
(g12
g3
NtRp21
(dp22
g15
Nsg16
I8
sg17
S'ui/gfx/geometry/mojo/geometry.mojom'
p23
sg19
g20
sbag1
(g12
g3
NtRp24
(dp25
g15
Nsg16
I9
sg17
S'url/mojom/url.mojom'
p26
sg19
g20
sbasg16
I7
sg19
g20
sbsS'definition_list'
p27
(lp28
g1
(cmojom.parse.ast
Interface
p29
g3
NtRp30
(dp31
S'body'
p32
g1
(cmojom.parse.ast
InterfaceBody
p33
g3
NtRp34
(dp35
g10
(lp36
g1
(cmojom.parse.ast
Method
p37
g3
NtRp38
(dp39
S'ordinal'
p40
NsS'mojom_name'
p41
S'CreateEmbeddedMimeHandlerViewGuest'
p42
sS'parameter_list'
p43
g1
(cmojom.parse.ast
ParameterList
p44
g3
NtRp45
(dp46
g10
(lp47
g1
(cmojom.parse.ast
Parameter
p48
g3
NtRp49
(dp50
g40
Nsg41
S'render_frame_id'
p51
sg15
Nsg19
g20
sS'typename'
p52
S'int32'
p53
sg16
I16
sbag1
(g48
g3
NtRp54
(dp55
g40
Nsg41
S'tab_id'
p56
sg15
Nsg19
g20
sg52
S'int32'
p57
sg16
I17
sbag1
(g48
g3
NtRp58
(dp59
g40
Nsg41
S'original_url'
p60
sg15
Nsg19
g20
sg52
S'url.mojom.Url'
p61
sg16
I18
sbag1
(g48
g3
NtRp62
(dp63
g40
Nsg41
S'element_instance_id'
p64
sg15
Nsg19
g20
sg52
S'int32'
p65
sg16
I19
sbag1
(g48
g3
NtRp66
(dp67
g40
Nsg41
S'element_size'
p68
sg15
Nsg19
g20
sg52
S'gfx.mojom.Size'
p69
sg16
I20
sbag1
(g48
g3
NtRp70
(dp71
g40
Nsg41
S'transferrable_url_loader'
p72
sg15
Nsg19
g20
sg52
S'content.mojom.TransferrableURLLoader'
p73
sg16
I21
sbasg16
I16
sg19
g20
sbsg15
Nsg19
Nsg16
NsS'response_parameter_list'
p74
Nsbasg16
Nsg19
Nsbsg15
Nsg16
Nsg41
S'GuestView'
p75
sg19
Nsbasg16
NsS'module'
p76
g1
(cmojom.parse.ast
Module
p77
g3
NtRp78
(dp79
S'mojom_namespace'
p80
(S'IDENTIFIER'
p81
S'extensions.mojom'
tp82
sg16
I5
sg15
Nsg19
g20
sbsg19
Nsb.