ccopy_reg
_reconstructor
p1
(cmojom.parse.ast
Mojom
p2
c__builtin__
object
p3
NtRp4
(dp5
S'import_list'
p6
g1
(cmojom.parse.ast
ImportList
p7
g3
NtRp8
(dp9
S'items'
p10
(lp11
g1
(cmojom.parse.ast
Import
p12
g3
NtRp13
(dp14
S'attribute_list'
p15
NsS'lineno'
p16
I7
sS'import_filename'
p17
S'mojo/public/mojom/base/file.mojom'
p18
sS'filename'
p19
S'../../components/services/patch/public/interfaces/file_patcher.mojom'
p20
sbasg16
I7
sg19
g20
sbsS'definition_list'
p21
(lp22
g1
(cmojom.parse.ast
Interface
p23
g3
NtRp24
(dp25
S'body'
p26
g1
(cmojom.parse.ast
InterfaceBody
p27
g3
NtRp28
(dp29
g10
(lp30
g1
(cmojom.parse.ast
Method
p31
g3
NtRp32
(dp33
S'ordinal'
p34
NsS'mojom_name'
p35
S'PatchFileBsdiff'
p36
sS'parameter_list'
p37
g1
(cmojom.parse.ast
ParameterList
p38
g3
NtRp39
(dp40
g10
(lp41
g1
(cmojom.parse.ast
Parameter
p42
g3
NtRp43
(dp44
g34
Nsg35
S'input_file'
p45
sg15
Nsg19
g20
sS'typename'
p46
S'mojo_base.mojom.File'
p47
sg16
I14
sbag1
(g42
g3
NtRp48
(dp49
g34
Nsg35
S'patch_file'
p50
sg15
Nsg19
g20
sg46
S'mojo_base.mojom.File'
p51
sg16
I15
sbag1
(g42
g3
NtRp52
(dp53
g34
Nsg35
S'output_file'
p54
sg15
Nsg19
g20
sg46
S'mojo_base.mojom.File'
p55
sg16
I16
sbasg16
I14
sg19
g20
sbsg15
Nsg19
Nsg16
NsS'response_parameter_list'
p56
g1
(g38
g3
NtRp57
(dp58
g10
(lp59
g1
(g42
g3
NtRp60
(dp61
g34
Nsg35
S'result'
p62
sg15
Nsg19
g20
sg46
S'int32'
p63
sg16
I16
sbasg16
I16
sg19
g20
sbsbag1
(g31
g3
NtRp64
(dp65
g34
Nsg35
S'PatchFileCourgette'
p66
sg37
g1
(g38
g3
NtRp67
(dp68
g10
(lp69
g1
(g42
g3
NtRp70
(dp71
g34
Nsg35
S'input_file'
p72
sg15
Nsg19
g20
sg46
S'mojo_base.mojom.File'
p73
sg16
I22
sbag1
(g42
g3
NtRp74
(dp75
g34
Nsg35
S'patch_file'
p76
sg15
Nsg19
g20
sg46
S'mojo_base.mojom.File'
p77
sg16
I23
sbag1
(g42
g3
NtRp78
(dp79
g34
Nsg35
S'output_file'
p80
sg15
Nsg19
g20
sg46
S'mojo_base.mojom.File'
p81
sg16
I24
sbasg16
I22
sg19
g20
sbsg15
Nsg19
Nsg16
Nsg56
g1
(g38
g3
NtRp82
(dp83
g10
(lp84
g1
(g42
g3
NtRp85
(dp86
g34
Nsg35
S'result'
p87
sg15
Nsg19
g20
sg46
S'int32'
p88
sg16
I24
sbasg16
I24
sg19
g20
sbsbasg16
Nsg19
Nsbsg15
Nsg16
Nsg35
S'FilePatcher'
p89
sg19
Nsbasg16
NsS'module'
p90
g1
(cmojom.parse.ast
Module
p91
g3
NtRp92
(dp93
S'mojom_namespace'
p94
(S'IDENTIFIER'
p95
S'patch.mojom'
tp96
sg16
I5
sg15
Nsg19
g20
sbsg19
Nsb.