ccopy_reg
_reconstructor
p1
(cmojom.parse.ast
Mojom
p2
c__builtin__
object
p3
NtRp4
(dp5
S'import_list'
p6
g1
(cmojom.parse.ast
ImportList
p7
g3
NtRp8
(dp9
S'items'
p10
(lp11
g1
(cmojom.parse.ast
Import
p12
g3
NtRp13
(dp14
S'attribute_list'
p15
NsS'lineno'
p16
I7
sS'import_filename'
p17
S'components/discardable_memory/public/interfaces/discardable_shared_memory_manager.mojom'
p18
sS'filename'
p19
S'../../services/viz/privileged/interfaces/viz_main.mojom'
p20
sbag1
(g12
g3
NtRp21
(dp22
g15
Nsg16
I8
sg17
S'services/viz/public/interfaces/compositing/compositing_mode_watcher.mojom'
p23
sg19
g20
sbag1
(g12
g3
NtRp24
(dp25
g15
Nsg16
I9
sg17
S'services/viz/privileged/interfaces/compositing/frame_sink_manager.mojom'
p26
sg19
g20
sbag1
(g12
g3
NtRp27
(dp28
g15
Nsg16
I10
sg17
S'services/viz/privileged/interfaces/gl/gpu_host.mojom'
p29
sg19
g20
sbag1
(g12
g3
NtRp30
(dp31
g15
Nsg16
I11
sg17
S'services/viz/privileged/interfaces/gl/gpu_service.mojom'
p32
sg19
g20
sbasg16
I7
sg19
g20
sbsS'definition_list'
p33
(lp34
g1
(cmojom.parse.ast
Struct
p35
g3
NtRp36
(dp37
S'body'
p38
g1
(cmojom.parse.ast
StructBody
p39
g3
NtRp40
(dp41
g10
(lp42
g1
(cmojom.parse.ast
StructField
p43
g3
NtRp44
(dp45
S'ordinal'
p46
NsS'default_value'
p47
NsS'mojom_name'
p48
S'restart_id'
p49
sg15
Nsg19
NsS'typename'
p50
S'uint32'
p51
sg16
Nsbag1
(g43
g3
NtRp52
(dp53
g46
Nsg47
S'true'
p54
sg48
S'use_activation_deadline'
p55
sg15
Nsg19
Nsg50
S'bool'
p56
sg16
Nsbag1
(g43
g3
NtRp57
(dp58
g46
Nsg47
S'4'
sg48
S'activation_deadline_in_frames'
p59
sg15
Nsg19
Nsg50
S'uint32'
p60
sg16
Nsbag1
(g43
g3
NtRp61
(dp62
g46
Nsg47
Nsg48
S'frame_sink_manager'
p63
sg15
Nsg19
Nsg50
S'FrameSinkManager&'
p64
sg16
Nsbag1
(g43
g3
NtRp65
(dp66
g46
Nsg47
Nsg48
S'frame_sink_manager_client'
p67
sg15
Nsg19
Nsg50
S'FrameSinkManagerClient'
p68
sg16
Nsbasg16
Nsg19
Nsbsg15
Nsg16
Nsg48
S'FrameSinkManagerParams'
p69
sg19
Nsbag1
(cmojom.parse.ast
Interface
p70
g3
NtRp71
(dp72
g38
g1
(cmojom.parse.ast
InterfaceBody
p73
g3
NtRp74
(dp75
g10
(lp76
g1
(cmojom.parse.ast
Method
p77
g3
NtRp78
(dp79
g46
Nsg48
S'CreateFrameSinkManager'
p80
sS'parameter_list'
p81
g1
(cmojom.parse.ast
ParameterList
p82
g3
NtRp83
(dp84
g10
(lp85
g1
(cmojom.parse.ast
Parameter
p86
g3
NtRp87
(dp88
g46
Nsg48
S'params'
p89
sg15
Nsg19
g20
sg50
S'FrameSinkManagerParams'
p90
sg16
I33
sbasg16
I33
sg19
g20
sbsg15
Nsg19
Nsg16
NsS'response_parameter_list'
p91
Nsbag1
(g77
g3
NtRp92
(dp93
g46
Nsg48
S'CreateGpuService'
p94
sg81
g1
(g82
g3
NtRp95
(dp96
g10
(lp97
g1
(g86
g3
NtRp98
(dp99
g46
Nsg48
S'gpu_service'
p100
sg15
Nsg19
g20
sg50
S'GpuService&'
p101
sg16
I35
sbag1
(g86
g3
NtRp102
(dp103
g46
Nsg48
S'gpu_host'
p104
sg15
Nsg19
g20
sg50
S'GpuHost'
p105
sg16
I36
sbag1
(g86
g3
NtRp106
(dp107
g46
Nsg48
S'discardable_memory_manager'
p108
sg15
Nsg19
g20
sg50
S'discardable_memory.mojom.DiscardableSharedMemoryManager'
p109
sg16
I37
sbag1
(g86
g3
NtRp110
(dp111
g46
Nsg48
S'activity_flags'
p112
sg15
Nsg19
g20
sg50
S'handle<shared_buffer>?'
p113
sg16
I38
sbasg16
I35
sg19
g20
sbsg15
Nsg19
Nsg16
Nsg91
Nsbasg16
Nsg19
Nsbsg15
Nsg16
Nsg48
S'VizMain'
p114
sg19
Nsbasg16
NsS'module'
p115
g1
(cmojom.parse.ast
Module
p116
g3
NtRp117
(dp118
S'mojom_namespace'
p119
(S'IDENTIFIER'
p120
S'viz.mojom'
tp121
sg16
I5
sg15
Nsg19
g20
sbsg19
Nsb.