ccopy_reg
_reconstructor
p1
(cmojom.parse.ast
Mojom
p2
c__builtin__
object
p3
NtRp4
(dp5
S'import_list'
p6
g1
(cmojom.parse.ast
ImportList
p7
g3
NtRp8
(dp9
S'items'
p10
(lp11
g1
(cmojom.parse.ast
Import
p12
g3
NtRp13
(dp14
S'attribute_list'
p15
NsS'lineno'
p16
I15
sS'import_filename'
p17
S'net/interfaces/address_family.mojom'
p18
sS'filename'
p19
S'../../net/interfaces/host_resolver_service.mojom'
p20
sbag1
(g12
g3
NtRp21
(dp22
g15
Nsg16
I16
sg17
S'net/interfaces/address_list.mojom'
p23
sg19
g20
sbasg16
I15
sg19
g20
sbsS'definition_list'
p24
(lp25
g1
(cmojom.parse.ast
Struct
p26
g3
NtRp27
(dp28
S'body'
p29
g1
(cmojom.parse.ast
StructBody
p30
g3
NtRp31
(dp32
g10
(lp33
g1
(cmojom.parse.ast
StructField
p34
g3
NtRp35
(dp36
S'ordinal'
p37
NsS'default_value'
p38
NsS'mojom_name'
p39
S'host'
p40
sg15
Nsg19
NsS'typename'
p41
S'string'
p42
sg16
Nsbag1
(g34
g3
NtRp43
(dp44
g37
Nsg38
Nsg39
S'port'
p45
sg15
Nsg19
Nsg41
S'uint16'
p46
sg16
Nsbag1
(g34
g3
NtRp47
(dp48
g37
Nsg38
Nsg39
S'address_family'
p49
sg15
Nsg19
Nsg41
S'AddressFamily'
p50
sg16
Nsbag1
(g34
g3
NtRp51
(dp52
g37
Nsg38
Nsg39
S'is_my_ip_address'
p53
sg15
Nsg19
Nsg41
S'bool'
p54
sg16
Nsbasg16
Nsg19
Nsbsg15
Nsg16
Nsg39
S'HostResolverRequestInfo'
p55
sg19
Nsbag1
(cmojom.parse.ast
Interface
p56
g3
NtRp57
(dp58
g29
g1
(cmojom.parse.ast
InterfaceBody
p59
g3
NtRp60
(dp61
g10
(lp62
g1
(cmojom.parse.ast
Method
p63
g3
NtRp64
(dp65
g37
Nsg39
S'ReportResult'
p66
sS'parameter_list'
p67
g1
(cmojom.parse.ast
ParameterList
p68
g3
NtRp69
(dp70
g10
(lp71
g1
(cmojom.parse.ast
Parameter
p72
g3
NtRp73
(dp74
g37
Nsg39
S'error'
p75
sg15
Nsg19
g20
sg41
S'int32'
p76
sg16
I28
sbag1
(g72
g3
NtRp77
(dp78
g37
Nsg39
S'result'
p79
sg15
Nsg19
g20
sg41
S'AddressList'
p80
sg16
I28
sbasg16
I28
sg19
g20
sbsg15
Nsg19
Nsg16
NsS'response_parameter_list'
p81
Nsbasg16
Nsg19
Nsbsg15
Nsg16
Nsg39
S'HostResolverRequestClient'
p82
sg19
Nsbasg16
NsS'module'
p83
g1
(cmojom.parse.ast
Module
p84
g3
NtRp85
(dp86
S'mojom_namespace'
p87
(S'IDENTIFIER'
p88
S'net.interfaces'
tp89
sg16
I13
sg15
Nsg19
g20
sbsg19
Nsb.