ccopy_reg
_reconstructor
p1
(cmojom.parse.ast
Mojom
p2
c__builtin__
object
p3
NtRp4
(dp5
S'import_list'
p6
g1
(cmojom.parse.ast
ImportList
p7
g3
NtRp8
(dp9
S'items'
p10
(lp11
g1
(cmojom.parse.ast
Import
p12
g3
NtRp13
(dp14
S'attribute_list'
p15
NsS'lineno'
p16
I7
sS'import_filename'
p17
S'components/services/filesystem/public/interfaces/directory.mojom'
p18
sS'filename'
p19
S'../../components/services/unzip/public/interfaces/unzipper.mojom'
p20
sbag1
(g12
g3
NtRp21
(dp22
g15
Nsg16
I8
sg17
S'mojo/public/mojom/base/file.mojom'
p23
sg19
g20
sbag1
(g12
g3
NtRp24
(dp25
g15
Nsg16
I9
sg17
S'mojo/public/mojom/base/file_path.mojom'
p26
sg19
g20
sbasg16
I7
sg19
g20
sbsS'definition_list'
p27
(lp28
g1
(cmojom.parse.ast
Interface
p29
g3
NtRp30
(dp31
S'body'
p32
g1
(cmojom.parse.ast
InterfaceBody
p33
g3
NtRp34
(dp35
g10
(lp36
g1
(cmojom.parse.ast
Method
p37
g3
NtRp38
(dp39
S'ordinal'
p40
NsS'mojom_name'
p41
S'ShouldUnzipFile'
p42
sS'parameter_list'
p43
g1
(cmojom.parse.ast
ParameterList
p44
g3
NtRp45
(dp46
g10
(lp47
g1
(cmojom.parse.ast
Parameter
p48
g3
NtRp49
(dp50
g40
Nsg41
S'path'
p51
sg15
Nsg19
g20
sS'typename'
p52
S'mojo_base.mojom.FilePath'
p53
sg16
I13
sbasg16
I13
sg19
g20
sbsg15
g1
(cmojom.parse.ast
AttributeList
p54
g3
NtRp55
(dp56
g10
(lp57
g1
(cmojom.parse.ast
Attribute
p58
g3
NtRp59
(dp60
S'value'
p61
I01
sg16
I12
sS'key'
p62
S'Sync'
p63
sg19
g20
sbasg16
I12
sg19
g20
sbsg19
Nsg16
NsS'response_parameter_list'
p64
g1
(g44
g3
NtRp65
(dp66
g10
(lp67
g1
(g48
g3
NtRp68
(dp69
g40
Nsg41
S'result'
p70
sg15
Nsg19
g20
sg52
S'bool'
p71
sg16
I13
sbasg16
I13
sg19
g20
sbsbasg16
Nsg19
Nsbsg15
Nsg16
Nsg41
S'UnzipFilter'
p72
sg19
Nsbag1
(g29
g3
NtRp73
(dp74
g32
g1
(g33
g3
NtRp75
(dp76
g10
(lp77
g1
(g37
g3
NtRp78
(dp79
g40
Nsg41
S'Unzip'
p80
sg43
g1
(g44
g3
NtRp81
(dp82
g10
(lp83
g1
(g48
g3
NtRp84
(dp85
g40
Nsg41
S'zip_file'
p86
sg15
Nsg19
g20
sg52
S'mojo_base.mojom.File'
p87
sg16
I19
sbag1
(g48
g3
NtRp88
(dp89
g40
Nsg41
S'output_dir'
p90
sg15
Nsg19
g20
sg52
S'filesystem.mojom.Directory'
p91
sg16
I19
sbasg16
I19
sg19
g20
sbsg15
Nsg19
Nsg16
Nsg64
g1
(g44
g3
NtRp92
(dp93
g10
(lp94
g1
(g48
g3
NtRp95
(dp96
g40
Nsg41
S'result'
p97
sg15
Nsg19
g20
sg52
S'bool'
p98
sg16
I20
sbasg16
I20
sg19
g20
sbsbag1
(g37
g3
NtRp99
(dp100
g40
Nsg41
S'UnzipWithFilter'
p101
sg43
g1
(g44
g3
NtRp102
(dp103
g10
(lp104
g1
(g48
g3
NtRp105
(dp106
g40
Nsg41
S'zip_file'
p107
sg15
Nsg19
g20
sg52
S'mojo_base.mojom.File'
p108
sg16
I25
sbag1
(g48
g3
NtRp109
(dp110
g40
Nsg41
S'output_dir'
p111
sg15
Nsg19
g20
sg52
S'filesystem.mojom.Directory'
p112
sg16
I26
sbag1
(g48
g3
NtRp113
(dp114
g40
Nsg41
S'filter'
p115
sg15
Nsg19
g20
sg52
S'UnzipFilter'
p116
sg16
I27
sbasg16
I25
sg19
g20
sbsg15
Nsg19
Nsg16
Nsg64
g1
(g44
g3
NtRp117
(dp118
g10
(lp119
g1
(g48
g3
NtRp120
(dp121
g40
Nsg41
S'result'
p122
sg15
Nsg19
g20
sg52
S'bool'
p123
sg16
I27
sbasg16
I27
sg19
g20
sbsbasg16
Nsg19
Nsbsg15
Nsg16
Nsg41
S'Unzipper'
p124
sg19
Nsbasg16
NsS'module'
p125
g1
(cmojom.parse.ast
Module
p126
g3
NtRp127
(dp128
S'mojom_namespace'
p129
(S'IDENTIFIER'
p130
S'unzip.mojom'
tp131
sg16
I5
sg15
Nsg19
g20
sbsg19
Nsb.