ccopy_reg
_reconstructor
p1
(cmojom.parse.ast
Mojom
p2
c__builtin__
object
p3
NtRp4
(dp5
S'import_list'
p6
g1
(cmojom.parse.ast
ImportList
p7
g3
NtRp8
(dp9
S'items'
p10
(lp11
sS'lineno'
p12
NsS'filename'
p13
NsbsS'definition_list'
p14
(lp15
g1
(cmojom.parse.ast
Enum
p16
g3
NtRp17
(dp18
S'attribute_list'
p19
NsS'enum_value_list'
p20
g1
(cmojom.parse.ast
EnumValueList
p21
g3
NtRp22
(dp23
g10
(lp24
g1
(cmojom.parse.ast
EnumValue
p25
g3
NtRp26
(dp27
g19
NsS'value'
p28
S'0'
sg12
I9
sS'mojom_name'
p29
S'HIDDEN'
p30
sg13
S'../../chrome/browser/ui/webui/discards/discards.mojom'
p31
sbag1
(g25
g3
NtRp32
(dp33
g19
Nsg28
S'1'
sg12
I10
sg29
S'OCCLUDED'
p34
sg13
g31
sbag1
(g25
g3
NtRp35
(dp36
g19
Nsg28
S'2'
sg12
I11
sg29
S'VISIBLE'
p37
sg13
g31
sbasg12
I9
sg13
g31
sbsg12
I8
sg29
S'LifecycleUnitVisibility'
p38
sg13
g31
sbag1
(cmojom.parse.ast
Struct
p39
g3
NtRp40
(dp41
S'body'
p42
g1
(cmojom.parse.ast
StructBody
p43
g3
NtRp44
(dp45
g10
(lp46
g1
(cmojom.parse.ast
StructField
p47
g3
NtRp48
(dp49
S'ordinal'
p50
NsS'default_value'
p51
Nsg29
S'tab_url'
p52
sg19
Nsg13
NsS'typename'
p53
S'string'
p54
sg12
Nsbag1
(g47
g3
NtRp55
(dp56
g50
Nsg51
Nsg29
S'title'
p57
sg19
Nsg13
Nsg53
S'string'
p58
sg12
Nsbag1
(g47
g3
NtRp59
(dp60
g50
Nsg51
Nsg29
S'visibility'
p61
sg19
Nsg13
Nsg53
S'LifecycleUnitVisibility'
p62
sg12
Nsbag1
(g47
g3
NtRp63
(dp64
g50
Nsg51
Nsg29
S'is_media'
p65
sg19
Nsg13
Nsg53
S'bool'
p66
sg12
Nsbag1
(g47
g3
NtRp67
(dp68
g50
Nsg51
Nsg29
S'is_discarded'
p69
sg19
Nsg13
Nsg53
S'bool'
p70
sg12
Nsbag1
(g47
g3
NtRp71
(dp72
g50
Nsg51
Nsg29
S'is_frozen'
p73
sg19
Nsg13
Nsg53
S'bool'
p74
sg12
Nsbag1
(g47
g3
NtRp75
(dp76
g50
Nsg51
Nsg29
S'discard_count'
p77
sg19
Nsg13
Nsg53
S'int32'
p78
sg12
Nsbag1
(g47
g3
NtRp79
(dp80
g50
Nsg51
Nsg29
S'utility_rank'
p81
sg19
Nsg13
Nsg53
S'int32'
p82
sg12
Nsbag1
(g47
g3
NtRp83
(dp84
g50
Nsg51
Nsg29
S'last_active_seconds'
p85
sg19
Nsg13
Nsg53
S'int32'
p86
sg12
Nsbag1
(g47
g3
NtRp87
(dp88
g50
Nsg51
Nsg29
S'id'
p89
sg19
Nsg13
Nsg53
S'int32'
p90
sg12
Nsbag1
(g47
g3
NtRp91
(dp92
g50
Nsg51
Nsg29
S'is_auto_discardable'
p93
sg19
Nsg13
Nsg53
S'bool'
p94
sg12
Nsbag1
(g47
g3
NtRp95
(dp96
g50
Nsg51
Nsg29
S'has_reactivation_score'
p97
sg19
Nsg13
Nsg53
S'bool'
p98
sg12
Nsbag1
(g47
g3
NtRp99
(dp100
g50
Nsg51
Nsg29
S'reactivation_score'
p101
sg19
Nsg13
Nsg53
S'double'
p102
sg12
Nsbasg12
Nsg13
Nsbsg19
Nsg12
Nsg29
S'TabDiscardsInfo'
p103
sg13
Nsbag1
(cmojom.parse.ast
Interface
p104
g3
NtRp105
(dp106
g42
g1
(cmojom.parse.ast
InterfaceBody
p107
g3
NtRp108
(dp109
g10
(lp110
g1
(cmojom.parse.ast
Method
p111
g3
NtRp112
(dp113
g50
Nsg29
S'GetTabDiscardsInfo'
p114
sS'parameter_list'
p115
g1
(cmojom.parse.ast
ParameterList
p116
g3
NtRp117
(dp118
g10
(lp119
sg12
Nsg13
Nsbsg19
Nsg13
Nsg12
NsS'response_parameter_list'
p120
g1
(g116
g3
NtRp121
(dp122
g10
(lp123
g1
(cmojom.parse.ast
Parameter
p124
g3
NtRp125
(dp126
g50
Nsg29
S'infos'
p127
sg19
Nsg13
g31
sg53
S'TabDiscardsInfo[]'
p128
sg12
I61
sbasg12
I61
sg13
g31
sbsbag1
(g111
g3
NtRp129
(dp130
g50
Nsg29
S'SetAutoDiscardable'
p131
sg115
g1
(g116
g3
NtRp132
(dp133
g10
(lp134
g1
(g124
g3
NtRp135
(dp136
g50
Nsg29
S'tab_id'
p137
sg19
Nsg13
g31
sg53
S'int32'
p138
sg12
I66
sbag1
(g124
g3
NtRp139
(dp140
g50
Nsg29
S'is_auto_discardable'
p141
sg19
Nsg13
g31
sg53
S'bool'
p142
sg12
I66
sbasg12
I66
sg13
g31
sbsg19
Nsg13
Nsg12
Nsg120
g1
(g116
g3
NtRp143
(dp144
g10
(lp145
sg12
Nsg13
Nsbsbag1
(g111
g3
NtRp146
(dp147
g50
Nsg29
S'DiscardById'
p148
sg115
g1
(g116
g3
NtRp149
(dp150
g10
(lp151
g1
(g124
g3
NtRp152
(dp153
g50
Nsg29
S'tab_id'
p154
sg19
Nsg13
g31
sg53
S'int32'
p155
sg12
I71
sbag1
(g124
g3
NtRp156
(dp157
g50
Nsg29
S'urgent'
p158
sg19
Nsg13
g31
sg53
S'bool'
p159
sg12
I71
sbasg12
I71
sg13
g31
sbsg19
Nsg13
Nsg12
Nsg120
g1
(g116
g3
NtRp160
(dp161
g10
(lp162
sg12
Nsg13
Nsbsbag1
(g111
g3
NtRp163
(dp164
g50
Nsg29
S'FreezeById'
p165
sg115
g1
(g116
g3
NtRp166
(dp167
g10
(lp168
g1
(g124
g3
NtRp169
(dp170
g50
Nsg29
S'tab_id'
p171
sg19
Nsg13
g31
sg53
S'int32'
p172
sg12
I74
sbasg12
I74
sg13
g31
sbsg19
Nsg13
Nsg12
Nsg120
Nsbag1
(g111
g3
NtRp173
(dp174
g50
Nsg29
S'Discard'
p175
sg115
g1
(g116
g3
NtRp176
(dp177
g10
(lp178
g1
(g124
g3
NtRp179
(dp180
g50
Nsg29
S'urgent'
p181
sg19
Nsg13
g31
sg53
S'bool'
p182
sg12
I81
sbasg12
I81
sg13
g31
sbsg19
Nsg13
Nsg12
Nsg120
g1
(g116
g3
NtRp183
(dp184
g10
(lp185
sg12
Nsg13
Nsbsbasg12
Nsg13
Nsbsg19
Nsg12
Nsg29
S'DiscardsDetailsProvider'
p186
sg13
Nsbasg12
NsS'module'
p187
g1
(cmojom.parse.ast
Module
p188
g3
NtRp189
(dp190
S'mojom_namespace'
p191
(S'IDENTIFIER'
p192
S'mojom'
tp193
sg12
I5
sg19
Nsg13
g31
sbsg13
Nsb.