ccopy_reg
_reconstructor
p1
(cmojom.parse.ast
Mojom
p2
c__builtin__
object
p3
NtRp4
(dp5
S'import_list'
p6
g1
(cmojom.parse.ast
ImportList
p7
g3
NtRp8
(dp9
S'items'
p10
(lp11
g1
(cmojom.parse.ast
Import
p12
g3
NtRp13
(dp14
S'attribute_list'
p15
NsS'lineno'
p16
I7
sS'import_filename'
p17
S'chrome/services/printing/public/mojom/pdf_render_settings.mojom'
p18
sS'filename'
p19
S'../../chrome/services/printing/public/mojom/pdf_to_pwg_raster_converter.mojom'
p20
sbag1
(g12
g3
NtRp21
(dp22
g15
Nsg16
I8
sg17
S'mojo/public/mojom/base/shared_memory.mojom'
p23
sg19
g20
sbasg16
I7
sg19
g20
sbsS'definition_list'
p24
(lp25
g1
(cmojom.parse.ast
Struct
p26
g3
NtRp27
(dp28
S'body'
p29
g1
(cmojom.parse.ast
StructBody
p30
g3
NtRp31
(dp32
g10
(lp33
g1
(cmojom.parse.ast
Enum
p34
g3
NtRp35
(dp36
g15
NsS'enum_value_list'
p37
g1
(cmojom.parse.ast
EnumValueList
p38
g3
NtRp39
(dp40
g10
(lp41
g1
(cmojom.parse.ast
EnumValue
p42
g3
NtRp43
(dp44
g15
NsS'value'
p45
Nsg16
I12
sS'mojom_name'
p46
S'TRANSFORM_NORMAL'
p47
sg19
g20
sbag1
(g42
g3
NtRp48
(dp49
g15
Nsg45
Nsg16
I13
sg46
S'TRANSFORM_ROTATE_180'
p50
sg19
g20
sbag1
(g42
g3
NtRp51
(dp52
g15
Nsg45
Nsg16
I14
sg46
S'TRANSFORM_FLIP_HORIZONTAL'
p53
sg19
g20
sbag1
(g42
g3
NtRp54
(dp55
g15
Nsg45
Nsg16
I15
sg46
S'TRANSFORM_FLIP_VERTICAL'
p56
sg19
g20
sbasg16
I12
sg19
g20
sbsg16
I11
sg46
S'TransformType'
p57
sg19
g20
sbag1
(cmojom.parse.ast
StructField
p58
g3
NtRp59
(dp60
S'ordinal'
p61
NsS'default_value'
p62
Nsg46
S'odd_page_transform'
p63
sg15
Nsg19
NsS'typename'
p64
S'TransformType'
p65
sg16
Nsbag1
(g58
g3
NtRp66
(dp67
g61
Nsg62
Nsg46
S'rotate_all_pages'
p68
sg15
Nsg19
Nsg64
S'bool'
p69
sg16
Nsbag1
(g58
g3
NtRp70
(dp71
g61
Nsg62
Nsg46
S'reverse_page_order'
p72
sg15
Nsg19
Nsg64
S'bool'
p73
sg16
Nsbag1
(g58
g3
NtRp74
(dp75
g61
Nsg62
Nsg46
S'use_color'
p76
sg15
Nsg19
Nsg64
S'bool'
p77
sg16
Nsbasg16
I11
sg19
g20
sbsg15
Nsg16
Nsg46
S'PwgRasterSettings'
p78
sg19
Nsbag1
(cmojom.parse.ast
Interface
p79
g3
NtRp80
(dp81
g29
g1
(cmojom.parse.ast
InterfaceBody
p82
g3
NtRp83
(dp84
g10
(lp85
g1
(cmojom.parse.ast
Method
p86
g3
NtRp87
(dp88
g61
Nsg46
S'Convert'
p89
sS'parameter_list'
p90
g1
(cmojom.parse.ast
ParameterList
p91
g3
NtRp92
(dp93
g10
(lp94
g1
(cmojom.parse.ast
Parameter
p95
g3
NtRp96
(dp97
g61
Nsg46
S'pdf_region'
p98
sg15
Nsg19
g20
sg64
S'mojo_base.mojom.ReadOnlySharedMemoryRegion'
p99
sg16
I32
sbag1
(g95
g3
NtRp100
(dp101
g61
Nsg46
S'pdf_settings'
p102
sg15
Nsg19
g20
sg64
S'PdfRenderSettings'
p103
sg16
I33
sbag1
(g95
g3
NtRp104
(dp105
g61
Nsg46
S'pwg_raster_settings'
p106
sg15
Nsg19
g20
sg64
S'PwgRasterSettings'
p107
sg16
I34
sbasg16
I32
sg19
g20
sbsg15
Nsg19
Nsg16
NsS'response_parameter_list'
p108
g1
(g91
g3
NtRp109
(dp110
g10
(lp111
g1
(g95
g3
NtRp112
(dp113
g61
Nsg46
S'pwg_raster_region'
p114
sg15
Nsg19
g20
sg64
S'mojo_base.mojom.ReadOnlySharedMemoryRegion?'
p115
sg16
I35
sbag1
(g95
g3
NtRp116
(dp117
g61
Nsg46
S'page_count'
p118
sg15
Nsg19
g20
sg64
S'uint32'
p119
sg16
I36
sbasg16
I35
sg19
g20
sbsbasg16
Nsg19
Nsbsg15
Nsg16
Nsg46
S'PdfToPwgRasterConverter'
p120
sg19
Nsbasg16
NsS'module'
p121
g1
(cmojom.parse.ast
Module
p122
g3
NtRp123
(dp124
S'mojom_namespace'
p125
(S'IDENTIFIER'
p126
S'printing.mojom'
tp127
sg16
I5
sg15
Nsg19
g20
sbsg19
Nsb.