ccopy_reg
_reconstructor
p1
(cmojom.parse.ast
Mojom
p2
c__builtin__
object
p3
NtRp4
(dp5
S'import_list'
p6
g1
(cmojom.parse.ast
ImportList
p7
g3
NtRp8
(dp9
S'items'
p10
(lp11
g1
(cmojom.parse.ast
Import
p12
g3
NtRp13
(dp14
S'attribute_list'
p15
NsS'lineno'
p16
I7
sS'import_filename'
p17
S'ui/gfx/geometry/mojo/geometry.mojom'
p18
sS'filename'
p19
S'../../chrome/services/printing/public/mojom/pdf_render_settings.mojom'
p20
sbasg16
I7
sg19
g20
sbsS'definition_list'
p21
(lp22
g1
(cmojom.parse.ast
Struct
p23
g3
NtRp24
(dp25
S'body'
p26
g1
(cmojom.parse.ast
StructBody
p27
g3
NtRp28
(dp29
g10
(lp30
g1
(cmojom.parse.ast
Enum
p31
g3
NtRp32
(dp33
g15
NsS'enum_value_list'
p34
g1
(cmojom.parse.ast
EnumValueList
p35
g3
NtRp36
(dp37
g10
(lp38
g1
(cmojom.parse.ast
EnumValue
p39
g3
NtRp40
(dp41
g15
NsS'value'
p42
S'0'
sg16
I11
sS'mojom_name'
p43
S'NORMAL'
p44
sg19
g20
sbasg16
I11
sg19
g20
sbsg16
I10
sg43
S'Mode'
p45
sg19
g20
sbag1
(cmojom.parse.ast
StructField
p46
g3
NtRp47
(dp48
S'ordinal'
p49
NsS'default_value'
p50
Nsg43
S'area'
p51
sg15
Nsg19
NsS'typename'
p52
S'gfx.mojom.Rect'
p53
sg16
Nsbag1
(g46
g3
NtRp54
(dp55
g49
Nsg50
Nsg43
S'offsets'
p56
sg15
Nsg19
Nsg52
S'gfx.mojom.Point'
p57
sg16
Nsbag1
(g46
g3
NtRp58
(dp59
g49
Nsg50
Nsg43
S'dpi'
p60
sg15
Nsg19
Nsg52
S'gfx.mojom.Size'
p61
sg16
Nsbag1
(g46
g3
NtRp62
(dp63
g49
Nsg50
Nsg43
S'autorotate'
p64
sg15
Nsg19
Nsg52
S'bool'
p65
sg16
Nsbag1
(g46
g3
NtRp66
(dp67
g49
Nsg50
Nsg43
S'use_color'
p68
sg15
Nsg19
Nsg52
S'bool'
p69
sg16
Nsbag1
(g46
g3
NtRp70
(dp71
g49
Nsg50
Nsg43
S'mode'
p72
sg15
Nsg19
Nsg52
S'Mode'
p73
sg16
Nsbasg16
I10
sg19
g20
sbsg15
Nsg16
Nsg43
S'PdfRenderSettings'
p74
sg19
Nsbasg16
NsS'module'
p75
g1
(cmojom.parse.ast
Module
p76
g3
NtRp77
(dp78
S'mojom_namespace'
p79
(S'IDENTIFIER'
p80
S'printing.mojom'
tp81
sg16
I5
sg15
Nsg19
g20
sbsg19
Nsb.