ccopy_reg
_reconstructor
p1
(cmojom.parse.ast
Mojom
p2
c__builtin__
object
p3
NtRp4
(dp5
S'import_list'
p6
g1
(cmojom.parse.ast
ImportList
p7
g3
NtRp8
(dp9
S'items'
p10
(lp11
sS'lineno'
p12
NsS'filename'
p13
NsbsS'definition_list'
p14
(lp15
g1
(cmojom.parse.ast
Interface
p16
g3
NtRp17
(dp18
S'body'
p19
g1
(cmojom.parse.ast
InterfaceBody
p20
g3
NtRp21
(dp22
g10
(lp23
g1
(cmojom.parse.ast
Method
p24
g3
NtRp25
(dp26
S'ordinal'
p27
NsS'mojom_name'
p28
S'OnRestarted'
p29
sS'parameter_list'
p30
g1
(cmojom.parse.ast
ParameterList
p31
g3
NtRp32
(dp33
g10
(lp34
sg12
Nsg13
NsbsS'attribute_list'
p35
Nsg13
Nsg12
NsS'response_parameter_list'
p36
Nsbag1
(g24
g3
NtRp37
(dp38
g27
Nsg28
S'OnEnrollScanDone'
p39
sg30
g1
(g31
g3
NtRp40
(dp41
g10
(lp42
g1
(cmojom.parse.ast
Parameter
p43
g3
NtRp44
(dp45
g27
Nsg28
S'scan_result'
p46
sg35
Nsg13
S'../../services/device/public/mojom/fingerprint.mojom'
p47
sS'typename'
p48
S'uint32'
p49
sg12
I20
sbag1
(g43
g3
NtRp50
(dp51
g27
Nsg28
S'is_complete'
p52
sg35
Nsg13
g47
sg48
S'bool'
p53
sg12
I21
sbag1
(g43
g3
NtRp54
(dp55
g27
Nsg28
S'percent_complete'
p56
sg35
Nsg13
g47
sg48
S'int32'
p57
sg12
I22
sbasg12
I20
sg13
g47
sbsg35
Nsg13
Nsg12
Nsg36
Nsbag1
(g24
g3
NtRp58
(dp59
g27
Nsg28
S'OnAuthScanDone'
p60
sg30
g1
(g31
g3
NtRp61
(dp62
g10
(lp63
g1
(g43
g3
NtRp64
(dp65
g27
Nsg28
S'scan_result'
p66
sg35
Nsg13
g47
sg48
S'uint32'
p67
sg12
I27
sbag1
(g43
g3
NtRp68
(dp69
g27
Nsg28
S'matches'
p70
sg35
Nsg13
g47
sg48
S'string[]{string}'
p71
sg12
I27
sbasg12
I27
sg13
g47
sbsg35
Nsg13
Nsg12
Nsg36
Nsbag1
(g24
g3
NtRp72
(dp73
g27
Nsg28
S'OnSessionFailed'
p74
sg30
g1
(g31
g3
NtRp75
(dp76
g10
(lp77
sg12
Nsg13
Nsbsg35
Nsg13
Nsg12
Nsg36
Nsbasg12
Nsg13
Nsbsg35
Nsg12
Nsg28
S'FingerprintObserver'
p78
sg13
Nsbag1
(g16
g3
NtRp79
(dp80
g19
g1
(g20
g3
NtRp81
(dp82
g10
(lp83
g1
(g24
g3
NtRp84
(dp85
g27
Nsg28
S'GetRecordsForUser'
p86
sg30
g1
(g31
g3
NtRp87
(dp88
g10
(lp89
g1
(g43
g3
NtRp90
(dp91
g27
Nsg28
S'user_id'
p92
sg35
Nsg13
g47
sg48
S'string'
p93
sg12
I39
sbasg12
I39
sg13
g47
sbsg35
Nsg13
Nsg12
Nsg36
g1
(g31
g3
NtRp94
(dp95
g10
(lp96
g1
(g43
g3
NtRp97
(dp98
g27
Nsg28
S'records'
p99
sg35
Nsg13
g47
sg48
S'string{string}'
p100
sg12
I39
sbasg12
I39
sg13
g47
sbsbag1
(g24
g3
NtRp101
(dp102
g27
Nsg28
S'StartEnrollSession'
p103
sg30
g1
(g31
g3
NtRp104
(dp105
g10
(lp106
g1
(g43
g3
NtRp107
(dp108
g27
Nsg28
S'user_id'
p109
sg35
Nsg13
g47
sg48
S'string'
p110
sg12
I42
sbag1
(g43
g3
NtRp111
(dp112
g27
Nsg28
S'label'
p113
sg35
Nsg13
g47
sg48
S'string'
p114
sg12
I42
sbasg12
I42
sg13
g47
sbsg35
Nsg13
Nsg12
Nsg36
Nsbag1
(g24
g3
NtRp115
(dp116
g27
Nsg28
S'CancelCurrentEnrollSession'
p117
sg30
g1
(g31
g3
NtRp118
(dp119
g10
(lp120
sg12
Nsg13
Nsbsg35
Nsg13
Nsg12
Nsg36
g1
(g31
g3
NtRp121
(dp122
g10
(lp123
g1
(g43
g3
NtRp124
(dp125
g27
Nsg28
S'success'
p126
sg35
Nsg13
g47
sg48
S'bool'
p127
sg12
I45
sbasg12
I45
sg13
g47
sbsbag1
(g24
g3
NtRp128
(dp129
g27
Nsg28
S'RequestRecordLabel'
p130
sg30
g1
(g31
g3
NtRp131
(dp132
g10
(lp133
g1
(g43
g3
NtRp134
(dp135
g27
Nsg28
S'record_path'
p136
sg35
Nsg13
g47
sg48
S'string'
p137
sg12
I48
sbasg12
I48
sg13
g47
sbsg35
Nsg13
Nsg12
Nsg36
g1
(g31
g3
NtRp138
(dp139
g10
(lp140
g1
(g43
g3
NtRp141
(dp142
g27
Nsg28
S'label'
p143
sg35
Nsg13
g47
sg48
S'string'
p144
sg12
I48
sbasg12
I48
sg13
g47
sbsbag1
(g24
g3
NtRp145
(dp146
g27
Nsg28
S'SetRecordLabel'
p147
sg30
g1
(g31
g3
NtRp148
(dp149
g10
(lp150
g1
(g43
g3
NtRp151
(dp152
g27
Nsg28
S'record_path'
p153
sg35
Nsg13
g47
sg48
S'string'
p154
sg12
I51
sbag1
(g43
g3
NtRp155
(dp156
g27
Nsg28
S'new_label'
p157
sg35
Nsg13
g47
sg48
S'string'
p158
sg12
I51
sbasg12
I51
sg13
g47
sbsg35
Nsg13
Nsg12
Nsg36
g1
(g31
g3
NtRp159
(dp160
g10
(lp161
g1
(g43
g3
NtRp162
(dp163
g27
Nsg28
S'success'
p164
sg35
Nsg13
g47
sg48
S'bool'
p165
sg12
I51
sbasg12
I51
sg13
g47
sbsbag1
(g24
g3
NtRp166
(dp167
g27
Nsg28
S'RemoveRecord'
p168
sg30
g1
(g31
g3
NtRp169
(dp170
g10
(lp171
g1
(g43
g3
NtRp172
(dp173
g27
Nsg28
S'record_path'
p174
sg35
Nsg13
g47
sg48
S'string'
p175
sg12
I55
sbasg12
I55
sg13
g47
sbsg35
Nsg13
Nsg12
Nsg36
g1
(g31
g3
NtRp176
(dp177
g10
(lp178
g1
(g43
g3
NtRp179
(dp180
g27
Nsg28
S'success'
p181
sg35
Nsg13
g47
sg48
S'bool'
p182
sg12
I55
sbasg12
I55
sg13
g47
sbsbag1
(g24
g3
NtRp183
(dp184
g27
Nsg28
S'StartAuthSession'
p185
sg30
g1
(g31
g3
NtRp186
(dp187
g10
(lp188
sg12
Nsg13
Nsbsg35
Nsg13
Nsg12
Nsg36
Nsbag1
(g24
g3
NtRp189
(dp190
g27
Nsg28
S'EndCurrentAuthSession'
p191
sg30
g1
(g31
g3
NtRp192
(dp193
g10
(lp194
sg12
Nsg13
Nsbsg35
Nsg13
Nsg12
Nsg36
g1
(g31
g3
NtRp195
(dp196
g10
(lp197
g1
(g43
g3
NtRp198
(dp199
g27
Nsg28
S'success'
p200
sg35
Nsg13
g47
sg48
S'bool'
p201
sg12
I61
sbasg12
I61
sg13
g47
sbsbag1
(g24
g3
NtRp202
(dp203
g27
Nsg28
S'DestroyAllRecords'
p204
sg30
g1
(g31
g3
NtRp205
(dp206
g10
(lp207
sg12
Nsg13
Nsbsg35
Nsg13
Nsg12
Nsg36
g1
(g31
g3
NtRp208
(dp209
g10
(lp210
g1
(g43
g3
NtRp211
(dp212
g27
Nsg28
S'success'
p213
sg35
Nsg13
g47
sg48
S'bool'
p214
sg12
I64
sbasg12
I64
sg13
g47
sbsbag1
(g24
g3
NtRp215
(dp216
g27
Nsg28
S'AddFingerprintObserver'
p217
sg30
g1
(g31
g3
NtRp218
(dp219
g10
(lp220
g1
(g43
g3
NtRp221
(dp222
g27
Nsg28
S'observer'
p223
sg35
Nsg13
g47
sg48
S'FingerprintObserver'
p224
sg12
I67
sbasg12
I67
sg13
g47
sbsg35
Nsg13
Nsg12
Nsg36
Nsbag1
(g24
g3
NtRp225
(dp226
g27
Nsg28
S'RequestType'
p227
sg30
g1
(g31
g3
NtRp228
(dp229
g10
(lp230
sg12
Nsg13
Nsbsg35
Nsg13
Nsg12
Nsg36
g1
(g31
g3
NtRp231
(dp232
g10
(lp233
g1
(g43
g3
NtRp234
(dp235
g27
Nsg28
S'type'
p236
sg35
Nsg13
g47
sg48
S'uint32'
p237
sg12
I70
sbasg12
I70
sg13
g47
sbsbasg12
Nsg13
Nsbsg35
Nsg12
Nsg28
S'Fingerprint'
p238
sg13
Nsbasg12
NsS'module'
p239
g1
(cmojom.parse.ast
Module
p240
g3
NtRp241
(dp242
S'mojom_namespace'
p243
(S'IDENTIFIER'
p244
S'device.mojom'
tp245
sg12
I5
sg35
Nsg13
g47
sbsg13
Nsb.