ccopy_reg
_reconstructor
p1
(cmojom.parse.ast
Mojom
p2
c__builtin__
object
p3
NtRp4
(dp5
S'import_list'
p6
g1
(cmojom.parse.ast
ImportList
p7
g3
NtRp8
(dp9
S'items'
p10
(lp11
sS'lineno'
p12
NsS'filename'
p13
NsbsS'definition_list'
p14
(lp15
g1
(cmojom.parse.ast
Enum
p16
g3
NtRp17
(dp18
S'attribute_list'
p19
NsS'enum_value_list'
p20
g1
(cmojom.parse.ast
EnumValueList
p21
g3
NtRp22
(dp23
g10
(lp24
g1
(cmojom.parse.ast
EnumValue
p25
g3
NtRp26
(dp27
g19
NsS'value'
p28
S'0'
sg12
I8
sS'mojom_name'
p29
S'kHIDBusTypeUSB'
p30
sg13
S'../../services/device/public/mojom/hid.mojom'
p31
sbag1
(g25
g3
NtRp32
(dp33
g19
Nsg28
S'1'
sg12
I9
sg29
S'kHIDBusTypeBluetooth'
p34
sg13
g31
sbasg12
I8
sg13
g31
sbsg12
I7
sg29
S'HidBusType'
p35
sg13
g31
sbag1
(cmojom.parse.ast
Const
p36
g3
NtRp37
(dp38
g29
S'kPageUndefined'
p39
sg19
Nsg28
S'0x00'
p40
sg13
NsS'typename'
p41
S'uint16'
p42
sg12
Nsbag1
(g36
g3
NtRp43
(dp44
g29
S'kPageGenericDesktop'
p45
sg19
Nsg28
S'0x01'
p46
sg13
Nsg41
S'uint16'
p47
sg12
Nsbag1
(g36
g3
NtRp48
(dp49
g29
S'kPageSimulation'
p50
sg19
Nsg28
S'0x02'
p51
sg13
Nsg41
S'uint16'
p52
sg12
Nsbag1
(g36
g3
NtRp53
(dp54
g29
S'kPageVirtualReality'
p55
sg19
Nsg28
S'0x03'
p56
sg13
Nsg41
S'uint16'
p57
sg12
Nsbag1
(g36
g3
NtRp58
(dp59
g29
S'kPageSport'
p60
sg19
Nsg28
S'0x04'
p61
sg13
Nsg41
S'uint16'
p62
sg12
Nsbag1
(g36
g3
NtRp63
(dp64
g29
S'kPageGame'
p65
sg19
Nsg28
S'0x05'
p66
sg13
Nsg41
S'uint16'
p67
sg12
Nsbag1
(g36
g3
NtRp68
(dp69
g29
S'kPageKeyboard'
p70
sg19
Nsg28
S'0x07'
p71
sg13
Nsg41
S'uint16'
p72
sg12
Nsbag1
(g36
g3
NtRp73
(dp74
g29
S'kPageLed'
p75
sg19
Nsg28
S'0x08'
p76
sg13
Nsg41
S'uint16'
p77
sg12
Nsbag1
(g36
g3
NtRp78
(dp79
g29
S'kPageButton'
p80
sg19
Nsg28
S'0x09'
p81
sg13
Nsg41
S'uint16'
p82
sg12
Nsbag1
(g36
g3
NtRp83
(dp84
g29
S'kPageOrdinal'
p85
sg19
Nsg28
S'0x0A'
p86
sg13
Nsg41
S'uint16'
p87
sg12
Nsbag1
(g36
g3
NtRp88
(dp89
g29
S'kPageTelephony'
p90
sg19
Nsg28
S'0x0B'
p91
sg13
Nsg41
S'uint16'
p92
sg12
Nsbag1
(g36
g3
NtRp93
(dp94
g29
S'kPageConsumer'
p95
sg19
Nsg28
S'0x0C'
p96
sg13
Nsg41
S'uint16'
p97
sg12
Nsbag1
(g36
g3
NtRp98
(dp99
g29
S'kPageDigitizer'
p100
sg19
Nsg28
S'0x0D'
p101
sg13
Nsg41
S'uint16'
p102
sg12
Nsbag1
(g36
g3
NtRp103
(dp104
g29
S'kPagePidPage'
p105
sg19
Nsg28
S'0x0F'
p106
sg13
Nsg41
S'uint16'
p107
sg12
Nsbag1
(g36
g3
NtRp108
(dp109
g29
S'kPageUnicode'
p110
sg19
Nsg28
S'0x10'
p111
sg13
Nsg41
S'uint16'
p112
sg12
Nsbag1
(g36
g3
NtRp113
(dp114
g29
S'kPageAlphanumericDisplay'
p115
sg19
Nsg28
S'0x14'
p116
sg13
Nsg41
S'uint16'
p117
sg12
Nsbag1
(g36
g3
NtRp118
(dp119
g29
S'kPageMedicalInstruments'
p120
sg19
Nsg28
S'0x40'
p121
sg13
Nsg41
S'uint16'
p122
sg12
Nsbag1
(g36
g3
NtRp123
(dp124
g29
S'kPageMonitor0'
p125
sg19
Nsg28
S'0x80'
p126
sg13
Nsg41
S'uint16'
p127
sg12
Nsbag1
(g36
g3
NtRp128
(dp129
g29
S'kPageMonitor1'
p130
sg19
Nsg28
S'0x81'
p131
sg13
Nsg41
S'uint16'
p132
sg12
Nsbag1
(g36
g3
NtRp133
(dp134
g29
S'kPageMonitor2'
p135
sg19
Nsg28
S'0x82'
p136
sg13
Nsg41
S'uint16'
p137
sg12
Nsbag1
(g36
g3
NtRp138
(dp139
g29
S'kPageMonitor3'
p140
sg19
Nsg28
S'0x83'
p141
sg13
Nsg41
S'uint16'
p142
sg12
Nsbag1
(g36
g3
NtRp143
(dp144
g29
S'kPagePower0'
p145
sg19
Nsg28
S'0x84'
p146
sg13
Nsg41
S'uint16'
p147
sg12
Nsbag1
(g36
g3
NtRp148
(dp149
g29
S'kPagePower1'
p150
sg19
Nsg28
S'0x85'
p151
sg13
Nsg41
S'uint16'
p152
sg12
Nsbag1
(g36
g3
NtRp153
(dp154
g29
S'kPagePower2'
p155
sg19
Nsg28
S'0x86'
p156
sg13
Nsg41
S'uint16'
p157
sg12
Nsbag1
(g36
g3
NtRp158
(dp159
g29
S'kPagePower3'
p160
sg19
Nsg28
S'0x87'
p161
sg13
Nsg41
S'uint16'
p162
sg12
Nsbag1
(g36
g3
NtRp163
(dp164
g29
S'kPageBarCodeScanner'
p165
sg19
Nsg28
S'0x8C'
p166
sg13
Nsg41
S'uint16'
p167
sg12
Nsbag1
(g36
g3
NtRp168
(dp169
g29
S'kPageScale'
p170
sg19
Nsg28
S'0x8D'
p171
sg13
Nsg41
S'uint16'
p172
sg12
Nsbag1
(g36
g3
NtRp173
(dp174
g29
S'kPageMagneticStripeReader'
p175
sg19
Nsg28
S'0x8E'
p176
sg13
Nsg41
S'uint16'
p177
sg12
Nsbag1
(g36
g3
NtRp178
(dp179
g29
S'kPageReservedPointOfSale'
p180
sg19
Nsg28
S'0x8F'
p181
sg13
Nsg41
S'uint16'
p182
sg12
Nsbag1
(g36
g3
NtRp183
(dp184
g29
S'kPageCameraControl'
p185
sg19
Nsg28
S'0x90'
p186
sg13
Nsg41
S'uint16'
p187
sg12
Nsbag1
(g36
g3
NtRp188
(dp189
g29
S'kPageArcade'
p190
sg19
Nsg28
S'0x91'
p191
sg13
Nsg41
S'uint16'
p192
sg12
Nsbag1
(g36
g3
NtRp193
(dp194
g29
S'kPageVendor'
p195
sg19
Nsg28
S'0xFF00'
p196
sg13
Nsg41
S'uint16'
p197
sg12
Nsbag1
(g36
g3
NtRp198
(dp199
g29
S'kPageMediaCenter'
p200
sg19
Nsg28
S'0xFFBC'
p201
sg13
Nsg41
S'uint16'
p202
sg12
Nsbag1
(g36
g3
NtRp203
(dp204
g29
S'kGenericDesktopUndefined'
p205
sg19
Nsg28
S'0x00'
p206
sg13
Nsg41
S'uint16'
p207
sg12
Nsbag1
(g36
g3
NtRp208
(dp209
g29
S'kGenericDesktopPointer'
p210
sg19
Nsg28
S'0x01'
p211
sg13
Nsg41
S'uint16'
p212
sg12
Nsbag1
(g36
g3
NtRp213
(dp214
g29
S'kGenericDesktopMouse'
p215
sg19
Nsg28
S'0x02'
p216
sg13
Nsg41
S'uint16'
p217
sg12
Nsbag1
(g36
g3
NtRp218
(dp219
g29
S'kGenericDesktopJoystick'
p220
sg19
Nsg28
S'0x04'
p221
sg13
Nsg41
S'uint16'
p222
sg12
Nsbag1
(g36
g3
NtRp223
(dp224
g29
S'kGenericDesktopGamePad'
p225
sg19
Nsg28
S'0x05'
p226
sg13
Nsg41
S'uint16'
p227
sg12
Nsbag1
(g36
g3
NtRp228
(dp229
g29
S'kGenericDesktopKeyboard'
p230
sg19
Nsg28
S'0x06'
p231
sg13
Nsg41
S'uint16'
p232
sg12
Nsbag1
(g36
g3
NtRp233
(dp234
g29
S'kGenericDesktopKeypad'
p235
sg19
Nsg28
S'0x07'
p236
sg13
Nsg41
S'uint16'
p237
sg12
Nsbag1
(g36
g3
NtRp238
(dp239
g29
S'kGenericDesktopMultiAxisController'
p240
sg19
Nsg28
S'0x08'
p241
sg13
Nsg41
S'uint16'
p242
sg12
Nsbag1
(g36
g3
NtRp243
(dp244
g29
S'kGenericDesktopX'
p245
sg19
Nsg28
S'0x30'
p246
sg13
Nsg41
S'uint16'
p247
sg12
Nsbag1
(g36
g3
NtRp248
(dp249
g29
S'kGenericDesktopY'
p250
sg19
Nsg28
S'0x31'
p251
sg13
Nsg41
S'uint16'
p252
sg12
Nsbag1
(g36
g3
NtRp253
(dp254
g29
S'kGenericDesktopZ'
p255
sg19
Nsg28
S'0x32'
p256
sg13
Nsg41
S'uint16'
p257
sg12
Nsbag1
(g36
g3
NtRp258
(dp259
g29
S'kGenericDesktopRx'
p260
sg19
Nsg28
S'0x33'
p261
sg13
Nsg41
S'uint16'
p262
sg12
Nsbag1
(g36
g3
NtRp263
(dp264
g29
S'kGenericDesktopRy'
p265
sg19
Nsg28
S'0x34'
p266
sg13
Nsg41
S'uint16'
p267
sg12
Nsbag1
(g36
g3
NtRp268
(dp269
g29
S'kGenericDesktopRz'
p270
sg19
Nsg28
S'0x35'
p271
sg13
Nsg41
S'uint16'
p272
sg12
Nsbag1
(g36
g3
NtRp273
(dp274
g29
S'kGenericDesktopSlider'
p275
sg19
Nsg28
S'0x36'
p276
sg13
Nsg41
S'uint16'
p277
sg12
Nsbag1
(g36
g3
NtRp278
(dp279
g29
S'kGenericDesktopDial'
p280
sg19
Nsg28
S'0x37'
p281
sg13
Nsg41
S'uint16'
p282
sg12
Nsbag1
(g36
g3
NtRp283
(dp284
g29
S'kGenericDesktopWheel'
p285
sg19
Nsg28
S'0x38'
p286
sg13
Nsg41
S'uint16'
p287
sg12
Nsbag1
(g36
g3
NtRp288
(dp289
g29
S'kGenericDesktopHatSwitch'
p290
sg19
Nsg28
S'0x39'
p291
sg13
Nsg41
S'uint16'
p292
sg12
Nsbag1
(g36
g3
NtRp293
(dp294
g29
S'kGenericDesktopCountedBuffer'
p295
sg19
Nsg28
S'0x3a'
p296
sg13
Nsg41
S'uint16'
p297
sg12
Nsbag1
(g36
g3
NtRp298
(dp299
g29
S'kGenericDesktopByteCount'
p300
sg19
Nsg28
S'0x3b'
p301
sg13
Nsg41
S'uint16'
p302
sg12
Nsbag1
(g36
g3
NtRp303
(dp304
g29
S'kGenericDesktopMotionWakeup'
p305
sg19
Nsg28
S'0x3c'
p306
sg13
Nsg41
S'uint16'
p307
sg12
Nsbag1
(g36
g3
NtRp308
(dp309
g29
S'kGenericDesktopStart'
p310
sg19
Nsg28
S'0x3d'
p311
sg13
Nsg41
S'uint16'
p312
sg12
Nsbag1
(g36
g3
NtRp313
(dp314
g29
S'kGenericDesktopSelect'
p315
sg19
Nsg28
S'0x3e'
p316
sg13
Nsg41
S'uint16'
p317
sg12
Nsbag1
(g36
g3
NtRp318
(dp319
g29
S'kGenericDesktopVx'
p320
sg19
Nsg28
S'0x40'
p321
sg13
Nsg41
S'uint16'
p322
sg12
Nsbag1
(g36
g3
NtRp323
(dp324
g29
S'kGenericDesktopVy'
p325
sg19
Nsg28
S'0x41'
p326
sg13
Nsg41
S'uint16'
p327
sg12
Nsbag1
(g36
g3
NtRp328
(dp329
g29
S'kGenericDesktopVz'
p330
sg19
Nsg28
S'0x42'
p331
sg13
Nsg41
S'uint16'
p332
sg12
Nsbag1
(g36
g3
NtRp333
(dp334
g29
S'kGenericDesktopVbrx'
p335
sg19
Nsg28
S'0x43'
p336
sg13
Nsg41
S'uint16'
p337
sg12
Nsbag1
(g36
g3
NtRp338
(dp339
g29
S'kGenericDesktopVbry'
p340
sg19
Nsg28
S'0x44'
p341
sg13
Nsg41
S'uint16'
p342
sg12
Nsbag1
(g36
g3
NtRp343
(dp344
g29
S'kGenericDesktopVbrz'
p345
sg19
Nsg28
S'0x45'
p346
sg13
Nsg41
S'uint16'
p347
sg12
Nsbag1
(g36
g3
NtRp348
(dp349
g29
S'kGenericDesktopVno'
p350
sg19
Nsg28
S'0x46'
p351
sg13
Nsg41
S'uint16'
p352
sg12
Nsbag1
(g36
g3
NtRp353
(dp354
g29
S'kGenericDesktopSystemControl'
p355
sg19
Nsg28
S'0x80'
p356
sg13
Nsg41
S'uint16'
p357
sg12
Nsbag1
(g36
g3
NtRp358
(dp359
g29
S'kGenericDesktopSystemPowerDown'
p360
sg19
Nsg28
S'0x81'
p361
sg13
Nsg41
S'uint16'
p362
sg12
Nsbag1
(g36
g3
NtRp363
(dp364
g29
S'kGenericDesktopSystemSleep'
p365
sg19
Nsg28
S'0x82'
p366
sg13
Nsg41
S'uint16'
p367
sg12
Nsbag1
(g36
g3
NtRp368
(dp369
g29
S'kGenericDesktopSystemWakeUp'
p370
sg19
Nsg28
S'0x83'
p371
sg13
Nsg41
S'uint16'
p372
sg12
Nsbag1
(g36
g3
NtRp373
(dp374
g29
S'kGenericDesktopSystemContextMenu'
p375
sg19
Nsg28
S'0x84'
p376
sg13
Nsg41
S'uint16'
p377
sg12
Nsbag1
(g36
g3
NtRp378
(dp379
g29
S'kGenericDesktopSystemMainMenu'
p380
sg19
Nsg28
S'0x85'
p381
sg13
Nsg41
S'uint16'
p382
sg12
Nsbag1
(g36
g3
NtRp383
(dp384
g29
S'kGenericDesktopSystemAppMenu'
p385
sg19
Nsg28
S'0x86'
p386
sg13
Nsg41
S'uint16'
p387
sg12
Nsbag1
(g36
g3
NtRp388
(dp389
g29
S'kGenericDesktopSystemMenuHelp'
p390
sg19
Nsg28
S'0x87'
p391
sg13
Nsg41
S'uint16'
p392
sg12
Nsbag1
(g36
g3
NtRp393
(dp394
g29
S'kGenericDesktopSystemMenuExit'
p395
sg19
Nsg28
S'0x88'
p396
sg13
Nsg41
S'uint16'
p397
sg12
Nsbag1
(g36
g3
NtRp398
(dp399
g29
S'kGenericDesktopSystemMenuSelect'
p400
sg19
Nsg28
S'0x89'
p401
sg13
Nsg41
S'uint16'
p402
sg12
Nsbag1
(g36
g3
NtRp403
(dp404
g29
S'kGenericDesktopSystemMenuRight'
p405
sg19
Nsg28
S'0x8a'
p406
sg13
Nsg41
S'uint16'
p407
sg12
Nsbag1
(g36
g3
NtRp408
(dp409
g29
S'kGenericDesktopSystemMenuLeft'
p410
sg19
Nsg28
S'0x8b'
p411
sg13
Nsg41
S'uint16'
p412
sg12
Nsbag1
(g36
g3
NtRp413
(dp414
g29
S'kGenericDesktopSystemMenuUp'
p415
sg19
Nsg28
S'0x8c'
p416
sg13
Nsg41
S'uint16'
p417
sg12
Nsbag1
(g36
g3
NtRp418
(dp419
g29
S'kGenericDesktopSystemMenuDown'
p420
sg19
Nsg28
S'0x8d'
p421
sg13
Nsg41
S'uint16'
p422
sg12
Nsbag1
(g36
g3
NtRp423
(dp424
g29
S'kGenericDesktopSystemColdRestart'
p425
sg19
Nsg28
S'0x8e'
p426
sg13
Nsg41
S'uint16'
p427
sg12
Nsbag1
(g36
g3
NtRp428
(dp429
g29
S'kGenericDesktopSystemWarmRestart'
p430
sg19
Nsg28
S'0x8f'
p431
sg13
Nsg41
S'uint16'
p432
sg12
Nsbag1
(g36
g3
NtRp433
(dp434
g29
S'kGenericDesktopDPadUp'
p435
sg19
Nsg28
S'0x90'
p436
sg13
Nsg41
S'uint16'
p437
sg12
Nsbag1
(g36
g3
NtRp438
(dp439
g29
S'kGenericDesktopDPadDown'
p440
sg19
Nsg28
S'0x91'
p441
sg13
Nsg41
S'uint16'
p442
sg12
Nsbag1
(g36
g3
NtRp443
(dp444
g29
S'kGenericDesktopDPadLeft'
p445
sg19
Nsg28
S'0x92'
p446
sg13
Nsg41
S'uint16'
p447
sg12
Nsbag1
(g36
g3
NtRp448
(dp449
g29
S'kGenericDesktopDPadRight'
p450
sg19
Nsg28
S'0x93'
p451
sg13
Nsg41
S'uint16'
p452
sg12
Nsbag1
(g36
g3
NtRp453
(dp454
g29
S'kGenericDesktopSystemDock'
p455
sg19
Nsg28
S'0xa0'
p456
sg13
Nsg41
S'uint16'
p457
sg12
Nsbag1
(g36
g3
NtRp458
(dp459
g29
S'kGenericDesktopSystemUndock'
p460
sg19
Nsg28
S'0xa1'
p461
sg13
Nsg41
S'uint16'
p462
sg12
Nsbag1
(g36
g3
NtRp463
(dp464
g29
S'kGenericDesktopSystemSetup'
p465
sg19
Nsg28
S'0xa2'
p466
sg13
Nsg41
S'uint16'
p467
sg12
Nsbag1
(g36
g3
NtRp468
(dp469
g29
S'kGenericDesktopSystemBreak'
p470
sg19
Nsg28
S'0xa3'
p471
sg13
Nsg41
S'uint16'
p472
sg12
Nsbag1
(g36
g3
NtRp473
(dp474
g29
S'kGenericDesktopSystemDebuggerBreak'
p475
sg19
Nsg28
S'0xa4'
p476
sg13
Nsg41
S'uint16'
p477
sg12
Nsbag1
(g36
g3
NtRp478
(dp479
g29
S'kGenericDesktopApplicationBreak'
p480
sg19
Nsg28
S'0xa5'
p481
sg13
Nsg41
S'uint16'
p482
sg12
Nsbag1
(g36
g3
NtRp483
(dp484
g29
S'kGenericDesktopApplicationDebuggerBreak'
p485
sg19
Nsg28
S'0xa6'
p486
sg13
Nsg41
S'uint16'
p487
sg12
Nsbag1
(g36
g3
NtRp488
(dp489
g29
S'kGenericDesktopSystemSpeakerMute'
p490
sg19
Nsg28
S'0xa7'
p491
sg13
Nsg41
S'uint16'
p492
sg12
Nsbag1
(g36
g3
NtRp493
(dp494
g29
S'kGenericDesktopSystemHibernate'
p495
sg19
Nsg28
S'0xa8'
p496
sg13
Nsg41
S'uint16'
p497
sg12
Nsbag1
(g36
g3
NtRp498
(dp499
g29
S'kGenericDesktopSystemDisplayInvert'
p500
sg19
Nsg28
S'0xb0'
p501
sg13
Nsg41
S'uint16'
p502
sg12
Nsbag1
(g36
g3
NtRp503
(dp504
g29
S'kGenericDesktopSystemDisplayInternal'
p505
sg19
Nsg28
S'0xb1'
p506
sg13
Nsg41
S'uint16'
p507
sg12
Nsbag1
(g36
g3
NtRp508
(dp509
g29
S'kGenericDesktopSystemDisplayExternal'
p510
sg19
Nsg28
S'0xb2'
p511
sg13
Nsg41
S'uint16'
p512
sg12
Nsbag1
(g36
g3
NtRp513
(dp514
g29
S'kGenericDesktopSystemDisplayBoth'
p515
sg19
Nsg28
S'0xb3'
p516
sg13
Nsg41
S'uint16'
p517
sg12
Nsbag1
(g36
g3
NtRp518
(dp519
g29
S'kGenericDesktopSystemDisplayDual'
p520
sg19
Nsg28
S'0xb4'
p521
sg13
Nsg41
S'uint16'
p522
sg12
Nsbag1
(g36
g3
NtRp523
(dp524
g29
S'kGenericDesktopSystemDisplayToggle'
p525
sg19
Nsg28
S'0xb5'
p526
sg13
Nsg41
S'uint16'
p527
sg12
Nsbag1
(g36
g3
NtRp528
(dp529
g29
S'kGenericDesktopSystemDisplaySwap'
p530
sg19
Nsg28
S'0xb6'
p531
sg13
Nsg41
S'uint16'
p532
sg12
Nsbag1
(cmojom.parse.ast
Struct
p533
g3
NtRp534
(dp535
S'body'
p536
g1
(cmojom.parse.ast
StructBody
p537
g3
NtRp538
(dp539
g10
(lp540
g1
(cmojom.parse.ast
StructField
p541
g3
NtRp542
(dp543
S'ordinal'
p544
NsS'default_value'
p545
Nsg29
S'usage'
p546
sg19
Nsg13
Nsg41
S'uint16'
p547
sg12
Nsbag1
(g541
g3
NtRp548
(dp549
g544
Nsg545
Nsg29
S'usage_page'
p550
sg19
Nsg13
Nsg41
S'uint16'
p551
sg12
Nsbasg12
Nsg13
Nsbsg19
Nsg12
Nsg29
S'HidUsageAndPage'
p552
sg13
Nsbag1
(g533
g3
NtRp553
(dp554
g536
g1
(g537
g3
NtRp555
(dp556
g10
(lp557
g1
(g541
g3
NtRp558
(dp559
g544
Nsg545
Nsg29
S'usage'
p560
sg19
Nsg13
Nsg41
S'HidUsageAndPage'
p561
sg12
Nsbag1
(g541
g3
NtRp562
(dp563
g544
Nsg545
Nsg29
S'report_ids'
p564
sg19
Nsg13
Nsg41
S'int32[]'
p565
sg12
Nsbasg12
Nsg13
Nsbsg19
Nsg12
Nsg29
S'HidCollectionInfo'
p566
sg13
Nsbag1
(g533
g3
NtRp567
(dp568
g536
g1
(g537
g3
NtRp569
(dp570
g10
(lp571
g1
(g541
g3
NtRp572
(dp573
g544
Nsg545
Nsg29
S'guid'
p574
sg19
Nsg13
Nsg41
S'string'
p575
sg12
Nsbag1
(g541
g3
NtRp576
(dp577
g544
Nsg545
Nsg29
S'vendor_id'
p578
sg19
Nsg13
Nsg41
S'uint16'
p579
sg12
Nsbag1
(g541
g3
NtRp580
(dp581
g544
Nsg545
Nsg29
S'product_id'
p582
sg19
Nsg13
Nsg41
S'uint16'
p583
sg12
Nsbag1
(g541
g3
NtRp584
(dp585
g544
Nsg545
Nsg29
S'product_name'
p586
sg19
Nsg13
Nsg41
S'string'
p587
sg12
Nsbag1
(g541
g3
NtRp588
(dp589
g544
Nsg545
Nsg29
S'serial_number'
p590
sg19
Nsg13
Nsg41
S'string'
p591
sg12
Nsbag1
(g541
g3
NtRp592
(dp593
g544
Nsg545
Nsg29
S'bus_type'
p594
sg19
Nsg13
Nsg41
S'HidBusType'
p595
sg12
Nsbag1
(g541
g3
NtRp596
(dp597
g544
Nsg545
Nsg29
S'report_descriptor'
p598
sg19
Nsg13
Nsg41
S'uint8[]'
p599
sg12
Nsbag1
(g541
g3
NtRp600
(dp601
g544
Nsg545
Nsg29
S'collections'
p602
sg19
Nsg13
Nsg41
S'HidCollectionInfo[]'
p603
sg12
Nsbag1
(g541
g3
NtRp604
(dp605
g544
Nsg545
Nsg29
S'has_report_id'
p606
sg19
Nsg13
Nsg41
S'bool'
p607
sg12
Nsbag1
(g541
g3
NtRp608
(dp609
g544
Nsg545
Nsg29
S'max_input_report_size'
p610
sg19
Nsg13
Nsg41
S'uint64'
p611
sg12
Nsbag1
(g541
g3
NtRp612
(dp613
g544
Nsg545
Nsg29
S'max_output_report_size'
p614
sg19
Nsg13
Nsg41
S'uint64'
p615
sg12
Nsbag1
(g541
g3
NtRp616
(dp617
g544
Nsg545
Nsg29
S'max_feature_report_size'
p618
sg19
Nsg13
Nsg41
S'uint64'
p619
sg12
Nsbag1
(g541
g3
NtRp620
(dp621
g544
Nsg545
Nsg29
S'device_node'
p622
sg19
Nsg13
Nsg41
S'string'
p623
sg12
Nsbasg12
Nsg13
Nsbsg19
Nsg12
Nsg29
S'HidDeviceInfo'
p624
sg13
Nsbag1
(cmojom.parse.ast
Interface
p625
g3
NtRp626
(dp627
g536
g1
(cmojom.parse.ast
InterfaceBody
p628
g3
NtRp629
(dp630
g10
(lp631
g1
(cmojom.parse.ast
Method
p632
g3
NtRp633
(dp634
g544
Nsg29
S'DeviceAdded'
p635
sS'parameter_list'
p636
g1
(cmojom.parse.ast
ParameterList
p637
g3
NtRp638
(dp639
g10
(lp640
g1
(cmojom.parse.ast
Parameter
p641
g3
NtRp642
(dp643
g544
Nsg29
S'device_info'
p644
sg19
Nsg13
g31
sg41
S'HidDeviceInfo'
p645
sg12
I150
sbasg12
I150
sg13
g31
sbsg19
Nsg13
Nsg12
NsS'response_parameter_list'
p646
Nsbag1
(g632
g3
NtRp647
(dp648
g544
Nsg29
S'DeviceRemoved'
p649
sg636
g1
(g637
g3
NtRp650
(dp651
g10
(lp652
g1
(g641
g3
NtRp653
(dp654
g544
Nsg29
S'device_info'
p655
sg19
Nsg13
g31
sg41
S'HidDeviceInfo'
p656
sg12
I154
sbasg12
I154
sg13
g31
sbsg19
Nsg13
Nsg12
Nsg646
Nsbasg12
Nsg13
Nsbsg19
Nsg12
Nsg29
S'HidManagerClient'
p657
sg13
Nsbag1
(g625
g3
NtRp658
(dp659
g536
g1
(g628
g3
NtRp660
(dp661
g10
(lp662
g1
(g632
g3
NtRp663
(dp664
g544
Nsg29
S'GetDevicesAndSetClient'
p665
sg636
g1
(g637
g3
NtRp666
(dp667
g10
(lp668
g1
(g641
g3
NtRp669
(dp670
g544
Nsg29
S'client'
p671
sg19
Nsg13
g31
sg41
S'asso<HidManagerClient>'
p672
sg12
I161
sbasg12
I161
sg13
g31
sbsg19
Nsg13
Nsg12
Nsg646
g1
(g637
g3
NtRp673
(dp674
g10
(lp675
g1
(g641
g3
NtRp676
(dp677
g544
Nsg29
S'devices'
p678
sg19
Nsg13
g31
sg41
S'HidDeviceInfo[]'
p679
sg12
I162
sbasg12
I162
sg13
g31
sbsbag1
(g632
g3
NtRp680
(dp681
g544
Nsg29
S'GetDevices'
p682
sg636
g1
(g637
g3
NtRp683
(dp684
g10
(lp685
sg12
Nsg13
Nsbsg19
Nsg13
Nsg12
Nsg646
g1
(g637
g3
NtRp686
(dp687
g10
(lp688
g1
(g641
g3
NtRp689
(dp690
g544
Nsg29
S'devices'
p691
sg19
Nsg13
g31
sg41
S'HidDeviceInfo[]'
p692
sg12
I165
sbasg12
I165
sg13
g31
sbsbag1
(g632
g3
NtRp693
(dp694
g544
Nsg29
S'Connect'
p695
sg636
g1
(g637
g3
NtRp696
(dp697
g10
(lp698
g1
(g641
g3
NtRp699
(dp700
g544
Nsg29
S'device_guid'
p701
sg19
Nsg13
g31
sg41
S'string'
p702
sg12
I169
sbasg12
I169
sg13
g31
sbsg19
Nsg13
Nsg12
Nsg646
g1
(g637
g3
NtRp703
(dp704
g10
(lp705
g1
(g641
g3
NtRp706
(dp707
g544
Nsg29
S'connection'
p708
sg19
Nsg13
g31
sg41
S'HidConnection?'
p709
sg12
I169
sbasg12
I169
sg13
g31
sbsbasg12
Nsg13
Nsbsg19
Nsg12
Nsg29
S'HidManager'
p710
sg13
Nsbag1
(g625
g3
NtRp711
(dp712
g536
g1
(g628
g3
NtRp713
(dp714
g10
(lp715
g1
(g632
g3
NtRp716
(dp717
g544
Nsg29
S'Read'
p718
sg636
g1
(g637
g3
NtRp719
(dp720
g10
(lp721
sg12
Nsg13
Nsbsg19
Nsg13
Nsg12
Nsg646
g1
(g637
g3
NtRp722
(dp723
g10
(lp724
g1
(g641
g3
NtRp725
(dp726
g544
Nsg29
S'success'
p727
sg19
Nsg13
g31
sg41
S'bool'
p728
sg12
I174
sbag1
(g641
g3
NtRp729
(dp730
g544
Nsg29
S'report_id'
p731
sg19
Nsg13
g31
sg41
S'uint8'
p732
sg12
I174
sbag1
(g641
g3
NtRp733
(dp734
g544
Nsg29
S'buffer'
p735
sg19
Nsg13
g31
sg41
S'uint8[]?'
p736
sg12
I174
sbasg12
I174
sg13
g31
sbsbag1
(g632
g3
NtRp737
(dp738
g544
Nsg29
S'Write'
p739
sg636
g1
(g637
g3
NtRp740
(dp741
g10
(lp742
g1
(g641
g3
NtRp743
(dp744
g544
Nsg29
S'report_id'
p745
sg19
Nsg13
g31
sg41
S'uint8'
p746
sg12
I177
sbag1
(g641
g3
NtRp747
(dp748
g544
Nsg29
S'buffer'
p749
sg19
Nsg13
g31
sg41
S'uint8[]'
p750
sg12
I177
sbasg12
I177
sg13
g31
sbsg19
Nsg13
Nsg12
Nsg646
g1
(g637
g3
NtRp751
(dp752
g10
(lp753
g1
(g641
g3
NtRp754
(dp755
g544
Nsg29
S'success'
p756
sg19
Nsg13
g31
sg41
S'bool'
p757
sg12
I177
sbasg12
I177
sg13
g31
sbsbag1
(g632
g3
NtRp758
(dp759
g544
Nsg29
S'GetFeatureReport'
p760
sg636
g1
(g637
g3
NtRp761
(dp762
g10
(lp763
g1
(g641
g3
NtRp764
(dp765
g544
Nsg29
S'report_id'
p766
sg19
Nsg13
g31
sg41
S'uint8'
p767
sg12
I182
sbasg12
I182
sg13
g31
sbsg19
Nsg13
Nsg12
Nsg646
g1
(g637
g3
NtRp768
(dp769
g10
(lp770
g1
(g641
g3
NtRp771
(dp772
g544
Nsg29
S'success'
p773
sg19
Nsg13
g31
sg41
S'bool'
p774
sg12
I182
sbag1
(g641
g3
NtRp775
(dp776
g544
Nsg29
S'buffer'
p777
sg19
Nsg13
g31
sg41
S'uint8[]?'
p778
sg12
I182
sbasg12
I182
sg13
g31
sbsbag1
(g632
g3
NtRp779
(dp780
g544
Nsg29
S'SendFeatureReport'
p781
sg636
g1
(g637
g3
NtRp782
(dp783
g10
(lp784
g1
(g641
g3
NtRp785
(dp786
g544
Nsg29
S'report_id'
p787
sg19
Nsg13
g31
sg41
S'uint8'
p788
sg12
I185
sbag1
(g641
g3
NtRp789
(dp790
g544
Nsg29
S'buffer'
p791
sg19
Nsg13
g31
sg41
S'uint8[]'
p792
sg12
I185
sbasg12
I185
sg13
g31
sbsg19
Nsg13
Nsg12
Nsg646
g1
(g637
g3
NtRp793
(dp794
g10
(lp795
g1
(g641
g3
NtRp796
(dp797
g544
Nsg29
S'success'
p798
sg19
Nsg13
g31
sg41
S'bool'
p799
sg12
I185
sbasg12
I185
sg13
g31
sbsbasg12
Nsg13
Nsbsg19
Nsg12
Nsg29
S'HidConnection'
p800
sg13
Nsbasg12
NsS'module'
p801
g1
(cmojom.parse.ast
Module
p802
g3
NtRp803
(dp804
S'mojom_namespace'
p805
(S'IDENTIFIER'
p806
S'device.mojom'
tp807
sg12
I5
sg19
Nsg13
g31
sbsg13
Nsb.