ccopy_reg
_reconstructor
p1
(cmojom.parse.ast
Mojom
p2
c__builtin__
object
p3
NtRp4
(dp5
S'import_list'
p6
g1
(cmojom.parse.ast
ImportList
p7
g3
NtRp8
(dp9
S'items'
p10
(lp11
sS'lineno'
p12
NsS'filename'
p13
NsbsS'definition_list'
p14
(lp15
g1
(cmojom.parse.ast
Enum
p16
g3
NtRp17
(dp18
S'attribute_list'
p19
NsS'enum_value_list'
p20
g1
(cmojom.parse.ast
EnumValueList
p21
g3
NtRp22
(dp23
g10
(lp24
g1
(cmojom.parse.ast
EnumValue
p25
g3
NtRp26
(dp27
g19
NsS'value'
p28
S'1'
sg12
I11
sS'mojom_name'
p29
S'FIRST'
p30
sg13
S'../../services/device/public/mojom/sensor.mojom'
p31
sbag1
(g25
g3
NtRp32
(dp33
g19
Nsg28
(S'IDENTIFIER'
p34
S'FIRST'
tp35
sg12
I12
sg29
S'AMBIENT_LIGHT'
p36
sg13
g31
sbag1
(g25
g3
NtRp37
(dp38
g19
Nsg28
Nsg12
I13
sg29
S'PROXIMITY'
p39
sg13
g31
sbag1
(g25
g3
NtRp40
(dp41
g19
Nsg28
Nsg12
I14
sg29
S'ACCELEROMETER'
p42
sg13
g31
sbag1
(g25
g3
NtRp43
(dp44
g19
Nsg28
Nsg12
I15
sg29
S'LINEAR_ACCELERATION'
p45
sg13
g31
sbag1
(g25
g3
NtRp46
(dp47
g19
Nsg28
Nsg12
I16
sg29
S'GYROSCOPE'
p48
sg13
g31
sbag1
(g25
g3
NtRp49
(dp50
g19
Nsg28
Nsg12
I17
sg29
S'MAGNETOMETER'
p51
sg13
g31
sbag1
(g25
g3
NtRp52
(dp53
g19
Nsg28
Nsg12
I18
sg29
S'PRESSURE'
p54
sg13
g31
sbag1
(g25
g3
NtRp55
(dp56
g19
Nsg28
Nsg12
I20
sg29
S'ABSOLUTE_ORIENTATION_EULER_ANGLES'
p57
sg13
g31
sbag1
(g25
g3
NtRp58
(dp59
g19
Nsg28
Nsg12
I22
sg29
S'ABSOLUTE_ORIENTATION_QUATERNION'
p60
sg13
g31
sbag1
(g25
g3
NtRp61
(dp62
g19
Nsg28
Nsg12
I24
sg29
S'RELATIVE_ORIENTATION_EULER_ANGLES'
p63
sg13
g31
sbag1
(g25
g3
NtRp64
(dp65
g19
Nsg28
Nsg12
I26
sg29
S'RELATIVE_ORIENTATION_QUATERNION'
p66
sg13
g31
sbag1
(g25
g3
NtRp67
(dp68
g19
Nsg28
(g34
S'RELATIVE_ORIENTATION_QUATERNION'
tp69
sg12
I27
sg29
S'LAST'
p70
sg13
g31
sbasg12
I11
sg13
g31
sbsg12
I10
sg29
S'SensorType'
p71
sg13
g31
sbag1
(g16
g3
NtRp72
(dp73
g19
Nsg20
g1
(g21
g3
NtRp74
(dp75
g10
(lp76
g1
(g25
g3
NtRp77
(dp78
g19
Nsg28
Nsg12
I38
sg29
S'ON_CHANGE'
p79
sg13
g31
sbag1
(g25
g3
NtRp80
(dp81
g19
Nsg28
Nsg12
I39
sg29
S'CONTINUOUS'
p82
sg13
g31
sbasg12
I38
sg13
g31
sbsg12
I37
sg29
S'ReportingMode'
p83
sg13
g31
sbag1
(cmojom.parse.ast
Struct
p84
g3
NtRp85
(dp86
S'body'
p87
g1
(cmojom.parse.ast
StructBody
p88
g3
NtRp89
(dp90
g10
(lp91
g1
(cmojom.parse.ast
StructField
p92
g3
NtRp93
(dp94
S'ordinal'
p95
NsS'default_value'
p96
Nsg29
S'frequency'
p97
sg19
Nsg13
NsS'typename'
p98
S'double'
p99
sg12
Nsbasg12
Nsg13
Nsbsg19
Nsg12
Nsg29
S'SensorConfiguration'
p100
sg13
Nsbag1
(cmojom.parse.ast
Interface
p101
g3
NtRp102
(dp103
g87
g1
(cmojom.parse.ast
InterfaceBody
p104
g3
NtRp105
(dp106
g10
(lp107
g1
(cmojom.parse.ast
Method
p108
g3
NtRp109
(dp110
g95
Nsg29
S'GetDefaultConfiguration'
p111
sS'parameter_list'
p112
g1
(cmojom.parse.ast
ParameterList
p113
g3
NtRp114
(dp115
g10
(lp116
sg12
Nsg13
Nsbsg19
Nsg13
Nsg12
NsS'response_parameter_list'
p117
g1
(g113
g3
NtRp118
(dp119
g10
(lp120
g1
(cmojom.parse.ast
Parameter
p121
g3
NtRp122
(dp123
g95
Nsg29
S'configuration'
p124
sg19
Nsg13
g31
sg98
S'SensorConfiguration'
p125
sg12
I52
sbasg12
I52
sg13
g31
sbsbag1
(g108
g3
NtRp126
(dp127
g95
Nsg29
S'AddConfiguration'
p128
sg112
g1
(g113
g3
NtRp129
(dp130
g10
(lp131
g1
(g121
g3
NtRp132
(dp133
g95
Nsg29
S'configuration'
p134
sg19
Nsg13
g31
sg98
S'SensorConfiguration'
p135
sg12
I63
sbasg12
I63
sg13
g31
sbsg19
Nsg13
Nsg12
Nsg117
g1
(g113
g3
NtRp136
(dp137
g10
(lp138
g1
(g121
g3
NtRp139
(dp140
g95
Nsg29
S'success'
p141
sg19
Nsg13
g31
sg98
S'bool'
p142
sg12
I63
sbasg12
I63
sg13
g31
sbsbag1
(g108
g3
NtRp143
(dp144
g95
Nsg29
S'RemoveConfiguration'
p145
sg112
g1
(g113
g3
NtRp146
(dp147
g10
(lp148
g1
(g121
g3
NtRp149
(dp150
g95
Nsg29
S'configuration'
p151
sg19
Nsg13
g31
sg98
S'SensorConfiguration'
p152
sg12
I73
sbasg12
I73
sg13
g31
sbsg19
Nsg13
Nsg12
Nsg117
Nsbag1
(g108
g3
NtRp153
(dp154
g95
Nsg29
S'Suspend'
p155
sg112
g1
(g113
g3
NtRp156
(dp157
g10
(lp158
sg12
Nsg13
Nsbsg19
Nsg13
Nsg12
Nsg117
Nsbag1
(g108
g3
NtRp159
(dp160
g95
Nsg29
S'Resume'
p161
sg112
g1
(g113
g3
NtRp162
(dp163
g10
(lp164
sg12
Nsg13
Nsbsg19
Nsg13
Nsg12
Nsg117
Nsbag1
(g108
g3
NtRp165
(dp166
g95
Nsg29
S'ConfigureReadingChangeNotifications'
p167
sg112
g1
(g113
g3
NtRp168
(dp169
g10
(lp170
g1
(g121
g3
NtRp171
(dp172
g95
Nsg29
S'enabled'
p173
sg19
Nsg13
g31
sg98
S'bool'
p174
sg12
I86
sbasg12
I86
sg13
g31
sbsg19
Nsg13
Nsg12
Nsg117
Nsbasg12
Nsg13
Nsbsg19
Nsg12
Nsg29
S'Sensor'
p175
sg13
Nsbag1
(g101
g3
NtRp176
(dp177
g87
g1
(g104
g3
NtRp178
(dp179
g10
(lp180
g1
(g108
g3
NtRp181
(dp182
g95
Nsg29
S'RaiseError'
p183
sg112
g1
(g113
g3
NtRp184
(dp185
g10
(lp186
sg12
Nsg13
Nsbsg19
Nsg13
Nsg12
Nsg117
Nsbag1
(g108
g3
NtRp187
(dp188
g95
Nsg29
S'SensorReadingChanged'
p189
sg112
g1
(g113
g3
NtRp190
(dp191
g10
(lp192
sg12
Nsg13
Nsbsg19
Nsg13
Nsg12
Nsg117
Nsbasg12
Nsg13
Nsbsg19
Nsg12
Nsg29
S'SensorClient'
p193
sg13
Nsbasg12
NsS'module'
p194
g1
(cmojom.parse.ast
Module
p195
g3
NtRp196
(dp197
S'mojom_namespace'
p198
(g34
S'device.mojom'
tp199
sg12
I5
sg19
Nsg13
g31
sbsg13
Nsb.