ccopy_reg
_reconstructor
p1
(cmojom.parse.ast
Mojom
p2
c__builtin__
object
p3
NtRp4
(dp5
S'import_list'
p6
g1
(cmojom.parse.ast
ImportList
p7
g3
NtRp8
(dp9
S'items'
p10
(lp11
sS'lineno'
p12
NsS'filename'
p13
NsbsS'definition_list'
p14
(lp15
g1
(cmojom.parse.ast
Struct
p16
g3
NtRp17
(dp18
S'body'
p19
g1
(cmojom.parse.ast
StructBody
p20
g3
NtRp21
(dp22
g10
(lp23
g1
(cmojom.parse.ast
StructField
p24
g3
NtRp25
(dp26
S'ordinal'
p27
NsS'default_value'
p28
NsS'mojom_name'
p29
S'path'
p30
sS'attribute_list'
p31
Nsg13
NsS'typename'
p32
S'string'
p33
sg12
Nsbag1
(g24
g3
NtRp34
(dp35
g27
Nsg28
Nsg29
S'vendor_id'
p36
sg31
Nsg13
Nsg32
S'uint16'
p37
sg12
Nsbag1
(g24
g3
NtRp38
(dp39
g27
Nsg28
S'false'
p40
sg29
S'has_vendor_id'
p41
sg31
Nsg13
Nsg32
S'bool'
p42
sg12
Nsbag1
(g24
g3
NtRp43
(dp44
g27
Nsg28
Nsg29
S'product_id'
p45
sg31
Nsg13
Nsg32
S'uint16'
p46
sg12
Nsbag1
(g24
g3
NtRp47
(dp48
g27
Nsg28
S'false'
p49
sg29
S'has_product_id'
p50
sg31
Nsg13
Nsg32
S'bool'
p51
sg12
Nsbag1
(g24
g3
NtRp52
(dp53
g27
Nsg28
Nsg29
S'display_name'
p54
sg31
Nsg13
Nsg32
S'string?'
p55
sg12
Nsbasg12
Nsg13
Nsbsg31
Nsg12
Nsg29
S'SerialDeviceInfo'
p56
sg13
Nsbag1
(cmojom.parse.ast
Enum
p57
g3
NtRp58
(dp59
g31
NsS'enum_value_list'
p60
g1
(cmojom.parse.ast
EnumValueList
p61
g3
NtRp62
(dp63
g10
(lp64
g1
(cmojom.parse.ast
EnumValue
p65
g3
NtRp66
(dp67
g31
NsS'value'
p68
Nsg12
I17
sg29
S'NONE'
p69
sg13
S'../../services/device/public/mojom/serial.mojom'
p70
sbag1
(g65
g3
NtRp71
(dp72
g31
Nsg68
Nsg12
I18
sg29
S'DISCONNECTED'
p73
sg13
g70
sbag1
(g65
g3
NtRp74
(dp75
g31
Nsg68
Nsg12
I19
sg29
S'PENDING'
p76
sg13
g70
sbag1
(g65
g3
NtRp77
(dp78
g31
Nsg68
Nsg12
I20
sg29
S'TIMEOUT'
p79
sg13
g70
sbag1
(g65
g3
NtRp80
(dp81
g31
Nsg68
Nsg12
I21
sg29
S'SYSTEM_ERROR'
p82
sg13
g70
sbasg12
I17
sg13
g70
sbsg12
I16
sg29
S'SerialSendError'
p83
sg13
g70
sbag1
(g57
g3
NtRp84
(dp85
g31
Nsg60
g1
(g61
g3
NtRp86
(dp87
g10
(lp88
g1
(g65
g3
NtRp89
(dp90
g31
Nsg68
Nsg12
I25
sg29
S'NONE'
p91
sg13
g70
sbag1
(g65
g3
NtRp92
(dp93
g31
Nsg68
Nsg12
I26
sg29
S'DISCONNECTED'
p94
sg13
g70
sbag1
(g65
g3
NtRp95
(dp96
g31
Nsg68
Nsg12
I27
sg29
S'TIMEOUT'
p97
sg13
g70
sbag1
(g65
g3
NtRp98
(dp99
g31
Nsg68
Nsg12
I28
sg29
S'DEVICE_LOST'
p100
sg13
g70
sbag1
(g65
g3
NtRp101
(dp102
g31
Nsg68
Nsg12
I29
sg29
S'BREAK'
p103
sg13
g70
sbag1
(g65
g3
NtRp104
(dp105
g31
Nsg68
Nsg12
I30
sg29
S'FRAME_ERROR'
p106
sg13
g70
sbag1
(g65
g3
NtRp107
(dp108
g31
Nsg68
Nsg12
I31
sg29
S'OVERRUN'
p109
sg13
g70
sbag1
(g65
g3
NtRp110
(dp111
g31
Nsg68
Nsg12
I32
sg29
S'BUFFER_OVERFLOW'
p112
sg13
g70
sbag1
(g65
g3
NtRp113
(dp114
g31
Nsg68
Nsg12
I33
sg29
S'PARITY_ERROR'
p115
sg13
g70
sbag1
(g65
g3
NtRp116
(dp117
g31
Nsg68
Nsg12
I34
sg29
S'SYSTEM_ERROR'
p118
sg13
g70
sbasg12
I25
sg13
g70
sbsg12
I24
sg29
S'SerialReceiveError'
p119
sg13
g70
sbag1
(g57
g3
NtRp120
(dp121
g31
Nsg60
g1
(g61
g3
NtRp122
(dp123
g10
(lp124
g1
(g65
g3
NtRp125
(dp126
g31
Nsg68
Nsg12
I38
sg29
S'NONE'
p127
sg13
g70
sbag1
(g65
g3
NtRp128
(dp129
g31
Nsg68
Nsg12
I39
sg29
S'SEVEN'
p130
sg13
g70
sbag1
(g65
g3
NtRp131
(dp132
g31
Nsg68
Nsg12
I40
sg29
S'EIGHT'
p133
sg13
g70
sbasg12
I38
sg13
g70
sbsg12
I37
sg29
S'SerialDataBits'
p134
sg13
g70
sbag1
(g57
g3
NtRp135
(dp136
g31
Nsg60
g1
(g61
g3
NtRp137
(dp138
g10
(lp139
g1
(g65
g3
NtRp140
(dp141
g31
Nsg68
Nsg12
I44
sg29
S'NONE'
p142
sg13
g70
sbag1
(g65
g3
NtRp143
(dp144
g31
Nsg68
Nsg12
I45
sg29
S'NO_PARITY'
p145
sg13
g70
sbag1
(g65
g3
NtRp146
(dp147
g31
Nsg68
Nsg12
I46
sg29
S'ODD'
p148
sg13
g70
sbag1
(g65
g3
NtRp149
(dp150
g31
Nsg68
Nsg12
I47
sg29
S'EVEN'
p151
sg13
g70
sbasg12
I44
sg13
g70
sbsg12
I43
sg29
S'SerialParityBit'
p152
sg13
g70
sbag1
(g57
g3
NtRp153
(dp154
g31
Nsg60
g1
(g61
g3
NtRp155
(dp156
g10
(lp157
g1
(g65
g3
NtRp158
(dp159
g31
Nsg68
Nsg12
I51
sg29
S'NONE'
p160
sg13
g70
sbag1
(g65
g3
NtRp161
(dp162
g31
Nsg68
Nsg12
I52
sg29
S'ONE'
p163
sg13
g70
sbag1
(g65
g3
NtRp164
(dp165
g31
Nsg68
Nsg12
I53
sg29
S'TWO'
p166
sg13
g70
sbasg12
I51
sg13
g70
sbsg12
I50
sg29
S'SerialStopBits'
p167
sg13
g70
sbag1
(g16
g3
NtRp168
(dp169
g19
g1
(g20
g3
NtRp170
(dp171
g10
(lp172
g1
(g24
g3
NtRp173
(dp174
g27
Nsg28
S'0'
sg29
S'bitrate'
p175
sg31
Nsg13
Nsg32
S'uint32'
p176
sg12
Nsbag1
(g24
g3
NtRp177
(dp178
g27
Nsg28
(S'IDENTIFIER'
p179
S'NONE'
tp180
sg29
S'data_bits'
p181
sg31
Nsg13
Nsg32
S'SerialDataBits'
p182
sg12
Nsbag1
(g24
g3
NtRp183
(dp184
g27
Nsg28
(g179
S'NONE'
tp185
sg29
S'parity_bit'
p186
sg31
Nsg13
Nsg32
S'SerialParityBit'
p187
sg12
Nsbag1
(g24
g3
NtRp188
(dp189
g27
Nsg28
(g179
S'NONE'
tp190
sg29
S'stop_bits'
p191
sg31
Nsg13
Nsg32
S'SerialStopBits'
p192
sg12
Nsbag1
(g24
g3
NtRp193
(dp194
g27
Nsg28
Nsg29
S'cts_flow_control'
p195
sg31
Nsg13
Nsg32
S'bool'
p196
sg12
Nsbag1
(g24
g3
NtRp197
(dp198
g27
Nsg28
S'false'
p199
sg29
S'has_cts_flow_control'
p200
sg31
Nsg13
Nsg32
S'bool'
p201
sg12
Nsbasg12
Nsg13
Nsbsg31
Nsg12
Nsg29
S'SerialConnectionOptions'
p202
sg13
Nsbag1
(g16
g3
NtRp203
(dp204
g19
g1
(g20
g3
NtRp205
(dp206
g10
(lp207
g1
(g24
g3
NtRp208
(dp209
g27
Nsg28
S'0'
sg29
S'bitrate'
p210
sg31
Nsg13
Nsg32
S'uint32'
p211
sg12
Nsbag1
(g24
g3
NtRp212
(dp213
g27
Nsg28
(g179
S'NONE'
tp214
sg29
S'data_bits'
p215
sg31
Nsg13
Nsg32
S'SerialDataBits'
p216
sg12
Nsbag1
(g24
g3
NtRp217
(dp218
g27
Nsg28
(g179
S'NONE'
tp219
sg29
S'parity_bit'
p220
sg31
Nsg13
Nsg32
S'SerialParityBit'
p221
sg12
Nsbag1
(g24
g3
NtRp222
(dp223
g27
Nsg28
(g179
S'NONE'
tp224
sg29
S'stop_bits'
p225
sg31
Nsg13
Nsg32
S'SerialStopBits'
p226
sg12
Nsbag1
(g24
g3
NtRp227
(dp228
g27
Nsg28
Nsg29
S'cts_flow_control'
p229
sg31
Nsg13
Nsg32
S'bool'
p230
sg12
Nsbasg12
Nsg13
Nsbsg31
Nsg12
Nsg29
S'SerialConnectionInfo'
p231
sg13
Nsbag1
(g16
g3
NtRp232
(dp233
g19
g1
(g20
g3
NtRp234
(dp235
g10
(lp236
g1
(g24
g3
NtRp237
(dp238
g27
Nsg28
Nsg29
S'dtr'
p239
sg31
Nsg13
Nsg32
S'bool'
p240
sg12
Nsbag1
(g24
g3
NtRp241
(dp242
g27
Nsg28
S'false'
p243
sg29
S'has_dtr'
p244
sg31
Nsg13
Nsg32
S'bool'
p245
sg12
Nsbag1
(g24
g3
NtRp246
(dp247
g27
Nsg28
Nsg29
S'rts'
p248
sg31
Nsg13
Nsg32
S'bool'
p249
sg12
Nsbag1
(g24
g3
NtRp250
(dp251
g27
Nsg28
S'false'
p252
sg29
S'has_rts'
p253
sg31
Nsg13
Nsg32
S'bool'
p254
sg12
Nsbasg12
Nsg13
Nsbsg31
Nsg12
Nsg29
S'SerialHostControlSignals'
p255
sg13
Nsbag1
(g16
g3
NtRp256
(dp257
g19
g1
(g20
g3
NtRp258
(dp259
g10
(lp260
g1
(g24
g3
NtRp261
(dp262
g27
Nsg28
Nsg29
S'dcd'
p263
sg31
Nsg13
Nsg32
S'bool'
p264
sg12
Nsbag1
(g24
g3
NtRp265
(dp266
g27
Nsg28
Nsg29
S'cts'
p267
sg31
Nsg13
Nsg32
S'bool'
p268
sg12
Nsbag1
(g24
g3
NtRp269
(dp270
g27
Nsg28
Nsg29
S'ri'
p271
sg31
Nsg13
Nsg32
S'bool'
p272
sg12
Nsbag1
(g24
g3
NtRp273
(dp274
g27
Nsg28
Nsg29
S'dsr'
p275
sg31
Nsg13
Nsg32
S'bool'
p276
sg12
Nsbasg12
Nsg13
Nsbsg31
Nsg12
Nsg29
S'SerialDeviceControlSignals'
p277
sg13
Nsbag1
(cmojom.parse.ast
Interface
p278
g3
NtRp279
(dp280
g19
g1
(cmojom.parse.ast
InterfaceBody
p281
g3
NtRp282
(dp283
g10
(lp284
g1
(cmojom.parse.ast
Method
p285
g3
NtRp286
(dp287
g27
Nsg29
S'GetDevices'
p288
sS'parameter_list'
p289
g1
(cmojom.parse.ast
ParameterList
p290
g3
NtRp291
(dp292
g10
(lp293
sg12
Nsg13
Nsbsg31
Nsg13
Nsg12
NsS'response_parameter_list'
p294
g1
(g290
g3
NtRp295
(dp296
g10
(lp297
g1
(cmojom.parse.ast
Parameter
p298
g3
NtRp299
(dp300
g27
Nsg29
S'devices'
p301
sg31
Nsg13
g70
sg32
S'SerialDeviceInfo[]'
p302
sg12
I89
sbasg12
I89
sg13
g70
sbsbasg12
Nsg13
Nsbsg31
Nsg12
Nsg29
S'SerialDeviceEnumerator'
p303
sg13
Nsbag1
(g278
g3
NtRp304
(dp305
g19
g1
(g281
g3
NtRp306
(dp307
g10
(lp308
g1
(g285
g3
NtRp309
(dp310
g27
Nsg29
S'Open'
p311
sg289
g1
(g290
g3
NtRp312
(dp313
g10
(lp314
g1
(g298
g3
NtRp315
(dp316
g27
Nsg29
S'port'
p317
sg31
Nsg13
g70
sg32
S'string'
p318
sg12
I95
sbag1
(g298
g3
NtRp319
(dp320
g27
Nsg29
S'options'
p321
sg31
Nsg13
g70
sg32
S'SerialConnectionOptions'
p322
sg12
I95
sbasg12
I95
sg13
g70
sbsg31
Nsg13
Nsg12
Nsg294
g1
(g290
g3
NtRp323
(dp324
g10
(lp325
g1
(g298
g3
NtRp326
(dp327
g27
Nsg29
S'success'
p328
sg31
Nsg13
g70
sg32
S'bool'
p329
sg12
I95
sbasg12
I95
sg13
g70
sbsbag1
(g285
g3
NtRp330
(dp331
g27
Nsg29
S'Read'
p332
sg289
g1
(g290
g3
NtRp333
(dp334
g10
(lp335
g1
(g298
g3
NtRp336
(dp337
g27
Nsg29
S'bytes'
p338
sg31
Nsg13
g70
sg32
S'uint32'
p339
sg12
I102
sbasg12
I102
sg13
g70
sbsg31
Nsg13
Nsg12
Nsg294
g1
(g290
g3
NtRp340
(dp341
g10
(lp342
g1
(g298
g3
NtRp343
(dp344
g27
Nsg29
S'data'
p345
sg31
Nsg13
g70
sg32
S'uint8[]'
p346
sg12
I102
sbag1
(g298
g3
NtRp347
(dp348
g27
Nsg29
S'error'
p349
sg31
Nsg13
g70
sg32
S'SerialReceiveError'
p350
sg12
I102
sbasg12
I102
sg13
g70
sbsbag1
(g285
g3
NtRp351
(dp352
g27
Nsg29
S'Write'
p353
sg289
g1
(g290
g3
NtRp354
(dp355
g10
(lp356
g1
(g298
g3
NtRp357
(dp358
g27
Nsg29
S'data'
p359
sg31
Nsg13
g70
sg32
S'uint8[]'
p360
sg12
I109
sbasg12
I109
sg13
g70
sbsg31
Nsg13
Nsg12
Nsg294
g1
(g290
g3
NtRp361
(dp362
g10
(lp363
g1
(g298
g3
NtRp364
(dp365
g27
Nsg29
S'bytes_written'
p366
sg31
Nsg13
g70
sg32
S'uint32'
p367
sg12
I109
sbag1
(g298
g3
NtRp368
(dp369
g27
Nsg29
S'error'
p370
sg31
Nsg13
g70
sg32
S'SerialSendError'
p371
sg12
I109
sbasg12
I109
sg13
g70
sbsbag1
(g285
g3
NtRp372
(dp373
g27
Nsg29
S'CancelRead'
p374
sg289
g1
(g290
g3
NtRp375
(dp376
g10
(lp377
g1
(g298
g3
NtRp378
(dp379
g27
Nsg29
S'reason'
p380
sg31
Nsg13
g70
sg32
S'SerialReceiveError'
p381
sg12
I112
sbasg12
I112
sg13
g70
sbsg31
Nsg13
Nsg12
Nsg294
Nsbag1
(g285
g3
NtRp382
(dp383
g27
Nsg29
S'CancelWrite'
p384
sg289
g1
(g290
g3
NtRp385
(dp386
g10
(lp387
g1
(g298
g3
NtRp388
(dp389
g27
Nsg29
S'reason'
p390
sg31
Nsg13
g70
sg32
S'SerialSendError'
p391
sg12
I115
sbasg12
I115
sg13
g70
sbsg31
Nsg13
Nsg12
Nsg294
Nsbag1
(g285
g3
NtRp392
(dp393
g27
Nsg29
S'Flush'
p394
sg289
g1
(g290
g3
NtRp395
(dp396
g10
(lp397
sg12
Nsg13
Nsbsg31
Nsg13
Nsg12
Nsg294
g1
(g290
g3
NtRp398
(dp399
g10
(lp400
g1
(g298
g3
NtRp401
(dp402
g27
Nsg29
S'success'
p403
sg31
Nsg13
g70
sg32
S'bool'
p404
sg12
I118
sbasg12
I118
sg13
g70
sbsbag1
(g285
g3
NtRp405
(dp406
g27
Nsg29
S'GetControlSignals'
p407
sg289
g1
(g290
g3
NtRp408
(dp409
g10
(lp410
sg12
Nsg13
Nsbsg31
Nsg13
Nsg12
Nsg294
g1
(g290
g3
NtRp411
(dp412
g10
(lp413
g1
(g298
g3
NtRp414
(dp415
g27
Nsg29
S'signals'
p416
sg31
Nsg13
g70
sg32
S'SerialDeviceControlSignals'
p417
sg12
I121
sbasg12
I121
sg13
g70
sbsbag1
(g285
g3
NtRp418
(dp419
g27
Nsg29
S'SetControlSignals'
p420
sg289
g1
(g290
g3
NtRp421
(dp422
g10
(lp423
g1
(g298
g3
NtRp424
(dp425
g27
Nsg29
S'signals'
p426
sg31
Nsg13
g70
sg32
S'SerialHostControlSignals'
p427
sg12
I124
sbasg12
I124
sg13
g70
sbsg31
Nsg13
Nsg12
Nsg294
g1
(g290
g3
NtRp428
(dp429
g10
(lp430
g1
(g298
g3
NtRp431
(dp432
g27
Nsg29
S'success'
p433
sg31
Nsg13
g70
sg32
S'bool'
p434
sg12
I124
sbasg12
I124
sg13
g70
sbsbag1
(g285
g3
NtRp435
(dp436
g27
Nsg29
S'ConfigurePort'
p437
sg289
g1
(g290
g3
NtRp438
(dp439
g10
(lp440
g1
(g298
g3
NtRp441
(dp442
g27
Nsg29
S'options'
p443
sg31
Nsg13
g70
sg32
S'SerialConnectionOptions'
p444
sg12
I127
sbasg12
I127
sg13
g70
sbsg31
Nsg13
Nsg12
Nsg294
g1
(g290
g3
NtRp445
(dp446
g10
(lp447
g1
(g298
g3
NtRp448
(dp449
g27
Nsg29
S'success'
p450
sg31
Nsg13
g70
sg32
S'bool'
p451
sg12
I127
sbasg12
I127
sg13
g70
sbsbag1
(g285
g3
NtRp452
(dp453
g27
Nsg29
S'GetPortInfo'
p454
sg289
g1
(g290
g3
NtRp455
(dp456
g10
(lp457
sg12
Nsg13
Nsbsg31
Nsg13
Nsg12
Nsg294
g1
(g290
g3
NtRp458
(dp459
g10
(lp460
g1
(g298
g3
NtRp461
(dp462
g27
Nsg29
S'info'
p463
sg31
Nsg13
g70
sg32
S'SerialConnectionInfo'
p464
sg12
I130
sbasg12
I130
sg13
g70
sbsbag1
(g285
g3
NtRp465
(dp466
g27
Nsg29
S'SetBreak'
p467
sg289
g1
(g290
g3
NtRp468
(dp469
g10
(lp470
sg12
Nsg13
Nsbsg31
Nsg13
Nsg12
Nsg294
g1
(g290
g3
NtRp471
(dp472
g10
(lp473
g1
(g298
g3
NtRp474
(dp475
g27
Nsg29
S'success'
p476
sg31
Nsg13
g70
sg32
S'bool'
p477
sg12
I134
sbasg12
I134
sg13
g70
sbsbag1
(g285
g3
NtRp478
(dp479
g27
Nsg29
S'ClearBreak'
p480
sg289
g1
(g290
g3
NtRp481
(dp482
g10
(lp483
sg12
Nsg13
Nsbsg31
Nsg13
Nsg12
Nsg294
g1
(g290
g3
NtRp484
(dp485
g10
(lp486
g1
(g298
g3
NtRp487
(dp488
g27
Nsg29
S'success'
p489
sg31
Nsg13
g70
sg32
S'bool'
p490
sg12
I138
sbasg12
I138
sg13
g70
sbsbasg12
Nsg13
Nsbsg31
Nsg12
Nsg29
S'SerialIoHandler'
p491
sg13
Nsbasg12
NsS'module'
p492
g1
(cmojom.parse.ast
Module
p493
g3
NtRp494
(dp495
S'mojom_namespace'
p496
(g179
S'device.mojom'
tp497
sg12
I5
sg31
Nsg13
g70
sbsg13
Nsb.