ccopy_reg
_reconstructor
p1
(cmojom.parse.ast
Mojom
p2
c__builtin__
object
p3
NtRp4
(dp5
S'import_list'
p6
g1
(cmojom.parse.ast
ImportList
p7
g3
NtRp8
(dp9
S'items'
p10
(lp11
sS'lineno'
p12
NsS'filename'
p13
NsbsS'definition_list'
p14
(lp15
g1
(cmojom.parse.ast
Struct
p16
g3
NtRp17
(dp18
S'body'
p19
g1
(cmojom.parse.ast
StructBody
p20
g3
NtRp21
(dp22
g10
(lp23
g1
(cmojom.parse.ast
StructField
p24
g3
NtRp25
(dp26
S'ordinal'
p27
NsS'default_value'
p28
NsS'mojom_name'
p29
S'account_id'
p30
sS'attribute_list'
p31
Nsg13
NsS'typename'
p32
S'string'
p33
sg12
Nsbag1
(g24
g3
NtRp34
(dp35
g27
Nsg28
Nsg29
S'gaia'
p36
sg31
Nsg13
Nsg32
S'string'
p37
sg12
Nsbag1
(g24
g3
NtRp38
(dp39
g27
Nsg28
Nsg29
S'email'
p40
sg31
Nsg13
Nsg32
S'string'
p41
sg12
Nsbag1
(g24
g3
NtRp42
(dp43
g27
Nsg28
Nsg29
S'full_name'
p44
sg31
Nsg13
Nsg32
S'string'
p45
sg12
Nsbag1
(g24
g3
NtRp46
(dp47
g27
Nsg28
Nsg29
S'given_name'
p48
sg31
Nsg13
Nsg32
S'string'
p49
sg12
Nsbag1
(g24
g3
NtRp50
(dp51
g27
Nsg28
Nsg29
S'hosted_domain'
p52
sg31
Nsg13
Nsg32
S'string'
p53
sg12
Nsbag1
(g24
g3
NtRp54
(dp55
g27
Nsg28
Nsg29
S'locale'
p56
sg31
Nsg13
Nsg32
S'string'
p57
sg12
Nsbag1
(g24
g3
NtRp58
(dp59
g27
Nsg28
Nsg29
S'picture_url'
p60
sg31
Nsg13
Nsg32
S'string'
p61
sg12
Nsbag1
(g24
g3
NtRp62
(dp63
g27
Nsg28
Nsg29
S'is_child_account'
p64
sg31
Nsg13
Nsg32
S'bool'
p65
sg12
Nsbasg12
Nsg13
Nsbsg31
Nsg12
Nsg29
S'AccountInfo'
p66
sg13
Nsbasg12
NsS'module'
p67
g1
(cmojom.parse.ast
Module
p68
g3
NtRp69
(dp70
S'mojom_namespace'
p71
(S'IDENTIFIER'
p72
S'identity.mojom'
tp73
sg12
I5
sg31
Nsg13
S'../../services/identity/public/mojom/account_info.mojom'
p74
sbsg13
Nsb.