ccopy_reg
_reconstructor
p1
(cmojom.parse.ast
Mojom
p2
c__builtin__
object
p3
NtRp4
(dp5
S'import_list'
p6
g1
(cmojom.parse.ast
ImportList
p7
g3
NtRp8
(dp9
S'items'
p10
(lp11
g1
(cmojom.parse.ast
Import
p12
g3
NtRp13
(dp14
S'attribute_list'
p15
NsS'lineno'
p16
I7
sS'import_filename'
p17
S'url/mojom/url.mojom'
p18
sS'filename'
p19
S'../../services/identity/public/mojom/google_service_auth_error.mojom'
p20
sbasg16
I7
sg19
g20
sbsS'definition_list'
p21
(lp22
g1
(cmojom.parse.ast
Struct
p23
g3
NtRp24
(dp25
S'body'
p26
g1
(cmojom.parse.ast
StructBody
p27
g3
NtRp28
(dp29
g10
(lp30
g1
(cmojom.parse.ast
StructField
p31
g3
NtRp32
(dp33
S'ordinal'
p34
NsS'default_value'
p35
NsS'mojom_name'
p36
S'token'
p37
sg15
Nsg19
NsS'typename'
p38
S'string'
p39
sg16
Nsbag1
(g31
g3
NtRp40
(dp41
g34
Nsg35
Nsg36
S'audio_url'
p42
sg15
Nsg19
Nsg38
S'url.mojom.Url'
p43
sg16
Nsbag1
(g31
g3
NtRp44
(dp45
g34
Nsg35
Nsg36
S'image_url'
p46
sg15
Nsg19
Nsg38
S'url.mojom.Url'
p47
sg16
Nsbag1
(g31
g3
NtRp48
(dp49
g34
Nsg35
Nsg36
S'unlock_url'
p50
sg15
Nsg19
Nsg38
S'url.mojom.Url'
p51
sg16
Nsbag1
(g31
g3
NtRp52
(dp53
g34
Nsg35
Nsg36
S'image_width'
p54
sg15
Nsg19
Nsg38
S'int32'
p55
sg16
Nsbag1
(g31
g3
NtRp56
(dp57
g34
Nsg35
Nsg36
S'image_height'
p58
sg15
Nsg19
Nsg38
S'int32'
p59
sg16
Nsbasg16
Nsg19
Nsbsg15
Nsg16
Nsg36
S'Captcha'
p60
sg19
Nsbag1
(g23
g3
NtRp61
(dp62
g26
g1
(g27
g3
NtRp63
(dp64
g10
(lp65
g1
(g31
g3
NtRp66
(dp67
g34
Nsg35
Nsg36
S'token'
p68
sg15
Nsg19
Nsg38
S'string'
p69
sg16
Nsbag1
(g31
g3
NtRp70
(dp71
g34
Nsg35
Nsg36
S'prompt_text'
p72
sg15
Nsg19
Nsg38
S'string'
p73
sg16
Nsbag1
(g31
g3
NtRp74
(dp75
g34
Nsg35
Nsg36
S'alternate_text'
p76
sg15
Nsg19
Nsg38
S'string'
p77
sg16
Nsbag1
(g31
g3
NtRp78
(dp79
g34
Nsg35
Nsg36
S'field_length'
p80
sg15
Nsg19
Nsg38
S'int32'
p81
sg16
Nsbasg16
Nsg19
Nsbsg15
Nsg16
Nsg36
S'SecondFactor'
p82
sg19
Nsbag1
(g23
g3
NtRp83
(dp84
g26
g1
(g27
g3
NtRp85
(dp86
g10
(lp87
g1
(g31
g3
NtRp88
(dp89
g34
Nsg35
Nsg36
S'state'
p90
sg15
Nsg19
Nsg38
S'int32'
p91
sg16
Nsbag1
(g31
g3
NtRp92
(dp93
g34
Nsg35
Nsg36
S'captcha'
p94
sg15
Nsg19
Nsg38
S'Captcha'
p95
sg16
Nsbag1
(g31
g3
NtRp96
(dp97
g34
Nsg35
Nsg36
S'second_factor'
p98
sg15
Nsg19
Nsg38
S'SecondFactor'
p99
sg16
Nsbag1
(g31
g3
NtRp100
(dp101
g34
Nsg35
Nsg36
S'network_error'
p102
sg15
Nsg19
Nsg38
S'int32'
p103
sg16
Nsbag1
(g31
g3
NtRp104
(dp105
g34
Nsg35
Nsg36
S'error_message'
p106
sg15
Nsg19
Nsg38
S'string'
p107
sg16
Nsbasg16
Nsg19
Nsbsg15
Nsg16
Nsg36
S'GoogleServiceAuthError'
p108
sg19
Nsbasg16
NsS'module'
p109
g1
(cmojom.parse.ast
Module
p110
g3
NtRp111
(dp112
S'mojom_namespace'
p113
(S'IDENTIFIER'
p114
S'identity.mojom'
tp115
sg16
I5
sg15
Nsg19
g20
sbsg19
Nsb.