ccopy_reg
_reconstructor
p1
(cmojom.parse.ast
Mojom
p2
c__builtin__
object
p3
NtRp4
(dp5
S'import_list'
p6
g1
(cmojom.parse.ast
ImportList
p7
g3
NtRp8
(dp9
S'items'
p10
(lp11
g1
(cmojom.parse.ast
Import
p12
g3
NtRp13
(dp14
S'attribute_list'
p15
NsS'lineno'
p16
I7
sS'import_filename'
p17
S'mojo/public/mojom/base/time.mojom'
p18
sS'filename'
p19
S'../../services/identity/public/mojom/identity_manager.mojom'
p20
sbag1
(g12
g3
NtRp21
(dp22
g15
Nsg16
I8
sg17
S'services/identity/public/mojom/account.mojom'
p23
sg19
g20
sbag1
(g12
g3
NtRp24
(dp25
g15
Nsg16
I9
sg17
S'services/identity/public/mojom/account_info.mojom'
p26
sg19
g20
sbag1
(g12
g3
NtRp27
(dp28
g15
Nsg16
I10
sg17
S'services/identity/public/mojom/account_state.mojom'
p29
sg19
g20
sbag1
(g12
g3
NtRp30
(dp31
g15
Nsg16
I11
sg17
S'services/identity/public/mojom/google_service_auth_error.mojom'
p32
sg19
g20
sbag1
(g12
g3
NtRp33
(dp34
g15
Nsg16
I12
sg17
S'services/identity/public/mojom/scope_set.mojom'
p35
sg19
g20
sbasg16
I7
sg19
g20
sbsS'definition_list'
p36
(lp37
g1
(cmojom.parse.ast
Interface
p38
g3
NtRp39
(dp40
S'body'
p41
g1
(cmojom.parse.ast
InterfaceBody
p42
g3
NtRp43
(dp44
g10
(lp45
g1
(cmojom.parse.ast
Method
p46
g3
NtRp47
(dp48
S'ordinal'
p49
NsS'mojom_name'
p50
S'GetPrimaryAccountInfo'
p51
sS'parameter_list'
p52
g1
(cmojom.parse.ast
ParameterList
p53
g3
NtRp54
(dp55
g10
(lp56
sg16
Nsg19
Nsbsg15
Nsg19
Nsg16
NsS'response_parameter_list'
p57
g1
(g53
g3
NtRp58
(dp59
g10
(lp60
g1
(cmojom.parse.ast
Parameter
p61
g3
NtRp62
(dp63
g49
Nsg50
S'account_info'
p64
sg15
Nsg19
g20
sS'typename'
p65
S'AccountInfo?'
p66
sg16
I20
sbag1
(g61
g3
NtRp67
(dp68
g49
Nsg50
S'account_state'
p69
sg15
Nsg19
g20
sg65
S'AccountState'
p70
sg16
I21
sbasg16
I20
sg19
g20
sbsbag1
(g46
g3
NtRp71
(dp72
g49
Nsg50
S'GetPrimaryAccountWhenAvailable'
p73
sg52
g1
(g53
g3
NtRp74
(dp75
g10
(lp76
sg16
Nsg19
Nsbsg15
Nsg19
Nsg16
Nsg57
g1
(g53
g3
NtRp77
(dp78
g10
(lp79
g1
(g61
g3
NtRp80
(dp81
g49
Nsg50
S'account_info'
p82
sg15
Nsg19
g20
sg65
S'AccountInfo'
p83
sg16
I29
sbag1
(g61
g3
NtRp84
(dp85
g49
Nsg50
S'account_state'
p86
sg15
Nsg19
g20
sg65
S'AccountState'
p87
sg16
I30
sbasg16
I29
sg19
g20
sbsbag1
(g46
g3
NtRp88
(dp89
g49
Nsg50
S'GetAccountInfoFromGaiaId'
p90
sg52
g1
(g53
g3
NtRp91
(dp92
g10
(lp93
g1
(g61
g3
NtRp94
(dp95
g49
Nsg50
S'gaia_id'
p96
sg15
Nsg19
g20
sg65
S'string'
p97
sg16
I36
sbasg16
I36
sg19
g20
sbsg15
Nsg19
Nsg16
Nsg57
g1
(g53
g3
NtRp98
(dp99
g10
(lp100
g1
(g61
g3
NtRp101
(dp102
g49
Nsg50
S'account_info'
p103
sg15
Nsg19
g20
sg65
S'AccountInfo?'
p104
sg16
I36
sbag1
(g61
g3
NtRp105
(dp106
g49
Nsg50
S'account_state'
p107
sg15
Nsg19
g20
sg65
S'AccountState'
p108
sg16
I37
sbasg16
I36
sg19
g20
sbsbag1
(g46
g3
NtRp109
(dp110
g49
Nsg50
S'GetAccounts'
p111
sg52
g1
(g53
g3
NtRp112
(dp113
g10
(lp114
sg16
Nsg19
Nsbsg15
Nsg19
Nsg16
Nsg57
g1
(g53
g3
NtRp115
(dp116
g10
(lp117
g1
(g61
g3
NtRp118
(dp119
g49
Nsg50
S'accounts'
p120
sg15
Nsg19
g20
sg65
S'Account[]'
p121
sg16
I41
sbasg16
I41
sg19
g20
sbsbag1
(g46
g3
NtRp122
(dp123
g49
Nsg50
S'GetAccessToken'
p124
sg52
g1
(g53
g3
NtRp125
(dp126
g10
(lp127
g1
(g61
g3
NtRp128
(dp129
g49
Nsg50
S'account_id'
p130
sg15
Nsg19
g20
sg65
S'string'
p131
sg16
I51
sbag1
(g61
g3
NtRp132
(dp133
g49
Nsg50
S'scopes'
p134
sg15
Nsg19
g20
sg65
S'ScopeSet'
p135
sg16
I51
sbag1
(g61
g3
NtRp136
(dp137
g49
Nsg50
S'consumer_id'
p138
sg15
Nsg19
g20
sg65
S'string'
p139
sg16
I51
sbasg16
I51
sg19
g20
sbsg15
Nsg19
Nsg16
Nsg57
g1
(g53
g3
NtRp140
(dp141
g10
(lp142
g1
(g61
g3
NtRp143
(dp144
g49
Nsg50
S'token'
p145
sg15
Nsg19
g20
sg65
S'string?'
p146
sg16
I52
sbag1
(g61
g3
NtRp147
(dp148
g49
Nsg50
S'expiration_time'
p149
sg15
Nsg19
g20
sg65
S'mojo_base.mojom.Time'
p150
sg16
I53
sbag1
(g61
g3
NtRp151
(dp152
g49
Nsg50
S'error'
p153
sg15
Nsg19
g20
sg65
S'GoogleServiceAuthError'
p154
sg16
I54
sbasg16
I52
sg19
g20
sbsbasg16
Nsg19
Nsbsg15
Nsg16
Nsg50
S'IdentityManager'
p155
sg19
Nsbasg16
NsS'module'
p156
g1
(cmojom.parse.ast
Module
p157
g3
NtRp158
(dp159
S'mojom_namespace'
p160
(S'IDENTIFIER'
p161
S'identity.mojom'
tp162
sg16
I5
sg15
Nsg19
g20
sbsg19
Nsb.