ccopy_reg
_reconstructor
p1
(cmojom.parse.ast
Mojom
p2
c__builtin__
object
p3
NtRp4
(dp5
S'import_list'
p6
g1
(cmojom.parse.ast
ImportList
p7
g3
NtRp8
(dp9
S'items'
p10
(lp11
g1
(cmojom.parse.ast
Import
p12
g3
NtRp13
(dp14
S'attribute_list'
p15
NsS'lineno'
p16
I7
sS'import_filename'
p17
S'content/public/common/resource_type.mojom'
p18
sS'filename'
p19
S'../../components/safe_browsing/common/safe_browsing.mojom'
p20
sbag1
(g12
g3
NtRp21
(dp22
g15
Nsg16
I8
sg17
S'services/network/public/mojom/http_request_headers.mojom'
p23
sg19
g20
sbag1
(g12
g3
NtRp24
(dp25
g15
Nsg16
I9
sg17
S'url/mojom/url.mojom'
p26
sg19
g20
sbasg16
I7
sg19
g20
sbsS'definition_list'
p27
(lp28
g1
(cmojom.parse.ast
Interface
p29
g3
NtRp30
(dp31
S'body'
p32
g1
(cmojom.parse.ast
InterfaceBody
p33
g3
NtRp34
(dp35
g10
(lp36
g1
(cmojom.parse.ast
Method
p37
g3
NtRp38
(dp39
S'ordinal'
p40
NsS'mojom_name'
p41
S'CreateCheckerAndCheck'
p42
sS'parameter_list'
p43
g1
(cmojom.parse.ast
ParameterList
p44
g3
NtRp45
(dp46
g10
(lp47
g1
(cmojom.parse.ast
Parameter
p48
g3
NtRp49
(dp50
g40
Nsg41
S'render_frame_id'
p51
sg15
Nsg19
g20
sS'typename'
p52
S'int32'
p53
sg16
I41
sbag1
(g48
g3
NtRp54
(dp55
g40
Nsg41
S'request'
p56
sg15
Nsg19
g20
sg52
S'SafeBrowsingUrlChecker&'
p57
sg16
I42
sbag1
(g48
g3
NtRp58
(dp59
g40
Nsg41
S'url'
p60
sg15
Nsg19
g20
sg52
S'url.mojom.Url'
p61
sg16
I43
sbag1
(g48
g3
NtRp62
(dp63
g40
Nsg41
S'method'
p64
sg15
Nsg19
g20
sg52
S'string'
p65
sg16
I44
sbag1
(g48
g3
NtRp66
(dp67
g40
Nsg41
S'headers'
p68
sg15
Nsg19
g20
sg52
S'network.mojom.HttpRequestHeaders'
p69
sg16
I45
sbag1
(g48
g3
NtRp70
(dp71
g40
Nsg41
S'load_flags'
p72
sg15
Nsg19
g20
sg52
S'int32'
p73
sg16
I46
sbag1
(g48
g3
NtRp74
(dp75
g40
Nsg41
S'resource_type'
p76
sg15
Nsg19
g20
sg52
S'content.mojom.ResourceType'
p77
sg16
I47
sbag1
(g48
g3
NtRp78
(dp79
g40
Nsg41
S'has_user_gesture'
p80
sg15
Nsg19
g20
sg52
S'bool'
p81
sg16
I48
sbag1
(g48
g3
NtRp82
(dp83
g40
Nsg41
S'originated_from_service_worker'
p84
sg15
Nsg19
g20
sg52
S'bool'
p85
sg16
I49
sbasg16
I41
sg19
g20
sbsg15
Nsg19
Nsg16
NsS'response_parameter_list'
p86
g1
(g44
g3
NtRp87
(dp88
g10
(lp89
g1
(g48
g3
NtRp90
(dp91
g40
Nsg41
S'slow_check_notifier'
p92
sg15
Nsg19
g20
sg52
S'UrlCheckNotifier&?'
p93
sg16
I50
sbag1
(g48
g3
NtRp94
(dp95
g40
Nsg41
S'proceed'
p96
sg15
Nsg19
g20
sg52
S'bool'
p97
sg16
I51
sbag1
(g48
g3
NtRp98
(dp99
g40
Nsg41
S'showed_interstitial'
p100
sg15
Nsg19
g20
sg52
S'bool'
p101
sg16
I52
sbasg16
I50
sg19
g20
sbsbag1
(g37
g3
NtRp102
(dp103
g40
Nsg41
S'Clone'
p104
sg43
g1
(g44
g3
NtRp105
(dp106
g10
(lp107
g1
(g48
g3
NtRp108
(dp109
g40
Nsg41
S'request'
p110
sg15
Nsg19
g20
sg52
S'SafeBrowsing&'
p111
sg16
I55
sbasg16
I55
sg19
g20
sbsg15
Nsg19
Nsg16
Nsg86
Nsbasg16
Nsg19
Nsbsg15
Nsg16
Nsg41
S'SafeBrowsing'
p112
sg19
Nsbag1
(g29
g3
NtRp113
(dp114
g32
g1
(g33
g3
NtRp115
(dp116
g10
(lp117
g1
(g37
g3
NtRp118
(dp119
g40
Nsg41
S'CheckUrl'
p120
sg43
g1
(g44
g3
NtRp121
(dp122
g10
(lp123
g1
(g48
g3
NtRp124
(dp125
g40
Nsg41
S'url'
p126
sg15
Nsg19
g20
sg52
S'url.mojom.Url'
p127
sg16
I59
sbag1
(g48
g3
NtRp128
(dp129
g40
Nsg41
S'method'
p130
sg15
Nsg19
g20
sg52
S'string'
p131
sg16
I59
sbasg16
I59
sg19
g20
sbsg15
Nsg19
Nsg16
Nsg86
g1
(g44
g3
NtRp132
(dp133
g10
(lp134
g1
(g48
g3
NtRp135
(dp136
g40
Nsg41
S'slow_check_notifier'
p137
sg15
Nsg19
g20
sg52
S'UrlCheckNotifier&?'
p138
sg16
I60
sbag1
(g48
g3
NtRp139
(dp140
g40
Nsg41
S'proceed'
p141
sg15
Nsg19
g20
sg52
S'bool'
p142
sg16
I61
sbag1
(g48
g3
NtRp143
(dp144
g40
Nsg41
S'showed_interstitial'
p145
sg15
Nsg19
g20
sg52
S'bool'
p146
sg16
I62
sbasg16
I60
sg19
g20
sbsbasg16
Nsg19
Nsbsg15
Nsg16
Nsg41
S'SafeBrowsingUrlChecker'
p147
sg19
Nsbag1
(g29
g3
NtRp148
(dp149
g32
g1
(g33
g3
NtRp150
(dp151
g10
(lp152
g1
(g37
g3
NtRp153
(dp154
g40
Nsg41
S'OnCompleteCheck'
p155
sg43
g1
(g44
g3
NtRp156
(dp157
g10
(lp158
g1
(g48
g3
NtRp159
(dp160
g40
Nsg41
S'proceed'
p161
sg15
Nsg19
g20
sg52
S'bool'
p162
sg16
I66
sbag1
(g48
g3
NtRp163
(dp164
g40
Nsg41
S'showed_interstitial'
p165
sg15
Nsg19
g20
sg52
S'bool'
p166
sg16
I66
sbasg16
I66
sg19
g20
sbsg15
Nsg19
Nsg16
Nsg86
Nsbasg16
Nsg19
Nsbsg15
Nsg16
Nsg41
S'UrlCheckNotifier'
p167
sg19
Nsbag1
(cmojom.parse.ast
Struct
p168
g3
NtRp169
(dp170
g32
g1
(cmojom.parse.ast
StructBody
p171
g3
NtRp172
(dp173
g10
(lp174
g1
(cmojom.parse.ast
StructField
p175
g3
NtRp176
(dp177
g40
NsS'default_value'
p178
Nsg41
S'name'
p179
sg15
Nsg19
Nsg52
S'string'
p180
sg16
Nsbag1
(g175
g3
NtRp181
(dp182
g40
Nsg178
Nsg41
S'value'
p183
sg15
Nsg19
Nsg52
S'string'
p184
sg16
Nsbasg16
Nsg19
Nsbsg15
Nsg16
Nsg41
S'AttributeNameValue'
p185
sg19
Nsbag1
(g168
g3
NtRp186
(dp187
g32
g1
(g171
g3
NtRp188
(dp189
g10
(lp190
g1
(g175
g3
NtRp191
(dp192
g40
Nsg178
Nsg41
S'node_id'
p193
sg15
Nsg19
Nsg52
S'int32'
p194
sg16
Nsbag1
(g175
g3
NtRp195
(dp196
g40
Nsg178
Nsg41
S'url'
p197
sg15
Nsg19
Nsg52
S'url.mojom.Url'
p198
sg16
Nsbag1
(g175
g3
NtRp199
(dp200
g40
Nsg178
Nsg41
S'tag_name'
p201
sg15
Nsg19
Nsg52
S'string'
p202
sg16
Nsbag1
(g175
g3
NtRp203
(dp204
g40
Nsg178
Nsg41
S'parent'
p205
sg15
Nsg19
Nsg52
S'url.mojom.Url'
p206
sg16
Nsbag1
(g175
g3
NtRp207
(dp208
g40
Nsg178
Nsg41
S'parent_node_id'
p209
sg15
Nsg19
Nsg52
S'int32'
p210
sg16
Nsbag1
(g175
g3
NtRp211
(dp212
g40
Nsg178
Nsg41
S'children'
p213
sg15
Nsg19
Nsg52
S'url.mojom.Url[]'
p214
sg16
Nsbag1
(g175
g3
NtRp215
(dp216
g40
Nsg178
Nsg41
S'child_node_ids'
p217
sg15
Nsg19
Nsg52
S'int32[]'
p218
sg16
Nsbag1
(g175
g3
NtRp219
(dp220
g40
Nsg178
Nsg41
S'attributes'
p221
sg15
Nsg19
Nsg52
S'AttributeNameValue[]'
p222
sg16
Nsbag1
(g175
g3
NtRp223
(dp224
g40
Nsg178
Nsg41
S'child_frame_routing_id'
p225
sg15
Nsg19
Nsg52
S'int32'
p226
sg16
Nsbasg16
Nsg19
Nsbsg15
Nsg16
Nsg41
S'ThreatDOMDetailsNode'
p227
sg19
Nsbag1
(g29
g3
NtRp228
(dp229
g32
g1
(g33
g3
NtRp230
(dp231
g10
(lp232
g1
(g37
g3
NtRp233
(dp234
g40
Nsg41
S'GetThreatDOMDetails'
p235
sg43
g1
(g44
g3
NtRp236
(dp237
g10
(lp238
sg16
Nsg19
Nsbsg15
Nsg19
Nsg16
Nsg86
g1
(g44
g3
NtRp239
(dp240
g10
(lp241
g1
(g48
g3
NtRp242
(dp243
g40
Nsg41
S'nodes'
p244
sg15
Nsg19
g20
sg52
S'ThreatDOMDetailsNode[]'
p245
sg16
I104
sbasg16
I104
sg19
g20
sbsbasg16
Nsg19
Nsbsg15
Nsg16
Nsg41
S'ThreatReporter'
p246
sg19
Nsbag1
(g29
g3
NtRp247
(dp248
g32
g1
(g33
g3
NtRp249
(dp250
g10
(lp251
g1
(g37
g3
NtRp252
(dp253
g40
Nsg41
S'StartPhishingDetection'
p254
sg43
g1
(g44
g3
NtRp255
(dp256
g10
(lp257
g1
(g48
g3
NtRp258
(dp259
g40
Nsg41
S'url'
p260
sg15
Nsg19
g20
sg52
S'url.mojom.Url'
p261
sg16
I111
sbasg16
I111
sg19
g20
sbsg15
Nsg19
Nsg16
Nsg86
Nsbasg16
Nsg19
Nsbsg15
g1
(cmojom.parse.ast
AttributeList
p262
g3
NtRp263
(dp264
g10
(lp265
g1
(cmojom.parse.ast
Attribute
p266
g3
NtRp267
(dp268
S'value'
p269
S'full_safe_browsing'
p270
sg16
I107
sS'key'
p271
S'EnableIf'
p272
sg19
g20
sbasg16
I107
sg19
g20
sbsg16
Nsg41
S'PhishingDetector'
p273
sg19
Nsbag1
(g29
g3
NtRp274
(dp275
g32
g1
(g33
g3
NtRp276
(dp277
g10
(lp278
g1
(g37
g3
NtRp279
(dp280
g40
Nsg41
S'PhishingDetectionDone'
p281
sg43
g1
(g44
g3
NtRp282
(dp283
g10
(lp284
g1
(g48
g3
NtRp285
(dp286
g40
Nsg41
S'request_proto'
p287
sg15
Nsg19
g20
sg52
S'string'
p288
sg16
I121
sbasg16
I121
sg19
g20
sbsg15
Nsg19
Nsg16
Nsg86
Nsbasg16
Nsg19
Nsbsg15
g1
(g262
g3
NtRp289
(dp290
g10
(lp291
g1
(g266
g3
NtRp292
(dp293
g269
S'full_safe_browsing'
p294
sg16
I114
sg271
S'EnableIf'
p295
sg19
g20
sbasg16
I114
sg19
g20
sbsg16
Nsg41
S'PhishingDetectorClient'
p296
sg19
Nsbag1
(g29
g3
NtRp297
(dp298
g32
g1
(g33
g3
NtRp299
(dp300
g10
(lp301
g1
(g37
g3
NtRp302
(dp303
g40
Nsg41
S'SetPhishingModel'
p304
sg43
g1
(g44
g3
NtRp305
(dp306
g10
(lp307
g1
(g48
g3
NtRp308
(dp309
g40
Nsg41
S'model'
p310
sg15
Nsg19
g20
sg52
S'string'
p311
sg16
I128
sbasg16
I128
sg19
g20
sbsg15
Nsg19
Nsg16
Nsg86
Nsbasg16
Nsg19
Nsbsg15
Nsg16
Nsg41
S'PhishingModelSetter'
p312
sg19
Nsbasg16
NsS'module'
p313
g1
(cmojom.parse.ast
Module
p314
g3
NtRp315
(dp316
S'mojom_namespace'
p317
(S'IDENTIFIER'
p318
S'safe_browsing.mojom'
tp319
sg16
I5
sg15
Nsg19
g20
sbsg19
Nsb.