ccopy_reg
_reconstructor
p1
(cmojom.parse.ast
Mojom
p2
c__builtin__
object
p3
NtRp4
(dp5
S'import_list'
p6
g1
(cmojom.parse.ast
ImportList
p7
g3
NtRp8
(dp9
S'items'
p10
(lp11
g1
(cmojom.parse.ast
Import
p12
g3
NtRp13
(dp14
S'attribute_list'
p15
NsS'lineno'
p16
I8
sS'import_filename'
p17
S'gpu/ipc/common/dx_diag_node.mojom'
p18
sS'filename'
p19
S'../../gpu/ipc/common/gpu_info.mojom'
p20
sbag1
(g12
g3
NtRp21
(dp22
g15
Nsg16
I9
sg17
S'mojo/public/mojom/base/time.mojom'
p23
sg19
g20
sbag1
(g12
g3
NtRp24
(dp25
g15
Nsg16
I10
sg17
S'ui/gfx/geometry/mojo/geometry.mojom'
p26
sg19
g20
sbasg16
I8
sg19
g20
sbsS'definition_list'
p27
(lp28
g1
(cmojom.parse.ast
Struct
p29
g3
NtRp30
(dp31
S'body'
p32
g1
(cmojom.parse.ast
StructBody
p33
g3
NtRp34
(dp35
g10
(lp36
g1
(cmojom.parse.ast
StructField
p37
g3
NtRp38
(dp39
S'ordinal'
p40
NsS'default_value'
p41
NsS'mojom_name'
p42
S'vendor_id'
p43
sg15
Nsg19
NsS'typename'
p44
S'uint32'
p45
sg16
Nsbag1
(g37
g3
NtRp46
(dp47
g40
Nsg41
Nsg42
S'device_id'
p48
sg15
Nsg19
Nsg44
S'uint32'
p49
sg16
Nsbag1
(g37
g3
NtRp50
(dp51
g40
Nsg41
Nsg42
S'active'
p52
sg15
Nsg19
Nsg44
S'bool'
p53
sg16
Nsbag1
(g37
g3
NtRp54
(dp55
g40
Nsg41
Nsg42
S'vendor_string'
p56
sg15
Nsg19
Nsg44
S'string'
p57
sg16
Nsbag1
(g37
g3
NtRp58
(dp59
g40
Nsg41
Nsg42
S'device_string'
p60
sg15
Nsg19
Nsg44
S'string'
p61
sg16
Nsbasg16
Nsg19
Nsbsg15
Nsg16
Nsg42
S'GpuDevice'
p62
sg19
Nsbag1
(cmojom.parse.ast
Enum
p63
g3
NtRp64
(dp65
g15
NsS'enum_value_list'
p66
g1
(cmojom.parse.ast
EnumValueList
p67
g3
NtRp68
(dp69
g10
(lp70
g1
(cmojom.parse.ast
EnumValue
p71
g3
NtRp72
(dp73
g15
NsS'value'
p74
S'-1'
p75
sg16
I23
sg42
S'VIDEO_CODEC_PROFILE_UNKNOWN'
p76
sg19
g20
sbag1
(g71
g3
NtRp77
(dp78
g15
Nsg74
S'0'
sg16
I24
sg42
S'H264PROFILE_BASELINE'
p79
sg19
g20
sbag1
(g71
g3
NtRp80
(dp81
g15
Nsg74
Nsg16
I25
sg42
S'H264PROFILE_MAIN'
p82
sg19
g20
sbag1
(g71
g3
NtRp83
(dp84
g15
Nsg74
Nsg16
I26
sg42
S'H264PROFILE_EXTENDED'
p85
sg19
g20
sbag1
(g71
g3
NtRp86
(dp87
g15
Nsg74
Nsg16
I27
sg42
S'H264PROFILE_HIGH'
p88
sg19
g20
sbag1
(g71
g3
NtRp89
(dp90
g15
Nsg74
Nsg16
I28
sg42
S'H264PROFILE_HIGH10PROFILE'
p91
sg19
g20
sbag1
(g71
g3
NtRp92
(dp93
g15
Nsg74
Nsg16
I29
sg42
S'H264PROFILE_HIGH422PROFILE'
p94
sg19
g20
sbag1
(g71
g3
NtRp95
(dp96
g15
Nsg74
Nsg16
I30
sg42
S'H264PROFILE_HIGH444PREDICTIVEPROFILE'
p97
sg19
g20
sbag1
(g71
g3
NtRp98
(dp99
g15
Nsg74
Nsg16
I31
sg42
S'H264PROFILE_SCALABLEBASELINE'
p100
sg19
g20
sbag1
(g71
g3
NtRp101
(dp102
g15
Nsg74
Nsg16
I32
sg42
S'H264PROFILE_SCALABLEHIGH'
p103
sg19
g20
sbag1
(g71
g3
NtRp104
(dp105
g15
Nsg74
Nsg16
I33
sg42
S'H264PROFILE_STEREOHIGH'
p106
sg19
g20
sbag1
(g71
g3
NtRp107
(dp108
g15
Nsg74
Nsg16
I34
sg42
S'H264PROFILE_MULTIVIEWHIGH'
p109
sg19
g20
sbag1
(g71
g3
NtRp110
(dp111
g15
Nsg74
Nsg16
I35
sg42
S'VP8PROFILE_ANY'
p112
sg19
g20
sbag1
(g71
g3
NtRp113
(dp114
g15
Nsg74
Nsg16
I36
sg42
S'VP9PROFILE_PROFILE0'
p115
sg19
g20
sbag1
(g71
g3
NtRp116
(dp117
g15
Nsg74
Nsg16
I37
sg42
S'VP9PROFILE_PROFILE1'
p118
sg19
g20
sbag1
(g71
g3
NtRp119
(dp120
g15
Nsg74
Nsg16
I38
sg42
S'VP9PROFILE_PROFILE2'
p121
sg19
g20
sbag1
(g71
g3
NtRp122
(dp123
g15
Nsg74
Nsg16
I39
sg42
S'VP9PROFILE_PROFILE3'
p124
sg19
g20
sbag1
(g71
g3
NtRp125
(dp126
g15
Nsg74
Nsg16
I40
sg42
S'HEVCPROFILE_MAIN'
p127
sg19
g20
sbag1
(g71
g3
NtRp128
(dp129
g15
Nsg74
Nsg16
I41
sg42
S'HEVCPROFILE_MAIN10'
p130
sg19
g20
sbag1
(g71
g3
NtRp131
(dp132
g15
Nsg74
Nsg16
I42
sg42
S'HEVCPROFILE_MAIN_STILL_PICTURE'
p133
sg19
g20
sbag1
(g71
g3
NtRp134
(dp135
g15
Nsg74
Nsg16
I43
sg42
S'DOLBYVISION_PROFILE0'
p136
sg19
g20
sbag1
(g71
g3
NtRp137
(dp138
g15
Nsg74
Nsg16
I44
sg42
S'DOLBYVISION_PROFILE4'
p139
sg19
g20
sbag1
(g71
g3
NtRp140
(dp141
g15
Nsg74
Nsg16
I45
sg42
S'DOLBYVISION_PROFILE5'
p142
sg19
g20
sbag1
(g71
g3
NtRp143
(dp144
g15
Nsg74
Nsg16
I46
sg42
S'DOLBYVISION_PROFILE7'
p145
sg19
g20
sbag1
(g71
g3
NtRp146
(dp147
g15
Nsg74
Nsg16
I47
sg42
S'THEORAPROFILE_ANY'
p148
sg19
g20
sbag1
(g71
g3
NtRp149
(dp150
g15
Nsg74
Nsg16
I48
sg42
S'AV1PROFILE_PROFILE0'
p151
sg19
g20
sbasg16
I23
sg19
g20
sbsg16
I22
sg42
S'VideoCodecProfile'
p152
sg19
g20
sbag1
(g29
g3
NtRp153
(dp154
g32
g1
(g33
g3
NtRp155
(dp156
g10
(lp157
g1
(g37
g3
NtRp158
(dp159
g40
Nsg41
Nsg42
S'profile'
p160
sg15
Nsg19
Nsg44
S'VideoCodecProfile'
p161
sg16
Nsbag1
(g37
g3
NtRp162
(dp163
g40
Nsg41
Nsg42
S'max_resolution'
p164
sg15
Nsg19
Nsg44
S'gfx.mojom.Size'
p165
sg16
Nsbag1
(g37
g3
NtRp166
(dp167
g40
Nsg41
Nsg42
S'min_resolution'
p168
sg15
Nsg19
Nsg44
S'gfx.mojom.Size'
p169
sg16
Nsbag1
(g37
g3
NtRp170
(dp171
g40
Nsg41
Nsg42
S'encrypted_only'
p172
sg15
Nsg19
Nsg44
S'bool'
p173
sg16
Nsbasg16
Nsg19
Nsbsg15
Nsg16
Nsg42
S'VideoDecodeAcceleratorSupportedProfile'
p174
sg19
Nsbag1
(g29
g3
NtRp175
(dp176
g32
g1
(g33
g3
NtRp177
(dp178
g10
(lp179
g1
(g37
g3
NtRp180
(dp181
g40
Nsg41
Nsg42
S'supported_profiles'
p182
sg15
Nsg19
Nsg44
S'VideoDecodeAcceleratorSupportedProfile[]'
p183
sg16
Nsbag1
(g37
g3
NtRp184
(dp185
g40
Nsg41
Nsg42
S'flags'
p186
sg15
Nsg19
Nsg44
S'uint32'
p187
sg16
Nsbasg16
Nsg19
Nsbsg15
Nsg16
Nsg42
S'VideoDecodeAcceleratorCapabilities'
p188
sg19
Nsbag1
(g29
g3
NtRp189
(dp190
g32
g1
(g33
g3
NtRp191
(dp192
g10
(lp193
g1
(g37
g3
NtRp194
(dp195
g40
Nsg41
Nsg42
S'profile'
p196
sg15
Nsg19
Nsg44
S'VideoCodecProfile'
p197
sg16
Nsbag1
(g37
g3
NtRp198
(dp199
g40
Nsg41
Nsg42
S'max_resolution'
p200
sg15
Nsg19
Nsg44
S'gfx.mojom.Size'
p201
sg16
Nsbag1
(g37
g3
NtRp202
(dp203
g40
Nsg41
Nsg42
S'max_framerate_numerator'
p204
sg15
Nsg19
Nsg44
S'uint32'
p205
sg16
Nsbag1
(g37
g3
NtRp206
(dp207
g40
Nsg41
Nsg42
S'max_framerate_denominator'
p208
sg15
Nsg19
Nsg44
S'uint32'
p209
sg16
Nsbasg16
Nsg19
Nsbsg15
Nsg16
Nsg42
S'VideoEncodeAcceleratorSupportedProfile'
p210
sg19
Nsbag1
(g29
g3
NtRp211
(dp212
g32
g1
(g33
g3
NtRp213
(dp214
g10
(lp215
g1
(g37
g3
NtRp216
(dp217
g40
Nsg41
Nsg42
S'initialization_time'
p218
sg15
Nsg19
Nsg44
S'mojo_base.mojom.TimeDelta'
p219
sg16
Nsbag1
(g37
g3
NtRp220
(dp221
g40
Nsg41
Nsg42
S'optimus'
p222
sg15
Nsg19
Nsg44
S'bool'
p223
sg16
Nsbag1
(g37
g3
NtRp224
(dp225
g40
Nsg41
Nsg42
S'amd_switchable'
p226
sg15
Nsg19
Nsg44
S'bool'
p227
sg16
Nsbag1
(g37
g3
NtRp228
(dp229
g40
Nsg41
Nsg42
S'gpu'
p230
sg15
Nsg19
Nsg44
S'GpuDevice'
p231
sg16
Nsbag1
(g37
g3
NtRp232
(dp233
g40
Nsg41
Nsg42
S'secondary_gpus'
p234
sg15
Nsg19
Nsg44
S'GpuDevice[]'
p235
sg16
Nsbag1
(g37
g3
NtRp236
(dp237
g40
Nsg41
Nsg42
S'driver_vendor'
p238
sg15
Nsg19
Nsg44
S'string'
p239
sg16
Nsbag1
(g37
g3
NtRp240
(dp241
g40
Nsg41
Nsg42
S'driver_version'
p242
sg15
Nsg19
Nsg44
S'string'
p243
sg16
Nsbag1
(g37
g3
NtRp244
(dp245
g40
Nsg41
Nsg42
S'driver_date'
p246
sg15
Nsg19
Nsg44
S'string'
p247
sg16
Nsbag1
(g37
g3
NtRp248
(dp249
g40
Nsg41
Nsg42
S'pixel_shader_version'
p250
sg15
Nsg19
Nsg44
S'string'
p251
sg16
Nsbag1
(g37
g3
NtRp252
(dp253
g40
Nsg41
Nsg42
S'vertex_shader_version'
p254
sg15
Nsg19
Nsg44
S'string'
p255
sg16
Nsbag1
(g37
g3
NtRp256
(dp257
g40
Nsg41
Nsg42
S'max_msaa_samples'
p258
sg15
Nsg19
Nsg44
S'string'
p259
sg16
Nsbag1
(g37
g3
NtRp260
(dp261
g40
Nsg41
Nsg42
S'machine_model_name'
p262
sg15
Nsg19
Nsg44
S'string'
p263
sg16
Nsbag1
(g37
g3
NtRp264
(dp265
g40
Nsg41
Nsg42
S'machine_model_version'
p266
sg15
Nsg19
Nsg44
S'string'
p267
sg16
Nsbag1
(g37
g3
NtRp268
(dp269
g40
Nsg41
Nsg42
S'gl_version'
p270
sg15
Nsg19
Nsg44
S'string'
p271
sg16
Nsbag1
(g37
g3
NtRp272
(dp273
g40
Nsg41
Nsg42
S'gl_vendor'
p274
sg15
Nsg19
Nsg44
S'string'
p275
sg16
Nsbag1
(g37
g3
NtRp276
(dp277
g40
Nsg41
Nsg42
S'gl_renderer'
p278
sg15
Nsg19
Nsg44
S'string'
p279
sg16
Nsbag1
(g37
g3
NtRp280
(dp281
g40
Nsg41
Nsg42
S'gl_extensions'
p282
sg15
Nsg19
Nsg44
S'string'
p283
sg16
Nsbag1
(g37
g3
NtRp284
(dp285
g40
Nsg41
Nsg42
S'gl_ws_vendor'
p286
sg15
Nsg19
Nsg44
S'string'
p287
sg16
Nsbag1
(g37
g3
NtRp288
(dp289
g40
Nsg41
Nsg42
S'gl_ws_version'
p290
sg15
Nsg19
Nsg44
S'string'
p291
sg16
Nsbag1
(g37
g3
NtRp292
(dp293
g40
Nsg41
Nsg42
S'gl_ws_extensions'
p294
sg15
Nsg19
Nsg44
S'string'
p295
sg16
Nsbag1
(g37
g3
NtRp296
(dp297
g40
Nsg41
Nsg42
S'gl_reset_notification_strategy'
p298
sg15
Nsg19
Nsg44
S'uint32'
p299
sg16
Nsbag1
(g37
g3
NtRp300
(dp301
g40
Nsg41
Nsg42
S'software_rendering'
p302
sg15
Nsg19
Nsg44
S'bool'
p303
sg16
Nsbag1
(g37
g3
NtRp304
(dp305
g40
Nsg41
Nsg42
S'direct_rendering'
p306
sg15
Nsg19
Nsg44
S'bool'
p307
sg16
Nsbag1
(g37
g3
NtRp308
(dp309
g40
Nsg41
Nsg42
S'sandboxed'
p310
sg15
Nsg19
Nsg44
S'bool'
p311
sg16
Nsbag1
(g37
g3
NtRp312
(dp313
g40
Nsg41
Nsg42
S'in_process_gpu'
p314
sg15
Nsg19
Nsg44
S'bool'
p315
sg16
Nsbag1
(g37
g3
NtRp316
(dp317
g40
Nsg41
Nsg42
S'passthrough_cmd_decoder'
p318
sg15
Nsg19
Nsg44
S'bool'
p319
sg16
Nsbag1
(g37
g3
NtRp320
(dp321
g40
Nsg41
Nsg42
S'direct_composition'
p322
sg15
Nsg19
Nsg44
S'bool'
p323
sg16
Nsbag1
(g37
g3
NtRp324
(dp325
g40
Nsg41
Nsg42
S'supports_overlays'
p326
sg15
Nsg19
Nsg44
S'bool'
p327
sg16
Nsbag1
(g37
g3
NtRp328
(dp329
g40
Nsg41
Nsg42
S'can_support_threaded_texture_mailbox'
p330
sg15
Nsg19
Nsg44
S'bool'
p331
sg16
Nsbag1
(g37
g3
NtRp332
(dp333
g40
Nsg41
Nsg42
S'video_decode_accelerator_capabilities'
p334
sg15
Nsg19
Nsg44
S'VideoDecodeAcceleratorCapabilities'
p335
sg16
Nsbag1
(g37
g3
NtRp336
(dp337
g40
Nsg41
Nsg42
S'video_encode_accelerator_supported_profiles'
p338
sg15
Nsg19
Nsg44
S'VideoEncodeAcceleratorSupportedProfile[]'
p339
sg16
Nsbag1
(g37
g3
NtRp340
(dp341
g40
Nsg41
Nsg42
S'jpeg_decode_accelerator_supported'
p342
sg15
Nsg19
Nsg44
S'bool'
p343
sg16
Nsbag1
(g37
g3
NtRp344
(dp345
g40
Nsg41
Nsg42
S'system_visual'
p346
sg15
Nsg19
Nsg44
S'uint64'
p347
sg16
Nsbag1
(g37
g3
NtRp348
(dp349
g40
Nsg41
Nsg42
S'rgba_visual'
p350
sg15
Nsg19
Nsg44
S'uint64'
p351
sg16
Nsbasg16
Nsg19
Nsbsg15
Nsg16
Nsg42
S'GpuInfo'
p352
sg19
Nsbasg16
NsS'module'
p353
g1
(cmojom.parse.ast
Module
p354
g3
NtRp355
(dp356
S'mojom_namespace'
p357
(S'IDENTIFIER'
p358
S'gpu.mojom'
tp359
sg16
I6
sg15
Nsg19
g20
sbsg19
Nsb.