ccopy_reg
_reconstructor
p1
(cmojom.parse.ast
Mojom
p2
c__builtin__
object
p3
NtRp4
(dp5
S'import_list'
p6
g1
(cmojom.parse.ast
ImportList
p7
g3
NtRp8
(dp9
S'items'
p10
(lp11
sS'lineno'
p12
NsS'filename'
p13
NsbsS'definition_list'
p14
(lp15
g1
(cmojom.parse.ast
Enum
p16
g3
NtRp17
(dp18
S'attribute_list'
p19
NsS'enum_value_list'
p20
g1
(cmojom.parse.ast
EnumValueList
p21
g3
NtRp22
(dp23
g10
(lp24
g1
(cmojom.parse.ast
EnumValue
p25
g3
NtRp26
(dp27
g19
NsS'value'
p28
Nsg12
I10
sS'mojom_name'
p29
S'Enabled'
p30
sg13
S'../../gpu/ipc/common/gpu_feature_info.mojom'
p31
sbag1
(g25
g3
NtRp32
(dp33
g19
Nsg28
Nsg12
I11
sg29
S'Blacklisted'
p34
sg13
g31
sbag1
(g25
g3
NtRp35
(dp36
g19
Nsg28
Nsg12
I12
sg29
S'Disabled'
p37
sg13
g31
sbag1
(g25
g3
NtRp38
(dp39
g19
Nsg28
Nsg12
I13
sg29
S'Software'
p40
sg13
g31
sbag1
(g25
g3
NtRp41
(dp42
g19
Nsg28
Nsg12
I14
sg29
S'Undefined'
p43
sg13
g31
sbag1
(g25
g3
NtRp44
(dp45
g19
Nsg28
Nsg12
I15
sg29
S'Max'
p46
sg13
g31
sbasg12
I10
sg13
g31
sbsg12
I9
sg29
S'GpuFeatureStatus'
p47
sg13
g31
sbag1
(cmojom.parse.ast
Struct
p48
g3
NtRp49
(dp50
S'body'
p51
g1
(cmojom.parse.ast
StructBody
p52
g3
NtRp53
(dp54
g10
(lp55
g1
(cmojom.parse.ast
StructField
p56
g3
NtRp57
(dp58
S'ordinal'
p59
NsS'default_value'
p60
Nsg29
S'status_values'
p61
sg19
Nsg13
NsS'typename'
p62
S'GpuFeatureStatus[]'
p63
sg12
Nsbag1
(g56
g3
NtRp64
(dp65
g59
Nsg60
Nsg29
S'enabled_gpu_driver_bug_workarounds'
p66
sg19
Nsg13
Nsg62
S'int32[]'
p67
sg12
Nsbag1
(g56
g3
NtRp68
(dp69
g59
Nsg60
Nsg29
S'disabled_extensions'
p70
sg19
Nsg13
Nsg62
S'string'
p71
sg12
Nsbag1
(g56
g3
NtRp72
(dp73
g59
Nsg60
Nsg29
S'disabled_webgl_extensions'
p74
sg19
Nsg13
Nsg62
S'string'
p75
sg12
Nsbag1
(g56
g3
NtRp76
(dp77
g59
Nsg60
Nsg29
S'applied_gpu_blacklist_entries'
p78
sg19
Nsg13
Nsg62
S'uint32[]'
p79
sg12
Nsbag1
(g56
g3
NtRp80
(dp81
g59
Nsg60
Nsg29
S'applied_gpu_driver_bug_list_entries'
p82
sg19
Nsg13
Nsg62
S'uint32[]'
p83
sg12
Nsbasg12
Nsg13
Nsbsg19
Nsg12
Nsg29
S'GpuFeatureInfo'
p84
sg13
Nsbasg12
NsS'module'
p85
g1
(cmojom.parse.ast
Module
p86
g3
NtRp87
(dp88
S'mojom_namespace'
p89
(S'IDENTIFIER'
p90
S'gpu.mojom'
tp91
sg12
I6
sg19
Nsg13
g31
sbsg13
Nsb.