ccopy_reg
_reconstructor
p1
(cmojom.parse.ast
Mojom
p2
c__builtin__
object
p3
NtRp4
(dp5
S'import_list'
p6
g1
(cmojom.parse.ast
ImportList
p7
g3
NtRp8
(dp9
S'items'
p10
(lp11
g1
(cmojom.parse.ast
Import
p12
g3
NtRp13
(dp14
S'attribute_list'
p15
NsS'lineno'
p16
I7
sS'import_filename'
p17
S'mojo/public/mojom/base/file.mojom'
p18
sS'filename'
p19
S'../../components/services/font/public/interfaces/font_service.mojom'
p20
sbasg16
I7
sg19
g20
sbsS'definition_list'
p21
(lp22
g1
(cmojom.parse.ast
Enum
p23
g3
NtRp24
(dp25
g15
NsS'enum_value_list'
p26
g1
(cmojom.parse.ast
EnumValueList
p27
g3
NtRp28
(dp29
g10
(lp30
g1
(cmojom.parse.ast
EnumValue
p31
g3
NtRp32
(dp33
g15
NsS'value'
p34
S'0'
sg16
I10
sS'mojom_name'
p35
S'ROMAN'
p36
sg19
g20
sbag1
(g31
g3
NtRp37
(dp38
g15
Nsg34
S'1'
sg16
I11
sg35
S'ITALIC'
p39
sg19
g20
sbag1
(g31
g3
NtRp40
(dp41
g15
Nsg34
S'2'
sg16
I12
sg35
S'OBLIQUE'
p42
sg19
g20
sbasg16
I10
sg19
g20
sbsg16
I9
sg35
S'TypefaceSlant'
p43
sg19
g20
sbag1
(cmojom.parse.ast
Struct
p44
g3
NtRp45
(dp46
S'body'
p47
g1
(cmojom.parse.ast
StructBody
p48
g3
NtRp49
(dp50
g10
(lp51
g1
(cmojom.parse.ast
StructField
p52
g3
NtRp53
(dp54
S'ordinal'
p55
NsS'default_value'
p56
Nsg35
S'weight'
p57
sg15
Nsg19
NsS'typename'
p58
S'uint16'
p59
sg16
Nsbag1
(g52
g3
NtRp60
(dp61
g55
Nsg56
Nsg35
S'width'
p62
sg15
Nsg19
Nsg58
S'uint8'
p63
sg16
Nsbag1
(g52
g3
NtRp64
(dp65
g55
Nsg56
Nsg35
S'slant'
p66
sg15
Nsg19
Nsg58
S'TypefaceSlant'
p67
sg16
Nsbasg16
Nsg19
Nsbsg15
Nsg16
Nsg35
S'TypefaceStyle'
p68
sg19
Nsbag1
(g44
g3
NtRp69
(dp70
g47
g1
(g48
g3
NtRp71
(dp72
g10
(lp73
g1
(g52
g3
NtRp74
(dp75
g55
Nsg56
Nsg35
S'id'
p76
sg15
Nsg19
Nsg58
S'uint32'
p77
sg16
Nsbag1
(g52
g3
NtRp78
(dp79
g55
Nsg56
Nsg35
S'ttc_index'
p80
sg15
Nsg19
Nsg58
S'int32'
p81
sg16
Nsbag1
(g52
g3
NtRp82
(dp83
g55
Nsg56
Nsg35
S'str_representation'
p84
sg15
Nsg19
Nsg58
S'string'
p85
sg16
Nsbasg16
Nsg19
Nsbsg15
Nsg16
Nsg35
S'FontIdentity'
p86
sg19
Nsbag1
(cmojom.parse.ast
Interface
p87
g3
NtRp88
(dp89
g47
g1
(cmojom.parse.ast
InterfaceBody
p90
g3
NtRp91
(dp92
g10
(lp93
g1
(cmojom.parse.ast
Method
p94
g3
NtRp95
(dp96
g55
Nsg35
S'MatchFamilyName'
p97
sS'parameter_list'
p98
g1
(cmojom.parse.ast
ParameterList
p99
g3
NtRp100
(dp101
g10
(lp102
g1
(cmojom.parse.ast
Parameter
p103
g3
NtRp104
(dp105
g55
Nsg35
S'family_name'
p106
sg15
Nsg19
g20
sg58
S'string'
p107
sg16
I43
sbag1
(g103
g3
NtRp108
(dp109
g55
Nsg35
S'style'
p110
sg15
Nsg19
g20
sg58
S'TypefaceStyle'
p111
sg16
I43
sbasg16
I43
sg19
g20
sbsg15
Nsg19
Nsg16
NsS'response_parameter_list'
p112
g1
(g99
g3
NtRp113
(dp114
g10
(lp115
g1
(g103
g3
NtRp116
(dp117
g55
Nsg35
S'identity'
p118
sg15
Nsg19
g20
sg58
S'FontIdentity?'
p119
sg16
I44
sbag1
(g103
g3
NtRp120
(dp121
g55
Nsg35
S'family_name'
p122
sg15
Nsg19
g20
sg58
S'string'
p123
sg16
I44
sbag1
(g103
g3
NtRp124
(dp125
g55
Nsg35
S'style'
p126
sg15
Nsg19
g20
sg58
S'TypefaceStyle'
p127
sg16
I44
sbasg16
I44
sg19
g20
sbsbag1
(g94
g3
NtRp128
(dp129
g55
Nsg35
S'OpenStream'
p130
sg98
g1
(g99
g3
NtRp131
(dp132
g10
(lp133
g1
(g103
g3
NtRp134
(dp135
g55
Nsg35
S'id_number'
p136
sg15
Nsg19
g20
sg58
S'uint32'
p137
sg16
I47
sbasg16
I47
sg19
g20
sbsg15
Nsg19
Nsg16
Nsg112
g1
(g99
g3
NtRp138
(dp139
g10
(lp140
g1
(g103
g3
NtRp141
(dp142
g55
Nsg35
S'font_handle'
p143
sg15
Nsg19
g20
sg58
S'mojo_base.mojom.File?'
p144
sg16
I47
sbasg16
I47
sg19
g20
sbsbasg16
Nsg19
Nsbsg15
Nsg16
Nsg35
S'FontService'
p145
sg19
Nsbasg16
NsS'module'
p146
g1
(cmojom.parse.ast
Module
p147
g3
NtRp148
(dp149
S'mojom_namespace'
p150
(S'IDENTIFIER'
p151
S'font_service.mojom'
tp152
sg16
I5
sg15
Nsg19
g20
sbsg19
Nsb.