ccopy_reg
_reconstructor
p1
(cmojom.parse.ast
Mojom
p2
c__builtin__
object
p3
NtRp4
(dp5
S'import_list'
p6
g1
(cmojom.parse.ast
ImportList
p7
g3
NtRp8
(dp9
S'items'
p10
(lp11
sS'lineno'
p12
NsS'filename'
p13
NsbsS'definition_list'
p14
(lp15
g1
(cmojom.parse.ast
Struct
p16
g3
NtRp17
(dp18
S'body'
p19
g1
(cmojom.parse.ast
StructBody
p20
g3
NtRp21
(dp22
g10
(lp23
g1
(cmojom.parse.ast
StructField
p24
g3
NtRp25
(dp26
S'ordinal'
p27
NsS'default_value'
p28
NsS'mojom_name'
p29
S'mime_type'
p30
sS'attribute_list'
p31
Nsg13
NsS'typename'
p32
S'string'
p33
sg12
Nsbag1
(g24
g3
NtRp34
(dp35
g27
Nsg28
Nsg29
S'original_url'
p36
sg31
Nsg13
Nsg32
S'string'
p37
sg12
Nsbag1
(g24
g3
NtRp38
(dp39
g27
Nsg28
Nsg29
S'stream_url'
p40
sg31
Nsg13
Nsg32
S'string'
p41
sg12
Nsbag1
(g24
g3
NtRp42
(dp43
g27
Nsg28
Nsg29
S'tab_id'
p44
sg31
Nsg13
Nsg32
S'int32'
p45
sg12
Nsbag1
(g24
g3
NtRp46
(dp47
g27
Nsg28
Nsg29
S'response_headers'
p48
sg31
Nsg13
Nsg32
S'string{string}'
p49
sg12
Nsbag1
(g24
g3
NtRp50
(dp51
g27
Nsg28
Nsg29
S'embedded'
p52
sg31
Nsg13
Nsg32
S'bool'
p53
sg12
Nsbasg12
Nsg13
Nsbsg31
Nsg12
Nsg29
S'StreamInfo'
p54
sg13
Nsbag1
(cmojom.parse.ast
Interface
p55
g3
NtRp56
(dp57
g19
g1
(cmojom.parse.ast
InterfaceBody
p58
g3
NtRp59
(dp60
g10
(lp61
g1
(cmojom.parse.ast
Method
p62
g3
NtRp63
(dp64
g27
Nsg29
S'GetStreamInfo'
p65
sS'parameter_list'
p66
g1
(cmojom.parse.ast
ParameterList
p67
g3
NtRp68
(dp69
g10
(lp70
sg12
Nsg13
Nsbsg31
Nsg13
Nsg12
NsS'response_parameter_list'
p71
g1
(g67
g3
NtRp72
(dp73
g10
(lp74
g1
(cmojom.parse.ast
Parameter
p75
g3
NtRp76
(dp77
g27
Nsg29
S'stream_info'
p78
sg31
Nsg13
S'../../extensions/common/api/mime_handler.mojom'
p79
sg32
S'StreamInfo?'
p80
sg12
I35
sbasg12
I35
sg13
g79
sbsbag1
(g62
g3
NtRp81
(dp82
g27
Nsg29
S'AbortStream'
p83
sg66
g1
(g67
g3
NtRp84
(dp85
g10
(lp86
sg12
Nsg13
Nsbsg31
Nsg13
Nsg12
Nsg71
g1
(g67
g3
NtRp87
(dp88
g10
(lp89
sg12
Nsg13
Nsbsbasg12
Nsg13
Nsbsg31
Nsg12
Nsg29
S'MimeHandlerService'
p90
sg13
Nsbasg12
NsS'module'
p91
g1
(cmojom.parse.ast
Module
p92
g3
NtRp93
(dp94
S'mojom_namespace'
p95
(S'IDENTIFIER'
p96
S'extensions.mime_handler'
tp97
sg12
I5
sg31
Nsg13
g79
sbsg13
Nsb.