ccopy_reg
_reconstructor
p1
(cmojom.parse.ast
Mojom
p2
c__builtin__
object
p3
NtRp4
(dp5
S'import_list'
p6
g1
(cmojom.parse.ast
ImportList
p7
g3
NtRp8
(dp9
S'items'
p10
(lp11
g1
(cmojom.parse.ast
Import
p12
g3
NtRp13
(dp14
S'attribute_list'
p15
NsS'lineno'
p16
I7
sS'import_filename'
p17
S'mojo/public/mojom/base/time.mojom'
p18
sS'filename'
p19
S'../../components/translate/content/common/translate.mojom'
p20
sbag1
(g12
g3
NtRp21
(dp22
g15
Nsg16
I8
sg17
S'mojo/public/mojom/base/string16.mojom'
p23
sg19
g20
sbag1
(g12
g3
NtRp24
(dp25
g15
Nsg16
I9
sg17
S'url/mojom/url.mojom'
p26
sg19
g20
sbasg16
I7
sg19
g20
sbsS'definition_list'
p27
(lp28
g1
(cmojom.parse.ast
Enum
p29
g3
NtRp30
(dp31
g15
NsS'enum_value_list'
p32
g1
(cmojom.parse.ast
EnumValueList
p33
g3
NtRp34
(dp35
g10
(lp36
g1
(cmojom.parse.ast
EnumValue
p37
g3
NtRp38
(dp39
g15
NsS'value'
p40
Nsg16
I12
sS'mojom_name'
p41
S'NONE'
p42
sg19
g20
sbag1
(g37
g3
NtRp43
(dp44
g15
Nsg40
Nsg16
I13
sg41
S'NETWORK'
p45
sg19
g20
sbag1
(g37
g3
NtRp46
(dp47
g15
Nsg40
Nsg16
I14
sg41
S'INITIALIZATION_ERROR'
p48
sg19
g20
sbag1
(g37
g3
NtRp49
(dp50
g15
Nsg40
Nsg16
I15
sg41
S'UNKNOWN_LANGUAGE'
p51
sg19
g20
sbag1
(g37
g3
NtRp52
(dp53
g15
Nsg40
Nsg16
I16
sg41
S'UNSUPPORTED_LANGUAGE'
p54
sg19
g20
sbag1
(g37
g3
NtRp55
(dp56
g15
Nsg40
Nsg16
I17
sg41
S'IDENTICAL_LANGUAGES'
p57
sg19
g20
sbag1
(g37
g3
NtRp58
(dp59
g15
Nsg40
Nsg16
I18
sg41
S'TRANSLATION_ERROR'
p60
sg19
g20
sbag1
(g37
g3
NtRp61
(dp62
g15
Nsg40
Nsg16
I19
sg41
S'TRANSLATION_TIMEOUT'
p63
sg19
g20
sbag1
(g37
g3
NtRp64
(dp65
g15
Nsg40
Nsg16
I20
sg41
S'UNEXPECTED_SCRIPT_ERROR'
p66
sg19
g20
sbag1
(g37
g3
NtRp67
(dp68
g15
Nsg40
Nsg16
I21
sg41
S'BAD_ORIGIN'
p69
sg19
g20
sbag1
(g37
g3
NtRp70
(dp71
g15
Nsg40
Nsg16
I22
sg41
S'SCRIPT_LOAD_ERROR'
p72
sg19
g20
sbag1
(g37
g3
NtRp73
(dp74
g15
Nsg40
Nsg16
I23
sg41
S'TRANSLATE_ERROR_MAX'
p75
sg19
g20
sbasg16
I12
sg19
g20
sbsg16
I11
sg41
S'TranslateError'
p76
sg19
g20
sbag1
(cmojom.parse.ast
Struct
p77
g3
NtRp78
(dp79
S'body'
p80
g1
(cmojom.parse.ast
StructBody
p81
g3
NtRp82
(dp83
g10
(lp84
g1
(cmojom.parse.ast
StructField
p85
g3
NtRp86
(dp87
S'ordinal'
p88
NsS'default_value'
p89
Nsg41
S'time'
p90
sg15
Nsg19
NsS'typename'
p91
S'mojo_base.mojom.Time'
p92
sg16
Nsbag1
(g85
g3
NtRp93
(dp94
g88
Nsg89
Nsg41
S'url'
p95
sg15
Nsg19
Nsg91
S'url.mojom.Url'
p96
sg16
Nsbag1
(g85
g3
NtRp97
(dp98
g88
Nsg89
Nsg41
S'content_language'
p99
sg15
Nsg19
Nsg91
S'string'
p100
sg16
Nsbag1
(g85
g3
NtRp101
(dp102
g88
Nsg89
Nsg41
S'cld_language'
p103
sg15
Nsg19
Nsg91
S'string'
p104
sg16
Nsbag1
(g85
g3
NtRp105
(dp106
g88
Nsg89
Nsg41
S'is_cld_reliable'
p107
sg15
Nsg19
Nsg91
S'bool'
p108
sg16
Nsbag1
(g85
g3
NtRp109
(dp110
g88
Nsg89
Nsg41
S'has_notranslate'
p111
sg15
Nsg19
Nsg91
S'bool'
p112
sg16
Nsbag1
(g85
g3
NtRp113
(dp114
g88
Nsg89
Nsg41
S'html_root_language'
p115
sg15
Nsg19
Nsg91
S'string'
p116
sg16
Nsbag1
(g85
g3
NtRp117
(dp118
g88
Nsg89
Nsg41
S'adopted_language'
p119
sg15
Nsg19
Nsg91
S'string'
p120
sg16
Nsbag1
(g85
g3
NtRp121
(dp122
g88
Nsg89
Nsg41
S'contents'
p123
sg15
Nsg19
Nsg91
S'mojo_base.mojom.String16'
p124
sg16
Nsbasg16
Nsg19
Nsbsg15
Nsg16
Nsg41
S'LanguageDetectionDetails'
p125
sg19
Nsbag1
(cmojom.parse.ast
Interface
p126
g3
NtRp127
(dp128
g80
g1
(cmojom.parse.ast
InterfaceBody
p129
g3
NtRp130
(dp131
g10
(lp132
g1
(cmojom.parse.ast
Method
p133
g3
NtRp134
(dp135
g88
Nsg41
S'Translate'
p136
sS'parameter_list'
p137
g1
(cmojom.parse.ast
ParameterList
p138
g3
NtRp139
(dp140
g10
(lp141
g1
(cmojom.parse.ast
Parameter
p142
g3
NtRp143
(dp144
g88
Nsg41
S'translate_script'
p145
sg15
Nsg19
g20
sg91
S'string'
p146
sg16
I52
sbag1
(g142
g3
NtRp147
(dp148
g88
Nsg41
S'source_lang'
p149
sg15
Nsg19
g20
sg91
S'string'
p150
sg16
I52
sbag1
(g142
g3
NtRp151
(dp152
g88
Nsg41
S'target_lang'
p153
sg15
Nsg19
g20
sg91
S'string'
p154
sg16
I52
sbasg16
I52
sg19
g20
sbsg15
Nsg19
Nsg16
NsS'response_parameter_list'
p155
g1
(g138
g3
NtRp156
(dp157
g10
(lp158
g1
(g142
g3
NtRp159
(dp160
g88
Nsg41
S'cancelled'
p161
sg15
Nsg19
g20
sg91
S'bool'
p162
sg16
I53
sbag1
(g142
g3
NtRp163
(dp164
g88
Nsg41
S'original_lang'
p165
sg15
Nsg19
g20
sg91
S'string'
p166
sg16
I53
sbag1
(g142
g3
NtRp167
(dp168
g88
Nsg41
S'translated_lang'
p169
sg15
Nsg19
g20
sg91
S'string'
p170
sg16
I53
sbag1
(g142
g3
NtRp171
(dp172
g88
Nsg41
S'error'
p173
sg15
Nsg19
g20
sg91
S'TranslateError'
p174
sg16
I54
sbasg16
I53
sg19
g20
sbsbag1
(g133
g3
NtRp175
(dp176
g88
Nsg41
S'RevertTranslation'
p177
sg137
g1
(g138
g3
NtRp178
(dp179
g10
(lp180
sg16
Nsg19
Nsbsg15
Nsg19
Nsg16
Nsg155
Nsbasg16
Nsg19
Nsbsg15
Nsg16
Nsg41
S'Page'
p181
sg19
Nsbag1
(g126
g3
NtRp182
(dp183
g80
g1
(g129
g3
NtRp184
(dp185
g10
(lp186
g1
(g133
g3
NtRp187
(dp188
g88
Nsg41
S'RegisterPage'
p189
sg137
g1
(g138
g3
NtRp190
(dp191
g10
(lp192
g1
(g142
g3
NtRp193
(dp194
g88
Nsg41
S'page'
p195
sg15
Nsg19
g20
sg91
S'Page'
p196
sg16
I64
sbag1
(g142
g3
NtRp197
(dp198
g88
Nsg41
S'details'
p199
sg15
Nsg19
g20
sg91
S'LanguageDetectionDetails'
p200
sg16
I64
sbag1
(g142
g3
NtRp201
(dp202
g88
Nsg41
S'page_needs_translation'
p203
sg15
Nsg19
g20
sg91
S'bool'
p204
sg16
I65
sbasg16
I64
sg19
g20
sbsg15
Nsg19
Nsg16
Nsg155
Nsbasg16
Nsg19
Nsbsg15
Nsg16
Nsg41
S'ContentTranslateDriver'
p205
sg19
Nsbasg16
NsS'module'
p206
g1
(cmojom.parse.ast
Module
p207
g3
NtRp208
(dp209
S'mojom_namespace'
p210
(S'IDENTIFIER'
p211
S'translate.mojom'
tp212
sg16
I5
sg15
Nsg19
g20
sbsg19
Nsb.