ccopy_reg
_reconstructor
p1
(cmojom.parse.ast
Mojom
p2
c__builtin__
object
p3
NtRp4
(dp5
S'import_list'
p6
g1
(cmojom.parse.ast
ImportList
p7
g3
NtRp8
(dp9
S'items'
p10
(lp11
g1
(cmojom.parse.ast
Import
p12
g3
NtRp13
(dp14
S'attribute_list'
p15
NsS'lineno'
p16
I7
sS'import_filename'
p17
S'mojo/public/mojom/base/process_id.mojom'
p18
sS'filename'
p19
S'../../services/resource_coordinator/public/mojom/memory_instrumentation/memory_instrumentation.mojom'
p20
sbasg16
I7
sg19
g20
sbsS'definition_list'
p21
(lp22
g1
(cmojom.parse.ast
Enum
p23
g3
NtRp24
(dp25
g15
NsS'enum_value_list'
p26
g1
(cmojom.parse.ast
EnumValueList
p27
g3
NtRp28
(dp29
g10
(lp30
g1
(cmojom.parse.ast
EnumValue
p31
g3
NtRp32
(dp33
g15
NsS'value'
p34
Nsg16
I12
sS'mojom_name'
p35
S'PERIODIC_INTERVAL'
p36
sg19
g20
sbag1
(g31
g3
NtRp37
(dp38
g15
Nsg34
Nsg16
I13
sg35
S'EXPLICITLY_TRIGGERED'
p39
sg19
g20
sbag1
(g31
g3
NtRp40
(dp41
g15
Nsg34
Nsg16
I14
sg35
S'PEAK_MEMORY_USAGE'
p42
sg19
g20
sbag1
(g31
g3
NtRp43
(dp44
g15
Nsg34
Nsg16
I15
sg35
S'SUMMARY_ONLY'
p45
sg19
g20
sbasg16
I12
sg19
g20
sbsg16
I11
sg35
S'DumpType'
p46
sg19
g20
sbag1
(g23
g3
NtRp47
(dp48
g15
Nsg26
g1
(g27
g3
NtRp49
(dp50
g10
(lp51
g1
(g31
g3
NtRp52
(dp53
g15
Nsg34
Nsg16
I19
sg35
S'BACKGROUND'
p54
sg19
g20
sbag1
(g31
g3
NtRp55
(dp56
g15
Nsg34
Nsg16
I20
sg35
S'LIGHT'
p57
sg19
g20
sbag1
(g31
g3
NtRp58
(dp59
g15
Nsg34
Nsg16
I21
sg35
S'DETAILED'
p60
sg19
g20
sbasg16
I19
sg19
g20
sbsg16
I18
sg35
S'LevelOfDetail'
p61
sg19
g20
sbag1
(g23
g3
NtRp62
(dp63
g15
Nsg26
g1
(g27
g3
NtRp64
(dp65
g10
(lp66
g1
(g31
g3
NtRp67
(dp68
g15
Nsg34
Nsg16
I25
sg35
S'OTHER'
p69
sg19
g20
sbag1
(g31
g3
NtRp70
(dp71
g15
Nsg34
Nsg16
I26
sg35
S'BROWSER'
p72
sg19
g20
sbag1
(g31
g3
NtRp73
(dp74
g15
Nsg34
Nsg16
I27
sg35
S'RENDERER'
p75
sg19
g20
sbag1
(g31
g3
NtRp76
(dp77
g15
Nsg34
Nsg16
I28
sg35
S'GPU'
p78
sg19
g20
sbag1
(g31
g3
NtRp79
(dp80
g15
Nsg34
Nsg16
I29
sg35
S'UTILITY'
p81
sg19
g20
sbag1
(g31
g3
NtRp82
(dp83
g15
Nsg34
Nsg16
I30
sg35
S'PLUGIN'
p84
sg19
g20
sbasg16
I25
sg19
g20
sbsg16
I24
sg35
S'ProcessType'
p85
sg19
g20
sbag1
(g23
g3
NtRp86
(dp87
g15
Nsg26
g1
(g27
g3
NtRp88
(dp89
g10
(lp90
g1
(g31
g3
NtRp91
(dp92
g15
Nsg34
Nsg16
I34
sg35
S'DISABLED'
p93
sg19
g20
sbag1
(g31
g3
NtRp94
(dp95
g15
Nsg34
Nsg16
I35
sg35
S'TASK_PROFILER'
p96
sg19
g20
sbag1
(g31
g3
NtRp97
(dp98
g15
Nsg34
Nsg16
I36
sg35
S'BACKGROUND'
p99
sg19
g20
sbag1
(g31
g3
NtRp100
(dp101
g15
Nsg34
Nsg16
I37
sg35
S'PSEUDO_STACK'
p102
sg19
g20
sbag1
(g31
g3
NtRp103
(dp104
g15
Nsg34
Nsg16
I38
sg35
S'NATIVE_STACK'
p105
sg19
g20
sbasg16
I34
sg19
g20
sbsg16
I33
sg35
S'HeapProfilingMode'
p106
sg19
g20
sbag1
(g23
g3
NtRp107
(dp108
g15
Nsg26
g1
(g27
g3
NtRp109
(dp110
g10
(lp111
g1
(g31
g3
NtRp112
(dp113
g15
Nsg34
Nsg16
I44
sg35
S'NONE'
p114
sg19
g20
sbag1
(g31
g3
NtRp115
(dp116
g15
Nsg34
Nsg16
I48
sg35
S'MODULES'
p117
sg19
g20
sbag1
(g31
g3
NtRp118
(dp119
g15
Nsg34
Nsg16
I51
sg35
S'FULL'
p120
sg19
g20
sbasg16
I44
sg19
g20
sbsg16
I41
sg35
S'MemoryMapOption'
p121
sg19
g20
sbag1
(cmojom.parse.ast
Struct
p122
g3
NtRp123
(dp124
S'body'
p125
g1
(cmojom.parse.ast
StructBody
p126
g3
NtRp127
(dp128
g10
(lp129
g1
(cmojom.parse.ast
StructField
p130
g3
NtRp131
(dp132
S'ordinal'
p133
NsS'default_value'
p134
Nsg35
S'dump_guid'
p135
sg15
Nsg19
NsS'typename'
p136
S'uint64'
p137
sg16
Nsbag1
(g130
g3
NtRp138
(dp139
g133
Nsg134
Nsg35
S'dump_type'
p140
sg15
Nsg19
Nsg136
S'DumpType'
p141
sg16
Nsbag1
(g130
g3
NtRp142
(dp143
g133
Nsg134
Nsg35
S'level_of_detail'
p144
sg15
Nsg19
Nsg136
S'LevelOfDetail'
p145
sg16
Nsbasg16
Nsg19
Nsbsg15
Nsg16
Nsg35
S'RequestArgs'
p146
sg19
Nsbag1
(g122
g3
NtRp147
(dp148
g125
g1
(g126
g3
NtRp149
(dp150
g10
(lp151
g1
(g130
g3
NtRp152
(dp153
g133
Nsg134
Nsg35
S'source_id'
p154
sg15
Nsg19
Nsg136
S'uint64'
p155
sg16
Nsbag1
(g130
g3
NtRp156
(dp157
g133
Nsg134
Nsg35
S'target_id'
p158
sg15
Nsg19
Nsg136
S'uint64'
p159
sg16
Nsbag1
(g130
g3
NtRp160
(dp161
g133
Nsg134
Nsg35
S'importance'
p162
sg15
Nsg19
Nsg136
S'int64'
p163
sg16
Nsbag1
(g130
g3
NtRp164
(dp165
g133
Nsg134
Nsg35
S'overridable'
p166
sg15
Nsg19
Nsg136
S'bool'
p167
sg16
Nsbasg16
Nsg19
Nsbsg15
Nsg16
Nsg35
S'RawAllocatorDumpEdge'
p168
sg19
Nsbag1
(cmojom.parse.ast
Union
p169
g3
NtRp170
(dp171
g125
g1
(cmojom.parse.ast
UnionBody
p172
g3
NtRp173
(dp174
g10
(lp175
g1
(cmojom.parse.ast
UnionField
p176
g3
NtRp177
(dp178
g133
Nsg35
S'value_uint64'
p179
sg15
Nsg19
Nsg136
S'uint64'
p180
sg16
Nsbag1
(g176
g3
NtRp181
(dp182
g133
Nsg35
S'value_string'
p183
sg15
Nsg19
Nsg136
S'string'
p184
sg16
Nsbasg16
Nsg19
Nsbsg15
Nsg16
Nsg35
S'RawAllocatorDumpEntryValue'
p185
sg19
Nsbag1
(g122
g3
NtRp186
(dp187
g125
g1
(g126
g3
NtRp188
(dp189
g10
(lp190
g1
(g130
g3
NtRp191
(dp192
g133
Nsg134
Nsg35
S'name'
p193
sg15
Nsg19
Nsg136
S'string'
p194
sg16
Nsbag1
(g130
g3
NtRp195
(dp196
g133
Nsg134
Nsg35
S'units'
p197
sg15
Nsg19
Nsg136
S'string'
p198
sg16
Nsbag1
(g130
g3
NtRp199
(dp200
g133
Nsg134
Nsg35
S'value'
p201
sg15
Nsg19
Nsg136
S'RawAllocatorDumpEntryValue'
p202
sg16
Nsbasg16
Nsg19
Nsbsg15
Nsg16
Nsg35
S'RawAllocatorDumpEntry'
p203
sg19
Nsbag1
(g122
g3
NtRp204
(dp205
g125
g1
(g126
g3
NtRp206
(dp207
g10
(lp208
g1
(g130
g3
NtRp209
(dp210
g133
Nsg134
Nsg35
S'id'
p211
sg15
Nsg19
Nsg136
S'uint64'
p212
sg16
Nsbag1
(g130
g3
NtRp213
(dp214
g133
Nsg134
Nsg35
S'absolute_name'
p215
sg15
Nsg19
Nsg136
S'string'
p216
sg16
Nsbag1
(g130
g3
NtRp217
(dp218
g133
Nsg134
Nsg35
S'weak'
p219
sg15
Nsg19
Nsg136
S'bool'
p220
sg16
Nsbag1
(g130
g3
NtRp221
(dp222
g133
Nsg134
Nsg35
S'level_of_detail'
p223
sg15
Nsg19
Nsg136
S'LevelOfDetail'
p224
sg16
Nsbag1
(g130
g3
NtRp225
(dp226
g133
Nsg134
Nsg35
S'entries'
p227
sg15
Nsg19
Nsg136
S'RawAllocatorDumpEntry[]'
p228
sg16
Nsbasg16
Nsg19
Nsbsg15
Nsg16
Nsg35
S'RawAllocatorDump'
p229
sg19
Nsbag1
(g122
g3
NtRp230
(dp231
g125
g1
(g126
g3
NtRp232
(dp233
g10
(lp234
g1
(g130
g3
NtRp235
(dp236
g133
Nsg134
Nsg35
S'level_of_detail'
p237
sg15
Nsg19
Nsg136
S'LevelOfDetail'
p238
sg16
Nsbag1
(g130
g3
NtRp239
(dp240
g133
Nsg134
Nsg35
S'allocator_dump_edges'
p241
sg15
Nsg19
Nsg136
S'RawAllocatorDumpEdge[]'
p242
sg16
Nsbag1
(g130
g3
NtRp243
(dp244
g133
Nsg134
Nsg35
S'allocator_dumps'
p245
sg15
Nsg19
Nsg136
S'RawAllocatorDump[]'
p246
sg16
Nsbasg16
Nsg19
Nsbsg15
Nsg16
Nsg35
S'RawProcessMemoryDump'
p247
sg19
Nsbag1
(g122
g3
NtRp248
(dp249
g125
g1
(g126
g3
NtRp250
(dp251
g10
(lp252
g1
(cmojom.parse.ast
Const
p253
g3
NtRp254
(dp255
g35
S'kProtectionFlagsRead'
p256
sg15
Nsg34
S'4'
sg19
Nsg136
S'uint32'
p257
sg16
Nsbag1
(g253
g3
NtRp258
(dp259
g35
S'kProtectionFlagsWrite'
p260
sg15
Nsg34
S'2'
sg19
Nsg136
S'uint32'
p261
sg16
Nsbag1
(g253
g3
NtRp262
(dp263
g35
S'kProtectionFlagsExec'
p264
sg15
Nsg34
S'1'
sg19
Nsg136
S'uint32'
p265
sg16
Nsbag1
(g253
g3
NtRp266
(dp267
g35
S'kProtectionFlagsMayshare'
p268
sg15
Nsg34
S'128'
p269
sg19
Nsg136
S'uint32'
p270
sg16
Nsbag1
(g130
g3
NtRp271
(dp272
g133
Nsg134
Nsg35
S'start_address'
p273
sg15
Nsg19
Nsg136
S'uint64'
p274
sg16
Nsbag1
(g130
g3
NtRp275
(dp276
g133
Nsg134
Nsg35
S'size_in_bytes'
p277
sg15
Nsg19
Nsg136
S'uint64'
p278
sg16
Nsbag1
(g130
g3
NtRp279
(dp280
g133
Nsg134
Nsg35
S'module_timestamp'
p281
sg15
Nsg19
Nsg136
S'uint64'
p282
sg16
Nsbag1
(g130
g3
NtRp283
(dp284
g133
Nsg134
Nsg35
S'module_debugid'
p285
sg15
Nsg19
Nsg136
S'string'
p286
sg16
Nsbag1
(g130
g3
NtRp287
(dp288
g133
Nsg134
Nsg35
S'module_debug_path'
p289
sg15
Nsg19
Nsg136
S'string'
p290
sg16
Nsbag1
(g130
g3
NtRp291
(dp292
g133
Nsg134
Nsg35
S'protection_flags'
p293
sg15
Nsg19
Nsg136
S'uint32'
p294
sg16
Nsbag1
(g130
g3
NtRp295
(dp296
g133
Nsg134
Nsg35
S'mapped_file'
p297
sg15
Nsg19
Nsg136
S'string'
p298
sg16
Nsbag1
(g130
g3
NtRp299
(dp300
g133
Nsg134
Nsg35
S'byte_stats_private_dirty_resident'
p301
sg15
Nsg19
Nsg136
S'uint64'
p302
sg16
Nsbag1
(g130
g3
NtRp303
(dp304
g133
Nsg134
Nsg35
S'byte_stats_private_clean_resident'
p305
sg15
Nsg19
Nsg136
S'uint64'
p306
sg16
Nsbag1
(g130
g3
NtRp307
(dp308
g133
Nsg134
Nsg35
S'byte_stats_shared_dirty_resident'
p309
sg15
Nsg19
Nsg136
S'uint64'
p310
sg16
Nsbag1
(g130
g3
NtRp311
(dp312
g133
Nsg134
Nsg35
S'byte_stats_shared_clean_resident'
p313
sg15
Nsg19
Nsg136
S'uint64'
p314
sg16
Nsbag1
(g130
g3
NtRp315
(dp316
g133
Nsg134
Nsg35
S'byte_stats_swapped'
p317
sg15
Nsg19
Nsg136
S'uint64'
p318
sg16
Nsbag1
(g130
g3
NtRp319
(dp320
g133
Nsg134
Nsg35
S'byte_stats_proportional_resident'
p321
sg15
Nsg19
Nsg136
S'uint64'
p322
sg16
Nsbasg16
Nsg19
Nsbsg15
Nsg16
Nsg35
S'VmRegion'
p323
sg19
Nsbag1
(g122
g3
NtRp324
(dp325
g125
g1
(g126
g3
NtRp326
(dp327
g10
(lp328
g1
(g130
g3
NtRp329
(dp330
g133
Nsg134
S'0'
sg35
S'phys_footprint_bytes'
p331
sg15
Nsg19
Nsg136
S'uint64'
p332
sg16
Nsbag1
(g130
g3
NtRp333
(dp334
g133
Nsg134
S'0'
sg35
S'internal_bytes'
p335
sg15
Nsg19
Nsg136
S'uint64'
p336
sg16
Nsbag1
(g130
g3
NtRp337
(dp338
g133
Nsg134
S'0'
sg35
S'compressed_bytes'
p339
sg15
Nsg19
Nsg136
S'uint64'
p340
sg16
Nsbag1
(g130
g3
NtRp341
(dp342
g133
Nsg134
S'0'
sg35
S'rss_anon_bytes'
p343
sg15
Nsg19
Nsg136
S'uint64'
p344
sg16
Nsbag1
(g130
g3
NtRp345
(dp346
g133
Nsg134
S'0'
sg35
S'vm_swap_bytes'
p347
sg15
Nsg19
Nsg136
S'uint64'
p348
sg16
Nsbag1
(g130
g3
NtRp349
(dp350
g133
Nsg134
S'0'
sg35
S'private_bytes'
p351
sg15
Nsg19
Nsg136
S'uint64'
p352
sg16
Nsbasg16
Nsg19
Nsbsg15
Nsg16
Nsg35
S'PlatformPrivateFootprint'
p353
sg19
Nsbag1
(g122
g3
NtRp354
(dp355
g125
g1
(g126
g3
NtRp356
(dp357
g10
(lp358
g1
(g130
g3
NtRp359
(dp360
g133
Nsg134
S'0'
sg35
S'resident_set_kb'
p361
sg15
Nsg19
Nsg136
S'uint32'
p362
sg16
Nsbag1
(g130
g3
NtRp363
(dp364
g133
Nsg134
Nsg35
S'platform_private_footprint'
p365
sg15
Nsg19
Nsg136
S'PlatformPrivateFootprint'
p366
sg16
Nsbag1
(g130
g3
NtRp367
(dp368
g133
Nsg134
Nsg35
S'memory_maps'
p369
sg15
Nsg19
Nsg136
S'VmRegion[]'
p370
sg16
Nsbasg16
Nsg19
Nsbsg15
Nsg16
Nsg35
S'RawOSMemDump'
p371
sg19
Nsbag1
(g122
g3
NtRp372
(dp373
g125
g1
(g126
g3
NtRp374
(dp375
g10
(lp376
g1
(g130
g3
NtRp377
(dp378
g133
Nsg134
S'0'
sg35
S'resident_set_kb'
p379
sg15
Nsg19
Nsg136
S'uint32'
p380
sg16
Nsbag1
(g130
g3
NtRp381
(dp382
g133
Nsg134
S'0'
sg35
S'private_footprint_kb'
p383
sg15
Nsg19
Nsg136
S'uint32'
p384
sg16
Nsbag1
(g130
g3
NtRp385
(dp386
g133
Nsg134
S'0'
sg35
S'shared_footprint_kb'
p387
sg15
Nsg19
Nsg136
S'uint32'
p388
sg16
Nsbag1
(g130
g3
NtRp389
(dp390
g133
Nsg134
S'0'
sg35
S'private_footprint_swap_kb'
p391
sg15
g1
(cmojom.parse.ast
AttributeList
p392
g3
NtRp393
(dp394
g10
(lp395
g1
(cmojom.parse.ast
Attribute
p396
g3
NtRp397
(dp398
g34
S'private_swap_info'
p399
sg16
I167
sS'key'
p400
S'EnableIf'
p401
sg19
g20
sbasg16
I167
sg19
g20
sbsg19
Nsg136
S'uint32'
p402
sg16
Nsbasg16
Nsg19
Nsbsg15
Nsg16
Nsg35
S'OSMemDump'
p403
sg19
Nsbag1
(g122
g3
NtRp404
(dp405
g125
g1
(g126
g3
NtRp406
(dp407
g10
(lp408
g1
(g130
g3
NtRp409
(dp410
g133
Nsg134
Nsg35
S'numeric_entries'
p411
sg15
Nsg19
Nsg136
S'uint64{string}'
p412
sg16
Nsbasg16
Nsg19
Nsbsg15
Nsg16
Nsg35
S'AllocatorMemDump'
p413
sg19
Nsbag1
(g122
g3
NtRp414
(dp415
g125
g1
(g126
g3
NtRp416
(dp417
g10
(lp418
g1
(g130
g3
NtRp419
(dp420
g133
Nsg134
Nsg35
S'process_type'
p421
sg15
Nsg19
Nsg136
S'ProcessType'
p422
sg16
Nsbag1
(g130
g3
NtRp423
(dp424
g133
Nsg134
Nsg35
S'os_dump'
p425
sg15
Nsg19
Nsg136
S'OSMemDump'
p426
sg16
Nsbag1
(g130
g3
NtRp427
(dp428
g133
Nsg134
Nsg35
S'chrome_allocator_dumps'
p429
sg15
Nsg19
Nsg136
S'AllocatorMemDump{string}'
p430
sg16
Nsbag1
(g130
g3
NtRp431
(dp432
g133
Nsg134
Nsg35
S'pid'
p433
sg15
Nsg19
Nsg136
S'mojo_base.mojom.ProcessId'
p434
sg16
Nsbasg16
Nsg19
Nsbsg15
Nsg16
Nsg35
S'ProcessMemoryDump'
p435
sg19
Nsbag1
(g122
g3
NtRp436
(dp437
g125
g1
(g126
g3
NtRp438
(dp439
g10
(lp440
g1
(g130
g3
NtRp441
(dp442
g133
Nsg134
Nsg35
S'process_dumps'
p443
sg15
Nsg19
Nsg136
S'ProcessMemoryDump[]'
p444
sg16
Nsbasg16
Nsg19
Nsbsg15
Nsg16
Nsg35
S'GlobalMemoryDump'
p445
sg19
Nsbag1
(cmojom.parse.ast
Interface
p446
g3
NtRp447
(dp448
g125
g1
(cmojom.parse.ast
InterfaceBody
p449
g3
NtRp450
(dp451
g10
(lp452
g1
(cmojom.parse.ast
Method
p453
g3
NtRp454
(dp455
g133
Nsg35
S'RequestChromeMemoryDump'
p456
sS'parameter_list'
p457
g1
(cmojom.parse.ast
ParameterList
p458
g3
NtRp459
(dp460
g10
(lp461
g1
(cmojom.parse.ast
Parameter
p462
g3
NtRp463
(dp464
g133
Nsg35
S'args'
p465
sg15
Nsg19
g20
sg136
S'RequestArgs'
p466
sg16
I211
sbasg16
I211
sg19
g20
sbsg15
Nsg19
Nsg16
NsS'response_parameter_list'
p467
g1
(g458
g3
NtRp468
(dp469
g10
(lp470
g1
(g462
g3
NtRp471
(dp472
g133
Nsg35
S'success'
p473
sg15
Nsg19
g20
sg136
S'bool'
p474
sg16
I212
sbag1
(g462
g3
NtRp475
(dp476
g133
Nsg35
S'dump_id'
p477
sg15
Nsg19
g20
sg136
S'uint64'
p478
sg16
I212
sbag1
(g462
g3
NtRp479
(dp480
g133
Nsg35
S'raw_process_memory_dump'
p481
sg15
Nsg19
g20
sg136
S'RawProcessMemoryDump?'
p482
sg16
I212
sbasg16
I212
sg19
g20
sbsbag1
(g453
g3
NtRp483
(dp484
g133
Nsg35
S'EnableHeapProfiling'
p485
sg457
g1
(g458
g3
NtRp486
(dp487
g10
(lp488
g1
(g462
g3
NtRp489
(dp490
g133
Nsg35
S'mode'
p491
sg15
Nsg19
g20
sg136
S'HeapProfilingMode'
p492
sg16
I215
sbasg16
I215
sg19
g20
sbsg15
Nsg19
Nsg16
Nsg467
g1
(g458
g3
NtRp493
(dp494
g10
(lp495
g1
(g462
g3
NtRp496
(dp497
g133
Nsg35
S'success'
p498
sg15
Nsg19
g20
sg136
S'bool'
p499
sg16
I216
sbasg16
I216
sg19
g20
sbsbag1
(g453
g3
NtRp500
(dp501
g133
Nsg35
S'RequestOSMemoryDump'
p502
sg457
g1
(g458
g3
NtRp503
(dp504
g10
(lp505
g1
(g462
g3
NtRp506
(dp507
g133
Nsg35
S'option'
p508
sg15
Nsg19
g20
sg136
S'MemoryMapOption'
p509
sg16
I232
sbag1
(g462
g3
NtRp510
(dp511
g133
Nsg35
S'pids'
p512
sg15
Nsg19
g20
sg136
S'mojo_base.mojom.ProcessId[]'
p513
sg16
I232
sbasg16
I232
sg19
g20
sbsg15
Nsg19
Nsg16
Nsg467
g1
(g458
g3
NtRp514
(dp515
g10
(lp516
g1
(g462
g3
NtRp517
(dp518
g133
Nsg35
S'success'
p519
sg15
Nsg19
g20
sg136
S'bool'
p520
sg16
I233
sbag1
(g462
g3
NtRp521
(dp522
g133
Nsg35
S'dumps'
p523
sg15
Nsg19
g20
sg136
S'RawOSMemDump{mojo_base.mojom.ProcessId}'
p524
sg16
I233
sbasg16
I233
sg19
g20
sbsbasg16
Nsg19
Nsbsg15
Nsg16
Nsg35
S'ClientProcess'
p525
sg19
Nsbag1
(g122
g3
NtRp526
(dp527
g125
g1
(g126
g3
NtRp528
(dp529
g10
(lp530
g1
(g130
g3
NtRp531
(dp532
g133
Nsg134
Nsg35
S'buffer'
p533
sg15
Nsg19
Nsg136
S'handle<shared_buffer>'
p534
sg16
Nsbag1
(g130
g3
NtRp535
(dp536
g133
Nsg134
Nsg35
S'size'
p537
sg15
Nsg19
Nsg136
S'uint32'
p538
sg16
Nsbag1
(g130
g3
NtRp539
(dp540
g133
Nsg134
Nsg35
S'pid'
p541
sg15
Nsg19
Nsg136
S'mojo_base.mojom.ProcessId'
p542
sg16
Nsbasg16
Nsg19
Nsbsg15
Nsg16
Nsg35
S'SharedBufferWithSize'
p543
sg19
Nsbag1
(g446
g3
NtRp544
(dp545
g125
g1
(g449
g3
NtRp546
(dp547
g10
(lp548
g1
(g453
g3
NtRp549
(dp550
g133
Nsg35
S'DumpProcessesForTracing'
p551
sg457
g1
(g458
g3
NtRp552
(dp553
g10
(lp554
g1
(g462
g3
NtRp555
(dp556
g133
Nsg35
S'strip_path_from_mapped_files'
p557
sg15
Nsg19
g20
sg136
S'bool'
p558
sg16
I259
sbasg16
I259
sg19
g20
sbsg15
Nsg19
Nsg16
Nsg467
g1
(g458
g3
NtRp559
(dp560
g10
(lp561
g1
(g462
g3
NtRp562
(dp563
g133
Nsg35
S'buffers'
p564
sg15
Nsg19
g20
sg136
S'SharedBufferWithSize[]'
p565
sg16
I260
sbasg16
I260
sg19
g20
sbsbasg16
Nsg19
Nsbsg15
Nsg16
Nsg35
S'HeapProfiler'
p566
sg19
Nsbag1
(g446
g3
NtRp567
(dp568
g125
g1
(g449
g3
NtRp569
(dp570
g10
(lp571
g1
(g453
g3
NtRp572
(dp573
g133
Nsg35
S'GetVmRegionsForHeapProfiler'
p574
sg457
g1
(g458
g3
NtRp575
(dp576
g10
(lp577
g1
(g462
g3
NtRp578
(dp579
g133
Nsg35
S'pids'
p580
sg15
Nsg19
g20
sg136
S'mojo_base.mojom.ProcessId[]'
p581
sg16
I268
sbasg16
I268
sg19
g20
sbsg15
Nsg19
Nsg16
Nsg467
g1
(g458
g3
NtRp582
(dp583
g10
(lp584
g1
(g462
g3
NtRp585
(dp586
g133
Nsg35
S'vm_regions'
p587
sg15
Nsg19
g20
sg136
S'VmRegion[]{mojo_base.mojom.ProcessId}'
p588
sg16
I269
sbasg16
I269
sg19
g20
sbsbasg16
Nsg19
Nsbsg15
Nsg16
Nsg35
S'HeapProfilerHelper'
p589
sg19
Nsbag1
(g446
g3
NtRp590
(dp591
g125
g1
(g449
g3
NtRp592
(dp593
g10
(lp594
g1
(g453
g3
NtRp595
(dp596
g133
Nsg35
S'RegisterClientProcess'
p597
sg457
g1
(g458
g3
NtRp598
(dp599
g10
(lp600
g1
(g462
g3
NtRp601
(dp602
g133
Nsg35
S'client_process'
p603
sg15
Nsg19
g20
sg136
S'ClientProcess'
p604
sg16
I277
sbag1
(g462
g3
NtRp605
(dp606
g133
Nsg35
S'process_type'
p607
sg15
Nsg19
g20
sg136
S'ProcessType'
p608
sg16
I277
sbasg16
I277
sg19
g20
sbsg15
Nsg19
Nsg16
Nsg467
Nsbag1
(g453
g3
NtRp609
(dp610
g133
Nsg35
S'RequestGlobalMemoryDump'
p611
sg457
g1
(g458
g3
NtRp612
(dp613
g10
(lp614
g1
(g462
g3
NtRp615
(dp616
g133
Nsg35
S'dump_type'
p617
sg15
Nsg19
g20
sg136
S'DumpType'
p618
sg16
I284
sbag1
(g462
g3
NtRp619
(dp620
g133
Nsg35
S'level_of_detail'
p621
sg15
Nsg19
g20
sg136
S'LevelOfDetail'
p622
sg16
I285
sbag1
(g462
g3
NtRp623
(dp624
g133
Nsg35
S'allocator_dump_names'
p625
sg15
Nsg19
g20
sg136
S'string[]'
p626
sg16
I286
sbasg16
I284
sg19
g20
sbsg15
Nsg19
Nsg16
Nsg467
g1
(g458
g3
NtRp627
(dp628
g10
(lp629
g1
(g462
g3
NtRp630
(dp631
g133
Nsg35
S'success'
p632
sg15
Nsg19
g20
sg136
S'bool'
p633
sg16
I287
sbag1
(g462
g3
NtRp634
(dp635
g133
Nsg35
S'global_memory_dump'
p636
sg15
Nsg19
g20
sg136
S'GlobalMemoryDump?'
p637
sg16
I287
sbasg16
I287
sg19
g20
sbsbag1
(g453
g3
NtRp638
(dp639
g133
Nsg35
S'RequestGlobalMemoryDumpForPid'
p640
sg457
g1
(g458
g3
NtRp641
(dp642
g10
(lp643
g1
(g462
g3
NtRp644
(dp645
g133
Nsg35
S'pid'
p646
sg15
Nsg19
g20
sg136
S'mojo_base.mojom.ProcessId'
p647
sg16
I291
sbag1
(g462
g3
NtRp648
(dp649
g133
Nsg35
S'allocator_dump_names'
p650
sg15
Nsg19
g20
sg136
S'string[]'
p651
sg16
I292
sbasg16
I291
sg19
g20
sbsg15
Nsg19
Nsg16
Nsg467
g1
(g458
g3
NtRp652
(dp653
g10
(lp654
g1
(g462
g3
NtRp655
(dp656
g133
Nsg35
S'success'
p657
sg15
Nsg19
g20
sg136
S'bool'
p658
sg16
I293
sbag1
(g462
g3
NtRp659
(dp660
g133
Nsg35
S'global_memory_dump'
p661
sg15
Nsg19
g20
sg136
S'GlobalMemoryDump?'
p662
sg16
I293
sbasg16
I293
sg19
g20
sbsbag1
(g453
g3
NtRp663
(dp664
g133
Nsg35
S'RequestGlobalMemoryDumpAndAppendToTrace'
p665
sg457
g1
(g458
g3
NtRp666
(dp667
g10
(lp668
g1
(g462
g3
NtRp669
(dp670
g133
Nsg35
S'dump_type'
p671
sg15
Nsg19
g20
sg136
S'DumpType'
p672
sg16
I297
sbag1
(g462
g3
NtRp673
(dp674
g133
Nsg35
S'level_of_detail'
p675
sg15
Nsg19
g20
sg136
S'LevelOfDetail'
p676
sg16
I298
sbasg16
I297
sg19
g20
sbsg15
Nsg19
Nsg16
Nsg467
g1
(g458
g3
NtRp677
(dp678
g10
(lp679
g1
(g462
g3
NtRp680
(dp681
g133
Nsg35
S'success'
p682
sg15
Nsg19
g20
sg136
S'bool'
p683
sg16
I299
sbag1
(g462
g3
NtRp684
(dp685
g133
Nsg35
S'dump_id'
p686
sg15
Nsg19
g20
sg136
S'uint64'
p687
sg16
I299
sbasg16
I299
sg19
g20
sbsbag1
(g453
g3
NtRp688
(dp689
g133
Nsg35
S'RegisterHeapProfiler'
p690
sg457
g1
(g458
g3
NtRp691
(dp692
g10
(lp693
g1
(g462
g3
NtRp694
(dp695
g133
Nsg35
S'heap_profiler'
p696
sg15
Nsg19
g20
sg136
S'HeapProfiler'
p697
sg16
I306
sbasg16
I306
sg19
g20
sbsg15
Nsg19
Nsg16
Nsg467
Nsbasg16
Nsg19
Nsbsg15
Nsg16
Nsg35
S'Coordinator'
p698
sg19
Nsbasg16
NsS'module'
p699
g1
(cmojom.parse.ast
Module
p700
g3
NtRp701
(dp702
S'mojom_namespace'
p703
(S'IDENTIFIER'
p704
S'memory_instrumentation.mojom'
tp705
sg16
I5
sg15
Nsg19
g20
sbsg19
Nsb.