ccopy_reg
_reconstructor
p1
(cmojom.parse.ast
Mojom
p2
c__builtin__
object
p3
NtRp4
(dp5
S'import_list'
p6
g1
(cmojom.parse.ast
ImportList
p7
g3
NtRp8
(dp9
S'items'
p10
(lp11
sS'lineno'
p12
NsS'filename'
p13
NsbsS'definition_list'
p14
(lp15
g1
(cmojom.parse.ast
Enum
p16
g3
NtRp17
(dp18
S'attribute_list'
p19
g1
(cmojom.parse.ast
AttributeList
p20
g3
NtRp21
(dp22
g10
(lp23
g1
(cmojom.parse.ast
Attribute
p24
g3
NtRp25
(dp26
S'value'
p27
I01
sg12
I7
sS'key'
p28
S'Native'
p29
sg13
S'../../chrome/common/extensions/mojom/inline_install.mojom'
p30
sbasg12
I7
sg13
g30
sbsS'enum_value_list'
p31
Nsg12
I8
sS'mojom_name'
p32
S'WebstoreInstallResult'
p33
sg13
g30
sbag1
(g16
g3
NtRp34
(dp35
g19
g1
(g20
g3
NtRp36
(dp37
g10
(lp38
g1
(g24
g3
NtRp39
(dp40
g27
I01
sg12
I10
sg28
S'Native'
p41
sg13
g30
sbasg12
I10
sg13
g30
sbsg31
Nsg12
I11
sg32
S'WebstoreInstallStage'
p42
sg13
g30
sbag1
(cmojom.parse.ast
Interface
p43
g3
NtRp44
(dp45
S'body'
p46
g1
(cmojom.parse.ast
InterfaceBody
p47
g3
NtRp48
(dp49
g10
(lp50
g1
(cmojom.parse.ast
Method
p51
g3
NtRp52
(dp53
S'ordinal'
p54
Nsg32
S'InlineInstallStageChanged'
p55
sS'parameter_list'
p56
g1
(cmojom.parse.ast
ParameterList
p57
g3
NtRp58
(dp59
g10
(lp60
g1
(cmojom.parse.ast
Parameter
p61
g3
NtRp62
(dp63
g54
Nsg32
S'stage'
p64
sg19
Nsg13
g30
sS'typename'
p65
S'WebstoreInstallStage'
p66
sg12
I16
sbasg12
I16
sg13
g30
sbsg19
Nsg13
Nsg12
NsS'response_parameter_list'
p67
Nsbag1
(g51
g3
NtRp68
(dp69
g54
Nsg32
S'InlineInstallDownloadProgress'
p70
sg56
g1
(g57
g3
NtRp71
(dp72
g10
(lp73
g1
(g61
g3
NtRp74
(dp75
g54
Nsg32
S'percent_downloaded'
p76
sg19
Nsg13
g30
sg65
S'int32'
p77
sg12
I20
sbasg12
I20
sg13
g30
sbsg19
Nsg13
Nsg12
Nsg67
Nsbasg12
Nsg13
Nsbsg19
Nsg12
Nsg32
S'InlineInstallProgressListener'
p78
sg13
Nsbag1
(g43
g3
NtRp79
(dp80
g46
g1
(g47
g3
NtRp81
(dp82
g10
(lp83
g1
(g51
g3
NtRp84
(dp85
g54
Nsg32
S'DoInlineInstall'
p86
sg56
g1
(g57
g3
NtRp87
(dp88
g10
(lp89
g1
(g61
g3
NtRp90
(dp91
g54
Nsg32
S'webstore_item_id'
p92
sg19
Nsg13
g30
sg65
S'string'
p93
sg12
I26
sbag1
(g61
g3
NtRp94
(dp95
g54
Nsg32
S'listeners_mask'
p96
sg19
Nsg13
g30
sg65
S'int32'
p97
sg12
I26
sbag1
(g61
g3
NtRp98
(dp99
g54
Nsg32
S'install_progress_listener'
p100
sg19
Nsg13
g30
sg65
S'InlineInstallProgressListener'
p101
sg12
I27
sbasg12
I26
sg13
g30
sbsg19
Nsg13
Nsg12
Nsg67
g1
(g57
g3
NtRp102
(dp103
g10
(lp104
g1
(g61
g3
NtRp105
(dp106
g54
Nsg32
S'success'
p107
sg19
Nsg13
g30
sg65
S'bool'
p108
sg12
I28
sbag1
(g61
g3
NtRp109
(dp110
g54
Nsg32
S'error'
p111
sg19
Nsg13
g30
sg65
S'string'
p112
sg12
I28
sbag1
(g61
g3
NtRp113
(dp114
g54
Nsg32
S'result'
p115
sg19
Nsg13
g30
sg65
S'WebstoreInstallResult'
p116
sg12
I28
sbasg12
I28
sg13
g30
sbsbasg12
Nsg13
Nsbsg19
Nsg12
Nsg32
S'InlineInstaller'
p117
sg13
Nsbasg12
NsS'module'
p118
g1
(cmojom.parse.ast
Module
p119
g3
NtRp120
(dp121
S'mojom_namespace'
p122
(S'IDENTIFIER'
p123
S'extensions.mojom'
tp124
sg12
I5
sg19
Nsg13
g30
sbsg13
Nsb.