ccopy_reg
_reconstructor
p1
(cmojom.parse.ast
Mojom
p2
c__builtin__
object
p3
NtRp4
(dp5
S'import_list'
p6
g1
(cmojom.parse.ast
ImportList
p7
g3
NtRp8
(dp9
S'items'
p10
(lp11
sS'lineno'
p12
NsS'filename'
p13
NsbsS'definition_list'
p14
(lp15
g1
(cmojom.parse.ast
Enum
p16
g3
NtRp17
(dp18
S'attribute_list'
p19
NsS'enum_value_list'
p20
g1
(cmojom.parse.ast
EnumValueList
p21
g3
NtRp22
(dp23
g10
(lp24
g1
(cmojom.parse.ast
EnumValue
p25
g3
NtRp26
(dp27
g19
NsS'value'
p28
Nsg12
I11
sS'mojom_name'
p29
S'NATIVE_WITH_THREAD_NAMES'
p30
sg13
S'../../components/services/heap_profiling/public/mojom/heap_profiling_client.mojom'
p31
sbag1
(g25
g3
NtRp32
(dp33
g19
Nsg28
Nsg12
I14
sg29
S'NATIVE_WITHOUT_THREAD_NAMES'
p34
sg13
g31
sbag1
(g25
g3
NtRp35
(dp36
g19
Nsg28
Nsg12
I17
sg29
S'PSEUDO'
p37
sg13
g31
sbag1
(g25
g3
NtRp38
(dp39
g19
Nsg28
Nsg12
I20
sg29
S'MIXED'
p40
sg13
g31
sbasg12
I11
sg13
g31
sbsg12
I8
sg29
S'StackMode'
p41
sg13
g31
sbag1
(cmojom.parse.ast
Struct
p42
g3
NtRp43
(dp44
S'body'
p45
g1
(cmojom.parse.ast
StructBody
p46
g3
NtRp47
(dp48
g10
(lp49
g1
(cmojom.parse.ast
StructField
p50
g3
NtRp51
(dp52
S'ordinal'
p53
NsS'default_value'
p54
Nsg29
S'sender_pipe'
p55
sg19
Nsg13
NsS'typename'
p56
S'handle'
p57
sg12
Nsbag1
(g50
g3
NtRp58
(dp59
g53
Nsg54
Nsg29
S'stack_mode'
p60
sg19
Nsg13
Nsg56
S'StackMode'
p61
sg12
Nsbag1
(g50
g3
NtRp62
(dp63
g53
Nsg54
Nsg29
S'sampling_rate'
p64
sg19
Nsg13
Nsg56
S'uint32'
p65
sg12
Nsbasg12
Nsg13
Nsbsg19
Nsg12
Nsg29
S'ProfilingParams'
p66
sg13
Nsbag1
(cmojom.parse.ast
Interface
p67
g3
NtRp68
(dp69
g45
g1
(cmojom.parse.ast
InterfaceBody
p70
g3
NtRp71
(dp72
g10
(lp73
g1
(cmojom.parse.ast
Method
p74
g3
NtRp75
(dp76
g53
Nsg29
S'StartProfiling'
p77
sS'parameter_list'
p78
g1
(cmojom.parse.ast
ParameterList
p79
g3
NtRp80
(dp81
g10
(lp82
g1
(cmojom.parse.ast
Parameter
p83
g3
NtRp84
(dp85
g53
Nsg29
S'params'
p86
sg19
Nsg13
g31
sg56
S'ProfilingParams'
p87
sg12
I47
sbasg12
I47
sg13
g31
sbsg19
Nsg13
Nsg12
NsS'response_parameter_list'
p88
Nsbag1
(g74
g3
NtRp89
(dp90
g53
Nsg29
S'FlushMemlogPipe'
p91
sg78
g1
(g79
g3
NtRp92
(dp93
g10
(lp94
g1
(g83
g3
NtRp95
(dp96
g53
Nsg29
S'barrier_id'
p97
sg19
Nsg13
g31
sg56
S'uint32'
p98
sg12
I52
sbasg12
I52
sg13
g31
sbsg19
Nsg13
Nsg12
Nsg88
Nsbasg12
Nsg13
Nsbsg19
Nsg12
Nsg29
S'ProfilingClient'
p99
sg13
Nsbasg12
NsS'module'
p100
g1
(cmojom.parse.ast
Module
p101
g3
NtRp102
(dp103
S'mojom_namespace'
p104
(S'IDENTIFIER'
p105
S'heap_profiling.mojom'
tp106
sg12
I5
sg19
Nsg13
g31
sbsg13
Nsb.