ccopy_reg
_reconstructor
p1
(cmojom.parse.ast
Mojom
p2
c__builtin__
object
p3
NtRp4
(dp5
S'import_list'
p6
g1
(cmojom.parse.ast
ImportList
p7
g3
NtRp8
(dp9
S'items'
p10
(lp11
g1
(cmojom.parse.ast
Import
p12
g3
NtRp13
(dp14
S'attribute_list'
p15
NsS'lineno'
p16
I7
sS'import_filename'
p17
S'components/services/heap_profiling/public/mojom/heap_profiling_client.mojom'
p18
sS'filename'
p19
S'../../components/services/heap_profiling/public/mojom/heap_profiling_service.mojom'
p20
sbag1
(g12
g3
NtRp21
(dp22
g15
Nsg16
I8
sg17
S'mojo/public/mojom/base/process_id.mojom'
p23
sg19
g20
sbasg16
I7
sg19
g20
sbsS'definition_list'
p24
(lp25
g1
(cmojom.parse.ast
Enum
p26
g3
NtRp27
(dp28
g15
NsS'enum_value_list'
p29
g1
(cmojom.parse.ast
EnumValueList
p30
g3
NtRp31
(dp32
g10
(lp33
g1
(cmojom.parse.ast
EnumValue
p34
g3
NtRp35
(dp36
g15
NsS'value'
p37
S'0'
sg16
I13
sS'mojom_name'
p38
S'OTHER'
p39
sg19
g20
sbag1
(g34
g3
NtRp40
(dp41
g15
Nsg37
S'1'
sg16
I14
sg38
S'BROWSER'
p42
sg19
g20
sbag1
(g34
g3
NtRp43
(dp44
g15
Nsg37
S'2'
sg16
I15
sg38
S'RENDERER'
p45
sg19
g20
sbag1
(g34
g3
NtRp46
(dp47
g15
Nsg37
S'3'
sg16
I16
sg38
S'GPU'
p48
sg19
g20
sbag1
(g34
g3
NtRp49
(dp50
g15
Nsg37
(S'IDENTIFIER'
p51
S'GPU'
tp52
sg16
I17
sg38
S'LAST'
p53
sg19
g20
sbasg16
I13
sg19
g20
sbsg16
I12
sg38
S'ProcessType'
p54
sg19
g20
sbag1
(cmojom.parse.ast
Interface
p55
g3
NtRp56
(dp57
S'body'
p58
g1
(cmojom.parse.ast
InterfaceBody
p59
g3
NtRp60
(dp61
g10
(lp62
g1
(cmojom.parse.ast
Method
p63
g3
NtRp64
(dp65
S'ordinal'
p66
Nsg38
S'AddProfilingClient'
p67
sS'parameter_list'
p68
g1
(cmojom.parse.ast
ParameterList
p69
g3
NtRp70
(dp71
g10
(lp72
g1
(cmojom.parse.ast
Parameter
p73
g3
NtRp74
(dp75
g66
Nsg38
S'pid'
p76
sg15
Nsg19
g20
sS'typename'
p77
S'mojo_base.mojom.ProcessId'
p78
sg16
I33
sbag1
(g73
g3
NtRp79
(dp80
g66
Nsg38
S'client'
p81
sg15
Nsg19
g20
sg77
S'ProfilingClient'
p82
sg16
I33
sbag1
(g73
g3
NtRp83
(dp84
g66
Nsg38
S'memlog_pipe_receiver'
p85
sg15
Nsg19
g20
sg77
S'handle'
p86
sg16
I34
sbag1
(g73
g3
NtRp87
(dp88
g66
Nsg38
S'process_type'
p89
sg15
Nsg19
g20
sg77
S'ProcessType'
p90
sg16
I34
sbag1
(g73
g3
NtRp91
(dp92
g66
Nsg38
S'params'
p93
sg15
Nsg19
g20
sg77
S'ProfilingParams'
p94
sg16
I35
sbasg16
I33
sg19
g20
sbsg15
Nsg19
Nsg16
NsS'response_parameter_list'
p95
Nsbag1
(g63
g3
NtRp96
(dp97
g66
Nsg38
S'SetKeepSmallAllocations'
p98
sg68
g1
(g69
g3
NtRp99
(dp100
g10
(lp101
g1
(g73
g3
NtRp102
(dp103
g66
Nsg38
S'keep_small_allocations'
p104
sg15
Nsg19
g20
sg77
S'bool'
p105
sg16
I39
sbasg16
I39
sg19
g20
sbsg15
Nsg19
Nsg16
Nsg95
Nsbag1
(g63
g3
NtRp106
(dp107
g66
Nsg38
S'GetProfiledPids'
p108
sg68
g1
(g69
g3
NtRp109
(dp110
g10
(lp111
sg16
Nsg19
Nsbsg15
Nsg19
Nsg16
Nsg95
g1
(g69
g3
NtRp112
(dp113
g10
(lp114
g1
(g73
g3
NtRp115
(dp116
g66
Nsg38
S'pids'
p117
sg15
Nsg19
g20
sg77
S'mojo_base.mojom.ProcessId[]'
p118
sg16
I42
sbasg16
I42
sg19
g20
sbsbasg16
Nsg19
Nsbsg15
Nsg16
Nsg38
S'ProfilingService'
p119
sg19
Nsbasg16
NsS'module'
p120
g1
(cmojom.parse.ast
Module
p121
g3
NtRp122
(dp123
S'mojom_namespace'
p124
(g51
S'heap_profiling.mojom'
tp125
sg16
I5
sg15
Nsg19
g20
sbsg19
Nsb.