ccopy_reg
_reconstructor
p1
(cmojom.parse.ast
Mojom
p2
c__builtin__
object
p3
NtRp4
(dp5
S'import_list'
p6
g1
(cmojom.parse.ast
ImportList
p7
g3
NtRp8
(dp9
S'items'
p10
(lp11
g1
(cmojom.parse.ast
Import
p12
g3
NtRp13
(dp14
S'attribute_list'
p15
NsS'lineno'
p16
I7
sS'import_filename'
p17
S'mojo/public/mojom/base/file_path.mojom'
p18
sS'filename'
p19
S'../../components/metrics/public/interfaces/call_stack_profile_collector.mojom'
p20
sbag1
(g12
g3
NtRp21
(dp22
g15
Nsg16
I8
sg17
S'mojo/public/mojom/base/time.mojom'
p23
sg19
g20
sbasg16
I7
sg19
g20
sbsS'definition_list'
p24
(lp25
g1
(cmojom.parse.ast
Struct
p26
g3
NtRp27
(dp28
S'body'
p29
g1
(cmojom.parse.ast
StructBody
p30
g3
NtRp31
(dp32
g10
(lp33
g1
(cmojom.parse.ast
StructField
p34
g3
NtRp35
(dp36
S'ordinal'
p37
NsS'default_value'
p38
NsS'mojom_name'
p39
S'base_address'
p40
sg15
Nsg19
NsS'typename'
p41
S'uint64'
p42
sg16
Nsbag1
(g34
g3
NtRp43
(dp44
g37
Nsg38
Nsg39
S'id'
p45
sg15
Nsg19
Nsg41
S'string'
p46
sg16
Nsbag1
(g34
g3
NtRp47
(dp48
g37
Nsg38
Nsg39
S'filename'
p49
sg15
Nsg19
Nsg41
S'mojo_base.mojom.FilePath'
p50
sg16
Nsbasg16
Nsg19
Nsbsg15
Nsg16
Nsg39
S'CallStackModule'
p51
sg19
Nsbag1
(g26
g3
NtRp52
(dp53
g29
g1
(g30
g3
NtRp54
(dp55
g10
(lp56
g1
(g34
g3
NtRp57
(dp58
g37
Nsg38
Nsg39
S'instruction_pointer'
p59
sg15
Nsg19
Nsg41
S'uint64'
p60
sg16
Nsbag1
(g34
g3
NtRp61
(dp62
g37
Nsg38
Nsg39
S'module_index'
p63
sg15
Nsg19
Nsg41
S'uint64'
p64
sg16
Nsbasg16
Nsg19
Nsbsg15
Nsg16
Nsg39
S'CallStackFrame'
p65
sg19
Nsbag1
(g26
g3
NtRp66
(dp67
g29
g1
(g30
g3
NtRp68
(dp69
g10
(lp70
g1
(g34
g3
NtRp71
(dp72
g37
Nsg38
Nsg39
S'frames'
p73
sg15
Nsg19
Nsg41
S'CallStackFrame[]'
p74
sg16
Nsbag1
(g34
g3
NtRp75
(dp76
g37
Nsg38
Nsg39
S'process_milestones'
p77
sg15
Nsg19
Nsg41
S'uint32'
p78
sg16
Nsbasg16
Nsg19
Nsbsg15
Nsg16
Nsg39
S'CallStackSample'
p79
sg19
Nsbag1
(g26
g3
NtRp80
(dp81
g29
g1
(g30
g3
NtRp82
(dp83
g10
(lp84
g1
(g34
g3
NtRp85
(dp86
g37
Nsg38
Nsg39
S'modules'
p87
sg15
Nsg19
Nsg41
S'CallStackModule[]'
p88
sg16
Nsbag1
(g34
g3
NtRp89
(dp90
g37
Nsg38
Nsg39
S'samples'
p91
sg15
Nsg19
Nsg41
S'CallStackSample[]'
p92
sg16
Nsbag1
(g34
g3
NtRp93
(dp94
g37
Nsg38
Nsg39
S'profile_duration'
p95
sg15
Nsg19
Nsg41
S'mojo_base.mojom.TimeDelta'
p96
sg16
Nsbag1
(g34
g3
NtRp97
(dp98
g37
Nsg38
Nsg39
S'sampling_period'
p99
sg15
Nsg19
Nsg41
S'mojo_base.mojom.TimeDelta'
p100
sg16
Nsbasg16
Nsg19
Nsbsg15
Nsg16
Nsg39
S'CallStackProfile'
p101
sg19
Nsbag1
(cmojom.parse.ast
Enum
p102
g3
NtRp103
(dp104
g15
NsS'enum_value_list'
p105
g1
(cmojom.parse.ast
EnumValueList
p106
g3
NtRp107
(dp108
g10
(lp109
g1
(cmojom.parse.ast
EnumValue
p110
g3
NtRp111
(dp112
g15
NsS'value'
p113
Nsg16
I36
sg39
S'UNKNOWN_PROCESS'
p114
sg19
g20
sbag1
(g110
g3
NtRp115
(dp116
g15
Nsg113
Nsg16
I37
sg39
S'BROWSER_PROCESS'
p117
sg19
g20
sbag1
(g110
g3
NtRp118
(dp119
g15
Nsg113
Nsg16
I38
sg39
S'RENDERER_PROCESS'
p120
sg19
g20
sbag1
(g110
g3
NtRp121
(dp122
g15
Nsg113
Nsg16
I39
sg39
S'GPU_PROCESS'
p123
sg19
g20
sbag1
(g110
g3
NtRp124
(dp125
g15
Nsg113
Nsg16
I40
sg39
S'UTILITY_PROCESS'
p126
sg19
g20
sbag1
(g110
g3
NtRp127
(dp128
g15
Nsg113
Nsg16
I41
sg39
S'ZYGOTE_PROCESS'
p129
sg19
g20
sbag1
(g110
g3
NtRp130
(dp131
g15
Nsg113
Nsg16
I42
sg39
S'SANDBOX_HELPER_PROCESS'
p132
sg19
g20
sbag1
(g110
g3
NtRp133
(dp134
g15
Nsg113
Nsg16
I43
sg39
S'PPAPI_PLUGIN_PROCESS'
p135
sg19
g20
sbag1
(g110
g3
NtRp136
(dp137
g15
Nsg113
Nsg16
I44
sg39
S'PPAPI_BROKER_PROCESS'
p138
sg19
g20
sbasg16
I36
sg19
g20
sbsg16
I35
sg39
S'Process'
p139
sg19
g20
sbag1
(g102
g3
NtRp140
(dp141
g15
Nsg105
g1
(g106
g3
NtRp142
(dp143
g10
(lp144
g1
(g110
g3
NtRp145
(dp146
g15
Nsg113
Nsg16
I48
sg39
S'UNKNOWN_THREAD'
p147
sg19
g20
sbag1
(g110
g3
NtRp148
(dp149
g15
Nsg113
Nsg16
I49
sg39
S'MAIN_THREAD'
p150
sg19
g20
sbag1
(g110
g3
NtRp151
(dp152
g15
Nsg113
Nsg16
I50
sg39
S'IO_THREAD'
p153
sg19
g20
sbag1
(g110
g3
NtRp154
(dp155
g15
Nsg113
Nsg16
I51
sg39
S'COMPOSITOR_THREAD'
p156
sg19
g20
sbasg16
I48
sg19
g20
sbsg16
I47
sg39
S'Thread'
p157
sg19
g20
sbag1
(g102
g3
NtRp158
(dp159
g15
Nsg105
g1
(g106
g3
NtRp160
(dp161
g10
(lp162
g1
(g110
g3
NtRp163
(dp164
g15
Nsg113
Nsg16
I55
sg39
S'UNKNOWN'
p165
sg19
g20
sbag1
(g110
g3
NtRp166
(dp167
g15
Nsg113
Nsg16
I56
sg39
S'PROCESS_STARTUP'
p168
sg19
g20
sbag1
(g110
g3
NtRp169
(dp170
g15
Nsg113
Nsg16
I57
sg39
S'JANKY_TASK'
p171
sg19
g20
sbag1
(g110
g3
NtRp172
(dp173
g15
Nsg113
Nsg16
I58
sg39
S'THREAD_HUNG'
p174
sg19
g20
sbag1
(g110
g3
NtRp175
(dp176
g15
Nsg113
Nsg16
I59
sg39
S'PERIODIC_COLLECTION'
p177
sg19
g20
sbasg16
I55
sg19
g20
sbsg16
I54
sg39
S'Trigger'
p178
sg19
g20
sbag1
(g102
g3
NtRp179
(dp180
g15
Nsg105
g1
(g106
g3
NtRp181
(dp182
g10
(lp183
g1
(g110
g3
NtRp184
(dp185
g15
Nsg113
Nsg16
I63
sg39
S'MAY_SHUFFLE'
p186
sg19
g20
sbag1
(g110
g3
NtRp187
(dp188
g15
Nsg113
Nsg16
I64
sg39
S'PRESERVE_ORDER'
p189
sg19
g20
sbasg16
I63
sg19
g20
sbsg16
I62
sg39
S'SampleOrderingSpec'
p190
sg19
g20
sbag1
(g26
g3
NtRp191
(dp192
g29
g1
(g30
g3
NtRp193
(dp194
g10
(lp195
g1
(g34
g3
NtRp196
(dp197
g37
Nsg38
Nsg39
S'process'
p198
sg15
Nsg19
Nsg41
S'Process'
p199
sg16
Nsbag1
(g34
g3
NtRp200
(dp201
g37
Nsg38
Nsg39
S'thread'
p202
sg15
Nsg19
Nsg41
S'Thread'
p203
sg16
Nsbag1
(g34
g3
NtRp204
(dp205
g37
Nsg38
Nsg39
S'trigger'
p206
sg15
Nsg19
Nsg41
S'Trigger'
p207
sg16
Nsbag1
(g34
g3
NtRp208
(dp209
g37
Nsg38
Nsg39
S'ordering_spec'
p210
sg15
Nsg19
Nsg41
S'SampleOrderingSpec'
p211
sg16
Nsbasg16
Nsg19
Nsbsg15
Nsg16
Nsg39
S'CallStackProfileParams'
p212
sg19
Nsbag1
(cmojom.parse.ast
Interface
p213
g3
NtRp214
(dp215
g29
g1
(cmojom.parse.ast
InterfaceBody
p216
g3
NtRp217
(dp218
g10
(lp219
g1
(cmojom.parse.ast
Method
p220
g3
NtRp221
(dp222
g37
Nsg39
S'Collect'
p223
sS'parameter_list'
p224
g1
(cmojom.parse.ast
ParameterList
p225
g3
NtRp226
(dp227
g10
(lp228
g1
(cmojom.parse.ast
Parameter
p229
g3
NtRp230
(dp231
g37
Nsg39
S'params'
p232
sg15
Nsg19
g20
sg41
S'CallStackProfileParams'
p233
sg16
I75
sbag1
(g229
g3
NtRp234
(dp235
g37
Nsg39
S'start_timestamp'
p236
sg15
Nsg19
g20
sg41
S'mojo_base.mojom.TimeTicks'
p237
sg16
I76
sbag1
(g229
g3
NtRp238
(dp239
g37
Nsg39
S'profiles'
p240
sg15
Nsg19
g20
sg41
S'CallStackProfile[]'
p241
sg16
I77
sbasg16
I75
sg19
g20
sbsg15
Nsg19
Nsg16
NsS'response_parameter_list'
p242
Nsbasg16
Nsg19
Nsbsg15
Nsg16
Nsg39
S'CallStackProfileCollector'
p243
sg19
Nsbasg16
NsS'module'
p244
g1
(cmojom.parse.ast
Module
p245
g3
NtRp246
(dp247
S'mojom_namespace'
p248
(S'IDENTIFIER'
p249
S'metrics.mojom'
tp250
sg16
I5
sg15
Nsg19
g20
sbsg19
Nsb.