ccopy_reg
_reconstructor
p1
(cmojom.parse.ast
Mojom
p2
c__builtin__
object
p3
NtRp4
(dp5
S'import_list'
p6
g1
(cmojom.parse.ast
ImportList
p7
g3
NtRp8
(dp9
S'items'
p10
(lp11
sS'lineno'
p12
NsS'filename'
p13
NsbsS'definition_list'
p14
(lp15
g1
(cmojom.parse.ast
Const
p16
g3
NtRp17
(dp18
S'mojom_name'
p19
S'kServiceName'
p20
sS'attribute_list'
p21
NsS'value'
p22
S'"video_capture"'
p23
sg13
NsS'typename'
p24
S'string'
p25
sg12
Nsbag1
(g16
g3
NtRp26
(dp27
g19
S'kDefaultShutdownDelayInSeconds'
p28
sg21
Nsg22
S'5'
sg13
Nsg24
S'float'
p29
sg12
Nsbag1
(g16
g3
NtRp30
(dp31
g19
S'kInvalidBufferId'
p32
sg21
Nsg22
S'-1'
p33
sg13
Nsg24
S'int32'
p34
sg12
Nsbasg12
NsS'module'
p35
g1
(cmojom.parse.ast
Module
p36
g3
NtRp37
(dp38
S'mojom_namespace'
p39
(S'IDENTIFIER'
p40
S'video_capture.mojom'
tp41
sg12
I5
sg21
Nsg13
S'../../services/video_capture/public/mojom/constants.mojom'
p42
sbsg13
Nsb.