ccopy_reg
_reconstructor
p1
(cmojom.parse.ast
Mojom
p2
c__builtin__
object
p3
NtRp4
(dp5
S'import_list'
p6
g1
(cmojom.parse.ast
ImportList
p7
g3
NtRp8
(dp9
S'items'
p10
(lp11
g1
(cmojom.parse.ast
Import
p12
g3
NtRp13
(dp14
S'attribute_list'
p15
NsS'lineno'
p16
I7
sS'import_filename'
p17
S'media/capture/mojom/video_capture_types.mojom'
p18
sS'filename'
p19
S'../../services/video_capture/public/mojom/device.mojom'
p20
sbag1
(g12
g3
NtRp21
(dp22
g15
Nsg16
I8
sg17
S'media/capture/mojom/image_capture.mojom'
p23
sg19
g20
sbag1
(g12
g3
NtRp24
(dp25
g15
Nsg16
I9
sg17
S'services/video_capture/public/mojom/receiver.mojom'
p26
sg19
g20
sbasg16
I7
sg19
g20
sbsS'definition_list'
p27
(lp28
g1
(cmojom.parse.ast
Interface
p29
g3
NtRp30
(dp31
S'body'
p32
g1
(cmojom.parse.ast
InterfaceBody
p33
g3
NtRp34
(dp35
g10
(lp36
g1
(cmojom.parse.ast
Method
p37
g3
NtRp38
(dp39
S'ordinal'
p40
NsS'mojom_name'
p41
S'Start'
p42
sS'parameter_list'
p43
g1
(cmojom.parse.ast
ParameterList
p44
g3
NtRp45
(dp46
g10
(lp47
g1
(cmojom.parse.ast
Parameter
p48
g3
NtRp49
(dp50
g40
Nsg41
S'requested_settings'
p51
sg15
Nsg19
g20
sS'typename'
p52
S'media.mojom.VideoCaptureParams'
p53
sg16
I16
sbag1
(g48
g3
NtRp54
(dp55
g40
Nsg41
S'receiver'
p56
sg15
Nsg19
g20
sg52
S'Receiver'
p57
sg16
I16
sbasg16
I16
sg19
g20
sbsg15
Nsg19
Nsg16
NsS'response_parameter_list'
p58
Nsbag1
(g37
g3
NtRp59
(dp60
g40
Nsg41
S'OnReceiverReportingUtilization'
p61
sg43
g1
(g44
g3
NtRp62
(dp63
g10
(lp64
g1
(g48
g3
NtRp65
(dp66
g40
Nsg41
S'frame_feedback_id'
p67
sg15
Nsg19
g20
sg52
S'int32'
p68
sg16
I17
sbag1
(g48
g3
NtRp69
(dp70
g40
Nsg41
S'utilization'
p71
sg15
Nsg19
g20
sg52
S'double'
p72
sg16
I18
sbasg16
I17
sg19
g20
sbsg15
Nsg19
Nsg16
Nsg58
Nsbag1
(g37
g3
NtRp73
(dp74
g40
Nsg41
S'RequestRefreshFrame'
p75
sg43
g1
(g44
g3
NtRp76
(dp77
g10
(lp78
sg16
Nsg19
Nsbsg15
Nsg19
Nsg16
Nsg58
Nsbag1
(g37
g3
NtRp79
(dp80
g40
Nsg41
S'MaybeSuspend'
p81
sg43
g1
(g44
g3
NtRp82
(dp83
g10
(lp84
sg16
Nsg19
Nsbsg15
Nsg19
Nsg16
Nsg58
Nsbag1
(g37
g3
NtRp85
(dp86
g40
Nsg41
S'Resume'
p87
sg43
g1
(g44
g3
NtRp88
(dp89
g10
(lp90
sg16
Nsg19
Nsbsg15
Nsg19
Nsg16
Nsg58
Nsbag1
(g37
g3
NtRp91
(dp92
g40
Nsg41
S'GetPhotoState'
p93
sg43
g1
(g44
g3
NtRp94
(dp95
g10
(lp96
sg16
Nsg19
Nsbsg15
Nsg19
Nsg16
Nsg58
g1
(g44
g3
NtRp97
(dp98
g10
(lp99
g1
(g48
g3
NtRp100
(dp101
g40
Nsg41
S'capabilities'
p102
sg15
Nsg19
g20
sg52
S'media.mojom.PhotoState?'
p103
sg16
I23
sbasg16
I23
sg19
g20
sbsbag1
(g37
g3
NtRp104
(dp105
g40
Nsg41
S'SetPhotoOptions'
p106
sg43
g1
(g44
g3
NtRp107
(dp108
g10
(lp109
g1
(g48
g3
NtRp110
(dp111
g40
Nsg41
S'settings'
p112
sg15
Nsg19
g20
sg52
S'media.mojom.PhotoSettings'
p113
sg16
I24
sbasg16
I24
sg19
g20
sbsg15
Nsg19
Nsg16
Nsg58
g1
(g44
g3
NtRp114
(dp115
g10
(lp116
g1
(g48
g3
NtRp117
(dp118
g40
Nsg41
S'success'
p119
sg15
Nsg19
g20
sg52
S'bool'
p120
sg16
I25
sbasg16
I25
sg19
g20
sbsbag1
(g37
g3
NtRp121
(dp122
g40
Nsg41
S'TakePhoto'
p123
sg43
g1
(g44
g3
NtRp124
(dp125
g10
(lp126
sg16
Nsg19
Nsbsg15
Nsg19
Nsg16
Nsg58
g1
(g44
g3
NtRp127
(dp128
g10
(lp129
g1
(g48
g3
NtRp130
(dp131
g40
Nsg41
S'blob'
p132
sg15
Nsg19
g20
sg52
S'media.mojom.Blob?'
p133
sg16
I27
sbasg16
I27
sg19
g20
sbsbasg16
Nsg19
Nsbsg15
Nsg16
Nsg41
S'Device'
p134
sg19
Nsbasg16
NsS'module'
p135
g1
(cmojom.parse.ast
Module
p136
g3
NtRp137
(dp138
S'mojom_namespace'
p139
(S'IDENTIFIER'
p140
S'video_capture.mojom'
tp141
sg16
I5
sg15
Nsg19
g20
sbsg19
Nsb.