ccopy_reg
_reconstructor
p1
(cmojom.parse.ast
Mojom
p2
c__builtin__
object
p3
NtRp4
(dp5
S'import_list'
p6
g1
(cmojom.parse.ast
ImportList
p7
g3
NtRp8
(dp9
S'items'
p10
(lp11
g1
(cmojom.parse.ast
Import
p12
g3
NtRp13
(dp14
S'attribute_list'
p15
NsS'lineno'
p16
I7
sS'import_filename'
p17
S'media/capture/mojom/video_capture_types.mojom'
p18
sS'filename'
p19
S'../../services/video_capture/public/mojom/device_factory.mojom'
p20
sbag1
(g12
g3
NtRp21
(dp22
g15
Nsg16
I8
sg17
S'services/video_capture/public/mojom/device.mojom'
p23
sg19
g20
sbag1
(g12
g3
NtRp24
(dp25
g15
Nsg16
I9
sg17
S'services/video_capture/public/mojom/producer.mojom'
p26
sg19
g20
sbag1
(g12
g3
NtRp27
(dp28
g15
Nsg16
I10
sg17
S'services/video_capture/public/mojom/virtual_device.mojom'
p29
sg19
g20
sbasg16
I7
sg19
g20
sbsS'definition_list'
p30
(lp31
g1
(cmojom.parse.ast
Enum
p32
g3
NtRp33
(dp34
g15
NsS'enum_value_list'
p35
g1
(cmojom.parse.ast
EnumValueList
p36
g3
NtRp37
(dp38
g10
(lp39
g1
(cmojom.parse.ast
EnumValue
p40
g3
NtRp41
(dp42
g15
NsS'value'
p43
Nsg16
I13
sS'mojom_name'
p44
S'NOT_INITIALIZED'
p45
sg19
g20
sbag1
(g40
g3
NtRp46
(dp47
g15
Nsg43
Nsg16
I14
sg44
S'SUCCESS'
p48
sg19
g20
sbag1
(g40
g3
NtRp49
(dp50
g15
Nsg43
Nsg16
I15
sg44
S'ERROR_DEVICE_NOT_FOUND'
p51
sg19
g20
sbasg16
I13
sg19
g20
sbsg16
I12
sg44
S'DeviceAccessResultCode'
p52
sg19
g20
sbag1
(cmojom.parse.ast
Interface
p53
g3
NtRp54
(dp55
S'body'
p56
g1
(cmojom.parse.ast
InterfaceBody
p57
g3
NtRp58
(dp59
g10
(lp60
g1
(cmojom.parse.ast
Method
p61
g3
NtRp62
(dp63
S'ordinal'
p64
Nsg44
S'GetDeviceInfos'
p65
sS'parameter_list'
p66
g1
(cmojom.parse.ast
ParameterList
p67
g3
NtRp68
(dp69
g10
(lp70
sg16
Nsg19
Nsbsg15
Nsg19
Nsg16
NsS'response_parameter_list'
p71
g1
(g67
g3
NtRp72
(dp73
g10
(lp74
g1
(cmojom.parse.ast
Parameter
p75
g3
NtRp76
(dp77
g64
Nsg44
S'device_infos'
p78
sg15
Nsg19
g20
sS'typename'
p79
S'media.mojom.VideoCaptureDeviceInfo[]'
p80
sg16
I27
sbasg16
I27
sg19
g20
sbsbag1
(g61
g3
NtRp81
(dp82
g64
Nsg44
S'CreateDevice'
p83
sg66
g1
(g67
g3
NtRp84
(dp85
g10
(lp86
g1
(g75
g3
NtRp87
(dp88
g64
Nsg44
S'device_id'
p89
sg15
Nsg19
g20
sg79
S'string'
p90
sg16
I40
sbag1
(g75
g3
NtRp91
(dp92
g64
Nsg44
S'device_request'
p93
sg15
Nsg19
g20
sg79
S'Device&'
p94
sg16
I40
sbasg16
I40
sg19
g20
sbsg15
Nsg19
Nsg16
Nsg71
g1
(g67
g3
NtRp95
(dp96
g10
(lp97
g1
(g75
g3
NtRp98
(dp99
g64
Nsg44
S'result_code'
p100
sg15
Nsg19
g20
sg79
S'DeviceAccessResultCode'
p101
sg16
I41
sbasg16
I41
sg19
g20
sbsbag1
(g61
g3
NtRp102
(dp103
g64
Nsg44
S'AddSharedMemoryVirtualDevice'
p104
sg66
g1
(g67
g3
NtRp105
(dp106
g10
(lp107
g1
(g75
g3
NtRp108
(dp109
g64
Nsg44
S'device_info'
p110
sg15
Nsg19
g20
sg79
S'media.mojom.VideoCaptureDeviceInfo'
p111
sg16
I50
sbag1
(g75
g3
NtRp112
(dp113
g64
Nsg44
S'producer'
p114
sg15
Nsg19
g20
sg79
S'Producer'
p115
sg16
I51
sbag1
(g75
g3
NtRp116
(dp117
g64
Nsg44
S'virtual_device'
p118
sg15
Nsg19
g20
sg79
S'SharedMemoryVirtualDevice&'
p119
sg16
I52
sbasg16
I50
sg19
g20
sbsg15
Nsg19
Nsg16
Nsg71
Nsbag1
(g61
g3
NtRp120
(dp121
g64
Nsg44
S'AddTextureVirtualDevice'
p122
sg66
g1
(g67
g3
NtRp123
(dp124
g10
(lp125
g1
(g75
g3
NtRp126
(dp127
g64
Nsg44
S'device_info'
p128
sg15
Nsg19
g20
sg79
S'media.mojom.VideoCaptureDeviceInfo'
p129
sg16
I58
sbag1
(g75
g3
NtRp130
(dp131
g64
Nsg44
S'virtual_device'
p132
sg15
Nsg19
g20
sg79
S'TextureVirtualDevice&'
p133
sg16
I59
sbasg16
I58
sg19
g20
sbsg15
Nsg19
Nsg16
Nsg71
Nsbasg16
Nsg19
Nsbsg15
Nsg16
Nsg44
S'DeviceFactory'
p134
sg19
Nsbasg16
NsS'module'
p135
g1
(cmojom.parse.ast
Module
p136
g3
NtRp137
(dp138
S'mojom_namespace'
p139
(S'IDENTIFIER'
p140
S'video_capture.mojom'
tp141
sg16
I5
sg15
Nsg19
g20
sbsg19
Nsb.