ccopy_reg
_reconstructor
p1
(cmojom.parse.ast
Mojom
p2
c__builtin__
object
p3
NtRp4
(dp5
S'import_list'
p6
g1
(cmojom.parse.ast
ImportList
p7
g3
NtRp8
(dp9
S'items'
p10
(lp11
g1
(cmojom.parse.ast
Import
p12
g3
NtRp13
(dp14
S'attribute_list'
p15
NsS'lineno'
p16
I7
sS'import_filename'
p17
S'media/capture/mojom/video_capture_types.mojom'
p18
sS'filename'
p19
S'../../services/video_capture/public/mojom/virtual_device.mojom'
p20
sbag1
(g12
g3
NtRp21
(dp22
g15
Nsg16
I8
sg17
S'services/video_capture/public/mojom/producer.mojom'
p23
sg19
g20
sbag1
(g12
g3
NtRp24
(dp25
g15
Nsg16
I9
sg17
S'services/video_capture/public/mojom/scoped_access_permission.mojom'
p26
sg19
g20
sbag1
(g12
g3
NtRp27
(dp28
g15
Nsg16
I10
sg17
S'ui/gfx/geometry/mojo/geometry.mojom'
p29
sg19
g20
sbasg16
I7
sg19
g20
sbsS'definition_list'
p30
(lp31
g1
(cmojom.parse.ast
Interface
p32
g3
NtRp33
(dp34
S'body'
p35
g1
(cmojom.parse.ast
InterfaceBody
p36
g3
NtRp37
(dp38
g10
(lp39
g1
(cmojom.parse.ast
Method
p40
g3
NtRp41
(dp42
S'ordinal'
p43
NsS'mojom_name'
p44
S'RequestFrameBuffer'
p45
sS'parameter_list'
p46
g1
(cmojom.parse.ast
ParameterList
p47
g3
NtRp48
(dp49
g10
(lp50
g1
(cmojom.parse.ast
Parameter
p51
g3
NtRp52
(dp53
g43
Nsg44
S'dimension'
p54
sg15
Nsg19
g20
sS'typename'
p55
S'gfx.mojom.Size'
p56
sg16
I37
sbag1
(g51
g3
NtRp57
(dp58
g43
Nsg44
S'pixel_format'
p59
sg15
Nsg19
g20
sg55
S'media.mojom.VideoCapturePixelFormat'
p60
sg16
I38
sbasg16
I37
sg19
g20
sbsg15
Nsg19
Nsg16
NsS'response_parameter_list'
p61
g1
(g47
g3
NtRp62
(dp63
g10
(lp64
g1
(g51
g3
NtRp65
(dp66
g43
Nsg44
S'buffer_id'
p67
sg15
Nsg19
g20
sg55
S'int32'
p68
sg16
I39
sbasg16
I39
sg19
g20
sbsbag1
(g40
g3
NtRp69
(dp70
g43
Nsg44
S'OnFrameReadyInBuffer'
p71
sg46
g1
(g47
g3
NtRp72
(dp73
g10
(lp74
g1
(g51
g3
NtRp75
(dp76
g43
Nsg44
S'buffer_id'
p77
sg15
Nsg19
g20
sg55
S'int32'
p78
sg16
I43
sbag1
(g51
g3
NtRp79
(dp80
g43
Nsg44
S'frame_info'
p81
sg15
Nsg19
g20
sg55
S'media.mojom.VideoFrameInfo'
p82
sg16
I44
sbasg16
I43
sg19
g20
sbsg15
Nsg19
Nsg16
Nsg61
Nsbasg16
Nsg19
Nsbsg15
Nsg16
Nsg44
S'SharedMemoryVirtualDevice'
p83
sg19
Nsbag1
(g32
g3
NtRp84
(dp85
g35
g1
(g36
g3
NtRp86
(dp87
g10
(lp88
g1
(g40
g3
NtRp89
(dp90
g43
Nsg44
S'OnNewMailboxHolderBufferHandle'
p91
sg46
g1
(g47
g3
NtRp92
(dp93
g10
(lp94
g1
(g51
g3
NtRp95
(dp96
g43
Nsg44
S'buffer_id'
p97
sg15
Nsg19
g20
sg55
S'int32'
p98
sg16
I54
sbag1
(g51
g3
NtRp99
(dp100
g43
Nsg44
S'mailbox_handles'
p101
sg15
Nsg19
g20
sg55
S'media.mojom.MailboxBufferHandleSet'
p102
sg16
I54
sbasg16
I54
sg19
g20
sbsg15
Nsg19
Nsg16
Nsg61
Nsbag1
(g40
g3
NtRp103
(dp104
g43
Nsg44
S'OnFrameReadyInBuffer'
p105
sg46
g1
(g47
g3
NtRp106
(dp107
g10
(lp108
g1
(g51
g3
NtRp109
(dp110
g43
Nsg44
S'buffer_id'
p111
sg15
Nsg19
g20
sg55
S'int32'
p112
sg16
I57
sbag1
(g51
g3
NtRp113
(dp114
g43
Nsg44
S'access_permission'
p115
sg15
Nsg19
g20
sg55
S'ScopedAccessPermission'
p116
sg16
I58
sbag1
(g51
g3
NtRp117
(dp118
g43
Nsg44
S'frame_info'
p119
sg15
Nsg19
g20
sg55
S'media.mojom.VideoFrameInfo'
p120
sg16
I59
sbasg16
I57
sg19
g20
sbsg15
Nsg19
Nsg16
Nsg61
Nsbag1
(g40
g3
NtRp121
(dp122
g43
Nsg44
S'OnBufferRetired'
p123
sg46
g1
(g47
g3
NtRp124
(dp125
g10
(lp126
g1
(g51
g3
NtRp127
(dp128
g43
Nsg44
S'buffer_id'
p129
sg15
Nsg19
g20
sg55
S'int32'
p130
sg16
I63
sbasg16
I63
sg19
g20
sbsg15
Nsg19
Nsg16
Nsg61
Nsbasg16
Nsg19
Nsbsg15
Nsg16
Nsg44
S'TextureVirtualDevice'
p131
sg19
Nsbasg16
NsS'module'
p132
g1
(cmojom.parse.ast
Module
p133
g3
NtRp134
(dp135
S'mojom_namespace'
p136
(S'IDENTIFIER'
p137
S'video_capture.mojom'
tp138
sg16
I5
sg15
Nsg19
g20
sbsg19
Nsb.