ccopy_reg
_reconstructor
p1
(cmojom.parse.ast
Mojom
p2
c__builtin__
object
p3
NtRp4
(dp5
S'import_list'
p6
g1
(cmojom.parse.ast
ImportList
p7
g3
NtRp8
(dp9
S'items'
p10
(lp11
g1
(cmojom.parse.ast
Import
p12
g3
NtRp13
(dp14
S'attribute_list'
p15
NsS'lineno'
p16
I7
sS'import_filename'
p17
S'content/public/common/load_timing_info.mojom'
p18
sS'filename'
p19
S'../../content/public/common/resource_load_info.mojom'
p20
sbag1
(g12
g3
NtRp21
(dp22
g15
Nsg16
I8
sg17
S'content/public/common/resource_type.mojom'
p23
sg19
g20
sbag1
(g12
g3
NtRp24
(dp25
g15
Nsg16
I9
sg17
S'net/interfaces/ip_address.mojom'
p26
sg19
g20
sbag1
(g12
g3
NtRp27
(dp28
g15
Nsg16
I10
sg17
S'services/network/public/mojom/network_param.mojom'
p29
sg19
g20
sbag1
(g12
g3
NtRp30
(dp31
g15
Nsg16
I11
sg17
S'url/mojom/url.mojom'
p32
sg19
g20
sbasg16
I7
sg19
g20
sbsS'definition_list'
p33
(lp34
g1
(cmojom.parse.ast
Struct
p35
g3
NtRp36
(dp37
S'body'
p38
g1
(cmojom.parse.ast
StructBody
p39
g3
NtRp40
(dp41
g10
(lp42
g1
(cmojom.parse.ast
StructField
p43
g3
NtRp44
(dp45
S'ordinal'
p46
NsS'default_value'
p47
NsS'mojom_name'
p48
S'network_accessed'
p49
sg15
Nsg19
NsS'typename'
p50
S'bool'
p51
sg16
Nsbag1
(g43
g3
NtRp52
(dp53
g46
Nsg47
Nsg48
S'always_access_network'
p54
sg15
Nsg19
Nsg50
S'bool'
p55
sg16
Nsbag1
(g43
g3
NtRp56
(dp57
g46
Nsg47
Nsg48
S'ip_port_pair'
p58
sg15
Nsg19
Nsg50
S'network.mojom.HostPortPair?'
p59
sg16
Nsbasg16
Nsg19
Nsbsg15
Nsg16
Nsg48
S'CommonNetworkInfo'
p60
sg19
Nsbag1
(g35
g3
NtRp61
(dp62
g38
g1
(g39
g3
NtRp63
(dp64
g10
(lp65
g1
(g43
g3
NtRp66
(dp67
g46
Nsg47
Nsg48
S'url'
p68
sg15
Nsg19
Nsg50
S'url.mojom.Url'
p69
sg16
Nsbag1
(g43
g3
NtRp70
(dp71
g46
Nsg47
Nsg48
S'network_info'
p72
sg15
Nsg19
Nsg50
S'CommonNetworkInfo'
p73
sg16
Nsbasg16
Nsg19
Nsbsg15
Nsg16
Nsg48
S'RedirectInfo'
p74
sg19
Nsbag1
(g35
g3
NtRp75
(dp76
g38
g1
(g39
g3
NtRp77
(dp78
g10
(lp79
g1
(g43
g3
NtRp80
(dp81
g46
Nsg47
Nsg48
S'request_id'
p82
sg15
Nsg19
Nsg50
S'int64'
p83
sg16
Nsbag1
(g43
g3
NtRp84
(dp85
g46
Nsg47
Nsg48
S'url'
p86
sg15
Nsg19
Nsg50
S'url.mojom.Url'
p87
sg16
Nsbag1
(g43
g3
NtRp88
(dp89
g46
Nsg47
Nsg48
S'referrer'
p90
sg15
Nsg19
Nsg50
S'url.mojom.Url'
p91
sg16
Nsbag1
(g43
g3
NtRp92
(dp93
g46
Nsg47
Nsg48
S'original_url'
p94
sg15
Nsg19
Nsg50
S'url.mojom.Url'
p95
sg16
Nsbag1
(g43
g3
NtRp96
(dp97
g46
Nsg47
Nsg48
S'method'
p98
sg15
Nsg19
Nsg50
S'string'
p99
sg16
Nsbag1
(g43
g3
NtRp100
(dp101
g46
Nsg47
Nsg48
S'resource_type'
p102
sg15
Nsg19
Nsg50
S'ResourceType'
p103
sg16
Nsbag1
(g43
g3
NtRp104
(dp105
g46
Nsg47
Nsg48
S'mime_type'
p106
sg15
Nsg19
Nsg50
S'string'
p107
sg16
Nsbag1
(g43
g3
NtRp108
(dp109
g46
Nsg47
Nsg48
S'was_cached'
p110
sg15
Nsg19
Nsg50
S'bool'
p111
sg16
Nsbag1
(g43
g3
NtRp112
(dp113
g46
Nsg47
Nsg48
S'network_info'
p114
sg15
Nsg19
Nsg50
S'CommonNetworkInfo'
p115
sg16
Nsbag1
(g43
g3
NtRp116
(dp117
g46
Nsg47
Nsg48
S'net_error'
p118
sg15
Nsg19
Nsg50
S'int32'
p119
sg16
Nsbag1
(g43
g3
NtRp120
(dp121
g46
Nsg47
Nsg48
S'load_timing_info'
p122
sg15
Nsg19
Nsg50
S'content.mojom.LoadTimingInfo'
p123
sg16
Nsbag1
(g43
g3
NtRp124
(dp125
g46
Nsg47
Nsg48
S'raw_body_bytes'
p126
sg15
Nsg19
Nsg50
S'int64'
p127
sg16
Nsbag1
(g43
g3
NtRp128
(dp129
g46
Nsg47
Nsg48
S'total_received_bytes'
p130
sg15
Nsg19
Nsg50
S'int64'
p131
sg16
Nsbag1
(g43
g3
NtRp132
(dp133
g46
Nsg47
Nsg48
S'redirect_info_chain'
p134
sg15
Nsg19
Nsg50
S'RedirectInfo[]'
p135
sg16
Nsbasg16
Nsg19
Nsbsg15
Nsg16
Nsg48
S'ResourceLoadInfo'
p136
sg19
Nsbasg16
NsS'module'
p137
g1
(cmojom.parse.ast
Module
p138
g3
NtRp139
(dp140
S'mojom_namespace'
p141
(S'IDENTIFIER'
p142
S'content.mojom'
tp143
sg16
I5
sg15
Nsg19
g20
sbsg19
Nsb.