ccopy_reg
_reconstructor
p1
(cmojom.parse.ast
Mojom
p2
c__builtin__
object
p3
NtRp4
(dp5
S'import_list'
p6
g1
(cmojom.parse.ast
ImportList
p7
g3
NtRp8
(dp9
S'items'
p10
(lp11
sS'lineno'
p12
NsS'filename'
p13
NsbsS'definition_list'
p14
(lp15
g1
(cmojom.parse.ast
Enum
p16
g3
NtRp17
(dp18
S'attribute_list'
p19
NsS'enum_value_list'
p20
g1
(cmojom.parse.ast
EnumValueList
p21
g3
NtRp22
(dp23
g10
(lp24
g1
(cmojom.parse.ast
EnumValue
p25
g3
NtRp26
(dp27
g19
NsS'value'
p28
Nsg12
I10
sS'mojom_name'
p29
S'kNone'
p30
sg13
S'../../content/public/common/speech_recognition_error.mojom'
p31
sbag1
(g25
g3
NtRp32
(dp33
g19
Nsg28
Nsg12
I11
sg29
S'kNoSpeech'
p34
sg13
g31
sbag1
(g25
g3
NtRp35
(dp36
g19
Nsg28
Nsg12
I12
sg29
S'kAborted'
p37
sg13
g31
sbag1
(g25
g3
NtRp38
(dp39
g19
Nsg28
Nsg12
I13
sg29
S'kAudioCapture'
p40
sg13
g31
sbag1
(g25
g3
NtRp41
(dp42
g19
Nsg28
Nsg12
I14
sg29
S'kNetwork'
p43
sg13
g31
sbag1
(g25
g3
NtRp44
(dp45
g19
Nsg28
Nsg12
I15
sg29
S'kNotAllowed'
p46
sg13
g31
sbag1
(g25
g3
NtRp47
(dp48
g19
Nsg28
Nsg12
I16
sg29
S'kServiceNotAllowed'
p49
sg13
g31
sbag1
(g25
g3
NtRp50
(dp51
g19
Nsg28
Nsg12
I17
sg29
S'kBadGrammar'
p52
sg13
g31
sbag1
(g25
g3
NtRp53
(dp54
g19
Nsg28
Nsg12
I18
sg29
S'kLanguageNotSupported'
p55
sg13
g31
sbag1
(g25
g3
NtRp56
(dp57
g19
Nsg28
Nsg12
I19
sg29
S'kNoMatch'
p58
sg13
g31
sbasg12
I10
sg13
g31
sbsg12
I9
sg29
S'SpeechRecognitionErrorCode'
p59
sg13
g31
sbag1
(g16
g3
NtRp60
(dp61
g19
Nsg20
g1
(g21
g3
NtRp62
(dp63
g10
(lp64
g1
(g25
g3
NtRp65
(dp66
g19
Nsg28
Nsg12
I25
sg29
S'kNone'
p67
sg13
g31
sbag1
(g25
g3
NtRp68
(dp69
g19
Nsg28
Nsg12
I26
sg29
S'kNoMic'
p70
sg13
g31
sbasg12
I25
sg13
g31
sbsg12
I24
sg29
S'SpeechAudioErrorDetails'
p71
sg13
g31
sbag1
(cmojom.parse.ast
Struct
p72
g3
NtRp73
(dp74
S'body'
p75
g1
(cmojom.parse.ast
StructBody
p76
g3
NtRp77
(dp78
g10
(lp79
g1
(cmojom.parse.ast
StructField
p80
g3
NtRp81
(dp82
S'ordinal'
p83
NsS'default_value'
p84
Nsg29
S'code'
p85
sg19
Nsg13
NsS'typename'
p86
S'content.mojom.SpeechRecognitionErrorCode'
p87
sg12
Nsbag1
(g80
g3
NtRp88
(dp89
g83
Nsg84
Nsg29
S'details'
p90
sg19
Nsg13
Nsg86
S'content.mojom.SpeechAudioErrorDetails'
p91
sg12
Nsbasg12
Nsg13
Nsbsg19
Nsg12
Nsg29
S'SpeechRecognitionError'
p92
sg13
Nsbasg12
NsS'module'
p93
g1
(cmojom.parse.ast
Module
p94
g3
NtRp95
(dp96
S'mojom_namespace'
p97
(S'IDENTIFIER'
p98
S'content.mojom'
tp99
sg12
I5
sg19
Nsg13
g31
sbsg13
Nsb.