ccopy_reg
_reconstructor
p1
(cmojom.parse.ast
Mojom
p2
c__builtin__
object
p3
NtRp4
(dp5
S'import_list'
p6
g1
(cmojom.parse.ast
ImportList
p7
g3
NtRp8
(dp9
S'items'
p10
(lp11
g1
(cmojom.parse.ast
Import
p12
g3
NtRp13
(dp14
S'attribute_list'
p15
NsS'lineno'
p16
I7
sS'import_filename'
p17
S'content/common/service_worker/service_worker_provider.mojom'
p18
sS'filename'
p19
S'../../content/common/shared_worker/shared_worker_factory.mojom'
p20
sbag1
(g12
g3
NtRp21
(dp22
g15
Nsg16
I8
sg17
S'content/common/shared_worker/shared_worker.mojom'
p23
sg19
g20
sbag1
(g12
g3
NtRp24
(dp25
g15
Nsg16
I9
sg17
S'content/common/shared_worker/shared_worker_host.mojom'
p26
sg19
g20
sbag1
(g12
g3
NtRp27
(dp28
g15
Nsg16
I10
sg17
S'content/common/shared_worker/shared_worker_info.mojom'
p29
sg19
g20
sbag1
(g12
g3
NtRp30
(dp31
g15
Nsg16
I11
sg17
S'mojo/public/mojom/base/unguessable_token.mojom'
p32
sg19
g20
sbag1
(g12
g3
NtRp33
(dp34
g15
Nsg16
I12
sg17
S'services/network/public/mojom/url_loader_factory.mojom'
p35
sg19
g20
sbag1
(g12
g3
NtRp36
(dp37
g15
Nsg16
I13
sg17
S'services/service_manager/public/mojom/interface_provider.mojom'
p38
sg19
g20
sbag1
(g12
g3
NtRp39
(dp40
g15
Nsg16
I14
sg17
S'third_party/blink/public/web/worker_content_settings_proxy.mojom'
p41
sg19
g20
sbasg16
I7
sg19
g20
sbsS'definition_list'
p42
(lp43
g1
(cmojom.parse.ast
Const
p44
g3
NtRp45
(dp46
S'mojom_name'
p47
S'kNavigation_SharedWorkerSpec'
p48
sg15
NsS'value'
p49
S'"navigation:shared_worker"'
p50
sg19
NsS'typename'
p51
S'string'
p52
sg16
Nsbag1
(cmojom.parse.ast
Interface
p53
g3
NtRp54
(dp55
S'body'
p56
g1
(cmojom.parse.ast
InterfaceBody
p57
g3
NtRp58
(dp59
g10
(lp60
g1
(cmojom.parse.ast
Method
p61
g3
NtRp62
(dp63
S'ordinal'
p64
Nsg47
S'CreateSharedWorker'
p65
sS'parameter_list'
p66
g1
(cmojom.parse.ast
ParameterList
p67
g3
NtRp68
(dp69
g10
(lp70
g1
(cmojom.parse.ast
Parameter
p71
g3
NtRp72
(dp73
g64
Nsg47
S'info'
p74
sg15
Nsg19
g20
sg51
S'SharedWorkerInfo'
p75
sg16
I30
sbag1
(g71
g3
NtRp76
(dp77
g64
Nsg47
S'pause_on_start'
p78
sg15
Nsg19
g20
sg51
S'bool'
p79
sg16
I31
sbag1
(g71
g3
NtRp80
(dp81
g64
Nsg47
S'devtools_worker_token'
p82
sg15
Nsg19
g20
sg51
S'mojo_base.mojom.UnguessableToken'
p83
sg16
I32
sbag1
(g71
g3
NtRp84
(dp85
g64
Nsg47
S'content_settings'
p86
sg15
Nsg19
g20
sg51
S'blink.mojom.WorkerContentSettingsProxy'
p87
sg16
I33
sbag1
(g71
g3
NtRp88
(dp89
g64
Nsg47
S'service_worker_provider_info'
p90
sg15
Nsg19
g20
sg51
S'ServiceWorkerProviderInfoForSharedWorker?'
p91
sg16
I39
sbag1
(g71
g3
NtRp92
(dp93
g64
Nsg47
S'script_loader_factory_ptr_info'
p94
sg15
Nsg19
g20
sg51
S'asso<network.mojom.URLLoaderFactory>?'
p95
sg16
I54
sbag1
(g71
g3
NtRp96
(dp97
g64
Nsg47
S'host'
p98
sg15
Nsg19
g20
sg51
S'SharedWorkerHost'
p99
sg16
I56
sbag1
(g71
g3
NtRp100
(dp101
g64
Nsg47
S'shared_worker'
p102
sg15
Nsg19
g20
sg51
S'SharedWorker&'
p103
sg16
I57
sbag1
(g71
g3
NtRp104
(dp105
g64
Nsg47
S'interface_provider'
p106
sg15
Nsg19
g20
sg51
S'service_manager.mojom.InterfaceProvider'
p107
sg16
I58
sbasg16
I30
sg19
g20
sbsg15
Nsg19
Nsg16
NsS'response_parameter_list'
p108
Nsbasg16
Nsg19
Nsbsg15
Nsg16
Nsg47
S'SharedWorkerFactory'
p109
sg19
Nsbasg16
NsS'module'
p110
g1
(cmojom.parse.ast
Module
p111
g3
NtRp112
(dp113
S'mojom_namespace'
p114
(S'IDENTIFIER'
p115
S'content.mojom'
tp116
sg16
I5
sg15
Nsg19
g20
sbsg19
Nsb.