ccopy_reg
_reconstructor
p1
(cmojom.parse.ast
Mojom
p2
c__builtin__
object
p3
NtRp4
(dp5
S'import_list'
p6
g1
(cmojom.parse.ast
ImportList
p7
g3
NtRp8
(dp9
S'items'
p10
(lp11
g1
(cmojom.parse.ast
Import
p12
g3
NtRp13
(dp14
S'attribute_list'
p15
NsS'lineno'
p16
I7
sS'import_filename'
p17
S'components/autofill/content/common/autofill_types.mojom'
p18
sS'filename'
p19
S'../../components/autofill/content/common/autofill_driver.mojom'
p20
sbag1
(g12
g3
NtRp21
(dp22
g15
Nsg16
I8
sg17
S'mojo/public/mojom/base/string16.mojom'
p23
sg19
g20
sbag1
(g12
g3
NtRp24
(dp25
g15
Nsg16
I9
sg17
S'mojo/public/mojom/base/text_direction.mojom'
p26
sg19
g20
sbag1
(g12
g3
NtRp27
(dp28
g15
Nsg16
I10
sg17
S'mojo/public/mojom/base/time.mojom'
p29
sg19
g20
sbag1
(g12
g3
NtRp30
(dp31
g15
Nsg16
I11
sg17
S'ui/gfx/geometry/mojo/geometry.mojom'
p32
sg19
g20
sbag1
(g12
g3
NtRp33
(dp34
g15
Nsg16
I12
sg17
S'url/mojom/url.mojom'
p35
sg19
g20
sbasg16
I7
sg19
g20
sbsS'definition_list'
p36
(lp37
g1
(cmojom.parse.ast
Interface
p38
g3
NtRp39
(dp40
S'body'
p41
g1
(cmojom.parse.ast
InterfaceBody
p42
g3
NtRp43
(dp44
g10
(lp45
g1
(cmojom.parse.ast
Method
p46
g3
NtRp47
(dp48
S'ordinal'
p49
NsS'mojom_name'
p50
S'FormsSeen'
p51
sS'parameter_list'
p52
g1
(cmojom.parse.ast
ParameterList
p53
g3
NtRp54
(dp55
g10
(lp56
g1
(cmojom.parse.ast
Parameter
p57
g3
NtRp58
(dp59
g49
Nsg50
S'forms'
p60
sg15
Nsg19
g20
sS'typename'
p61
S'FormData[]'
p62
sg16
I19
sbag1
(g57
g3
NtRp63
(dp64
g49
Nsg50
S'timestamp'
p65
sg15
Nsg19
g20
sg61
S'mojo_base.mojom.TimeTicks'
p66
sg16
I19
sbasg16
I19
sg19
g20
sbsg15
Nsg19
Nsg16
NsS'response_parameter_list'
p67
Nsbag1
(g46
g3
NtRp68
(dp69
g49
Nsg50
S'FormSubmitted'
p70
sg52
g1
(g53
g3
NtRp71
(dp72
g10
(lp73
g1
(g57
g3
NtRp74
(dp75
g49
Nsg50
S'form'
p76
sg15
Nsg19
g20
sg61
S'FormData'
p77
sg16
I24
sbag1
(g57
g3
NtRp78
(dp79
g49
Nsg50
S'known_success'
p80
sg15
Nsg19
g20
sg61
S'bool'
p81
sg16
I25
sbag1
(g57
g3
NtRp82
(dp83
g49
Nsg50
S'source'
p84
sg15
Nsg19
g20
sg61
S'SubmissionSource'
p85
sg16
I26
sbag1
(g57
g3
NtRp86
(dp87
g49
Nsg50
S'timestamp'
p88
sg15
Nsg19
g20
sg61
S'mojo_base.mojom.TimeTicks'
p89
sg16
I27
sbasg16
I24
sg19
g20
sbsg15
Nsg19
Nsg16
Nsg67
Nsbag1
(g46
g3
NtRp90
(dp91
g49
Nsg50
S'TextFieldDidChange'
p92
sg52
g1
(g53
g3
NtRp93
(dp94
g10
(lp95
g1
(g57
g3
NtRp96
(dp97
g49
Nsg50
S'form'
p98
sg15
Nsg19
g20
sg61
S'FormData'
p99
sg16
I30
sbag1
(g57
g3
NtRp100
(dp101
g49
Nsg50
S'field'
p102
sg15
Nsg19
g20
sg61
S'FormFieldData'
p103
sg16
I31
sbag1
(g57
g3
NtRp104
(dp105
g49
Nsg50
S'bounding_box'
p106
sg15
Nsg19
g20
sg61
S'gfx.mojom.RectF'
p107
sg16
I32
sbag1
(g57
g3
NtRp108
(dp109
g49
Nsg50
S'timestamp'
p110
sg15
Nsg19
g20
sg61
S'mojo_base.mojom.TimeTicks'
p111
sg16
I33
sbasg16
I30
sg19
g20
sbsg15
Nsg19
Nsg16
Nsg67
Nsbag1
(g46
g3
NtRp112
(dp113
g49
Nsg50
S'TextFieldDidScroll'
p114
sg52
g1
(g53
g3
NtRp115
(dp116
g10
(lp117
g1
(g57
g3
NtRp118
(dp119
g49
Nsg50
S'form'
p120
sg15
Nsg19
g20
sg61
S'FormData'
p121
sg16
I36
sbag1
(g57
g3
NtRp122
(dp123
g49
Nsg50
S'field'
p124
sg15
Nsg19
g20
sg61
S'FormFieldData'
p125
sg16
I37
sbag1
(g57
g3
NtRp126
(dp127
g49
Nsg50
S'bounding_box'
p128
sg15
Nsg19
g20
sg61
S'gfx.mojom.RectF'
p129
sg16
I38
sbasg16
I36
sg19
g20
sbsg15
Nsg19
Nsg16
Nsg67
Nsbag1
(g46
g3
NtRp130
(dp131
g49
Nsg50
S'SelectControlDidChange'
p132
sg52
g1
(g53
g3
NtRp133
(dp134
g10
(lp135
g1
(g57
g3
NtRp136
(dp137
g49
Nsg50
S'form'
p138
sg15
Nsg19
g20
sg61
S'FormData'
p139
sg16
I41
sbag1
(g57
g3
NtRp140
(dp141
g49
Nsg50
S'field'
p142
sg15
Nsg19
g20
sg61
S'FormFieldData'
p143
sg16
I42
sbag1
(g57
g3
NtRp144
(dp145
g49
Nsg50
S'bounding_box'
p146
sg15
Nsg19
g20
sg61
S'gfx.mojom.RectF'
p147
sg16
I43
sbasg16
I41
sg19
g20
sbsg15
Nsg19
Nsg16
Nsg67
Nsbag1
(g46
g3
NtRp148
(dp149
g49
Nsg50
S'SelectFieldOptionsDidChange'
p150
sg52
g1
(g53
g3
NtRp151
(dp152
g10
(lp153
g1
(g57
g3
NtRp154
(dp155
g49
Nsg50
S'form'
p156
sg15
Nsg19
g20
sg61
S'FormData'
p157
sg16
I46
sbasg16
I46
sg19
g20
sbsg15
Nsg19
Nsg16
Nsg67
Nsbag1
(g46
g3
NtRp158
(dp159
g49
Nsg50
S'QueryFormFieldAutofill'
p160
sg52
g1
(g53
g3
NtRp161
(dp162
g10
(lp163
g1
(g57
g3
NtRp164
(dp165
g49
Nsg50
S'id'
p166
sg15
Nsg19
g20
sg61
S'int32'
p167
sg16
I50
sbag1
(g57
g3
NtRp168
(dp169
g49
Nsg50
S'form'
p170
sg15
Nsg19
g20
sg61
S'FormData'
p171
sg16
I51
sbag1
(g57
g3
NtRp172
(dp173
g49
Nsg50
S'field'
p174
sg15
Nsg19
g20
sg61
S'FormFieldData'
p175
sg16
I52
sbag1
(g57
g3
NtRp176
(dp177
g49
Nsg50
S'bounding_box'
p178
sg15
Nsg19
g20
sg61
S'gfx.mojom.RectF'
p179
sg16
I53
sbasg16
I50
sg19
g20
sbsg15
Nsg19
Nsg16
Nsg67
Nsbag1
(g46
g3
NtRp180
(dp181
g49
Nsg50
S'HidePopup'
p182
sg52
g1
(g53
g3
NtRp183
(dp184
g10
(lp185
sg16
Nsg19
Nsbsg15
Nsg19
Nsg16
Nsg67
Nsbag1
(g46
g3
NtRp186
(dp187
g49
Nsg50
S'FocusNoLongerOnForm'
p188
sg52
g1
(g53
g3
NtRp189
(dp190
g10
(lp191
sg16
Nsg19
Nsbsg15
Nsg19
Nsg16
Nsg67
Nsbag1
(g46
g3
NtRp192
(dp193
g49
Nsg50
S'FocusOnFormField'
p194
sg52
g1
(g53
g3
NtRp195
(dp196
g10
(lp197
g1
(g57
g3
NtRp198
(dp199
g49
Nsg50
S'form'
p200
sg15
Nsg19
g20
sg61
S'FormData'
p201
sg16
I62
sbag1
(g57
g3
NtRp202
(dp203
g49
Nsg50
S'field'
p204
sg15
Nsg19
g20
sg61
S'FormFieldData'
p205
sg16
I63
sbag1
(g57
g3
NtRp206
(dp207
g49
Nsg50
S'bounding_box'
p208
sg15
Nsg19
g20
sg61
S'gfx.mojom.RectF'
p209
sg16
I64
sbasg16
I62
sg19
g20
sbsg15
Nsg19
Nsg16
Nsg67
Nsbag1
(g46
g3
NtRp210
(dp211
g49
Nsg50
S'DidFillAutofillFormData'
p212
sg52
g1
(g53
g3
NtRp213
(dp214
g10
(lp215
g1
(g57
g3
NtRp216
(dp217
g49
Nsg50
S'form'
p218
sg15
Nsg19
g20
sg61
S'FormData'
p219
sg16
I67
sbag1
(g57
g3
NtRp220
(dp221
g49
Nsg50
S'timestamp'
p222
sg15
Nsg19
g20
sg61
S'mojo_base.mojom.TimeTicks'
p223
sg16
I67
sbasg16
I67
sg19
g20
sbsg15
Nsg19
Nsg16
Nsg67
Nsbag1
(g46
g3
NtRp224
(dp225
g49
Nsg50
S'DidPreviewAutofillFormData'
p226
sg52
g1
(g53
g3
NtRp227
(dp228
g10
(lp229
sg16
Nsg19
Nsbsg15
Nsg19
Nsg16
Nsg67
Nsbag1
(g46
g3
NtRp230
(dp231
g49
Nsg50
S'DidEndTextFieldEditing'
p232
sg52
g1
(g53
g3
NtRp233
(dp234
g10
(lp235
sg16
Nsg19
Nsbsg15
Nsg19
Nsg16
Nsg67
Nsbag1
(g46
g3
NtRp236
(dp237
g49
Nsg50
S'SetDataList'
p238
sg52
g1
(g53
g3
NtRp239
(dp240
g10
(lp241
g1
(g57
g3
NtRp242
(dp243
g49
Nsg50
S'values'
p244
sg15
Nsg19
g20
sg61
S'mojo_base.mojom.String16[]'
p245
sg16
I76
sbag1
(g57
g3
NtRp246
(dp247
g49
Nsg50
S'labels'
p248
sg15
Nsg19
g20
sg61
S'mojo_base.mojom.String16[]'
p249
sg16
I77
sbasg16
I76
sg19
g20
sbsg15
Nsg19
Nsg16
Nsg67
Nsbasg16
Nsg19
Nsbsg15
Nsg16
Nsg50
S'AutofillDriver'
p250
sg19
Nsbag1
(g38
g3
NtRp251
(dp252
g41
g1
(g42
g3
NtRp253
(dp254
g10
(lp255
g1
(g46
g3
NtRp256
(dp257
g49
Nsg50
S'PasswordFormsParsed'
p258
sg52
g1
(g53
g3
NtRp259
(dp260
g10
(lp261
g1
(g57
g3
NtRp262
(dp263
g49
Nsg50
S'forms'
p264
sg15
Nsg19
g20
sg61
S'PasswordForm[]'
p265
sg16
I85
sbasg16
I85
sg19
g20
sbsg15
Nsg19
Nsg16
Nsg67
Nsbag1
(g46
g3
NtRp266
(dp267
g49
Nsg50
S'PasswordFormsRendered'
p268
sg52
g1
(g53
g3
NtRp269
(dp270
g10
(lp271
g1
(g57
g3
NtRp272
(dp273
g49
Nsg50
S'visible_forms'
p274
sg15
Nsg19
g20
sg61
S'PasswordForm[]'
p275
sg16
I90
sbag1
(g57
g3
NtRp276
(dp277
g49
Nsg50
S'did_stop_loading'
p278
sg15
Nsg19
g20
sg61
S'bool'
p279
sg16
I91
sbasg16
I90
sg19
g20
sbsg15
Nsg19
Nsg16
Nsg67
Nsbag1
(g46
g3
NtRp280
(dp281
g49
Nsg50
S'PasswordFormSubmitted'
p282
sg52
g1
(g53
g3
NtRp283
(dp284
g10
(lp285
g1
(g57
g3
NtRp286
(dp287
g49
Nsg50
S'password_form'
p288
sg15
Nsg19
g20
sg61
S'PasswordForm'
p289
sg16
I94
sbasg16
I94
sg19
g20
sbsg15
Nsg19
Nsg16
Nsg67
Nsbag1
(g46
g3
NtRp290
(dp291
g49
Nsg50
S'ShowManualFallbackForSaving'
p292
sg52
g1
(g53
g3
NtRp293
(dp294
g10
(lp295
g1
(g57
g3
NtRp296
(dp297
g49
Nsg50
S'password_form'
p298
sg15
Nsg19
g20
sg61
S'PasswordForm'
p299
sg16
I98
sbasg16
I98
sg19
g20
sbsg15
Nsg19
Nsg16
Nsg67
Nsbag1
(g46
g3
NtRp300
(dp301
g49
Nsg50
S'HideManualFallbackForSaving'
p302
sg52
g1
(g53
g3
NtRp303
(dp304
g10
(lp305
sg16
Nsg19
Nsbsg15
Nsg19
Nsg16
Nsg67
Nsbag1
(g46
g3
NtRp306
(dp307
g49
Nsg50
S'SameDocumentNavigation'
p308
sg52
g1
(g53
g3
NtRp309
(dp310
g10
(lp311
g1
(g57
g3
NtRp312
(dp313
g49
Nsg50
S'password_form'
p314
sg15
Nsg19
g20
sg61
S'PasswordForm'
p315
sg16
I106
sbasg16
I106
sg19
g20
sbsg15
Nsg19
Nsg16
Nsg67
Nsbag1
(g46
g3
NtRp316
(dp317
g49
Nsg50
S'RecordSavePasswordProgress'
p318
sg52
g1
(g53
g3
NtRp319
(dp320
g10
(lp321
g1
(g57
g3
NtRp322
(dp323
g49
Nsg50
S'log'
p324
sg15
Nsg19
g20
sg61
S'string'
p325
sg16
I112
sbasg16
I112
sg19
g20
sbsg15
Nsg19
Nsg16
Nsg67
Nsbag1
(g46
g3
NtRp326
(dp327
g49
Nsg50
S'UserModifiedPasswordField'
p328
sg52
g1
(g53
g3
NtRp329
(dp330
g10
(lp331
sg16
Nsg19
Nsbsg15
Nsg19
Nsg16
Nsg67
Nsbag1
(g46
g3
NtRp332
(dp333
g49
Nsg50
S'ShowPasswordSuggestions'
p334
sg52
g1
(g53
g3
NtRp335
(dp336
g10
(lp337
g1
(g57
g3
NtRp338
(dp339
g49
Nsg50
S'key'
p340
sg15
Nsg19
g20
sg61
S'int32'
p341
sg16
I121
sbag1
(g57
g3
NtRp342
(dp343
g49
Nsg50
S'text_direction'
p344
sg15
Nsg19
g20
sg61
S'mojo_base.mojom.TextDirection'
p345
sg16
I122
sbag1
(g57
g3
NtRp346
(dp347
g49
Nsg50
S'typed_username'
p348
sg15
Nsg19
g20
sg61
S'mojo_base.mojom.String16'
p349
sg16
I123
sbag1
(g57
g3
NtRp350
(dp351
g49
Nsg50
S'options'
p352
sg15
Nsg19
g20
sg61
S'int32'
p353
sg16
I124
sbag1
(g57
g3
NtRp354
(dp355
g49
Nsg50
S'bounds'
p356
sg15
Nsg19
g20
sg61
S'gfx.mojom.RectF'
p357
sg16
I124
sbasg16
I121
sg19
g20
sbsg15
Nsg19
Nsg16
Nsg67
Nsbag1
(g46
g3
NtRp358
(dp359
g49
Nsg50
S'ShowManualFallbackSuggestion'
p360
sg52
g1
(g53
g3
NtRp361
(dp362
g10
(lp363
g1
(g57
g3
NtRp364
(dp365
g49
Nsg50
S'text_direction'
p366
sg15
Nsg19
g20
sg61
S'mojo_base.mojom.TextDirection'
p367
sg16
I129
sbag1
(g57
g3
NtRp368
(dp369
g49
Nsg50
S'bounds'
p370
sg15
Nsg19
g20
sg61
S'gfx.mojom.RectF'
p371
sg16
I130
sbasg16
I129
sg19
g20
sbsg15
Nsg19
Nsg16
Nsg67
Nsbag1
(g46
g3
NtRp372
(dp373
g49
Nsg50
S'PresaveGeneratedPassword'
p374
sg52
g1
(g53
g3
NtRp375
(dp376
g10
(lp377
g1
(g57
g3
NtRp378
(dp379
g49
Nsg50
S'password_form'
p380
sg15
Nsg19
g20
sg61
S'PasswordForm'
p381
sg16
I133
sbasg16
I133
sg19
g20
sbsg15
Nsg19
Nsg16
Nsg67
Nsbag1
(g46
g3
NtRp382
(dp383
g49
Nsg50
S'PasswordNoLongerGenerated'
p384
sg52
g1
(g53
g3
NtRp385
(dp386
g10
(lp387
g1
(g57
g3
NtRp388
(dp389
g49
Nsg50
S'password_form'
p390
sg15
Nsg19
g20
sg61
S'PasswordForm'
p391
sg16
I137
sbasg16
I137
sg19
g20
sbsg15
Nsg19
Nsg16
Nsg67
Nsbag1
(g46
g3
NtRp392
(dp393
g49
Nsg50
S'SaveGenerationFieldDetectedByClassifier'
p394
sg52
g1
(g53
g3
NtRp395
(dp396
g10
(lp397
g1
(g57
g3
NtRp398
(dp399
g49
Nsg50
S'password_form'
p400
sg15
Nsg19
g20
sg61
S'PasswordForm'
p401
sg16
I142
sbag1
(g57
g3
NtRp402
(dp403
g49
Nsg50
S'generation_field'
p404
sg15
Nsg19
g20
sg61
S'mojo_base.mojom.String16'
p405
sg16
I142
sbasg16
I142
sg19
g20
sbsg15
Nsg19
Nsg16
Nsg67
Nsbag1
(g46
g3
NtRp406
(dp407
g49
Nsg50
S'CheckSafeBrowsingReputation'
p408
sg52
g1
(g53
g3
NtRp409
(dp410
g10
(lp411
g1
(g57
g3
NtRp412
(dp413
g49
Nsg50
S'form_action'
p414
sg15
Nsg19
g20
sg61
S'url.mojom.Url'
p415
sg16
I147
sbag1
(g57
g3
NtRp416
(dp417
g49
Nsg50
S'frame_url'
p418
sg15
Nsg19
g20
sg61
S'url.mojom.Url'
p419
sg16
I147
sbasg16
I147
sg19
g20
sbsg15
Nsg19
Nsg16
Nsg67
Nsbasg16
Nsg19
Nsbsg15
Nsg16
Nsg50
S'PasswordManagerDriver'
p420
sg19
Nsbag1
(g38
g3
NtRp421
(dp422
g41
g1
(g42
g3
NtRp423
(dp424
g10
(lp425
g1
(g46
g3
NtRp426
(dp427
g49
Nsg50
S'GenerationAvailableForForm'
p428
sg52
g1
(g53
g3
NtRp429
(dp430
g10
(lp431
g1
(g57
g3
NtRp432
(dp433
g49
Nsg50
S'password_form'
p434
sg15
Nsg19
g20
sg61
S'PasswordForm'
p435
sg16
I155
sbasg16
I155
sg19
g20
sbsg15
Nsg19
Nsg16
Nsg67
Nsbag1
(g46
g3
NtRp436
(dp437
g49
Nsg50
S'ShowPasswordGenerationPopup'
p438
sg52
g1
(g53
g3
NtRp439
(dp440
g10
(lp441
g1
(g57
g3
NtRp442
(dp443
g49
Nsg50
S'bounds'
p444
sg15
Nsg19
g20
sg61
S'gfx.mojom.RectF'
p445
sg16
I166
sbag1
(g57
g3
NtRp446
(dp447
g49
Nsg50
S'max_length'
p448
sg15
Nsg19
g20
sg61
S'int32'
p449
sg16
I166
sbag1
(g57
g3
NtRp450
(dp451
g49
Nsg50
S'generation_element'
p452
sg15
Nsg19
g20
sg61
S'mojo_base.mojom.String16'
p453
sg16
I167
sbag1
(g57
g3
NtRp454
(dp455
g49
Nsg50
S'is_manually_triggered'
p456
sg15
Nsg19
g20
sg61
S'bool'
p457
sg16
I167
sbag1
(g57
g3
NtRp458
(dp459
g49
Nsg50
S'password_form'
p460
sg15
Nsg19
g20
sg61
S'PasswordForm'
p461
sg16
I168
sbasg16
I166
sg19
g20
sbsg15
Nsg19
Nsg16
Nsg67
Nsbag1
(g46
g3
NtRp462
(dp463
g49
Nsg50
S'ShowPasswordEditingPopup'
p464
sg52
g1
(g53
g3
NtRp465
(dp466
g10
(lp467
g1
(g57
g3
NtRp468
(dp469
g49
Nsg50
S'bounds'
p470
sg15
Nsg19
g20
sg61
S'gfx.mojom.RectF'
p471
sg16
I173
sbag1
(g57
g3
NtRp472
(dp473
g49
Nsg50
S'password_form'
p474
sg15
Nsg19
g20
sg61
S'PasswordForm'
p475
sg16
I173
sbasg16
I173
sg19
g20
sbsg15
Nsg19
Nsg16
Nsg67
Nsbag1
(g46
g3
NtRp476
(dp477
g49
Nsg50
S'HidePasswordGenerationPopup'
p478
sg52
g1
(g53
g3
NtRp479
(dp480
g10
(lp481
sg16
Nsg19
Nsbsg15
Nsg19
Nsg16
Nsg67
Nsbasg16
Nsg19
Nsbsg15
Nsg16
Nsg50
S'PasswordManagerClient'
p482
sg19
Nsbasg16
NsS'module'
p483
g1
(cmojom.parse.ast
Module
p484
g3
NtRp485
(dp486
S'mojom_namespace'
p487
(S'IDENTIFIER'
p488
S'autofill.mojom'
tp489
sg16
I5
sg15
Nsg19
g20
sbsg19
Nsb.