ccopy_reg
_reconstructor
p1
(cmojom.parse.ast
Mojom
p2
c__builtin__
object
p3
NtRp4
(dp5
S'import_list'
p6
g1
(cmojom.parse.ast
ImportList
p7
g3
NtRp8
(dp9
S'items'
p10
(lp11
g1
(cmojom.parse.ast
Import
p12
g3
NtRp13
(dp14
S'attribute_list'
p15
NsS'lineno'
p16
I7
sS'import_filename'
p17
S'components/autofill/content/common/autofill_types.mojom'
p18
sS'filename'
p19
S'../../components/autofill/content/common/autofill_agent.mojom'
p20
sbag1
(g12
g3
NtRp21
(dp22
g15
Nsg16
I8
sg17
S'mojo/public/mojom/base/string16.mojom'
p23
sg19
g20
sbasg16
I7
sg19
g20
sbsS'definition_list'
p24
(lp25
g1
(cmojom.parse.ast
Interface
p26
g3
NtRp27
(dp28
S'body'
p29
g1
(cmojom.parse.ast
InterfaceBody
p30
g3
NtRp31
(dp32
g10
(lp33
g1
(cmojom.parse.ast
Method
p34
g3
NtRp35
(dp36
S'ordinal'
p37
NsS'mojom_name'
p38
S'FillForm'
p39
sS'parameter_list'
p40
g1
(cmojom.parse.ast
ParameterList
p41
g3
NtRp42
(dp43
g10
(lp44
g1
(cmojom.parse.ast
Parameter
p45
g3
NtRp46
(dp47
g37
Nsg38
S'id'
p48
sg15
Nsg19
g20
sS'typename'
p49
S'int32'
p50
sg16
I15
sbag1
(g45
g3
NtRp51
(dp52
g37
Nsg38
S'form'
p53
sg15
Nsg19
g20
sg49
S'FormData'
p54
sg16
I15
sbasg16
I15
sg19
g20
sbsg15
Nsg19
Nsg16
NsS'response_parameter_list'
p55
Nsbag1
(g34
g3
NtRp56
(dp57
g37
Nsg38
S'PreviewForm'
p58
sg40
g1
(g41
g3
NtRp59
(dp60
g10
(lp61
g1
(g45
g3
NtRp62
(dp63
g37
Nsg38
S'id'
p64
sg15
Nsg19
g20
sg49
S'int32'
p65
sg16
I19
sbag1
(g45
g3
NtRp66
(dp67
g37
Nsg38
S'form'
p68
sg15
Nsg19
g20
sg49
S'FormData'
p69
sg16
I19
sbasg16
I19
sg19
g20
sbsg15
Nsg19
Nsg16
Nsg55
Nsbag1
(g34
g3
NtRp70
(dp71
g37
Nsg38
S'FieldTypePredictionsAvailable'
p72
sg40
g1
(g41
g3
NtRp73
(dp74
g10
(lp75
g1
(g45
g3
NtRp76
(dp77
g37
Nsg38
S'forms'
p78
sg15
Nsg19
g20
sg49
S'FormDataPredictions[]'
p79
sg16
I22
sbasg16
I22
sg19
g20
sbsg15
Nsg19
Nsg16
Nsg55
Nsbag1
(g34
g3
NtRp80
(dp81
g37
Nsg38
S'ClearSection'
p82
sg40
g1
(g41
g3
NtRp83
(dp84
g10
(lp85
sg16
Nsg19
Nsbsg15
Nsg19
Nsg16
Nsg55
Nsbag1
(g34
g3
NtRp86
(dp87
g37
Nsg38
S'ClearPreviewedForm'
p88
sg40
g1
(g41
g3
NtRp89
(dp90
g10
(lp91
sg16
Nsg19
Nsbsg15
Nsg19
Nsg16
Nsg55
Nsbag1
(g34
g3
NtRp92
(dp93
g37
Nsg38
S'FillFieldWithValue'
p94
sg40
g1
(g41
g3
NtRp95
(dp96
g10
(lp97
g1
(g45
g3
NtRp98
(dp99
g37
Nsg38
S'value'
p100
sg15
Nsg19
g20
sg49
S'mojo_base.mojom.String16'
p101
sg16
I33
sbasg16
I33
sg19
g20
sbsg15
Nsg19
Nsg16
Nsg55
Nsbag1
(g34
g3
NtRp102
(dp103
g37
Nsg38
S'PreviewFieldWithValue'
p104
sg40
g1
(g41
g3
NtRp105
(dp106
g10
(lp107
g1
(g45
g3
NtRp108
(dp109
g37
Nsg38
S'value'
p110
sg15
Nsg19
g20
sg49
S'mojo_base.mojom.String16'
p111
sg16
I36
sbasg16
I36
sg19
g20
sbsg15
Nsg19
Nsg16
Nsg55
Nsbag1
(g34
g3
NtRp112
(dp113
g37
Nsg38
S'AcceptDataListSuggestion'
p114
sg40
g1
(g41
g3
NtRp115
(dp116
g10
(lp117
g1
(g45
g3
NtRp118
(dp119
g37
Nsg38
S'value'
p120
sg15
Nsg19
g20
sg49
S'mojo_base.mojom.String16'
p121
sg16
I39
sbasg16
I39
sg19
g20
sbsg15
Nsg19
Nsg16
Nsg55
Nsbag1
(g34
g3
NtRp122
(dp123
g37
Nsg38
S'FillPasswordSuggestion'
p124
sg40
g1
(g41
g3
NtRp125
(dp126
g10
(lp127
g1
(g45
g3
NtRp128
(dp129
g37
Nsg38
S'username'
p130
sg15
Nsg19
g20
sg49
S'mojo_base.mojom.String16'
p131
sg16
I43
sbag1
(g45
g3
NtRp132
(dp133
g37
Nsg38
S'password'
p134
sg15
Nsg19
g20
sg49
S'mojo_base.mojom.String16'
p135
sg16
I44
sbasg16
I43
sg19
g20
sbsg15
Nsg19
Nsg16
Nsg55
Nsbag1
(g34
g3
NtRp136
(dp137
g37
Nsg38
S'PreviewPasswordSuggestion'
p138
sg40
g1
(g41
g3
NtRp139
(dp140
g10
(lp141
g1
(g45
g3
NtRp142
(dp143
g37
Nsg38
S'username'
p144
sg15
Nsg19
g20
sg49
S'mojo_base.mojom.String16'
p145
sg16
I48
sbag1
(g45
g3
NtRp146
(dp147
g37
Nsg38
S'password'
p148
sg15
Nsg19
g20
sg49
S'mojo_base.mojom.String16'
p149
sg16
I49
sbasg16
I48
sg19
g20
sbsg15
Nsg19
Nsg16
Nsg55
Nsbag1
(g34
g3
NtRp150
(dp151
g37
Nsg38
S'ShowInitialPasswordAccountSuggestions'
p152
sg40
g1
(g41
g3
NtRp153
(dp154
g10
(lp155
g1
(g45
g3
NtRp156
(dp157
g37
Nsg38
S'key'
p158
sg15
Nsg19
g20
sg49
S'int32'
p159
sg16
I54
sbag1
(g45
g3
NtRp160
(dp161
g37
Nsg38
S'form_data'
p162
sg15
Nsg19
g20
sg49
S'PasswordFormFillData'
p163
sg16
I55
sbasg16
I54
sg19
g20
sbsg15
Nsg19
Nsg16
Nsg55
Nsbag1
(g34
g3
NtRp164
(dp165
g37
Nsg38
S'SetUserGestureRequired'
p166
sg40
g1
(g41
g3
NtRp167
(dp168
g10
(lp169
g1
(g45
g3
NtRp170
(dp171
g37
Nsg38
S'required'
p172
sg15
Nsg19
g20
sg49
S'bool'
p173
sg16
I64
sbasg16
I64
sg19
g20
sbsg15
Nsg19
Nsg16
Nsg55
Nsbag1
(g34
g3
NtRp174
(dp175
g37
Nsg38
S'SetSecureContextRequired'
p176
sg40
g1
(g41
g3
NtRp177
(dp178
g10
(lp179
g1
(g45
g3
NtRp180
(dp181
g37
Nsg38
S'required'
p182
sg15
Nsg19
g20
sg49
S'bool'
p183
sg16
I68
sbasg16
I68
sg19
g20
sbsg15
Nsg19
Nsg16
Nsg55
Nsbag1
(g34
g3
NtRp184
(dp185
g37
Nsg38
S'SetFocusRequiresScroll'
p186
sg40
g1
(g41
g3
NtRp187
(dp188
g10
(lp189
g1
(g45
g3
NtRp190
(dp191
g37
Nsg38
S'require'
p192
sg15
Nsg19
g20
sg49
S'bool'
p193
sg16
I71
sbasg16
I71
sg19
g20
sbsg15
Nsg19
Nsg16
Nsg55
Nsbag1
(g34
g3
NtRp194
(dp195
g37
Nsg38
S'SetQueryPasswordSuggestion'
p196
sg40
g1
(g41
g3
NtRp197
(dp198
g10
(lp199
g1
(g45
g3
NtRp200
(dp201
g37
Nsg38
S'query'
p202
sg15
Nsg19
g20
sg49
S'bool'
p203
sg16
I74
sbasg16
I74
sg19
g20
sbsg15
Nsg19
Nsg16
Nsg55
Nsbasg16
Nsg19
Nsbsg15
Nsg16
Nsg38
S'AutofillAgent'
p204
sg19
Nsbag1
(g26
g3
NtRp205
(dp206
g29
g1
(g30
g3
NtRp207
(dp208
g10
(lp209
g1
(g34
g3
NtRp210
(dp211
g37
Nsg38
S'FillPasswordForm'
p212
sg40
g1
(g41
g3
NtRp213
(dp214
g10
(lp215
g1
(g45
g3
NtRp216
(dp217
g37
Nsg38
S'key'
p218
sg15
Nsg19
g20
sg49
S'int32'
p219
sg16
I85
sbag1
(g45
g3
NtRp220
(dp221
g37
Nsg38
S'form_data'
p222
sg15
Nsg19
g20
sg49
S'PasswordFormFillData'
p223
sg16
I85
sbasg16
I85
sg19
g20
sbsg15
Nsg19
Nsg16
Nsg55
Nsbag1
(g34
g3
NtRp224
(dp225
g37
Nsg38
S'SetLoggingState'
p226
sg40
g1
(g41
g3
NtRp227
(dp228
g10
(lp229
g1
(g45
g3
NtRp230
(dp231
g37
Nsg38
S'active'
p232
sg15
Nsg19
g20
sg49
S'bool'
p233
sg16
I89
sbasg16
I89
sg19
g20
sbsg15
Nsg19
Nsg16
Nsg55
Nsbag1
(g34
g3
NtRp234
(dp235
g37
Nsg38
S'AutofillUsernameAndPasswordDataReceived'
p236
sg40
g1
(g41
g3
NtRp237
(dp238
g10
(lp239
g1
(g45
g3
NtRp240
(dp241
g37
Nsg38
S'predictions'
p242
sg15
Nsg19
g20
sg49
S'FormsPredictionsMap'
p243
sg16
I94
sbasg16
I94
sg19
g20
sbsg15
Nsg19
Nsg16
Nsg55
Nsbag1
(g34
g3
NtRp244
(dp245
g37
Nsg38
S'FindFocusedPasswordForm'
p246
sg40
g1
(g41
g3
NtRp247
(dp248
g10
(lp249
sg16
Nsg19
Nsbsg15
Nsg19
Nsg16
Nsg55
g1
(g41
g3
NtRp250
(dp251
g10
(lp252
g1
(g45
g3
NtRp253
(dp254
g37
Nsg38
S'form'
p255
sg15
Nsg19
g20
sg49
S'PasswordForm'
p256
sg16
I99
sbasg16
I99
sg19
g20
sbsbag1
(g34
g3
NtRp257
(dp258
g37
Nsg38
S'BlacklistedFormFound'
p259
sg40
g1
(g41
g3
NtRp260
(dp261
g10
(lp262
sg16
Nsg19
Nsbsg15
Nsg19
Nsg16
Nsg55
Nsbasg16
Nsg19
Nsbsg15
Nsg16
Nsg38
S'PasswordAutofillAgent'
p263
sg19
Nsbag1
(g26
g3
NtRp264
(dp265
g29
g1
(g30
g3
NtRp266
(dp267
g10
(lp268
g1
(g34
g3
NtRp269
(dp270
g37
Nsg38
S'GeneratedPasswordAccepted'
p271
sg40
g1
(g41
g3
NtRp272
(dp273
g10
(lp274
g1
(g45
g3
NtRp275
(dp276
g37
Nsg38
S'generated_password'
p277
sg15
Nsg19
g20
sg49
S'mojo_base.mojom.String16'
p278
sg16
I111
sbasg16
I111
sg19
g20
sbsg15
Nsg19
Nsg16
Nsg55
Nsbag1
(g34
g3
NtRp279
(dp280
g37
Nsg38
S'UserTriggeredGeneratePassword'
p281
sg40
g1
(g41
g3
NtRp282
(dp283
g10
(lp284
sg16
Nsg19
Nsbsg15
Nsg19
Nsg16
Nsg55
Nsbag1
(g34
g3
NtRp285
(dp286
g37
Nsg38
S'UserSelectedManualGenerationOption'
p287
sg40
g1
(g41
g3
NtRp288
(dp289
g10
(lp290
sg16
Nsg19
Nsbsg15
Nsg19
Nsg16
Nsg55
Nsbag1
(g34
g3
NtRp291
(dp292
g37
Nsg38
S'FormNotBlacklisted'
p293
sg40
g1
(g41
g3
NtRp294
(dp295
g10
(lp296
g1
(g45
g3
NtRp297
(dp298
g37
Nsg38
S'form'
p299
sg15
Nsg19
g20
sg49
S'PasswordForm'
p300
sg16
I124
sbasg16
I124
sg19
g20
sbsg15
Nsg19
Nsg16
Nsg55
Nsbag1
(g34
g3
NtRp301
(dp302
g37
Nsg38
S'FoundFormsEligibleForGeneration'
p303
sg40
g1
(g41
g3
NtRp304
(dp305
g10
(lp306
g1
(g45
g3
NtRp307
(dp308
g37
Nsg38
S'forms'
p309
sg15
Nsg19
g20
sg49
S'PasswordFormGenerationData[]'
p310
sg16
I128
sbasg16
I128
sg19
g20
sbsg15
Nsg19
Nsg16
Nsg55
Nsbag1
(g34
g3
NtRp311
(dp312
g37
Nsg38
S'AllowToRunFormClassifier'
p313
sg40
g1
(g41
g3
NtRp314
(dp315
g10
(lp316
sg16
Nsg19
Nsbsg15
Nsg19
Nsg16
Nsg55
Nsbasg16
Nsg19
Nsbsg15
Nsg16
Nsg38
S'PasswordGenerationAgent'
p317
sg19
Nsbasg16
NsS'module'
p318
g1
(cmojom.parse.ast
Module
p319
g3
NtRp320
(dp321
S'mojom_namespace'
p322
(S'IDENTIFIER'
p323
S'autofill.mojom'
tp324
sg16
I5
sg15
Nsg19
g20
sbsg19
Nsb.