ccopy_reg
_reconstructor
p1
(cmojom.parse.ast
Mojom
p2
c__builtin__
object
p3
NtRp4
(dp5
S'import_list'
p6
g1
(cmojom.parse.ast
ImportList
p7
g3
NtRp8
(dp9
S'items'
p10
(lp11
g1
(cmojom.parse.ast
Import
p12
g3
NtRp13
(dp14
S'attribute_list'
p15
NsS'lineno'
p16
I7
sS'import_filename'
p17
S'mojo/public/mojom/base/text_direction.mojom'
p18
sS'filename'
p19
S'../../components/autofill/content/common/autofill_types.mojom'
p20
sbag1
(g12
g3
NtRp21
(dp22
g15
Nsg16
I8
sg17
S'mojo/public/mojom/base/time.mojom'
p23
sg19
g20
sbag1
(g12
g3
NtRp24
(dp25
g15
Nsg16
I9
sg17
S'mojo/public/mojom/base/string16.mojom'
p26
sg19
g20
sbag1
(g12
g3
NtRp27
(dp28
g15
Nsg16
I10
sg17
S'url/mojom/origin.mojom'
p29
sg19
g20
sbag1
(g12
g3
NtRp30
(dp31
g15
Nsg16
I11
sg17
S'url/mojom/url.mojom'
p32
sg19
g20
sbasg16
I7
sg19
g20
sbsS'definition_list'
p33
(lp34
g1
(cmojom.parse.ast
Enum
p35
g3
NtRp36
(dp37
g15
NsS'enum_value_list'
p38
g1
(cmojom.parse.ast
EnumValueList
p39
g3
NtRp40
(dp41
g10
(lp42
g1
(cmojom.parse.ast
EnumValue
p43
g3
NtRp44
(dp45
g15
NsS'value'
p46
Nsg16
I15
sS'mojom_name'
p47
S'NOT_CHECKABLE'
p48
sg19
g20
sbag1
(g43
g3
NtRp49
(dp50
g15
Nsg46
Nsg16
I16
sg47
S'CHECKABLE_BUT_UNCHECKED'
p51
sg19
g20
sbag1
(g43
g3
NtRp52
(dp53
g15
Nsg46
Nsg16
I17
sg47
S'CHECKED'
p54
sg19
g20
sbasg16
I15
sg19
g20
sbsg16
I14
sg47
S'CheckStatus'
p55
sg19
g20
sbag1
(g35
g3
NtRp56
(dp57
g15
Nsg38
g1
(g39
g3
NtRp58
(dp59
g10
(lp60
g1
(g43
g3
NtRp61
(dp62
g15
Nsg46
Nsg16
I22
sg47
S'ROLE_ATTRIBUTE_PRESENTATION'
p63
sg19
g20
sbag1
(g43
g3
NtRp64
(dp65
g15
Nsg46
Nsg16
I23
sg47
S'ROLE_ATTRIBUTE_OTHER'
p66
sg19
g20
sbasg16
I22
sg19
g20
sbsg16
I21
sg47
S'RoleAttribute'
p67
sg19
g20
sbag1
(g35
g3
NtRp68
(dp69
g15
Nsg38
g1
(g39
g3
NtRp70
(dp71
g10
(lp72
g1
(g43
g3
NtRp73
(dp74
g15
Nsg46
Nsg16
I28
sg47
S'NO_SIGNAL_SENT'
p75
sg19
g20
sbag1
(g43
g3
NtRp76
(dp77
g15
Nsg46
Nsg16
I29
sg47
S'POSITIVE_SIGNAL_SENT'
p78
sg19
g20
sbag1
(g43
g3
NtRp79
(dp80
g15
Nsg46
Nsg16
I30
sg47
S'NEGATIVE_SIGNAL_SENT'
p81
sg19
g20
sbag1
(g43
g3
NtRp82
(dp83
g15
Nsg46
S'10'
p84
sg16
I31
sg47
S'UNKNOWN_STATUS'
p85
sg19
g20
sbasg16
I28
sg19
g20
sbsg16
I27
sg47
S'GenerationUploadStatus'
p86
sg19
g20
sbag1
(g35
g3
NtRp87
(dp88
g15
Nsg38
g1
(g39
g3
NtRp89
(dp90
g10
(lp91
g1
(g43
g3
NtRp92
(dp93
g15
Nsg46
Nsg16
I36
sg47
S'LAYOUT_OTHER'
p94
sg19
g20
sbag1
(g43
g3
NtRp95
(dp96
g15
Nsg46
Nsg16
I37
sg47
S'LAYOUT_LOGIN_AND_SIGNUP'
p97
sg19
g20
sbasg16
I36
sg19
g20
sbsg16
I35
sg47
S'PasswordFormLayout'
p98
sg19
g20
sbag1
(g35
g3
NtRp99
(dp100
g15
Nsg38
g1
(g39
g3
NtRp101
(dp102
g10
(lp103
g1
(g43
g3
NtRp104
(dp105
g15
Nsg46
Nsg16
I42
sg47
S'TYPE_MANUAL'
p106
sg19
g20
sbag1
(g43
g3
NtRp107
(dp108
g15
Nsg46
Nsg16
I43
sg47
S'TYPE_GENERATED'
p109
sg19
g20
sbag1
(g43
g3
NtRp110
(dp111
g15
Nsg46
Nsg16
I44
sg47
S'TYPE_API'
p112
sg19
g20
sbasg16
I42
sg19
g20
sbsg16
I41
sg47
S'PasswordFormType'
p113
sg19
g20
sbag1
(g35
g3
NtRp114
(dp115
g15
Nsg38
g1
(g39
g3
NtRp116
(dp117
g10
(lp118
g1
(g43
g3
NtRp119
(dp120
g15
Nsg46
Nsg16
I49
sg47
S'SCHEME_HTML'
p121
sg19
g20
sbag1
(g43
g3
NtRp122
(dp123
g15
Nsg46
Nsg16
I50
sg47
S'SCHEME_BASIC'
p124
sg19
g20
sbag1
(g43
g3
NtRp125
(dp126
g15
Nsg46
Nsg16
I51
sg47
S'SCHEME_DIGEST'
p127
sg19
g20
sbag1
(g43
g3
NtRp128
(dp129
g15
Nsg46
Nsg16
I52
sg47
S'SCHEME_OTHER'
p130
sg19
g20
sbag1
(g43
g3
NtRp131
(dp132
g15
Nsg46
Nsg16
I53
sg47
S'SCHEME_USERNAME_ONLY'
p133
sg19
g20
sbasg16
I49
sg19
g20
sbsg16
I48
sg47
S'PasswordFormScheme'
p134
sg19
g20
sbag1
(g35
g3
NtRp135
(dp136
g15
Nsg38
g1
(g39
g3
NtRp137
(dp138
g10
(lp139
g1
(g43
g3
NtRp140
(dp141
g15
Nsg46
Nsg16
I58
sg47
S'NONE'
p142
sg19
g20
sbag1
(g43
g3
NtRp143
(dp144
g15
Nsg46
Nsg16
I59
sg47
S'HTML_FORM_SUBMISSION'
p145
sg19
g20
sbag1
(g43
g3
NtRp146
(dp147
g15
Nsg46
Nsg16
I60
sg47
S'SAME_DOCUMENT_NAVIGATION'
p148
sg19
g20
sbag1
(g43
g3
NtRp149
(dp150
g15
Nsg46
Nsg16
I61
sg47
S'XHR_SUCCEEDED'
p151
sg19
g20
sbag1
(g43
g3
NtRp152
(dp153
g15
Nsg46
Nsg16
I62
sg47
S'FRAME_DETACHED'
p154
sg19
g20
sbag1
(g43
g3
NtRp155
(dp156
g15
Nsg46
Nsg16
I63
sg47
S'MANUAL_SAVE'
p157
sg19
g20
sbag1
(g43
g3
NtRp158
(dp159
g15
Nsg46
Nsg16
I64
sg47
S'DOM_MUTATION_AFTER_XHR'
p160
sg19
g20
sbag1
(g43
g3
NtRp161
(dp162
g15
Nsg46
Nsg16
I65
sg47
S'PROVISIONALLY_SAVED_FORM_ON_START_PROVISIONAL_LOAD'
p163
sg19
g20
sbag1
(g43
g3
NtRp164
(dp165
g15
Nsg46
Nsg16
I66
sg47
S'SUBMISSION_INDICATOR_EVENT_COUNT'
p166
sg19
g20
sbasg16
I58
sg19
g20
sbsg16
I57
sg47
S'PasswordFormSubmissionIndicatorEvent'
p167
sg19
g20
sbag1
(g35
g3
NtRp168
(dp169
g15
Nsg38
g1
(g39
g3
NtRp170
(dp171
g10
(lp172
g1
(g43
g3
NtRp173
(dp174
g15
Nsg46
Nsg16
I71
sg47
S'PREDICTION_USERNAME'
p175
sg19
g20
sbag1
(g43
g3
NtRp176
(dp177
g15
Nsg46
Nsg16
I72
sg47
S'PREDICTION_CURRENT_PASSWORD'
p178
sg19
g20
sbag1
(g43
g3
NtRp179
(dp180
g15
Nsg46
Nsg16
I73
sg47
S'PREDICTION_NEW_PASSWORD'
p181
sg19
g20
sbag1
(g43
g3
NtRp182
(dp183
g15
Nsg46
Nsg16
I74
sg47
S'PREDICTION_NOT_PASSWORD'
p184
sg19
g20
sbasg16
I71
sg19
g20
sbsg16
I70
sg47
S'PasswordFormFieldPredictionType'
p185
sg19
g20
sbag1
(g35
g3
NtRp186
(dp187
g15
Nsg38
g1
(g39
g3
NtRp188
(dp189
g10
(lp190
g1
(g43
g3
NtRp191
(dp192
g15
Nsg46
Nsg16
I79
sg47
S'SAME_DOCUMENT_NAVIGATION'
p193
sg19
g20
sbag1
(g43
g3
NtRp194
(dp195
g15
Nsg46
Nsg16
I80
sg47
S'XHR_SUCCEEDED'
p196
sg19
g20
sbag1
(g43
g3
NtRp197
(dp198
g15
Nsg46
Nsg16
I81
sg47
S'FRAME_DETACHED'
p199
sg19
g20
sbag1
(g43
g3
NtRp200
(dp201
g15
Nsg46
Nsg16
I82
sg47
S'DOM_MUTATION_AFTER_XHR'
p202
sg19
g20
sbag1
(g43
g3
NtRp203
(dp204
g15
Nsg46
Nsg16
I83
sg47
S'PROBABLY_FORM_SUBMITTED'
p205
sg19
g20
sbag1
(g43
g3
NtRp206
(dp207
g15
Nsg46
Nsg16
I84
sg47
S'FORM_SUBMISSION'
p208
sg19
g20
sbasg16
I79
sg19
g20
sbsg16
I78
sg47
S'SubmissionSource'
p209
sg19
g20
sbag1
(g35
g3
NtRp210
(dp211
g15
Nsg38
g1
(g39
g3
NtRp212
(dp213
g10
(lp214
g1
(g43
g3
NtRp215
(dp216
g15
Nsg46
Nsg16
I89
sg47
S'UNKNOWN'
p217
sg19
g20
sbag1
(g43
g3
NtRp218
(dp219
g15
Nsg46
Nsg16
I90
sg47
S'LABEL_TAG'
p220
sg19
g20
sbag1
(g43
g3
NtRp221
(dp222
g15
Nsg46
Nsg16
I91
sg47
S'P_TAG'
p223
sg19
g20
sbag1
(g43
g3
NtRp224
(dp225
g15
Nsg46
Nsg16
I92
sg47
S'DIV_TABLE'
p226
sg19
g20
sbag1
(g43
g3
NtRp227
(dp228
g15
Nsg46
Nsg16
I93
sg47
S'TD_TAG'
p229
sg19
g20
sbag1
(g43
g3
NtRp230
(dp231
g15
Nsg46
Nsg16
I94
sg47
S'DD_TAG'
p232
sg19
g20
sbag1
(g43
g3
NtRp233
(dp234
g15
Nsg46
Nsg16
I95
sg47
S'LI_TAG'
p235
sg19
g20
sbag1
(g43
g3
NtRp236
(dp237
g15
Nsg46
Nsg16
I96
sg47
S'PLACE_HOLDER'
p238
sg19
g20
sbag1
(g43
g3
NtRp239
(dp240
g15
Nsg46
Nsg16
I97
sg47
S'ARIA_LABEL'
p241
sg19
g20
sbag1
(g43
g3
NtRp242
(dp243
g15
Nsg46
Nsg16
I98
sg47
S'COMBINED'
p244
sg19
g20
sbag1
(g43
g3
NtRp245
(dp246
g15
Nsg46
Nsg16
I99
sg47
S'VALUE'
p247
sg19
g20
sbasg16
I89
sg19
g20
sbsg16
I88
sg47
S'LabelSource'
p248
sg19
g20
sbag1
(cmojom.parse.ast
Struct
p249
g3
NtRp250
(dp251
S'body'
p252
g1
(cmojom.parse.ast
StructBody
p253
g3
NtRp254
(dp255
g10
(lp256
g1
(cmojom.parse.ast
StructField
p257
g3
NtRp258
(dp259
S'ordinal'
p260
NsS'default_value'
p261
Nsg47
S'label'
p262
sg15
Nsg19
NsS'typename'
p263
S'mojo_base.mojom.String16'
p264
sg16
Nsbag1
(g257
g3
NtRp265
(dp266
g260
Nsg261
Nsg47
S'name'
p267
sg15
Nsg19
Nsg263
S'mojo_base.mojom.String16'
p268
sg16
Nsbag1
(g257
g3
NtRp269
(dp270
g260
Nsg261
Nsg47
S'id'
p271
sg15
Nsg19
Nsg263
S'mojo_base.mojom.String16'
p272
sg16
Nsbag1
(g257
g3
NtRp273
(dp274
g260
Nsg261
Nsg47
S'value'
p275
sg15
Nsg19
Nsg263
S'mojo_base.mojom.String16'
p276
sg16
Nsbag1
(g257
g3
NtRp277
(dp278
g260
Nsg261
Nsg47
S'form_control_type'
p279
sg15
Nsg19
Nsg263
S'string'
p280
sg16
Nsbag1
(g257
g3
NtRp281
(dp282
g260
Nsg261
Nsg47
S'autocomplete_attribute'
p283
sg15
Nsg19
Nsg263
S'string'
p284
sg16
Nsbag1
(g257
g3
NtRp285
(dp286
g260
Nsg261
Nsg47
S'placeholder'
p287
sg15
Nsg19
Nsg263
S'mojo_base.mojom.String16'
p288
sg16
Nsbag1
(g257
g3
NtRp289
(dp290
g260
Nsg261
Nsg47
S'css_classes'
p291
sg15
Nsg19
Nsg263
S'mojo_base.mojom.String16'
p292
sg16
Nsbag1
(g257
g3
NtRp293
(dp294
g260
Nsg261
Nsg47
S'unique_renderer_id'
p295
sg15
Nsg19
Nsg263
S'uint32'
p296
sg16
Nsbag1
(g257
g3
NtRp297
(dp298
g260
Nsg261
Nsg47
S'properties_mask'
p299
sg15
Nsg19
Nsg263
S'uint32'
p300
sg16
Nsbag1
(g257
g3
NtRp301
(dp302
g260
Nsg261
Nsg47
S'max_length'
p303
sg15
Nsg19
Nsg263
S'uint64'
p304
sg16
Nsbag1
(g257
g3
NtRp305
(dp306
g260
Nsg261
Nsg47
S'is_autofilled'
p307
sg15
Nsg19
Nsg263
S'bool'
p308
sg16
Nsbag1
(g257
g3
NtRp309
(dp310
g260
Nsg261
Nsg47
S'section'
p311
sg15
Nsg19
Nsg263
S'string'
p312
sg16
Nsbag1
(g257
g3
NtRp313
(dp314
g260
Nsg261
Nsg47
S'check_status'
p315
sg15
Nsg19
Nsg263
S'CheckStatus'
p316
sg16
Nsbag1
(g257
g3
NtRp317
(dp318
g260
Nsg261
Nsg47
S'is_focusable'
p319
sg15
Nsg19
Nsg263
S'bool'
p320
sg16
Nsbag1
(g257
g3
NtRp321
(dp322
g260
Nsg261
Nsg47
S'should_autocomplete'
p323
sg15
Nsg19
Nsg263
S'bool'
p324
sg16
Nsbag1
(g257
g3
NtRp325
(dp326
g260
Nsg261
Nsg47
S'role'
p327
sg15
Nsg19
Nsg263
S'RoleAttribute'
p328
sg16
Nsbag1
(g257
g3
NtRp329
(dp330
g260
Nsg261
Nsg47
S'text_direction'
p331
sg15
Nsg19
Nsg263
S'mojo_base.mojom.TextDirection'
p332
sg16
Nsbag1
(g257
g3
NtRp333
(dp334
g260
Nsg261
Nsg47
S'is_enabled'
p335
sg15
Nsg19
Nsg263
S'bool'
p336
sg16
Nsbag1
(g257
g3
NtRp337
(dp338
g260
Nsg261
Nsg47
S'is_readonly'
p339
sg15
Nsg19
Nsg263
S'bool'
p340
sg16
Nsbag1
(g257
g3
NtRp341
(dp342
g260
Nsg261
Nsg47
S'is_default'
p343
sg15
Nsg19
Nsg263
S'bool'
p344
sg16
Nsbag1
(g257
g3
NtRp345
(dp346
g260
Nsg261
Nsg47
S'typed_value'
p347
sg15
Nsg19
Nsg263
S'mojo_base.mojom.String16'
p348
sg16
Nsbag1
(g257
g3
NtRp349
(dp350
g260
Nsg261
Nsg47
S'option_values'
p351
sg15
Nsg19
Nsg263
S'mojo_base.mojom.String16[]'
p352
sg16
Nsbag1
(g257
g3
NtRp353
(dp354
g260
Nsg261
Nsg47
S'option_contents'
p355
sg15
Nsg19
Nsg263
S'mojo_base.mojom.String16[]'
p356
sg16
Nsbag1
(g257
g3
NtRp357
(dp358
g260
Nsg261
Nsg47
S'label_source'
p359
sg15
Nsg19
Nsg263
S'LabelSource'
p360
sg16
Nsbasg16
Nsg19
Nsbsg15
Nsg16
Nsg47
S'FormFieldData'
p361
sg19
Nsbag1
(g249
g3
NtRp362
(dp363
g252
g1
(g253
g3
NtRp364
(dp365
g10
(lp366
g1
(g257
g3
NtRp367
(dp368
g260
Nsg261
Nsg47
S'name'
p369
sg15
Nsg19
Nsg263
S'mojo_base.mojom.String16'
p370
sg16
Nsbag1
(g257
g3
NtRp371
(dp372
g260
Nsg261
Nsg47
S'origin'
p373
sg15
Nsg19
Nsg263
S'url.mojom.Url'
p374
sg16
Nsbag1
(g257
g3
NtRp375
(dp376
g260
Nsg261
Nsg47
S'action'
p377
sg15
Nsg19
Nsg263
S'url.mojom.Url'
p378
sg16
Nsbag1
(g257
g3
NtRp379
(dp380
g260
Nsg261
Nsg47
S'main_frame_origin'
p381
sg15
Nsg19
Nsg263
S'url.mojom.Origin'
p382
sg16
Nsbag1
(g257
g3
NtRp383
(dp384
g260
Nsg261
Nsg47
S'is_form_tag'
p385
sg15
Nsg19
Nsg263
S'bool'
p386
sg16
Nsbag1
(g257
g3
NtRp387
(dp388
g260
Nsg261
Nsg47
S'is_formless_checkout'
p389
sg15
Nsg19
Nsg263
S'bool'
p390
sg16
Nsbag1
(g257
g3
NtRp391
(dp392
g260
Nsg261
Nsg47
S'unique_renderer_id'
p393
sg15
Nsg19
Nsg263
S'uint32'
p394
sg16
Nsbag1
(g257
g3
NtRp395
(dp396
g260
Nsg261
Nsg47
S'fields'
p397
sg15
Nsg19
Nsg263
S'FormFieldData[]'
p398
sg16
Nsbasg16
Nsg19
Nsbsg15
Nsg16
Nsg47
S'FormData'
p399
sg19
Nsbag1
(g249
g3
NtRp400
(dp401
g252
g1
(g253
g3
NtRp402
(dp403
g10
(lp404
g1
(g257
g3
NtRp405
(dp406
g260
Nsg261
Nsg47
S'field'
p407
sg15
Nsg19
Nsg263
S'FormFieldData'
p408
sg16
Nsbag1
(g257
g3
NtRp409
(dp410
g260
Nsg261
Nsg47
S'signature'
p411
sg15
Nsg19
Nsg263
S'string'
p412
sg16
Nsbag1
(g257
g3
NtRp413
(dp414
g260
Nsg261
Nsg47
S'heuristic_type'
p415
sg15
Nsg19
Nsg263
S'string'
p416
sg16
Nsbag1
(g257
g3
NtRp417
(dp418
g260
Nsg261
Nsg47
S'server_type'
p419
sg15
Nsg19
Nsg263
S'string'
p420
sg16
Nsbag1
(g257
g3
NtRp421
(dp422
g260
Nsg261
Nsg47
S'overall_type'
p423
sg15
Nsg19
Nsg263
S'string'
p424
sg16
Nsbag1
(g257
g3
NtRp425
(dp426
g260
Nsg261
Nsg47
S'parseable_name'
p427
sg15
Nsg19
Nsg263
S'string'
p428
sg16
Nsbag1
(g257
g3
NtRp429
(dp430
g260
Nsg261
Nsg47
S'section'
p431
sg15
Nsg19
Nsg263
S'string'
p432
sg16
Nsbasg16
Nsg19
Nsbsg15
Nsg16
Nsg47
S'FormFieldDataPredictions'
p433
sg19
Nsbag1
(g249
g3
NtRp434
(dp435
g252
g1
(g253
g3
NtRp436
(dp437
g10
(lp438
g1
(g257
g3
NtRp439
(dp440
g260
Nsg261
Nsg47
S'data'
p441
sg15
Nsg19
Nsg263
S'FormData'
p442
sg16
Nsbag1
(g257
g3
NtRp443
(dp444
g260
Nsg261
Nsg47
S'signature'
p445
sg15
Nsg19
Nsg263
S'string'
p446
sg16
Nsbag1
(g257
g3
NtRp447
(dp448
g260
Nsg261
Nsg47
S'fields'
p449
sg15
Nsg19
Nsg263
S'FormFieldDataPredictions[]'
p450
sg16
Nsbasg16
Nsg19
Nsbsg15
Nsg16
Nsg47
S'FormDataPredictions'
p451
sg19
Nsbag1
(g249
g3
NtRp452
(dp453
g252
g1
(g253
g3
NtRp454
(dp455
g10
(lp456
g1
(g257
g3
NtRp457
(dp458
g260
Nsg261
Nsg47
S'password'
p459
sg15
Nsg19
Nsg263
S'mojo_base.mojom.String16'
p460
sg16
Nsbag1
(g257
g3
NtRp461
(dp462
g260
Nsg261
Nsg47
S'realm'
p463
sg15
Nsg19
Nsg263
S'string'
p464
sg16
Nsbasg16
Nsg19
Nsbsg15
Nsg16
Nsg47
S'PasswordAndRealm'
p465
sg19
Nsbag1
(g249
g3
NtRp466
(dp467
g252
g1
(g253
g3
NtRp468
(dp469
g10
(lp470
g1
(g257
g3
NtRp471
(dp472
g260
Nsg261
Nsg47
S'name'
p473
sg15
Nsg19
Nsg263
S'mojo_base.mojom.String16'
p474
sg16
Nsbag1
(g257
g3
NtRp475
(dp476
g260
Nsg261
Nsg47
S'origin'
p477
sg15
Nsg19
Nsg263
S'url.mojom.Url'
p478
sg16
Nsbag1
(g257
g3
NtRp479
(dp480
g260
Nsg261
Nsg47
S'action'
p481
sg15
Nsg19
Nsg263
S'url.mojom.Url'
p482
sg16
Nsbag1
(g257
g3
NtRp483
(dp484
g260
Nsg261
Nsg47
S'username_field'
p485
sg15
Nsg19
Nsg263
S'FormFieldData'
p486
sg16
Nsbag1
(g257
g3
NtRp487
(dp488
g260
Nsg261
Nsg47
S'password_field'
p489
sg15
Nsg19
Nsg263
S'FormFieldData'
p490
sg16
Nsbag1
(g257
g3
NtRp491
(dp492
g260
Nsg261
Nsg47
S'preferred_realm'
p493
sg15
Nsg19
Nsg263
S'string'
p494
sg16
Nsbag1
(g257
g3
NtRp495
(dp496
g260
Nsg261
Nsg47
S'additional_logins'
p497
sg15
Nsg19
Nsg263
S'PasswordAndRealm{mojo_base.mojom.String16}'
p498
sg16
Nsbag1
(g257
g3
NtRp499
(dp500
g260
Nsg261
Nsg47
S'wait_for_username'
p501
sg15
Nsg19
Nsg263
S'bool'
p502
sg16
Nsbag1
(g257
g3
NtRp503
(dp504
g260
Nsg261
Nsg47
S'is_possible_change_password_form'
p505
sg15
Nsg19
Nsg263
S'bool'
p506
sg16
Nsbasg16
Nsg19
Nsbsg15
Nsg16
Nsg47
S'PasswordFormFillData'
p507
sg19
Nsbag1
(g249
g3
NtRp508
(dp509
g252
g1
(g253
g3
NtRp510
(dp511
g10
(lp512
g1
(g257
g3
NtRp513
(dp514
g260
Nsg261
Nsg47
S'form_signature'
p515
sg15
Nsg19
Nsg263
S'uint64'
p516
sg16
Nsbag1
(g257
g3
NtRp517
(dp518
g260
Nsg261
Nsg47
S'field_signature'
p519
sg15
Nsg19
Nsg263
S'uint32'
p520
sg16
Nsbag1
(g257
g3
NtRp521
(dp522
g260
Nsg261
Nsg47
S'has_confirmation_field'
p523
sg15
Nsg19
Nsg263
S'bool'
p524
sg16
Nsbag1
(g257
g3
NtRp525
(dp526
g260
Nsg261
Nsg47
S'confirmation_field_signature'
p527
sg15
Nsg19
Nsg263
S'uint32'
p528
sg16
Nsbasg16
Nsg19
Nsbsg15
Nsg16
Nsg47
S'PasswordFormGenerationData'
p529
sg19
Nsbag1
(g249
g3
NtRp530
(dp531
g252
g1
(g253
g3
NtRp532
(dp533
g10
(lp534
g1
(g257
g3
NtRp535
(dp536
g260
Nsg261
Nsg47
S'value'
p537
sg15
Nsg19
Nsg263
S'mojo_base.mojom.String16'
p538
sg16
Nsbag1
(g257
g3
NtRp539
(dp540
g260
Nsg261
Nsg47
S'field_name'
p541
sg15
Nsg19
Nsg263
S'mojo_base.mojom.String16'
p542
sg16
Nsbasg16
Nsg19
Nsbsg15
Nsg16
Nsg47
S'ValueElementPair'
p543
sg19
Nsbag1
(g249
g3
NtRp544
(dp545
g252
g1
(g253
g3
NtRp546
(dp547
g10
(lp548
g1
(g257
g3
NtRp549
(dp550
g260
Nsg261
Nsg47
S'scheme'
p551
sg15
Nsg19
Nsg263
S'PasswordFormScheme'
p552
sg16
Nsbag1
(g257
g3
NtRp553
(dp554
g260
Nsg261
Nsg47
S'signon_realm'
p555
sg15
Nsg19
Nsg263
S'string'
p556
sg16
Nsbag1
(g257
g3
NtRp557
(dp558
g260
Nsg261
Nsg47
S'origin_with_path'
p559
sg15
Nsg19
Nsg263
S'url.mojom.Url'
p560
sg16
Nsbag1
(g257
g3
NtRp561
(dp562
g260
Nsg261
Nsg47
S'action'
p563
sg15
Nsg19
Nsg263
S'url.mojom.Url'
p564
sg16
Nsbag1
(g257
g3
NtRp565
(dp566
g260
Nsg261
Nsg47
S'affiliated_web_realm'
p567
sg15
Nsg19
Nsg263
S'string'
p568
sg16
Nsbag1
(g257
g3
NtRp569
(dp570
g260
Nsg261
Nsg47
S'submit_element'
p571
sg15
Nsg19
Nsg263
S'mojo_base.mojom.String16'
p572
sg16
Nsbag1
(g257
g3
NtRp573
(dp574
g260
Nsg261
Nsg47
S'username_element'
p575
sg15
Nsg19
Nsg263
S'mojo_base.mojom.String16'
p576
sg16
Nsbag1
(g257
g3
NtRp577
(dp578
g260
Nsg261
Nsg47
S'username_marked_by_site'
p579
sg15
Nsg19
Nsg263
S'bool'
p580
sg16
Nsbag1
(g257
g3
NtRp581
(dp582
g260
Nsg261
Nsg47
S'username_value'
p583
sg15
Nsg19
Nsg263
S'mojo_base.mojom.String16'
p584
sg16
Nsbag1
(g257
g3
NtRp585
(dp586
g260
Nsg261
Nsg47
S'other_possible_usernames'
p587
sg15
Nsg19
Nsg263
S'ValueElementPair[]'
p588
sg16
Nsbag1
(g257
g3
NtRp589
(dp590
g260
Nsg261
Nsg47
S'all_possible_passwords'
p591
sg15
Nsg19
Nsg263
S'ValueElementPair[]'
p592
sg16
Nsbag1
(g257
g3
NtRp593
(dp594
g260
Nsg261
Nsg47
S'form_has_autofilled_value'
p595
sg15
Nsg19
Nsg263
S'bool'
p596
sg16
Nsbag1
(g257
g3
NtRp597
(dp598
g260
Nsg261
Nsg47
S'password_element'
p599
sg15
Nsg19
Nsg263
S'mojo_base.mojom.String16'
p600
sg16
Nsbag1
(g257
g3
NtRp601
(dp602
g260
Nsg261
Nsg47
S'password_value'
p603
sg15
Nsg19
Nsg263
S'mojo_base.mojom.String16'
p604
sg16
Nsbag1
(g257
g3
NtRp605
(dp606
g260
Nsg261
Nsg47
S'password_value_is_default'
p607
sg15
Nsg19
Nsg263
S'bool'
p608
sg16
Nsbag1
(g257
g3
NtRp609
(dp610
g260
Nsg261
Nsg47
S'new_password_element'
p611
sg15
Nsg19
Nsg263
S'mojo_base.mojom.String16'
p612
sg16
Nsbag1
(g257
g3
NtRp613
(dp614
g260
Nsg261
Nsg47
S'new_password_value'
p615
sg15
Nsg19
Nsg263
S'mojo_base.mojom.String16'
p616
sg16
Nsbag1
(g257
g3
NtRp617
(dp618
g260
Nsg261
Nsg47
S'new_password_value_is_default'
p619
sg15
Nsg19
Nsg263
S'bool'
p620
sg16
Nsbag1
(g257
g3
NtRp621
(dp622
g260
Nsg261
Nsg47
S'new_password_marked_by_site'
p623
sg15
Nsg19
Nsg263
S'bool'
p624
sg16
Nsbag1
(g257
g3
NtRp625
(dp626
g260
Nsg261
Nsg47
S'confirmation_password_element'
p627
sg15
Nsg19
Nsg263
S'mojo_base.mojom.String16'
p628
sg16
Nsbag1
(g257
g3
NtRp629
(dp630
g260
Nsg261
Nsg47
S'preferred'
p631
sg15
Nsg19
Nsg263
S'bool'
p632
sg16
Nsbag1
(g257
g3
NtRp633
(dp634
g260
Nsg261
Nsg47
S'date_created'
p635
sg15
Nsg19
Nsg263
S'mojo_base.mojom.Time'
p636
sg16
Nsbag1
(g257
g3
NtRp637
(dp638
g260
Nsg261
Nsg47
S'date_synced'
p639
sg15
Nsg19
Nsg263
S'mojo_base.mojom.Time'
p640
sg16
Nsbag1
(g257
g3
NtRp641
(dp642
g260
Nsg261
Nsg47
S'blacklisted_by_user'
p643
sg15
Nsg19
Nsg263
S'bool'
p644
sg16
Nsbag1
(g257
g3
NtRp645
(dp646
g260
Nsg261
Nsg47
S'type'
p647
sg15
Nsg19
Nsg263
S'PasswordFormType'
p648
sg16
Nsbag1
(g257
g3
NtRp649
(dp650
g260
Nsg261
Nsg47
S'times_used'
p651
sg15
Nsg19
Nsg263
S'int32'
p652
sg16
Nsbag1
(g257
g3
NtRp653
(dp654
g260
Nsg261
Nsg47
S'form_data'
p655
sg15
Nsg19
Nsg263
S'FormData'
p656
sg16
Nsbag1
(g257
g3
NtRp657
(dp658
g260
Nsg261
Nsg47
S'generation_upload_status'
p659
sg15
Nsg19
Nsg263
S'GenerationUploadStatus'
p660
sg16
Nsbag1
(g257
g3
NtRp661
(dp662
g260
Nsg261
Nsg47
S'display_name'
p663
sg15
Nsg19
Nsg263
S'mojo_base.mojom.String16'
p664
sg16
Nsbag1
(g257
g3
NtRp665
(dp666
g260
Nsg261
Nsg47
S'icon_url'
p667
sg15
Nsg19
Nsg263
S'url.mojom.Url'
p668
sg16
Nsbag1
(g257
g3
NtRp669
(dp670
g260
Nsg261
Nsg47
S'federation_origin'
p671
sg15
Nsg19
Nsg263
S'url.mojom.Origin'
p672
sg16
Nsbag1
(g257
g3
NtRp673
(dp674
g260
Nsg261
Nsg47
S'skip_zero_click'
p675
sg15
Nsg19
Nsg263
S'bool'
p676
sg16
Nsbag1
(g257
g3
NtRp677
(dp678
g260
Nsg261
Nsg47
S'layout'
p679
sg15
Nsg19
Nsg263
S'PasswordFormLayout'
p680
sg16
Nsbag1
(g257
g3
NtRp681
(dp682
g260
Nsg261
Nsg47
S'was_parsed_using_autofill_predictions'
p683
sg15
Nsg19
Nsg263
S'bool'
p684
sg16
Nsbag1
(g257
g3
NtRp685
(dp686
g260
Nsg261
Nsg47
S'is_public_suffix_match'
p687
sg15
Nsg19
Nsg263
S'bool'
p688
sg16
Nsbag1
(g257
g3
NtRp689
(dp690
g260
Nsg261
Nsg47
S'is_affiliation_based_match'
p691
sg15
Nsg19
Nsg263
S'bool'
p692
sg16
Nsbag1
(g257
g3
NtRp693
(dp694
g260
Nsg261
Nsg47
S'submission_event'
p695
sg15
Nsg19
Nsg263
S'PasswordFormSubmissionIndicatorEvent'
p696
sg16
Nsbag1
(g257
g3
NtRp697
(dp698
g260
Nsg261
Nsg47
S'only_for_fallback_saving'
p699
sg15
Nsg19
Nsg263
S'bool'
p700
sg16
Nsbasg16
Nsg19
Nsbsg15
Nsg16
Nsg47
S'PasswordForm'
p701
sg19
Nsbag1
(g249
g3
NtRp702
(dp703
g252
g1
(g253
g3
NtRp704
(dp705
g10
(lp706
g1
(g257
g3
NtRp707
(dp708
g260
Nsg261
Nsg47
S'keys'
p709
sg15
Nsg19
Nsg263
S'FormFieldData[]'
p710
sg16
Nsbag1
(g257
g3
NtRp711
(dp712
g260
Nsg261
Nsg47
S'values'
p713
sg15
Nsg19
Nsg263
S'PasswordFormFieldPredictionType[]'
p714
sg16
Nsbasg16
Nsg19
Nsbsg15
Nsg16
Nsg47
S'PasswordFormFieldPredictionMap'
p715
sg19
Nsbag1
(g249
g3
NtRp716
(dp717
g252
g1
(g253
g3
NtRp718
(dp719
g10
(lp720
g1
(g257
g3
NtRp721
(dp722
g260
Nsg261
Nsg47
S'keys'
p723
sg15
Nsg19
Nsg263
S'FormData[]'
p724
sg16
Nsbag1
(g257
g3
NtRp725
(dp726
g260
Nsg261
Nsg47
S'values'
p727
sg15
Nsg19
Nsg263
S'PasswordFormFieldPredictionMap[]'
p728
sg16
Nsbasg16
Nsg19
Nsbsg15
Nsg16
Nsg47
S'FormsPredictionsMap'
p729
sg19
Nsbasg16
NsS'module'
p730
g1
(cmojom.parse.ast
Module
p731
g3
NtRp732
(dp733
S'mojom_namespace'
p734
(S'IDENTIFIER'
p735
S'autofill.mojom'
tp736
sg16
I5
sg15
Nsg19
g20
sbsg19
Nsb.