ccopy_reg
_reconstructor
p1
(cmojom.parse.ast
Mojom
p2
c__builtin__
object
p3
NtRp4
(dp5
S'import_list'
p6
g1
(cmojom.parse.ast
ImportList
p7
g3
NtRp8
(dp9
S'items'
p10
(lp11
sS'lineno'
p12
NsS'filename'
p13
NsbsS'definition_list'
p14
(lp15
g1
(cmojom.parse.ast
Struct
p16
g3
NtRp17
(dp18
S'body'
p19
g1
(cmojom.parse.ast
StructBody
p20
g3
NtRp21
(dp22
g10
(lp23
g1
(cmojom.parse.ast
StructField
p24
g3
NtRp25
(dp26
S'ordinal'
p27
NsS'default_value'
p28
NsS'mojom_name'
p29
S'country'
p30
sS'attribute_list'
p31
Nsg13
NsS'typename'
p32
S'string'
p33
sg12
Nsbag1
(g24
g3
NtRp34
(dp35
g27
Nsg28
Nsg29
S'address_line'
p36
sg31
Nsg13
Nsg32
S'string[]'
p37
sg12
Nsbag1
(g24
g3
NtRp38
(dp39
g27
Nsg28
Nsg29
S'region'
p40
sg31
Nsg13
Nsg32
S'string'
p41
sg12
Nsbag1
(g24
g3
NtRp42
(dp43
g27
Nsg28
Nsg29
S'city'
p44
sg31
Nsg13
Nsg32
S'string'
p45
sg12
Nsbag1
(g24
g3
NtRp46
(dp47
g27
Nsg28
Nsg29
S'dependent_locality'
p48
sg31
Nsg13
Nsg32
S'string'
p49
sg12
Nsbag1
(g24
g3
NtRp50
(dp51
g27
Nsg28
Nsg29
S'postal_code'
p52
sg31
Nsg13
Nsg32
S'string'
p53
sg12
Nsbag1
(g24
g3
NtRp54
(dp55
g27
Nsg28
Nsg29
S'sorting_code'
p56
sg31
Nsg13
Nsg32
S'string'
p57
sg12
Nsbag1
(g24
g3
NtRp58
(dp59
g27
Nsg28
Nsg29
S'language_code'
p60
sg31
Nsg13
Nsg32
S'string'
p61
sg12
Nsbag1
(g24
g3
NtRp62
(dp63
g27
Nsg28
Nsg29
S'script_code'
p64
sg31
Nsg13
Nsg32
S'string'
p65
sg12
Nsbag1
(g24
g3
NtRp66
(dp67
g27
Nsg28
Nsg29
S'organization'
p68
sg31
Nsg13
Nsg32
S'string'
p69
sg12
Nsbag1
(g24
g3
NtRp70
(dp71
g27
Nsg28
Nsg29
S'recipient'
p72
sg31
Nsg13
Nsg32
S'string'
p73
sg12
Nsbag1
(g24
g3
NtRp74
(dp75
g27
Nsg28
Nsg29
S'phone'
p76
sg31
Nsg13
Nsg32
S'string'
p77
sg12
Nsbasg12
Nsg13
Nsbsg31
Nsg12
Nsg29
S'PaymentAddress'
p78
sg13
Nsbag1
(g16
g3
NtRp79
(dp80
g19
g1
(g20
g3
NtRp81
(dp82
g10
(lp83
g1
(g24
g3
NtRp84
(dp85
g27
Nsg28
Nsg29
S'currency'
p86
sg31
Nsg13
Nsg32
S'string'
p87
sg12
Nsbag1
(g24
g3
NtRp88
(dp89
g27
Nsg28
Nsg29
S'value'
p90
sg31
Nsg13
Nsg32
S'string'
p91
sg12
Nsbasg12
Nsg13
Nsbsg31
Nsg12
Nsg29
S'PaymentCurrencyAmount'
p92
sg13
Nsbasg12
NsS'module'
p93
g1
(cmojom.parse.ast
Module
p94
g3
NtRp95
(dp96
S'mojom_namespace'
p97
(S'IDENTIFIER'
p98
S'payments.mojom'
tp99
sg12
I6
sg31
g1
(cmojom.parse.ast
AttributeList
p100
g3
NtRp101
(dp102
g10
(lp103
g1
(cmojom.parse.ast
Attribute
p104
g3
NtRp105
(dp106
S'value'
p107
S'org.chromium.payments.mojom'
p108
sg12
I5
sS'key'
p109
S'JavaPackage'
p110
sg13
S'../../components/payments/mojom/payment_request_data.mojom'
p111
sbasg12
I5
sg13
g111
sbsg13
g111
sbsg13
Nsb.