ccopy_reg
_reconstructor
p1
(cmojom.parse.ast
Mojom
p2
c__builtin__
object
p3
NtRp4
(dp5
S'import_list'
p6
g1
(cmojom.parse.ast
ImportList
p7
g3
NtRp8
(dp9
S'items'
p10
(lp11
g1
(cmojom.parse.ast
Import
p12
g3
NtRp13
(dp14
S'attribute_list'
p15
NsS'lineno'
p16
I7
sS'import_filename'
p17
S'components/autofill/content/common/autofill_types.mojom'
p18
sS'filename'
p19
S'../../chrome/common/importer/profile_import.mojom'
p20
sbag1
(g12
g3
NtRp21
(dp22
g15
Nsg16
I8
sg17
S'mojo/public/mojom/base/string16.mojom'
p23
sg19
g20
sbag1
(g12
g3
NtRp24
(dp25
g15
Nsg16
I9
sg17
S'url/mojom/url.mojom'
p26
sg19
g20
sbasg16
I7
sg19
g20
sbsS'definition_list'
p27
(lp28
g1
(cmojom.parse.ast
Const
p29
g3
NtRp30
(dp31
S'mojom_name'
p32
S'kProfileImportServiceName'
p33
sg15
NsS'value'
p34
S'"profile_import"'
p35
sg19
NsS'typename'
p36
S'string'
p37
sg16
Nsbag1
(cmojom.parse.ast
Struct
p38
g3
NtRp39
(dp40
S'body'
p41
Nsg15
g1
(cmojom.parse.ast
AttributeList
p42
g3
NtRp43
(dp44
g10
(lp45
g1
(cmojom.parse.ast
Attribute
p46
g3
NtRp47
(dp48
g34
I01
sg16
I13
sS'key'
p49
S'Native'
p50
sg19
g20
sbasg16
I13
sg19
g20
sbsg16
Nsg32
S'ImportedBookmarkEntry'
p51
sg19
Nsbag1
(g38
g3
NtRp52
(dp53
g41
Nsg15
g1
(g42
g3
NtRp54
(dp55
g10
(lp56
g1
(g46
g3
NtRp57
(dp58
g34
I01
sg16
I16
sg49
S'Native'
p59
sg19
g20
sbasg16
I16
sg19
g20
sbsg16
Nsg32
S'ImporterAutofillFormDataEntry'
p60
sg19
Nsbag1
(g38
g3
NtRp61
(dp62
g41
Nsg15
g1
(g42
g3
NtRp63
(dp64
g10
(lp65
g1
(g46
g3
NtRp66
(dp67
g34
I01
sg16
I19
sg49
S'Native'
p68
sg19
g20
sbasg16
I19
sg19
g20
sbsg16
Nsg32
S'SearchEngineInfo'
p69
sg19
Nsbag1
(g38
g3
NtRp70
(dp71
g41
Nsg15
g1
(g42
g3
NtRp72
(dp73
g10
(lp74
g1
(g46
g3
NtRp75
(dp76
g34
I01
sg16
I22
sg49
S'Native'
p77
sg19
g20
sbasg16
I22
sg19
g20
sbsg16
Nsg32
S'ImporterURLRow'
p78
sg19
Nsbag1
(g38
g3
NtRp79
(dp80
g41
Nsg15
g1
(g42
g3
NtRp81
(dp82
g10
(lp83
g1
(g46
g3
NtRp84
(dp85
g34
I01
sg16
I25
sg49
S'Native'
p86
sg19
g20
sbasg16
I25
sg19
g20
sbsg16
Nsg32
S'SourceProfile'
p87
sg19
Nsbag1
(g38
g3
NtRp88
(dp89
g41
Nsg15
g1
(g42
g3
NtRp90
(dp91
g10
(lp92
g1
(g46
g3
NtRp93
(dp94
g34
I01
sg16
I28
sg49
S'Native'
p95
sg19
g20
sbasg16
I28
sg19
g20
sbsg16
Nsg32
S'FaviconUsageDataList'
p96
sg19
Nsbag1
(g38
g3
NtRp97
(dp98
g41
Nsg15
g1
(g42
g3
NtRp99
(dp100
g10
(lp101
g1
(g46
g3
NtRp102
(dp103
g34
I01
sg16
I31
sg49
S'Native'
p104
sg19
g20
sbasg16
I31
sg19
g20
sbsg16
Nsg32
S'ImporterIE7PasswordInfo'
p105
sg19
Nsbag1
(cmojom.parse.ast
Enum
p106
g3
NtRp107
(dp108
g15
g1
(g42
g3
NtRp109
(dp110
g10
(lp111
g1
(g46
g3
NtRp112
(dp113
g34
I01
sg16
I34
sg49
S'Native'
p114
sg19
g20
sbasg16
I34
sg19
g20
sbsS'enum_value_list'
p115
Nsg16
I35
sg32
S'ImportItem'
p116
sg19
g20
sbag1
(cmojom.parse.ast
Interface
p117
g3
NtRp118
(dp119
g41
g1
(cmojom.parse.ast
InterfaceBody
p120
g3
NtRp121
(dp122
g10
(lp123
g1
(cmojom.parse.ast
Method
p124
g3
NtRp125
(dp126
S'ordinal'
p127
Nsg32
S'OnImportStart'
p128
sS'parameter_list'
p129
g1
(cmojom.parse.ast
ParameterList
p130
g3
NtRp131
(dp132
g10
(lp133
sg16
Nsg19
Nsbsg15
Nsg19
Nsg16
NsS'response_parameter_list'
p134
Nsbag1
(g124
g3
NtRp135
(dp136
g127
Nsg32
S'OnImportFinished'
p137
sg129
g1
(g130
g3
NtRp138
(dp139
g10
(lp140
g1
(cmojom.parse.ast
Parameter
p141
g3
NtRp142
(dp143
g127
Nsg32
S'succeeded'
p144
sg15
Nsg19
g20
sg36
S'bool'
p145
sg16
I42
sbag1
(g141
g3
NtRp146
(dp147
g127
Nsg32
S'error_msg'
p148
sg15
Nsg19
g20
sg36
S'string'
p149
sg16
I42
sbasg16
I42
sg19
g20
sbsg15
Nsg19
Nsg16
Nsg134
Nsbag1
(g124
g3
NtRp150
(dp151
g127
Nsg32
S'OnImportItemStart'
p152
sg129
g1
(g130
g3
NtRp153
(dp154
g10
(lp155
g1
(g141
g3
NtRp156
(dp157
g127
Nsg32
S'item'
p158
sg15
Nsg19
g20
sg36
S'ImportItem'
p159
sg16
I43
sbasg16
I43
sg19
g20
sbsg15
Nsg19
Nsg16
Nsg134
Nsbag1
(g124
g3
NtRp160
(dp161
g127
Nsg32
S'OnImportItemFinished'
p162
sg129
g1
(g130
g3
NtRp163
(dp164
g10
(lp165
g1
(g141
g3
NtRp166
(dp167
g127
Nsg32
S'item'
p168
sg15
Nsg19
g20
sg36
S'ImportItem'
p169
sg16
I44
sbasg16
I44
sg19
g20
sbsg15
Nsg19
Nsg16
Nsg134
Nsbag1
(g124
g3
NtRp170
(dp171
g127
Nsg32
S'OnHistoryImportStart'
p172
sg129
g1
(g130
g3
NtRp173
(dp174
g10
(lp175
g1
(g141
g3
NtRp176
(dp177
g127
Nsg32
S'total_history_rows_count'
p178
sg15
Nsg19
g20
sg36
S'uint32'
p179
sg16
I48
sbasg16
I48
sg19
g20
sbsg15
Nsg19
Nsg16
Nsg134
Nsbag1
(g124
g3
NtRp180
(dp181
g127
Nsg32
S'OnHistoryImportGroup'
p182
sg129
g1
(g130
g3
NtRp183
(dp184
g10
(lp185
g1
(g141
g3
NtRp186
(dp187
g127
Nsg32
S'history_rows_group'
p188
sg15
Nsg19
g20
sg36
S'ImporterURLRow[]'
p189
sg16
I50
sbag1
(g141
g3
NtRp190
(dp191
g127
Nsg32
S'visit_source'
p192
sg15
Nsg19
g20
sg36
S'int32'
p193
sg16
I51
sbasg16
I50
sg19
g20
sbsg15
Nsg19
Nsg16
Nsg134
Nsbag1
(g124
g3
NtRp194
(dp195
g127
Nsg32
S'OnHomePageImportReady'
p196
sg129
g1
(g130
g3
NtRp197
(dp198
g10
(lp199
g1
(g141
g3
NtRp200
(dp201
g127
Nsg32
S'home_page'
p202
sg15
Nsg19
g20
sg36
S'url.mojom.Url'
p203
sg16
I52
sbasg16
I52
sg19
g20
sbsg15
Nsg19
Nsg16
Nsg134
Nsbag1
(g124
g3
NtRp204
(dp205
g127
Nsg32
S'OnBookmarksImportStart'
p206
sg129
g1
(g130
g3
NtRp207
(dp208
g10
(lp209
g1
(g141
g3
NtRp210
(dp211
g127
Nsg32
S'first_folder_name'
p212
sg15
Nsg19
g20
sg36
S'mojo_base.mojom.String16'
p213
sg16
I54
sbag1
(g141
g3
NtRp214
(dp215
g127
Nsg32
S'total_bookmarks_count'
p216
sg15
Nsg19
g20
sg36
S'uint32'
p217
sg16
I55
sbasg16
I54
sg19
g20
sbsg15
Nsg19
Nsg16
Nsg134
Nsbag1
(g124
g3
NtRp218
(dp219
g127
Nsg32
S'OnBookmarksImportGroup'
p220
sg129
g1
(g130
g3
NtRp221
(dp222
g10
(lp223
g1
(g141
g3
NtRp224
(dp225
g127
Nsg32
S'bookmarks_group'
p226
sg15
Nsg19
g20
sg36
S'ImportedBookmarkEntry[]'
p227
sg16
I56
sbasg16
I56
sg19
g20
sbsg15
Nsg19
Nsg16
Nsg134
Nsbag1
(g124
g3
NtRp228
(dp229
g127
Nsg32
S'OnFaviconsImportStart'
p230
sg129
g1
(g130
g3
NtRp231
(dp232
g10
(lp233
g1
(g141
g3
NtRp234
(dp235
g127
Nsg32
S'total_favicons_count'
p236
sg15
Nsg19
g20
sg36
S'uint32'
p237
sg16
I57
sbasg16
I57
sg19
g20
sbsg15
Nsg19
Nsg16
Nsg134
Nsbag1
(g124
g3
NtRp238
(dp239
g127
Nsg32
S'OnFaviconsImportGroup'
p240
sg129
g1
(g130
g3
NtRp241
(dp242
g10
(lp243
g1
(g141
g3
NtRp244
(dp245
g127
Nsg32
S'favicons_group'
p246
sg15
Nsg19
g20
sg36
S'FaviconUsageDataList'
p247
sg16
I58
sbasg16
I58
sg19
g20
sbsg15
Nsg19
Nsg16
Nsg134
Nsbag1
(g124
g3
NtRp248
(dp249
g127
Nsg32
S'OnPasswordFormImportReady'
p250
sg129
g1
(g130
g3
NtRp251
(dp252
g10
(lp253
g1
(g141
g3
NtRp254
(dp255
g127
Nsg32
S'form'
p256
sg15
Nsg19
g20
sg36
S'autofill.mojom.PasswordForm'
p257
sg16
I59
sbasg16
I59
sg19
g20
sbsg15
Nsg19
Nsg16
Nsg134
Nsbag1
(g124
g3
NtRp258
(dp259
g127
Nsg32
S'OnKeywordsImportReady'
p260
sg129
g1
(g130
g3
NtRp261
(dp262
g10
(lp263
g1
(g141
g3
NtRp264
(dp265
g127
Nsg32
S'search_engines'
p266
sg15
Nsg19
g20
sg36
S'SearchEngineInfo[]'
p267
sg16
I61
sbag1
(g141
g3
NtRp268
(dp269
g127
Nsg32
S'unique_on_host_and_path'
p270
sg15
Nsg19
g20
sg36
S'bool'
p271
sg16
I62
sbasg16
I61
sg19
g20
sbsg15
Nsg19
Nsg16
Nsg134
Nsbag1
(g124
g3
NtRp272
(dp273
g127
Nsg32
S'OnFirefoxSearchEngineDataReceived'
p274
sg129
g1
(g130
g3
NtRp275
(dp276
g10
(lp277
g1
(g141
g3
NtRp278
(dp279
g127
Nsg32
S'search_engine_data'
p280
sg15
Nsg19
g20
sg36
S'string[]'
p281
sg16
I63
sbasg16
I63
sg19
g20
sbsg15
Nsg19
Nsg16
Nsg134
Nsbag1
(g124
g3
NtRp282
(dp283
g127
Nsg32
S'OnAutofillFormDataImportStart'
p284
sg129
g1
(g130
g3
NtRp285
(dp286
g10
(lp287
g1
(g141
g3
NtRp288
(dp289
g127
Nsg32
S'total_autofill_form_data_entry_count'
p290
sg15
Nsg19
g20
sg36
S'uint32'
p291
sg16
I64
sbasg16
I64
sg19
g20
sbsg15
Nsg19
Nsg16
Nsg134
Nsbag1
(g124
g3
NtRp292
(dp293
g127
Nsg32
S'OnAutofillFormDataImportGroup'
p294
sg129
g1
(g130
g3
NtRp295
(dp296
g10
(lp297
g1
(g141
g3
NtRp298
(dp299
g127
Nsg32
S'autofill_form_data_entry_group'
p300
sg15
Nsg19
g20
sg36
S'ImporterAutofillFormDataEntry[]'
p301
sg16
I66
sbasg16
I66
sg19
g20
sbsg15
Nsg19
Nsg16
Nsg134
Nsbag1
(g124
g3
NtRp302
(dp303
g127
Nsg32
S'OnIE7PasswordReceived'
p304
sg129
g1
(g130
g3
NtRp305
(dp306
g10
(lp307
g1
(g141
g3
NtRp308
(dp309
g127
Nsg32
S'importer_password_info'
p310
sg15
Nsg19
g20
sg36
S'ImporterIE7PasswordInfo'
p311
sg16
I68
sbasg16
I68
sg19
g20
sbsg15
Nsg19
Nsg16
Nsg134
Nsbasg16
Nsg19
Nsbsg15
Nsg16
Nsg32
S'ProfileImportObserver'
p312
sg19
Nsbag1
(g117
g3
NtRp313
(dp314
g41
g1
(g120
g3
NtRp315
(dp316
g10
(lp317
g1
(g124
g3
NtRp318
(dp319
g127
Nsg32
S'StartImport'
p320
sg129
g1
(g130
g3
NtRp321
(dp322
g10
(lp323
g1
(g141
g3
NtRp324
(dp325
g127
Nsg32
S'source_profile'
p326
sg15
Nsg19
g20
sg36
S'SourceProfile'
p327
sg16
I76
sbag1
(g141
g3
NtRp328
(dp329
g127
Nsg32
S'items'
p330
sg15
Nsg19
g20
sg36
S'uint16'
p331
sg16
I77
sbag1
(g141
g3
NtRp332
(dp333
g127
Nsg32
S'localized_strings'
p334
sg15
Nsg19
g20
sg36
S'string{uint32}'
p335
sg16
I78
sbag1
(g141
g3
NtRp336
(dp337
g127
Nsg32
S'observer'
p338
sg15
Nsg19
g20
sg36
S'ProfileImportObserver'
p339
sg16
I79
sbasg16
I76
sg19
g20
sbsg15
Nsg19
Nsg16
Nsg134
Nsbag1
(g124
g3
NtRp340
(dp341
g127
Nsg32
S'CancelImport'
p342
sg129
g1
(g130
g3
NtRp343
(dp344
g10
(lp345
sg16
Nsg19
Nsbsg15
Nsg19
Nsg16
Nsg134
Nsbag1
(g124
g3
NtRp346
(dp347
g127
Nsg32
S'ReportImportItemFinished'
p348
sg129
g1
(g130
g3
NtRp349
(dp350
g10
(lp351
g1
(g141
g3
NtRp352
(dp353
g127
Nsg32
S'item'
p354
sg15
Nsg19
g20
sg36
S'ImportItem'
p355
sg16
I85
sbasg16
I85
sg19
g20
sbsg15
Nsg19
Nsg16
Nsg134
Nsbasg16
Nsg19
Nsbsg15
Nsg16
Nsg32
S'ProfileImport'
p356
sg19
Nsbasg16
NsS'module'
p357
g1
(cmojom.parse.ast
Module
p358
g3
NtRp359
(dp360
S'mojom_namespace'
p361
(S'IDENTIFIER'
p362
S'chrome.mojom'
tp363
sg16
I5
sg15
Nsg19
g20
sbsg19
Nsb.