ccopy_reg
_reconstructor
p1
(cmojom.parse.ast
Mojom
p2
c__builtin__
object
p3
NtRp4
(dp5
S'import_list'
p6
g1
(cmojom.parse.ast
ImportList
p7
g3
NtRp8
(dp9
S'items'
p10
(lp11
sS'lineno'
p12
NsS'filename'
p13
NsbsS'definition_list'
p14
(lp15
g1
(cmojom.parse.ast
Const
p16
g3
NtRp17
(dp18
S'mojom_name'
p19
S'kMimeTypeHTML'
p20
sS'attribute_list'
p21
NsS'value'
p22
S'"text/html"'
p23
sg13
NsS'typename'
p24
S'string'
p25
sg12
Nsbag1
(g16
g3
NtRp26
(dp27
g19
S'kMimeTypeMozillaURL'
p28
sg21
Nsg22
S'"text/x-moz-url"'
p29
sg13
Nsg24
S'string'
p30
sg12
Nsbag1
(g16
g3
NtRp31
(dp32
g19
S'kMimeTypePNG'
p33
sg21
Nsg22
S'"image/png"'
p34
sg13
Nsg24
S'string'
p35
sg12
Nsbag1
(g16
g3
NtRp36
(dp37
g19
S'kMimeTypeRTF'
p38
sg21
Nsg22
S'"text/rtf"'
p39
sg13
Nsg24
S'string'
p40
sg12
Nsbag1
(g16
g3
NtRp41
(dp42
g19
S'kMimeTypeText'
p43
sg21
Nsg22
S'"text/plain"'
p44
sg13
Nsg24
S'string'
p45
sg12
Nsbag1
(g16
g3
NtRp46
(dp47
g19
S'kMimeTypeURIList'
p48
sg21
Nsg22
S'"text/uri-list"'
p49
sg13
Nsg24
S'string'
p50
sg12
Nsbag1
(g16
g3
NtRp51
(dp52
g19
S'kMimeTypeURL'
p53
sg21
Nsg22
S'"text/url"'
p54
sg13
Nsg24
S'string'
p55
sg12
Nsbag1
(cmojom.parse.ast
Interface
p56
g3
NtRp57
(dp58
S'body'
p59
g1
(cmojom.parse.ast
InterfaceBody
p60
g3
NtRp61
(dp62
g10
(lp63
g1
(cmojom.parse.ast
Enum
p64
g3
NtRp65
(dp66
g21
NsS'enum_value_list'
p67
g1
(cmojom.parse.ast
EnumValueList
p68
g3
NtRp69
(dp70
g10
(lp71
g1
(cmojom.parse.ast
EnumValue
p72
g3
NtRp73
(dp74
g21
Nsg22
S'0'
sg12
I17
sg19
S'COPY_PASTE'
p75
sg13
S'../../services/ui/public/interfaces/clipboard.mojom'
p76
sbag1
(g72
g3
NtRp77
(dp78
g21
Nsg22
S'1'
sg12
I18
sg19
S'SELECTION'
p79
sg13
g76
sbasg12
I17
sg13
g76
sbsg12
I16
sg19
S'Type'
p80
sg13
g76
sbag1
(cmojom.parse.ast
Method
p81
g3
NtRp82
(dp83
S'ordinal'
p84
Nsg19
S'GetSequenceNumber'
p85
sS'parameter_list'
p86
g1
(cmojom.parse.ast
ParameterList
p87
g3
NtRp88
(dp89
g10
(lp90
g1
(cmojom.parse.ast
Parameter
p91
g3
NtRp92
(dp93
g84
Nsg19
S'clipboard_type'
p94
sg21
Nsg13
g76
sg24
S'Type'
p95
sg12
I27
sbasg12
I27
sg13
g76
sbsg21
g1
(cmojom.parse.ast
AttributeList
p96
g3
NtRp97
(dp98
g10
(lp99
g1
(cmojom.parse.ast
Attribute
p100
g3
NtRp101
(dp102
g22
I01
sg12
I26
sS'key'
p103
S'Sync'
p104
sg13
g76
sbasg12
I26
sg13
g76
sbsg13
Nsg12
NsS'response_parameter_list'
p105
g1
(g87
g3
NtRp106
(dp107
g10
(lp108
g1
(g91
g3
NtRp109
(dp110
g84
Nsg19
S'sequence'
p111
sg21
Nsg13
g76
sg24
S'uint64'
p112
sg12
I27
sbasg12
I27
sg13
g76
sbsbag1
(g81
g3
NtRp113
(dp114
g84
Nsg19
S'GetAvailableMimeTypes'
p115
sg86
g1
(g87
g3
NtRp116
(dp117
g10
(lp118
g1
(g91
g3
NtRp119
(dp120
g84
Nsg19
S'clipboard_types'
p121
sg21
Nsg13
g76
sg24
S'Type'
p122
sg12
I31
sbasg12
I31
sg13
g76
sbsg21
g1
(g96
g3
NtRp123
(dp124
g10
(lp125
g1
(g100
g3
NtRp126
(dp127
g22
I01
sg12
I30
sg103
S'Sync'
p128
sg13
g76
sbasg12
I30
sg13
g76
sbsg13
Nsg12
Nsg105
g1
(g87
g3
NtRp129
(dp130
g10
(lp131
g1
(g91
g3
NtRp132
(dp133
g84
Nsg19
S'sequence'
p134
sg21
Nsg13
g76
sg24
S'uint64'
p135
sg12
I32
sbag1
(g91
g3
NtRp136
(dp137
g84
Nsg19
S'types'
p138
sg21
Nsg13
g76
sg24
S'string[]'
p139
sg12
I32
sbasg12
I32
sg13
g76
sbsbag1
(g81
g3
NtRp140
(dp141
g84
Nsg19
S'ReadClipboardData'
p142
sg86
g1
(g87
g3
NtRp143
(dp144
g10
(lp145
g1
(g91
g3
NtRp146
(dp147
g84
Nsg19
S'clipboard_type'
p148
sg21
Nsg13
g76
sg24
S'Type'
p149
sg12
I40
sbag1
(g91
g3
NtRp150
(dp151
g84
Nsg19
S'mime_type'
p152
sg21
Nsg13
g76
sg24
S'string'
p153
sg12
I40
sbasg12
I40
sg13
g76
sbsg21
g1
(g96
g3
NtRp154
(dp155
g10
(lp156
g1
(g100
g3
NtRp157
(dp158
g22
I01
sg12
I39
sg103
S'Sync'
p159
sg13
g76
sbasg12
I39
sg13
g76
sbsg13
Nsg12
Nsg105
g1
(g87
g3
NtRp160
(dp161
g10
(lp162
g1
(g91
g3
NtRp163
(dp164
g84
Nsg19
S'sequence'
p165
sg21
Nsg13
g76
sg24
S'uint64'
p166
sg12
I41
sbag1
(g91
g3
NtRp167
(dp168
g84
Nsg19
S'data'
p169
sg21
Nsg13
g76
sg24
S'uint8[]?'
p170
sg12
I41
sbasg12
I41
sg13
g76
sbsbag1
(g81
g3
NtRp171
(dp172
g84
Nsg19
S'WriteClipboardData'
p173
sg86
g1
(g87
g3
NtRp174
(dp175
g10
(lp176
g1
(g91
g3
NtRp177
(dp178
g84
Nsg19
S'clipboard_type'
p179
sg21
Nsg13
g76
sg24
S'Type'
p180
sg12
I47
sbag1
(g91
g3
NtRp181
(dp182
g84
Nsg19
S'data'
p183
sg21
Nsg13
g76
sg24
S'uint8[]{string}?'
p184
sg12
I47
sbasg12
I47
sg13
g76
sbsg21
g1
(g96
g3
NtRp185
(dp186
g10
(lp187
g1
(g100
g3
NtRp188
(dp189
g22
I01
sg12
I46
sg103
S'Sync'
p190
sg13
g76
sbasg12
I46
sg13
g76
sbsg13
Nsg12
Nsg105
g1
(g87
g3
NtRp191
(dp192
g10
(lp193
g1
(g91
g3
NtRp194
(dp195
g84
Nsg19
S'sequence'
p196
sg21
Nsg13
g76
sg24
S'uint64'
p197
sg12
I48
sbasg12
I48
sg13
g76
sbsbasg12
I16
sg13
g76
sbsg21
Nsg12
Nsg19
S'Clipboard'
p198
sg13
Nsbasg12
NsS'module'
p199
g1
(cmojom.parse.ast
Module
p200
g3
NtRp201
(dp202
S'mojom_namespace'
p203
(S'IDENTIFIER'
p204
S'ui.mojom'
tp205
sg12
I5
sg21
Nsg13
g76
sbsg13
Nsb.