ccopy_reg
_reconstructor
p1
(cmojom.parse.ast
Mojom
p2
c__builtin__
object
p3
NtRp4
(dp5
S'import_list'
p6
g1
(cmojom.parse.ast
ImportList
p7
g3
NtRp8
(dp9
S'items'
p10
(lp11
g1
(cmojom.parse.ast
Import
p12
g3
NtRp13
(dp14
S'attribute_list'
p15
NsS'lineno'
p16
I7
sS'import_filename'
p17
S'ui/events/mojo/event_constants.mojom'
p18
sS'filename'
p19
S'../../services/ui/public/interfaces/event_matcher.mojom'
p20
sbag1
(g12
g3
NtRp21
(dp22
g15
Nsg16
I8
sg17
S'ui/events/mojo/keyboard_codes.mojom'
p23
sg19
g20
sbag1
(g12
g3
NtRp24
(dp25
g15
Nsg16
I9
sg17
S'ui/gfx/geometry/mojo/geometry.mojom'
p26
sg19
g20
sbasg16
I7
sg19
g20
sbsS'definition_list'
p27
(lp28
g1
(cmojom.parse.ast
Struct
p29
g3
NtRp30
(dp31
S'body'
p32
g1
(cmojom.parse.ast
StructBody
p33
g3
NtRp34
(dp35
g10
(lp36
g1
(cmojom.parse.ast
StructField
p37
g3
NtRp38
(dp39
S'ordinal'
p40
NsS'default_value'
p41
NsS'mojom_name'
p42
S'keyboard_code'
p43
sg15
Nsg19
NsS'typename'
p44
S'ui.mojom.KeyboardCode'
p45
sg16
Nsbasg16
Nsg19
Nsbsg15
Nsg16
Nsg42
S'KeyEventMatcher'
p46
sg19
Nsbag1
(g29
g3
NtRp47
(dp48
g32
g1
(g33
g3
NtRp49
(dp50
g10
(lp51
g1
(g37
g3
NtRp52
(dp53
g40
Nsg41
Nsg42
S'pointer_kind'
p54
sg15
Nsg19
Nsg44
S'ui.mojom.PointerKind'
p55
sg16
Nsbasg16
Nsg19
Nsbsg15
Nsg16
Nsg42
S'PointerKindMatcher'
p56
sg19
Nsbag1
(g29
g3
NtRp57
(dp58
g32
g1
(g33
g3
NtRp59
(dp60
g10
(lp61
g1
(g37
g3
NtRp62
(dp63
g40
Nsg41
Nsg42
S'region'
p64
sg15
Nsg19
Nsg44
S'gfx.mojom.RectF'
p65
sg16
Nsbasg16
Nsg19
Nsbsg15
Nsg16
Nsg42
S'PointerLocationMatcher'
p66
sg19
Nsbag1
(g29
g3
NtRp67
(dp68
g32
g1
(g33
g3
NtRp69
(dp70
g10
(lp71
g1
(g37
g3
NtRp72
(dp73
g40
Nsg41
Nsg42
S'type'
p74
sg15
Nsg19
Nsg44
S'ui.mojom.EventType'
p75
sg16
Nsbasg16
Nsg19
Nsbsg15
Nsg16
Nsg42
S'EventTypeMatcher'
p76
sg19
Nsbag1
(g29
g3
NtRp77
(dp78
g32
g1
(g33
g3
NtRp79
(dp80
g10
(lp81
g1
(g37
g3
NtRp82
(dp83
g40
Nsg41
Nsg42
S'flags'
p84
sg15
Nsg19
Nsg44
S'int32'
p85
sg16
Nsbasg16
Nsg19
Nsbsg15
Nsg16
Nsg42
S'EventFlagsMatcher'
p86
sg19
Nsbag1
(g29
g3
NtRp87
(dp88
g32
g1
(g33
g3
NtRp89
(dp90
g10
(lp91
g1
(g37
g3
NtRp92
(dp93
g40
Nsg41
Nsg42
S'accelerator_phase'
p94
sg15
Nsg19
Nsg44
S'ui.mojom.AcceleratorPhase'
p95
sg16
Nsbag1
(g37
g3
NtRp96
(dp97
g40
Nsg41
Nsg42
S'type_matcher'
p98
sg15
Nsg19
Nsg44
S'EventTypeMatcher?'
p99
sg16
Nsbag1
(g37
g3
NtRp100
(dp101
g40
Nsg41
Nsg42
S'flags_matcher'
p102
sg15
Nsg19
Nsg44
S'EventFlagsMatcher?'
p103
sg16
Nsbag1
(g37
g3
NtRp104
(dp105
g40
Nsg41
Nsg42
S'ignore_flags_matcher'
p106
sg15
Nsg19
Nsg44
S'EventFlagsMatcher?'
p107
sg16
Nsbag1
(g37
g3
NtRp108
(dp109
g40
Nsg41
Nsg42
S'key_matcher'
p110
sg15
Nsg19
Nsg44
S'KeyEventMatcher?'
p111
sg16
Nsbag1
(g37
g3
NtRp112
(dp113
g40
Nsg41
Nsg42
S'pointer_kind_matcher'
p114
sg15
Nsg19
Nsg44
S'PointerKindMatcher?'
p115
sg16
Nsbag1
(g37
g3
NtRp116
(dp117
g40
Nsg41
Nsg42
S'pointer_location_matcher'
p118
sg15
Nsg19
Nsg44
S'PointerLocationMatcher?'
p119
sg16
Nsbasg16
Nsg19
Nsbsg15
Nsg16
Nsg42
S'EventMatcher'
p120
sg19
Nsbasg16
NsS'module'
p121
g1
(cmojom.parse.ast
Module
p122
g3
NtRp123
(dp124
S'mojom_namespace'
p125
(S'IDENTIFIER'
p126
S'ui.mojom'
tp127
sg16
I5
sg15
Nsg19
g20
sbsg19
Nsb.