ccopy_reg
_reconstructor
p1
(cmojom.parse.ast
Mojom
p2
c__builtin__
object
p3
NtRp4
(dp5
S'import_list'
p6
g1
(cmojom.parse.ast
ImportList
p7
g3
NtRp8
(dp9
S'items'
p10
(lp11
g1
(cmojom.parse.ast
Import
p12
g3
NtRp13
(dp14
S'attribute_list'
p15
NsS'lineno'
p16
I7
sS'import_filename'
p17
S'gpu/ipc/common/gpu_feature_info.mojom'
p18
sS'filename'
p19
S'../../services/ui/public/interfaces/gpu.mojom'
p20
sbag1
(g12
g3
NtRp21
(dp22
g15
Nsg16
I8
sg17
S'gpu/ipc/common/gpu_info.mojom'
p23
sg19
g20
sbag1
(g12
g3
NtRp24
(dp25
g15
Nsg16
I9
sg17
S'gpu/ipc/common/sync_token.mojom'
p26
sg19
g20
sbag1
(g12
g3
NtRp27
(dp28
g15
Nsg16
I10
sg17
S'media/mojo/interfaces/jpeg_decode_accelerator.mojom'
p29
sg19
g20
sbag1
(g12
g3
NtRp30
(dp31
g15
Nsg16
I11
sg17
S'media/mojo/interfaces/video_encode_accelerator.mojom'
p32
sg19
g20
sbag1
(g12
g3
NtRp33
(dp34
g15
Nsg16
I12
sg17
S'ui/gfx/geometry/mojo/geometry.mojom'
p35
sg19
g20
sbag1
(g12
g3
NtRp36
(dp37
g15
Nsg16
I13
sg17
S'ui/gfx/mojo/buffer_types.mojom'
p38
sg19
g20
sbasg16
I7
sg19
g20
sbsS'definition_list'
p39
(lp40
g1
(cmojom.parse.ast
Interface
p41
g3
NtRp42
(dp43
S'body'
p44
g1
(cmojom.parse.ast
InterfaceBody
p45
g3
NtRp46
(dp47
g10
(lp48
g1
(cmojom.parse.ast
Method
p49
g3
NtRp50
(dp51
S'ordinal'
p52
NsS'mojom_name'
p53
S'EstablishGpuChannel'
p54
sS'parameter_list'
p55
g1
(cmojom.parse.ast
ParameterList
p56
g3
NtRp57
(dp58
g10
(lp59
sg16
Nsg19
Nsbsg15
Nsg19
Nsg16
NsS'response_parameter_list'
p60
g1
(g56
g3
NtRp61
(dp62
g10
(lp63
g1
(cmojom.parse.ast
Parameter
p64
g3
NtRp65
(dp66
g52
Nsg53
S'client_id'
p67
sg15
Nsg19
g20
sS'typename'
p68
S'int32'
p69
sg16
I19
sbag1
(g64
g3
NtRp70
(dp71
g52
Nsg53
S'channel_handle'
p72
sg15
Nsg19
g20
sg68
S'handle<message_pipe>?'
p73
sg16
I20
sbag1
(g64
g3
NtRp74
(dp75
g52
Nsg53
S'gpu_info'
p76
sg15
Nsg19
g20
sg68
S'gpu.mojom.GpuInfo'
p77
sg16
I21
sbag1
(g64
g3
NtRp78
(dp79
g52
Nsg53
S'gpu_feature_info'
p80
sg15
Nsg19
g20
sg68
S'gpu.mojom.GpuFeatureInfo'
p81
sg16
I22
sbasg16
I19
sg19
g20
sbsbag1
(g49
g3
NtRp82
(dp83
g52
Nsg53
S'CreateJpegDecodeAccelerator'
p84
sg55
g1
(g56
g3
NtRp85
(dp86
g10
(lp87
g1
(g64
g3
NtRp88
(dp89
g52
Nsg53
S'jda'
p90
sg15
Nsg19
g20
sg68
S'media.mojom.JpegDecodeAccelerator&'
p91
sg16
I25
sbasg16
I25
sg19
g20
sbsg15
Nsg19
Nsg16
Nsg60
Nsbag1
(g49
g3
NtRp92
(dp93
g52
Nsg53
S'CreateVideoEncodeAcceleratorProvider'
p94
sg55
g1
(g56
g3
NtRp95
(dp96
g10
(lp97
g1
(g64
g3
NtRp98
(dp99
g52
Nsg53
S'vea_provider'
p100
sg15
Nsg19
g20
sg68
S'media.mojom.VideoEncodeAcceleratorProvider&'
p101
sg16
I29
sbasg16
I29
sg19
g20
sbsg15
Nsg19
Nsg16
Nsg60
Nsbag1
(g49
g3
NtRp102
(dp103
g52
Nsg53
S'CreateGpuMemoryBuffer'
p104
sg55
g1
(g56
g3
NtRp105
(dp106
g10
(lp107
g1
(g64
g3
NtRp108
(dp109
g52
Nsg53
S'id'
p110
sg15
Nsg19
g20
sg68
S'gfx.mojom.GpuMemoryBufferId'
p111
sg16
I32
sbag1
(g64
g3
NtRp112
(dp113
g52
Nsg53
S'size'
p114
sg15
Nsg19
g20
sg68
S'gfx.mojom.Size'
p115
sg16
I33
sbag1
(g64
g3
NtRp116
(dp117
g52
Nsg53
S'format'
p118
sg15
Nsg19
g20
sg68
S'gfx.mojom.BufferFormat'
p119
sg16
I34
sbag1
(g64
g3
NtRp120
(dp121
g52
Nsg53
S'usage'
p122
sg15
Nsg19
g20
sg68
S'gfx.mojom.BufferUsage'
p123
sg16
I35
sbasg16
I32
sg19
g20
sbsg15
Nsg19
Nsg16
Nsg60
g1
(g56
g3
NtRp124
(dp125
g10
(lp126
g1
(g64
g3
NtRp127
(dp128
g52
Nsg53
S'buffer_handle'
p129
sg15
Nsg19
g20
sg68
S'gfx.mojom.GpuMemoryBufferHandle'
p130
sg16
I36
sbasg16
I36
sg19
g20
sbsbag1
(g49
g3
NtRp131
(dp132
g52
Nsg53
S'DestroyGpuMemoryBuffer'
p133
sg55
g1
(g56
g3
NtRp134
(dp135
g10
(lp136
g1
(g64
g3
NtRp137
(dp138
g52
Nsg53
S'id'
p139
sg15
Nsg19
g20
sg68
S'gfx.mojom.GpuMemoryBufferId'
p140
sg16
I39
sbag1
(g64
g3
NtRp141
(dp142
g52
Nsg53
S'sync_token'
p143
sg15
Nsg19
g20
sg68
S'gpu.mojom.SyncToken'
p144
sg16
I40
sbasg16
I39
sg19
g20
sbsg15
Nsg19
Nsg16
Nsg60
Nsbasg16
Nsg19
Nsbsg15
Nsg16
Nsg53
S'Gpu'
p145
sg19
Nsbasg16
NsS'module'
p146
g1
(cmojom.parse.ast
Module
p147
g3
NtRp148
(dp149
S'mojom_namespace'
p150
(S'IDENTIFIER'
p151
S'ui.mojom'
tp152
sg16
I5
sg15
Nsg19
g20
sbsg19
Nsb.