ccopy_reg
_reconstructor
p1
(cmojom.parse.ast
Mojom
p2
c__builtin__
object
p3
NtRp4
(dp5
S'import_list'
p6
g1
(cmojom.parse.ast
ImportList
p7
g3
NtRp8
(dp9
S'items'
p10
(lp11
g1
(cmojom.parse.ast
Import
p12
g3
NtRp13
(dp14
S'attribute_list'
p15
NsS'lineno'
p16
I7
sS'import_filename'
p17
S'mojo/public/mojom/base/unguessable_token.mojom'
p18
sS'filename'
p19
S'../../services/ui/public/interfaces/window_tree.mojom'
p20
sbag1
(g12
g3
NtRp21
(dp22
g15
Nsg16
I8
sg17
S'services/ui/public/interfaces/cursor/cursor.mojom'
p23
sg19
g20
sbag1
(g12
g3
NtRp24
(dp25
g15
Nsg16
I9
sg17
S'services/ui/public/interfaces/event_matcher.mojom'
p26
sg19
g20
sbag1
(g12
g3
NtRp27
(dp28
g15
Nsg16
I10
sg17
S'services/ui/public/interfaces/mus_constants.mojom'
p29
sg19
g20
sbag1
(g12
g3
NtRp30
(dp31
g15
Nsg16
I11
sg17
S'services/ui/public/interfaces/window_manager.mojom'
p32
sg19
g20
sbag1
(g12
g3
NtRp33
(dp34
g15
Nsg16
I12
sg17
S'services/ui/public/interfaces/window_manager_constants.mojom'
p35
sg19
g20
sbag1
(g12
g3
NtRp36
(dp37
g15
Nsg16
I13
sg17
S'services/ui/public/interfaces/window_tree_constants.mojom'
p38
sg19
g20
sbag1
(g12
g3
NtRp39
(dp40
g15
Nsg16
I14
sg17
S'services/viz/public/interfaces/compositing/compositor_frame_sink.mojom'
p41
sg19
g20
sbag1
(g12
g3
NtRp42
(dp43
g15
Nsg16
I15
sg17
S'services/viz/public/interfaces/compositing/frame_sink_id.mojom'
p44
sg19
g20
sbag1
(g12
g3
NtRp45
(dp46
g15
Nsg16
I16
sg17
S'services/viz/public/interfaces/compositing/local_surface_id.mojom'
p47
sg19
g20
sbag1
(g12
g3
NtRp48
(dp49
g15
Nsg16
I17
sg17
S'services/viz/public/interfaces/compositing/surface_info.mojom'
p50
sg19
g20
sbag1
(g12
g3
NtRp51
(dp52
g15
Nsg16
I18
sg17
S'skia/public/interfaces/bitmap.mojom'
p53
sg19
g20
sbag1
(g12
g3
NtRp54
(dp55
g15
Nsg16
I19
sg17
S'ui/base/mojo/ui_base_types.mojom'
p56
sg19
g20
sbag1
(g12
g3
NtRp57
(dp58
g15
Nsg16
I20
sg17
S'ui/events/mojo/event.mojom'
p59
sg19
g20
sbag1
(g12
g3
NtRp60
(dp61
g15
Nsg16
I21
sg17
S'ui/events/mojo/event_constants.mojom'
p62
sg19
g20
sbag1
(g12
g3
NtRp63
(dp64
g15
Nsg16
I22
sg17
S'ui/gfx/geometry/mojo/geometry.mojom'
p65
sg19
g20
sbag1
(g12
g3
NtRp66
(dp67
g15
Nsg16
I23
sg17
S'ui/gfx/mojo/transform.mojom'
p68
sg19
g20
sbag1
(g12
g3
NtRp69
(dp70
g15
Nsg16
I24
sg17
S'ui/platform_window/mojo/text_input_state.mojom'
p71
sg19
g20
sbasg16
I7
sg19
g20
sbsS'definition_list'
p72
(lp73
g1
(cmojom.parse.ast
Interface
p74
g3
NtRp75
(dp76
S'body'
p77
g1
(cmojom.parse.ast
InterfaceBody
p78
g3
NtRp79
(dp80
g10
(lp81
g1
(cmojom.parse.ast
Method
p82
g3
NtRp83
(dp84
S'ordinal'
p85
NsS'mojom_name'
p86
S'NewWindow'
p87
sS'parameter_list'
p88
g1
(cmojom.parse.ast
ParameterList
p89
g3
NtRp90
(dp91
g10
(lp92
g1
(cmojom.parse.ast
Parameter
p93
g3
NtRp94
(dp95
g85
Nsg86
S'change_id'
p96
sg15
Nsg19
g20
sS'typename'
p97
S'uint32'
p98
sg16
I64
sbag1
(g93
g3
NtRp99
(dp100
g85
Nsg86
S'window_id'
p101
sg15
Nsg19
g20
sg97
S'uint64'
p102
sg16
I65
sbag1
(g93
g3
NtRp103
(dp104
g85
Nsg86
S'properties'
p105
sg15
Nsg19
g20
sg97
S'uint8[]{string}?'
p106
sg16
I66
sbasg16
I64
sg19
g20
sbsg15
Nsg19
Nsg16
NsS'response_parameter_list'
p107
Nsbag1
(g82
g3
NtRp108
(dp109
g85
Nsg86
S'NewTopLevelWindow'
p110
sg88
g1
(g89
g3
NtRp111
(dp112
g10
(lp113
g1
(g93
g3
NtRp114
(dp115
g85
Nsg86
S'change_id'
p116
sg15
Nsg19
g20
sg97
S'uint32'
p117
sg16
I72
sbag1
(g93
g3
NtRp118
(dp119
g85
Nsg86
S'window_id'
p120
sg15
Nsg19
g20
sg97
S'uint64'
p121
sg16
I73
sbag1
(g93
g3
NtRp122
(dp123
g85
Nsg86
S'properties'
p124
sg15
Nsg19
g20
sg97
S'uint8[]{string}'
p125
sg16
I74
sbasg16
I72
sg19
g20
sbsg15
Nsg19
Nsg16
Nsg107
Nsbag1
(g82
g3
NtRp126
(dp127
g85
Nsg86
S'DeleteWindow'
p128
sg88
g1
(g89
g3
NtRp129
(dp130
g10
(lp131
g1
(g93
g3
NtRp132
(dp133
g85
Nsg86
S'change_id'
p134
sg15
Nsg19
g20
sg97
S'uint32'
p135
sg16
I82
sbag1
(g93
g3
NtRp136
(dp137
g85
Nsg86
S'window_id'
p138
sg15
Nsg19
g20
sg97
S'uint64'
p139
sg16
I82
sbasg16
I82
sg19
g20
sbsg15
Nsg19
Nsg16
Nsg107
Nsbag1
(g82
g3
NtRp140
(dp141
g85
Nsg86
S'SetCapture'
p142
sg88
g1
(g89
g3
NtRp143
(dp144
g10
(lp145
g1
(g93
g3
NtRp146
(dp147
g85
Nsg86
S'change_id'
p148
sg15
Nsg19
g20
sg97
S'uint32'
p149
sg16
I91
sbag1
(g93
g3
NtRp150
(dp151
g85
Nsg86
S'window_id'
p152
sg15
Nsg19
g20
sg97
S'uint64'
p153
sg16
I91
sbasg16
I91
sg19
g20
sbsg15
Nsg19
Nsg16
Nsg107
Nsbag1
(g82
g3
NtRp154
(dp155
g85
Nsg86
S'ReleaseCapture'
p156
sg88
g1
(g89
g3
NtRp157
(dp158
g10
(lp159
g1
(g93
g3
NtRp160
(dp161
g85
Nsg86
S'change_id'
p162
sg15
Nsg19
g20
sg97
S'uint32'
p163
sg16
I95
sbag1
(g93
g3
NtRp164
(dp165
g85
Nsg86
S'window_id'
p166
sg15
Nsg19
g20
sg97
S'uint64'
p167
sg16
I95
sbasg16
I95
sg19
g20
sbsg15
Nsg19
Nsg16
Nsg107
Nsbag1
(g82
g3
NtRp168
(dp169
g85
Nsg86
S'StartPointerWatcher'
p170
sg88
g1
(g89
g3
NtRp171
(dp172
g10
(lp173
g1
(g93
g3
NtRp174
(dp175
g85
Nsg86
S'want_moves'
p176
sg15
Nsg19
g20
sg97
S'bool'
p177
sg16
I108
sbasg16
I108
sg19
g20
sbsg15
Nsg19
Nsg16
Nsg107
Nsbag1
(g82
g3
NtRp178
(dp179
g85
Nsg86
S'StopPointerWatcher'
p180
sg88
g1
(g89
g3
NtRp181
(dp182
g10
(lp183
sg16
Nsg19
Nsbsg15
Nsg19
Nsg16
Nsg107
Nsbag1
(g82
g3
NtRp184
(dp185
g85
Nsg86
S'SetWindowBounds'
p186
sg88
g1
(g89
g3
NtRp187
(dp188
g10
(lp189
g1
(g93
g3
NtRp190
(dp191
g85
Nsg86
S'change_id'
p192
sg15
Nsg19
g20
sg97
S'uint32'
p193
sg16
I115
sbag1
(g93
g3
NtRp194
(dp195
g85
Nsg86
S'window_id'
p196
sg15
Nsg19
g20
sg97
S'uint64'
p197
sg16
I116
sbag1
(g93
g3
NtRp198
(dp199
g85
Nsg86
S'bounds'
p200
sg15
Nsg19
g20
sg97
S'gfx.mojom.Rect'
p201
sg16
I117
sbag1
(g93
g3
NtRp202
(dp203
g85
Nsg86
S'local_surface_id'
p204
sg15
Nsg19
g20
sg97
S'viz.mojom.LocalSurfaceId?'
p205
sg16
I118
sbasg16
I115
sg19
g20
sbsg15
Nsg19
Nsg16
Nsg107
Nsbag1
(g82
g3
NtRp206
(dp207
g85
Nsg86
S'SetWindowTransform'
p208
sg88
g1
(g89
g3
NtRp209
(dp210
g10
(lp211
g1
(g93
g3
NtRp212
(dp213
g85
Nsg86
S'change_id'
p214
sg15
Nsg19
g20
sg97
S'uint32'
p215
sg16
I120
sbag1
(g93
g3
NtRp216
(dp217
g85
Nsg86
S'window_id'
p218
sg15
Nsg19
g20
sg97
S'uint64'
p219
sg16
I121
sbag1
(g93
g3
NtRp220
(dp221
g85
Nsg86
S'transform'
p222
sg15
Nsg19
g20
sg97
S'gfx.mojom.Transform'
p223
sg16
I122
sbasg16
I120
sg19
g20
sbsg15
Nsg19
Nsg16
Nsg107
Nsbag1
(g82
g3
NtRp224
(dp225
g85
Nsg86
S'SetClientArea'
p226
sg88
g1
(g89
g3
NtRp227
(dp228
g10
(lp229
g1
(g93
g3
NtRp230
(dp231
g85
Nsg86
S'window_id'
p232
sg15
Nsg19
g20
sg97
S'uint64'
p233
sg16
I128
sbag1
(g93
g3
NtRp234
(dp235
g85
Nsg86
S'insets'
p236
sg15
Nsg19
g20
sg97
S'gfx.mojom.Insets'
p237
sg16
I129
sbag1
(g93
g3
NtRp238
(dp239
g85
Nsg86
S'additional_client_areas'
p240
sg15
Nsg19
g20
sg97
S'gfx.mojom.Rect[]?'
p241
sg16
I130
sbasg16
I128
sg19
g20
sbsg15
Nsg19
Nsg16
Nsg107
Nsbag1
(g82
g3
NtRp242
(dp243
g85
Nsg86
S'SetHitTestMask'
p244
sg88
g1
(g89
g3
NtRp245
(dp246
g10
(lp247
g1
(g93
g3
NtRp248
(dp249
g85
Nsg86
S'window_id'
p250
sg15
Nsg19
g20
sg97
S'uint64'
p251
sg16
I135
sbag1
(g93
g3
NtRp252
(dp253
g85
Nsg86
S'mask'
p254
sg15
Nsg19
g20
sg97
S'gfx.mojom.Rect?'
p255
sg16
I135
sbasg16
I135
sg19
g20
sbsg15
Nsg19
Nsg16
Nsg107
Nsbag1
(g82
g3
NtRp256
(dp257
g85
Nsg86
S'SetCanAcceptDrops'
p258
sg88
g1
(g89
g3
NtRp259
(dp260
g10
(lp261
g1
(g93
g3
NtRp262
(dp263
g85
Nsg86
S'window_id'
p264
sg15
Nsg19
g20
sg97
S'uint64'
p265
sg16
I140
sbag1
(g93
g3
NtRp266
(dp267
g85
Nsg86
S'accepts_drops'
p268
sg15
Nsg19
g20
sg97
S'bool'
p269
sg16
I140
sbasg16
I140
sg19
g20
sbsg15
Nsg19
Nsg16
Nsg107
Nsbag1
(g82
g3
NtRp270
(dp271
g85
Nsg86
S'SetWindowVisibility'
p272
sg88
g1
(g89
g3
NtRp273
(dp274
g10
(lp275
g1
(g93
g3
NtRp276
(dp277
g85
Nsg86
S'change_id'
p278
sg15
Nsg19
g20
sg97
S'uint32'
p279
sg16
I145
sbag1
(g93
g3
NtRp280
(dp281
g85
Nsg86
S'window_id'
p282
sg15
Nsg19
g20
sg97
S'uint64'
p283
sg16
I145
sbag1
(g93
g3
NtRp284
(dp285
g85
Nsg86
S'visible'
p286
sg15
Nsg19
g20
sg97
S'bool'
p287
sg16
I145
sbasg16
I145
sg19
g20
sbsg15
Nsg19
Nsg16
Nsg107
Nsbag1
(g82
g3
NtRp288
(dp289
g85
Nsg86
S'SetWindowProperty'
p290
sg88
g1
(g89
g3
NtRp291
(dp292
g10
(lp293
g1
(g93
g3
NtRp294
(dp295
g85
Nsg86
S'change_id'
p296
sg15
Nsg19
g20
sg97
S'uint32'
p297
sg16
I149
sbag1
(g93
g3
NtRp298
(dp299
g85
Nsg86
S'window_id'
p300
sg15
Nsg19
g20
sg97
S'uint64'
p301
sg16
I150
sbag1
(g93
g3
NtRp302
(dp303
g85
Nsg86
S'name'
p304
sg15
Nsg19
g20
sg97
S'string'
p305
sg16
I151
sbag1
(g93
g3
NtRp306
(dp307
g85
Nsg86
S'value'
p308
sg15
Nsg19
g20
sg97
S'uint8[]?'
p309
sg16
I152
sbasg16
I149
sg19
g20
sbsg15
Nsg19
Nsg16
Nsg107
Nsbag1
(g82
g3
NtRp310
(dp311
g85
Nsg86
S'SetWindowOpacity'
p312
sg88
g1
(g89
g3
NtRp313
(dp314
g10
(lp315
g1
(g93
g3
NtRp316
(dp317
g85
Nsg86
S'change_id'
p318
sg15
Nsg19
g20
sg97
S'uint32'
p319
sg16
I155
sbag1
(g93
g3
NtRp320
(dp321
g85
Nsg86
S'window_id'
p322
sg15
Nsg19
g20
sg97
S'uint64'
p323
sg16
I155
sbag1
(g93
g3
NtRp324
(dp325
g85
Nsg86
S'opacity'
p326
sg15
Nsg19
g20
sg97
S'float'
p327
sg16
I155
sbasg16
I155
sg19
g20
sbsg15
Nsg19
Nsg16
Nsg107
Nsbag1
(g82
g3
NtRp328
(dp329
g85
Nsg86
S'AttachCompositorFrameSink'
p330
sg88
g1
(g89
g3
NtRp331
(dp332
g10
(lp333
g1
(g93
g3
NtRp334
(dp335
g85
Nsg86
S'window_id'
p336
sg15
Nsg19
g20
sg97
S'uint64'
p337
sg16
I159
sbag1
(g93
g3
NtRp338
(dp339
g85
Nsg86
S'compositor_frame_sink'
p340
sg15
Nsg19
g20
sg97
S'viz.mojom.CompositorFrameSink&'
p341
sg16
I160
sbag1
(g93
g3
NtRp342
(dp343
g85
Nsg86
S'client'
p344
sg15
Nsg19
g20
sg97
S'viz.mojom.CompositorFrameSinkClient'
p345
sg16
I161
sbasg16
I159
sg19
g20
sbsg15
Nsg19
Nsg16
Nsg107
Nsbag1
(g82
g3
NtRp346
(dp347
g85
Nsg86
S'AddWindow'
p348
sg88
g1
(g89
g3
NtRp349
(dp350
g10
(lp351
g1
(g93
g3
NtRp352
(dp353
g85
Nsg86
S'change_id'
p354
sg15
Nsg19
g20
sg97
S'uint32'
p355
sg16
I171
sbag1
(g93
g3
NtRp356
(dp357
g85
Nsg86
S'parent'
p358
sg15
Nsg19
g20
sg97
S'uint64'
p359
sg16
I171
sbag1
(g93
g3
NtRp360
(dp361
g85
Nsg86
S'child'
p362
sg15
Nsg19
g20
sg97
S'uint64'
p363
sg16
I171
sbasg16
I171
sg19
g20
sbsg15
Nsg19
Nsg16
Nsg107
Nsbag1
(g82
g3
NtRp364
(dp365
g85
Nsg86
S'RemoveWindowFromParent'
p366
sg88
g1
(g89
g3
NtRp367
(dp368
g10
(lp369
g1
(g93
g3
NtRp370
(dp371
g85
Nsg86
S'change_id'
p372
sg15
Nsg19
g20
sg97
S'uint32'
p373
sg16
I181
sbag1
(g93
g3
NtRp374
(dp375
g85
Nsg86
S'window_id'
p376
sg15
Nsg19
g20
sg97
S'uint64'
p377
sg16
I181
sbasg16
I181
sg19
g20
sbsg15
Nsg19
Nsg16
Nsg107
Nsbag1
(g82
g3
NtRp378
(dp379
g85
Nsg86
S'AddTransientWindow'
p380
sg88
g1
(g89
g3
NtRp381
(dp382
g10
(lp383
g1
(g93
g3
NtRp384
(dp385
g85
Nsg86
S'change_id'
p386
sg15
Nsg19
g20
sg97
S'uint32'
p387
sg16
I189
sbag1
(g93
g3
NtRp388
(dp389
g85
Nsg86
S'window_id'
p390
sg15
Nsg19
g20
sg97
S'uint64'
p391
sg16
I190
sbag1
(g93
g3
NtRp392
(dp393
g85
Nsg86
S'transient_window_id'
p394
sg15
Nsg19
g20
sg97
S'uint64'
p395
sg16
I191
sbasg16
I189
sg19
g20
sbsg15
Nsg19
Nsg16
Nsg107
Nsbag1
(g82
g3
NtRp396
(dp397
g85
Nsg86
S'RemoveTransientWindowFromParent'
p398
sg88
g1
(g89
g3
NtRp399
(dp400
g10
(lp401
g1
(g93
g3
NtRp402
(dp403
g85
Nsg86
S'change_id'
p404
sg15
Nsg19
g20
sg97
S'uint32'
p405
sg16
I195
sbag1
(g93
g3
NtRp406
(dp407
g85
Nsg86
S'transient_window_id'
p408
sg15
Nsg19
g20
sg97
S'uint64'
p409
sg16
I195
sbasg16
I195
sg19
g20
sbsg15
Nsg19
Nsg16
Nsg107
Nsbag1
(g82
g3
NtRp410
(dp411
g85
Nsg86
S'SetModalType'
p412
sg88
g1
(g89
g3
NtRp413
(dp414
g10
(lp415
g1
(g93
g3
NtRp416
(dp417
g85
Nsg86
S'change_id'
p418
sg15
Nsg19
g20
sg97
S'uint32'
p419
sg16
I201
sbag1
(g93
g3
NtRp420
(dp421
g85
Nsg86
S'window_id'
p422
sg15
Nsg19
g20
sg97
S'uint64'
p423
sg16
I201
sbag1
(g93
g3
NtRp424
(dp425
g85
Nsg86
S'type'
p426
sg15
Nsg19
g20
sg97
S'ModalType'
p427
sg16
I201
sbasg16
I201
sg19
g20
sbsg15
Nsg19
Nsg16
Nsg107
Nsbag1
(g82
g3
NtRp428
(dp429
g85
Nsg86
S'SetChildModalParent'
p430
sg88
g1
(g89
g3
NtRp431
(dp432
g10
(lp433
g1
(g93
g3
NtRp434
(dp435
g85
Nsg86
S'change_id'
p436
sg15
Nsg19
g20
sg97
S'uint32'
p437
sg16
I205
sbag1
(g93
g3
NtRp438
(dp439
g85
Nsg86
S'window_id'
p440
sg15
Nsg19
g20
sg97
S'uint64'
p441
sg16
I206
sbag1
(g93
g3
NtRp442
(dp443
g85
Nsg86
S'parent_window_id'
p444
sg15
Nsg19
g20
sg97
S'uint64'
p445
sg16
I207
sbasg16
I205
sg19
g20
sbsg15
Nsg19
Nsg16
Nsg107
Nsbag1
(g82
g3
NtRp446
(dp447
g85
Nsg86
S'ReorderWindow'
p448
sg88
g1
(g89
g3
NtRp449
(dp450
g10
(lp451
g1
(g93
g3
NtRp452
(dp453
g85
Nsg86
S'change_id'
p454
sg15
Nsg19
g20
sg97
S'uint32'
p455
sg16
I212
sbag1
(g93
g3
NtRp456
(dp457
g85
Nsg86
S'window_id'
p458
sg15
Nsg19
g20
sg97
S'uint64'
p459
sg16
I213
sbag1
(g93
g3
NtRp460
(dp461
g85
Nsg86
S'relative_window_id'
p462
sg15
Nsg19
g20
sg97
S'uint64'
p463
sg16
I214
sbag1
(g93
g3
NtRp464
(dp465
g85
Nsg86
S'direction'
p466
sg15
Nsg19
g20
sg97
S'OrderDirection'
p467
sg16
I215
sbasg16
I212
sg19
g20
sbsg15
Nsg19
Nsg16
Nsg107
Nsbag1
(g82
g3
NtRp468
(dp469
g85
Nsg86
S'GetWindowTree'
p470
sg88
g1
(g89
g3
NtRp471
(dp472
g10
(lp473
g1
(g93
g3
NtRp474
(dp475
g85
Nsg86
S'window_id'
p476
sg15
Nsg19
g20
sg97
S'uint64'
p477
sg16
I221
sbasg16
I221
sg19
g20
sbsg15
Nsg19
Nsg16
Nsg107
g1
(g89
g3
NtRp478
(dp479
g10
(lp480
g1
(g93
g3
NtRp481
(dp482
g85
Nsg86
S'windows'
p483
sg15
Nsg19
g20
sg97
S'WindowData[]'
p484
sg16
I221
sbasg16
I221
sg19
g20
sbsbag1
(g82
g3
NtRp485
(dp486
g85
Nsg86
S'Embed'
p487
sg88
g1
(g89
g3
NtRp488
(dp489
g10
(lp490
g1
(g93
g3
NtRp491
(dp492
g85
Nsg86
S'window_id'
p493
sg15
Nsg19
g20
sg97
S'uint64'
p494
sg16
I250
sbag1
(g93
g3
NtRp495
(dp496
g85
Nsg86
S'client'
p497
sg15
Nsg19
g20
sg97
S'WindowTreeClient'
p498
sg16
I250
sbag1
(g93
g3
NtRp499
(dp500
g85
Nsg86
S'embed_flags'
p501
sg15
Nsg19
g20
sg97
S'uint32'
p502
sg16
I250
sbasg16
I250
sg19
g20
sbsg15
Nsg19
Nsg16
Nsg107
g1
(g89
g3
NtRp503
(dp504
g10
(lp505
g1
(g93
g3
NtRp506
(dp507
g85
Nsg86
S'success'
p508
sg15
Nsg19
g20
sg97
S'bool'
p509
sg16
I251
sbasg16
I251
sg19
g20
sbsbag1
(g82
g3
NtRp510
(dp511
g85
Nsg86
S'ScheduleEmbed'
p512
sg88
g1
(g89
g3
NtRp513
(dp514
g10
(lp515
g1
(g93
g3
NtRp516
(dp517
g85
Nsg86
S'client'
p518
sg15
Nsg19
g20
sg97
S'WindowTreeClient'
p519
sg16
I264
sbasg16
I264
sg19
g20
sbsg15
Nsg19
Nsg16
Nsg107
g1
(g89
g3
NtRp520
(dp521
g10
(lp522
g1
(g93
g3
NtRp523
(dp524
g85
Nsg86
S'token'
p525
sg15
Nsg19
g20
sg97
S'mojo_base.mojom.UnguessableToken'
p526
sg16
I265
sbasg16
I265
sg19
g20
sbsbag1
(g82
g3
NtRp527
(dp528
g85
Nsg86
S'ScheduleEmbedForExistingClient'
p529
sg88
g1
(g89
g3
NtRp530
(dp531
g10
(lp532
g1
(g93
g3
NtRp533
(dp534
g85
Nsg86
S'window_id'
p535
sg15
Nsg19
g20
sg97
S'uint32'
p536
sg16
I279
sbasg16
I279
sg19
g20
sbsg15
Nsg19
Nsg16
Nsg107
g1
(g89
g3
NtRp537
(dp538
g10
(lp539
g1
(g93
g3
NtRp540
(dp541
g85
Nsg86
S'token'
p542
sg15
Nsg19
g20
sg97
S'mojo_base.mojom.UnguessableToken'
p543
sg16
I280
sbasg16
I280
sg19
g20
sbsbag1
(g82
g3
NtRp544
(dp545
g85
Nsg86
S'EmbedUsingToken'
p546
sg88
g1
(g89
g3
NtRp547
(dp548
g10
(lp549
g1
(g93
g3
NtRp550
(dp551
g85
Nsg86
S'window_id'
p552
sg15
Nsg19
g20
sg97
S'uint64'
p553
sg16
I284
sbag1
(g93
g3
NtRp554
(dp555
g85
Nsg86
S'token'
p556
sg15
Nsg19
g20
sg97
S'mojo_base.mojom.UnguessableToken'
p557
sg16
I285
sbag1
(g93
g3
NtRp558
(dp559
g85
Nsg86
S'embed_flags'
p560
sg15
Nsg19
g20
sg97
S'uint32'
p561
sg16
I286
sbasg16
I284
sg19
g20
sbsg15
Nsg19
Nsg16
Nsg107
g1
(g89
g3
NtRp562
(dp563
g10
(lp564
g1
(g93
g3
NtRp565
(dp566
g85
Nsg86
S'success'
p567
sg15
Nsg19
g20
sg97
S'bool'
p568
sg16
I287
sbasg16
I287
sg19
g20
sbsbag1
(g82
g3
NtRp569
(dp570
g85
Nsg86
S'SetFocus'
p571
sg88
g1
(g89
g3
NtRp572
(dp573
g10
(lp574
g1
(g93
g3
NtRp575
(dp576
g85
Nsg86
S'change_id'
p577
sg15
Nsg19
g20
sg97
S'uint32'
p578
sg16
I294
sbag1
(g93
g3
NtRp579
(dp580
g85
Nsg86
S'window_id'
p581
sg15
Nsg19
g20
sg97
S'uint64'
p582
sg16
I294
sbasg16
I294
sg19
g20
sbsg15
Nsg19
Nsg16
Nsg107
Nsbag1
(g82
g3
NtRp583
(dp584
g85
Nsg86
S'SetCanFocus'
p585
sg88
g1
(g89
g3
NtRp586
(dp587
g10
(lp588
g1
(g93
g3
NtRp589
(dp590
g85
Nsg86
S'window_id'
p591
sg15
Nsg19
g20
sg97
S'uint64'
p592
sg16
I297
sbag1
(g93
g3
NtRp593
(dp594
g85
Nsg86
S'can_focus'
p595
sg15
Nsg19
g20
sg97
S'bool'
p596
sg16
I297
sbasg16
I297
sg19
g20
sbsg15
Nsg19
Nsg16
Nsg107
Nsbag1
(g82
g3
NtRp597
(dp598
g85
Nsg86
S'SetCursor'
p599
sg88
g1
(g89
g3
NtRp600
(dp601
g10
(lp602
g1
(g93
g3
NtRp603
(dp604
g85
Nsg86
S'change_id'
p605
sg15
Nsg19
g20
sg97
S'uint32'
p606
sg16
I300
sbag1
(g93
g3
NtRp607
(dp608
g85
Nsg86
S'window_id'
p609
sg15
Nsg19
g20
sg97
S'uint64'
p610
sg16
I300
sbag1
(g93
g3
NtRp611
(dp612
g85
Nsg86
S'cursor'
p613
sg15
Nsg19
g20
sg97
S'CursorData'
p614
sg16
I300
sbasg16
I300
sg19
g20
sbsg15
Nsg19
Nsg16
Nsg107
Nsbag1
(g82
g3
NtRp615
(dp616
g85
Nsg86
S'SetWindowTextInputState'
p617
sg88
g1
(g89
g3
NtRp618
(dp619
g10
(lp620
g1
(g93
g3
NtRp621
(dp622
g85
Nsg86
S'window_id'
p623
sg15
Nsg19
g20
sg97
S'uint64'
p624
sg16
I305
sbag1
(g93
g3
NtRp625
(dp626
g85
Nsg86
S'state'
p627
sg15
Nsg19
g20
sg97
S'TextInputState'
p628
sg16
I305
sbasg16
I305
sg19
g20
sbsg15
Nsg19
Nsg16
Nsg107
Nsbag1
(g82
g3
NtRp629
(dp630
g85
Nsg86
S'SetImeVisibility'
p631
sg88
g1
(g89
g3
NtRp632
(dp633
g10
(lp634
g1
(g93
g3
NtRp635
(dp636
g85
Nsg86
S'window_id'
p637
sg15
Nsg19
g20
sg97
S'uint64'
p638
sg16
I310
sbag1
(g93
g3
NtRp639
(dp640
g85
Nsg86
S'visible'
p641
sg15
Nsg19
g20
sg97
S'bool'
p642
sg16
I310
sbag1
(g93
g3
NtRp643
(dp644
g85
Nsg86
S'state'
p645
sg15
Nsg19
g20
sg97
S'TextInputState?'
p646
sg16
I310
sbasg16
I310
sg19
g20
sbsg15
Nsg19
Nsg16
Nsg107
Nsbag1
(g82
g3
NtRp647
(dp648
g85
Nsg86
S'SetEventTargetingPolicy'
p649
sg88
g1
(g89
g3
NtRp650
(dp651
g10
(lp652
g1
(g93
g3
NtRp653
(dp654
g85
Nsg86
S'window_id'
p655
sg15
Nsg19
g20
sg97
S'uint64'
p656
sg16
I313
sbag1
(g93
g3
NtRp657
(dp658
g85
Nsg86
S'policy'
p659
sg15
Nsg19
g20
sg97
S'EventTargetingPolicy'
p660
sg16
I313
sbasg16
I313
sg19
g20
sbsg15
Nsg19
Nsg16
Nsg107
Nsbag1
(g82
g3
NtRp661
(dp662
g85
Nsg86
S'OnWindowInputEventAck'
p663
sg88
g1
(g89
g3
NtRp664
(dp665
g10
(lp666
g1
(g93
g3
NtRp667
(dp668
g85
Nsg86
S'event_id'
p669
sg15
Nsg19
g20
sg97
S'uint32'
p670
sg16
I316
sbag1
(g93
g3
NtRp671
(dp672
g85
Nsg86
S'result'
p673
sg15
Nsg19
g20
sg97
S'EventResult'
p674
sg16
I316
sbasg16
I316
sg19
g20
sbsg15
Nsg19
Nsg16
Nsg107
Nsbag1
(g82
g3
NtRp675
(dp676
g85
Nsg86
S'DeactivateWindow'
p677
sg88
g1
(g89
g3
NtRp678
(dp679
g10
(lp680
g1
(g93
g3
NtRp681
(dp682
g85
Nsg86
S'window_id'
p683
sg15
Nsg19
g20
sg97
S'uint64'
p684
sg16
I320
sbasg16
I320
sg19
g20
sbsg15
Nsg19
Nsg16
Nsg107
Nsbag1
(g82
g3
NtRp685
(dp686
g85
Nsg86
S'StackAbove'
p687
sg88
g1
(g89
g3
NtRp688
(dp689
g10
(lp690
g1
(g93
g3
NtRp691
(dp692
g85
Nsg86
S'change_id'
p693
sg15
Nsg19
g20
sg97
S'uint32'
p694
sg16
I324
sbag1
(g93
g3
NtRp695
(dp696
g85
Nsg86
S'above_id'
p697
sg15
Nsg19
g20
sg97
S'uint64'
p698
sg16
I324
sbag1
(g93
g3
NtRp699
(dp700
g85
Nsg86
S'below_id'
p701
sg15
Nsg19
g20
sg97
S'uint64'
p702
sg16
I324
sbasg16
I324
sg19
g20
sbsg15
Nsg19
Nsg16
Nsg107
Nsbag1
(g82
g3
NtRp703
(dp704
g85
Nsg86
S'StackAtTop'
p705
sg88
g1
(g89
g3
NtRp706
(dp707
g10
(lp708
g1
(g93
g3
NtRp709
(dp710
g85
Nsg86
S'change_id'
p711
sg15
Nsg19
g20
sg97
S'uint32'
p712
sg16
I327
sbag1
(g93
g3
NtRp713
(dp714
g85
Nsg86
S'window_id'
p715
sg15
Nsg19
g20
sg97
S'uint64'
p716
sg16
I327
sbasg16
I327
sg19
g20
sbsg15
Nsg19
Nsg16
Nsg107
Nsbag1
(g82
g3
NtRp717
(dp718
g85
Nsg86
S'PerformWmAction'
p719
sg88
g1
(g89
g3
NtRp720
(dp721
g10
(lp722
g1
(g93
g3
NtRp723
(dp724
g85
Nsg86
S'window_id'
p725
sg15
Nsg19
g20
sg97
S'uint64'
p726
sg16
I330
sbag1
(g93
g3
NtRp727
(dp728
g85
Nsg86
S'action'
p729
sg15
Nsg19
g20
sg97
S'string'
p730
sg16
I330
sbasg16
I330
sg19
g20
sbsg15
Nsg19
Nsg16
Nsg107
Nsbag1
(g82
g3
NtRp731
(dp732
g85
Nsg86
S'GetWindowManagerClient'
p733
sg88
g1
(g89
g3
NtRp734
(dp735
g10
(lp736
g1
(g93
g3
NtRp737
(dp738
g85
Nsg86
S'internal'
p739
sg15
Nsg19
g20
sg97
S'asso<WindowManagerClient&>'
p740
sg16
I333
sbasg16
I333
sg19
g20
sbsg15
Nsg19
Nsg16
Nsg107
Nsbag1
(g82
g3
NtRp741
(dp742
g85
Nsg86
S'GetCursorLocationMemory'
p743
sg88
g1
(g89
g3
NtRp744
(dp745
g10
(lp746
sg16
Nsg19
Nsbsg15
Nsg19
Nsg16
Nsg107
g1
(g89
g3
NtRp747
(dp748
g10
(lp749
g1
(g93
g3
NtRp750
(dp751
g85
Nsg86
S'cursor_buffer'
p752
sg15
Nsg19
g20
sg97
S'handle<shared_buffer>'
p753
sg16
I338
sbasg16
I338
sg19
g20
sbsbag1
(g82
g3
NtRp754
(dp755
g85
Nsg86
S'PerformWindowMove'
p756
sg88
g1
(g89
g3
NtRp757
(dp758
g10
(lp759
g1
(g93
g3
NtRp760
(dp761
g85
Nsg86
S'change_id'
p762
sg15
Nsg19
g20
sg97
S'uint32'
p763
sg16
I344
sbag1
(g93
g3
NtRp764
(dp765
g85
Nsg86
S'window_id'
p766
sg15
Nsg19
g20
sg97
S'uint64'
p767
sg16
I344
sbag1
(g93
g3
NtRp768
(dp769
g85
Nsg86
S'source'
p770
sg15
Nsg19
g20
sg97
S'MoveLoopSource'
p771
sg16
I344
sbag1
(g93
g3
NtRp772
(dp773
g85
Nsg86
S'cursor'
p774
sg15
Nsg19
g20
sg97
S'gfx.mojom.Point'
p775
sg16
I345
sbasg16
I344
sg19
g20
sbsg15
Nsg19
Nsg16
Nsg107
Nsbag1
(g82
g3
NtRp776
(dp777
g85
Nsg86
S'CancelWindowMove'
p778
sg88
g1
(g89
g3
NtRp779
(dp780
g10
(lp781
g1
(g93
g3
NtRp782
(dp783
g85
Nsg86
S'window_id'
p784
sg15
Nsg19
g20
sg97
S'uint64'
p785
sg16
I349
sbasg16
I349
sg19
g20
sbsg15
Nsg19
Nsg16
Nsg107
Nsbag1
(g82
g3
NtRp786
(dp787
g85
Nsg86
S'PerformDragDrop'
p788
sg88
g1
(g89
g3
NtRp789
(dp790
g10
(lp791
g1
(g93
g3
NtRp792
(dp793
g85
Nsg86
S'change_id'
p794
sg15
Nsg19
g20
sg97
S'uint32'
p795
sg16
I361
sbag1
(g93
g3
NtRp796
(dp797
g85
Nsg86
S'source_window_id'
p798
sg15
Nsg19
g20
sg97
S'uint64'
p799
sg16
I362
sbag1
(g93
g3
NtRp800
(dp801
g85
Nsg86
S'screen_location'
p802
sg15
Nsg19
g20
sg97
S'gfx.mojom.Point'
p803
sg16
I363
sbag1
(g93
g3
NtRp804
(dp805
g85
Nsg86
S'drag_data'
p806
sg15
Nsg19
g20
sg97
S'uint8[]{string}'
p807
sg16
I364
sbag1
(g93
g3
NtRp808
(dp809
g85
Nsg86
S'drag_image'
p810
sg15
Nsg19
g20
sg97
S'skia.mojom.Bitmap?'
p811
sg16
I365
sbag1
(g93
g3
NtRp812
(dp813
g85
Nsg86
S'drag_image_offset'
p814
sg15
Nsg19
g20
sg97
S'gfx.mojom.Vector2d'
p815
sg16
I366
sbag1
(g93
g3
NtRp816
(dp817
g85
Nsg86
S'drag_operation'
p818
sg15
Nsg19
g20
sg97
S'uint32'
p819
sg16
I367
sbag1
(g93
g3
NtRp820
(dp821
g85
Nsg86
S'source'
p822
sg15
Nsg19
g20
sg97
S'PointerKind'
p823
sg16
I368
sbasg16
I361
sg19
g20
sbsg15
Nsg19
Nsg16
Nsg107
Nsbag1
(g82
g3
NtRp824
(dp825
g85
Nsg86
S'CancelDragDrop'
p826
sg88
g1
(g89
g3
NtRp827
(dp828
g10
(lp829
g1
(g93
g3
NtRp830
(dp831
g85
Nsg86
S'window_id'
p832
sg15
Nsg19
g20
sg97
S'uint64'
p833
sg16
I372
sbasg16
I372
sg19
g20
sbsg15
Nsg19
Nsg16
Nsg107
Nsbasg16
Nsg19
Nsbsg15
Nsg16
Nsg86
S'WindowTree'
p834
sg19
Nsbag1
(g74
g3
NtRp835
(dp836
g77
g1
(g78
g3
NtRp837
(dp838
g10
(lp839
g1
(g82
g3
NtRp840
(dp841
g85
Nsg86
S'OnEmbed'
p842
sg88
g1
(g89
g3
NtRp843
(dp844
g10
(lp845
g1
(g93
g3
NtRp846
(dp847
g85
Nsg86
S'root'
p848
sg15
Nsg19
g20
sg97
S'WindowData'
p849
sg16
I387
sbag1
(g93
g3
NtRp850
(dp851
g85
Nsg86
S'tree'
p852
sg15
Nsg19
g20
sg97
S'WindowTree?'
p853
sg16
I388
sbag1
(g93
g3
NtRp854
(dp855
g85
Nsg86
S'display_id'
p856
sg15
Nsg19
g20
sg97
S'int64'
p857
sg16
I389
sbag1
(g93
g3
NtRp858
(dp859
g85
Nsg86
S'focused_window'
p860
sg15
Nsg19
g20
sg97
S'uint64'
p861
sg16
I390
sbag1
(g93
g3
NtRp862
(dp863
g85
Nsg86
S'parent_drawn'
p864
sg15
Nsg19
g20
sg97
S'bool'
p865
sg16
I391
sbag1
(g93
g3
NtRp866
(dp867
g85
Nsg86
S'local_surface_id'
p868
sg15
Nsg19
g20
sg97
S'viz.mojom.LocalSurfaceId?'
p869
sg16
I392
sbasg16
I387
sg19
g20
sbsg15
Nsg19
Nsg16
Nsg107
Nsbag1
(g82
g3
NtRp870
(dp871
g85
Nsg86
S'OnEmbedFromToken'
p872
sg88
g1
(g89
g3
NtRp873
(dp874
g10
(lp875
g1
(g93
g3
NtRp876
(dp877
g85
Nsg86
S'token'
p878
sg15
Nsg19
g20
sg97
S'mojo_base.mojom.UnguessableToken'
p879
sg16
I396
sbag1
(g93
g3
NtRp880
(dp881
g85
Nsg86
S'root'
p882
sg15
Nsg19
g20
sg97
S'WindowData'
p883
sg16
I397
sbag1
(g93
g3
NtRp884
(dp885
g85
Nsg86
S'display_id'
p886
sg15
Nsg19
g20
sg97
S'int64'
p887
sg16
I398
sbag1
(g93
g3
NtRp888
(dp889
g85
Nsg86
S'local_surface_id'
p890
sg15
Nsg19
g20
sg97
S'viz.mojom.LocalSurfaceId?'
p891
sg16
I399
sbasg16
I396
sg19
g20
sbsg15
Nsg19
Nsg16
Nsg107
Nsbag1
(g82
g3
NtRp892
(dp893
g85
Nsg86
S'OnEmbeddedAppDisconnected'
p894
sg88
g1
(g89
g3
NtRp895
(dp896
g10
(lp897
g1
(g93
g3
NtRp898
(dp899
g85
Nsg86
S'window'
p900
sg15
Nsg19
g20
sg97
S'uint64'
p901
sg16
I405
sbasg16
I405
sg19
g20
sbsg15
Nsg19
Nsg16
Nsg107
Nsbag1
(g82
g3
NtRp902
(dp903
g85
Nsg86
S'OnUnembed'
p904
sg88
g1
(g89
g3
NtRp905
(dp906
g10
(lp907
g1
(g93
g3
NtRp908
(dp909
g85
Nsg86
S'window'
p910
sg15
Nsg19
g20
sg97
S'uint64'
p911
sg16
I409
sbasg16
I409
sg19
g20
sbsg15
Nsg19
Nsg16
Nsg107
Nsbag1
(g82
g3
NtRp912
(dp913
g85
Nsg86
S'OnCaptureChanged'
p914
sg88
g1
(g89
g3
NtRp915
(dp916
g10
(lp917
g1
(g93
g3
NtRp918
(dp919
g85
Nsg86
S'new_capture'
p920
sg15
Nsg19
g20
sg97
S'uint64'
p921
sg16
I413
sbag1
(g93
g3
NtRp922
(dp923
g85
Nsg86
S'old_capture'
p924
sg15
Nsg19
g20
sg97
S'uint64'
p925
sg16
I413
sbasg16
I413
sg19
g20
sbsg15
Nsg19
Nsg16
Nsg107
Nsbag1
(g82
g3
NtRp926
(dp927
g85
Nsg86
S'OnFrameSinkIdAllocated'
p928
sg88
g1
(g89
g3
NtRp929
(dp930
g10
(lp931
g1
(g93
g3
NtRp932
(dp933
g85
Nsg86
S'window'
p934
sg15
Nsg19
g20
sg97
S'uint64'
p935
sg16
I417
sbag1
(g93
g3
NtRp936
(dp937
g85
Nsg86
S'frame_sink_id'
p938
sg15
Nsg19
g20
sg97
S'viz.mojom.FrameSinkId'
p939
sg16
I417
sbasg16
I417
sg19
g20
sbsg15
Nsg19
Nsg16
Nsg107
Nsbag1
(g82
g3
NtRp940
(dp941
g85
Nsg86
S'OnTopLevelCreated'
p942
sg88
g1
(g89
g3
NtRp943
(dp944
g10
(lp945
g1
(g93
g3
NtRp946
(dp947
g85
Nsg86
S'change_id'
p948
sg15
Nsg19
g20
sg97
S'uint32'
p949
sg16
I424
sbag1
(g93
g3
NtRp950
(dp951
g85
Nsg86
S'data'
p952
sg15
Nsg19
g20
sg97
S'WindowData'
p953
sg16
I425
sbag1
(g93
g3
NtRp954
(dp955
g85
Nsg86
S'display_id'
p956
sg15
Nsg19
g20
sg97
S'int64'
p957
sg16
I426
sbag1
(g93
g3
NtRp958
(dp959
g85
Nsg86
S'parent_drawn'
p960
sg15
Nsg19
g20
sg97
S'bool'
p961
sg16
I427
sbag1
(g93
g3
NtRp962
(dp963
g85
Nsg86
S'local_surface_id'
p964
sg15
Nsg19
g20
sg97
S'viz.mojom.LocalSurfaceId?'
p965
sg16
I428
sbasg16
I424
sg19
g20
sbsg15
Nsg19
Nsg16
Nsg107
Nsbag1
(g82
g3
NtRp966
(dp967
g85
Nsg86
S'OnWindowBoundsChanged'
p968
sg88
g1
(g89
g3
NtRp969
(dp970
g10
(lp971
g1
(g93
g3
NtRp972
(dp973
g85
Nsg86
S'window'
p974
sg15
Nsg19
g20
sg97
S'uint64'
p975
sg16
I432
sbag1
(g93
g3
NtRp976
(dp977
g85
Nsg86
S'old_bounds'
p978
sg15
Nsg19
g20
sg97
S'gfx.mojom.Rect'
p979
sg16
I433
sbag1
(g93
g3
NtRp980
(dp981
g85
Nsg86
S'new_bounds'
p982
sg15
Nsg19
g20
sg97
S'gfx.mojom.Rect'
p983
sg16
I434
sbag1
(g93
g3
NtRp984
(dp985
g85
Nsg86
S'local_surface_id'
p986
sg15
Nsg19
g20
sg97
S'viz.mojom.LocalSurfaceId?'
p987
sg16
I435
sbasg16
I432
sg19
g20
sbsg15
Nsg19
Nsg16
Nsg107
Nsbag1
(g82
g3
NtRp988
(dp989
g85
Nsg86
S'OnWindowTransformChanged'
p990
sg88
g1
(g89
g3
NtRp991
(dp992
g10
(lp993
g1
(g93
g3
NtRp994
(dp995
g85
Nsg86
S'window'
p996
sg15
Nsg19
g20
sg97
S'uint64'
p997
sg16
I437
sbag1
(g93
g3
NtRp998
(dp999
g85
Nsg86
S'old_transform'
p1000
sg15
Nsg19
g20
sg97
S'gfx.mojom.Transform'
p1001
sg16
I438
sbag1
(g93
g3
NtRp1002
(dp1003
g85
Nsg86
S'new_transform'
p1004
sg15
Nsg19
g20
sg97
S'gfx.mojom.Transform'
p1005
sg16
I439
sbasg16
I437
sg19
g20
sbsg15
Nsg19
Nsg16
Nsg107
Nsbag1
(g82
g3
NtRp1006
(dp1007
g85
Nsg86
S'OnClientAreaChanged'
p1008
sg88
g1
(g89
g3
NtRp1009
(dp1010
g10
(lp1011
g1
(g93
g3
NtRp1012
(dp1013
g85
Nsg86
S'window_id'
p1014
sg15
Nsg19
g20
sg97
S'uint64'
p1015
sg16
I441
sbag1
(g93
g3
NtRp1016
(dp1017
g85
Nsg86
S'new_client_area'
p1018
sg15
Nsg19
g20
sg97
S'gfx.mojom.Insets'
p1019
sg16
I442
sbag1
(g93
g3
NtRp1020
(dp1021
g85
Nsg86
S'new_additional_client_areas'
p1022
sg15
Nsg19
g20
sg97
S'gfx.mojom.Rect[]'
p1023
sg16
I443
sbasg16
I441
sg19
g20
sbsg15
Nsg19
Nsg16
Nsg107
Nsbag1
(g82
g3
NtRp1024
(dp1025
g85
Nsg86
S'OnTransientWindowAdded'
p1026
sg88
g1
(g89
g3
NtRp1027
(dp1028
g10
(lp1029
g1
(g93
g3
NtRp1030
(dp1031
g85
Nsg86
S'window_id'
p1032
sg15
Nsg19
g20
sg97
S'uint64'
p1033
sg16
I445
sbag1
(g93
g3
NtRp1034
(dp1035
g85
Nsg86
S'transient_window_id'
p1036
sg15
Nsg19
g20
sg97
S'uint64'
p1037
sg16
I446
sbasg16
I445
sg19
g20
sbsg15
Nsg19
Nsg16
Nsg107
Nsbag1
(g82
g3
NtRp1038
(dp1039
g85
Nsg86
S'OnTransientWindowRemoved'
p1040
sg88
g1
(g89
g3
NtRp1041
(dp1042
g10
(lp1043
g1
(g93
g3
NtRp1044
(dp1045
g85
Nsg86
S'window_id'
p1046
sg15
Nsg19
g20
sg97
S'uint64'
p1047
sg16
I448
sbag1
(g93
g3
NtRp1048
(dp1049
g85
Nsg86
S'transient_window_id'
p1050
sg15
Nsg19
g20
sg97
S'uint64'
p1051
sg16
I449
sbasg16
I448
sg19
g20
sbsg15
Nsg19
Nsg16
Nsg107
Nsbag1
(g82
g3
NtRp1052
(dp1053
g85
Nsg86
S'OnWindowHierarchyChanged'
p1054
sg88
g1
(g89
g3
NtRp1055
(dp1056
g10
(lp1057
g1
(g93
g3
NtRp1058
(dp1059
g85
Nsg86
S'window'
p1060
sg15
Nsg19
g20
sg97
S'uint64'
p1061
sg16
I461
sbag1
(g93
g3
NtRp1062
(dp1063
g85
Nsg86
S'old_parent'
p1064
sg15
Nsg19
g20
sg97
S'uint64'
p1065
sg16
I462
sbag1
(g93
g3
NtRp1066
(dp1067
g85
Nsg86
S'new_parent'
p1068
sg15
Nsg19
g20
sg97
S'uint64'
p1069
sg16
I463
sbag1
(g93
g3
NtRp1070
(dp1071
g85
Nsg86
S'windows'
p1072
sg15
Nsg19
g20
sg97
S'WindowData[]'
p1073
sg16
I464
sbasg16
I461
sg19
g20
sbsg15
Nsg19
Nsg16
Nsg107
Nsbag1
(g82
g3
NtRp1074
(dp1075
g85
Nsg86
S'OnWindowReordered'
p1076
sg88
g1
(g89
g3
NtRp1077
(dp1078
g10
(lp1079
g1
(g93
g3
NtRp1080
(dp1081
g85
Nsg86
S'window_id'
p1082
sg15
Nsg19
g20
sg97
S'uint64'
p1083
sg16
I467
sbag1
(g93
g3
NtRp1084
(dp1085
g85
Nsg86
S'relative_window_id'
p1086
sg15
Nsg19
g20
sg97
S'uint64'
p1087
sg16
I468
sbag1
(g93
g3
NtRp1088
(dp1089
g85
Nsg86
S'direction'
p1090
sg15
Nsg19
g20
sg97
S'OrderDirection'
p1091
sg16
I469
sbasg16
I467
sg19
g20
sbsg15
Nsg19
Nsg16
Nsg107
Nsbag1
(g82
g3
NtRp1092
(dp1093
g85
Nsg86
S'OnWindowDeleted'
p1094
sg88
g1
(g89
g3
NtRp1095
(dp1096
g10
(lp1097
g1
(g93
g3
NtRp1098
(dp1099
g85
Nsg86
S'window'
p1100
sg15
Nsg19
g20
sg97
S'uint64'
p1101
sg16
I472
sbasg16
I472
sg19
g20
sbsg15
Nsg19
Nsg16
Nsg107
Nsbag1
(g82
g3
NtRp1102
(dp1103
g85
Nsg86
S'OnWindowVisibilityChanged'
p1104
sg88
g1
(g89
g3
NtRp1105
(dp1106
g10
(lp1107
g1
(g93
g3
NtRp1108
(dp1109
g85
Nsg86
S'window'
p1110
sg15
Nsg19
g20
sg97
S'uint64'
p1111
sg16
I475
sbag1
(g93
g3
NtRp1112
(dp1113
g85
Nsg86
S'visible'
p1114
sg15
Nsg19
g20
sg97
S'bool'
p1115
sg16
I475
sbasg16
I475
sg19
g20
sbsg15
Nsg19
Nsg16
Nsg107
Nsbag1
(g82
g3
NtRp1116
(dp1117
g85
Nsg86
S'OnWindowOpacityChanged'
p1118
sg88
g1
(g89
g3
NtRp1119
(dp1120
g10
(lp1121
g1
(g93
g3
NtRp1122
(dp1123
g85
Nsg86
S'window'
p1124
sg15
Nsg19
g20
sg97
S'uint64'
p1125
sg16
I478
sbag1
(g93
g3
NtRp1126
(dp1127
g85
Nsg86
S'old_opacity'
p1128
sg15
Nsg19
g20
sg97
S'float'
p1129
sg16
I478
sbag1
(g93
g3
NtRp1130
(dp1131
g85
Nsg86
S'new_opacity'
p1132
sg15
Nsg19
g20
sg97
S'float'
p1133
sg16
I478
sbasg16
I478
sg19
g20
sbsg15
Nsg19
Nsg16
Nsg107
Nsbag1
(g82
g3
NtRp1134
(dp1135
g85
Nsg86
S'OnWindowParentDrawnStateChanged'
p1136
sg88
g1
(g89
g3
NtRp1137
(dp1138
g10
(lp1139
g1
(g93
g3
NtRp1140
(dp1141
g85
Nsg86
S'window'
p1142
sg15
Nsg19
g20
sg97
S'uint64'
p1143
sg16
I490
sbag1
(g93
g3
NtRp1144
(dp1145
g85
Nsg86
S'drawn'
p1146
sg15
Nsg19
g20
sg97
S'bool'
p1147
sg16
I490
sbasg16
I490
sg19
g20
sbsg15
Nsg19
Nsg16
Nsg107
Nsbag1
(g82
g3
NtRp1148
(dp1149
g85
Nsg86
S'OnWindowSharedPropertyChanged'
p1150
sg88
g1
(g89
g3
NtRp1151
(dp1152
g10
(lp1153
g1
(g93
g3
NtRp1154
(dp1155
g85
Nsg86
S'window'
p1156
sg15
Nsg19
g20
sg97
S'uint64'
p1157
sg16
I494
sbag1
(g93
g3
NtRp1158
(dp1159
g85
Nsg86
S'name'
p1160
sg15
Nsg19
g20
sg97
S'string'
p1161
sg16
I495
sbag1
(g93
g3
NtRp1162
(dp1163
g85
Nsg86
S'new_data'
p1164
sg15
Nsg19
g20
sg97
S'uint8[]?'
p1165
sg16
I496
sbasg16
I494
sg19
g20
sbsg15
Nsg19
Nsg16
Nsg107
Nsbag1
(g82
g3
NtRp1166
(dp1167
g85
Nsg86
S'OnWindowInputEvent'
p1168
sg88
g1
(g89
g3
NtRp1169
(dp1170
g10
(lp1171
g1
(g93
g3
NtRp1172
(dp1173
g85
Nsg86
S'event_id'
p1174
sg15
Nsg19
g20
sg97
S'uint32'
p1175
sg16
I508
sbag1
(g93
g3
NtRp1176
(dp1177
g85
Nsg86
S'window'
p1178
sg15
Nsg19
g20
sg97
S'uint64'
p1179
sg16
I509
sbag1
(g93
g3
NtRp1180
(dp1181
g85
Nsg86
S'display_id'
p1182
sg15
Nsg19
g20
sg97
S'int64'
p1183
sg16
I510
sbag1
(g93
g3
NtRp1184
(dp1185
g85
Nsg86
S'display_root_window'
p1186
sg15
Nsg19
g20
sg97
S'uint64'
p1187
sg16
I511
sbag1
(g93
g3
NtRp1188
(dp1189
g85
Nsg86
S'event_location_in_screen_pixel_layout'
p1190
sg15
Nsg19
g20
sg97
S'gfx.mojom.PointF'
p1191
sg16
I512
sbag1
(g93
g3
NtRp1192
(dp1193
g85
Nsg86
S'event'
p1194
sg15
Nsg19
g20
sg97
S'ui.mojom.Event'
p1195
sg16
I513
sbag1
(g93
g3
NtRp1196
(dp1197
g85
Nsg86
S'matches_pointer_watcher'
p1198
sg15
Nsg19
g20
sg97
S'bool'
p1199
sg16
I514
sbasg16
I508
sg19
g20
sbsg15
Nsg19
Nsg16
Nsg107
Nsbag1
(g82
g3
NtRp1200
(dp1201
g85
Nsg86
S'OnPointerEventObserved'
p1202
sg88
g1
(g89
g3
NtRp1203
(dp1204
g10
(lp1205
g1
(g93
g3
NtRp1206
(dp1207
g85
Nsg86
S'event'
p1208
sg15
Nsg19
g20
sg97
S'ui.mojom.Event'
p1209
sg16
I521
sbag1
(g93
g3
NtRp1210
(dp1211
g85
Nsg86
S'window_id'
p1212
sg15
Nsg19
g20
sg97
S'uint64'
p1213
sg16
I522
sbag1
(g93
g3
NtRp1214
(dp1215
g85
Nsg86
S'display_id'
p1216
sg15
Nsg19
g20
sg97
S'int64'
p1217
sg16
I523
sbasg16
I521
sg19
g20
sbsg15
Nsg19
Nsg16
Nsg107
Nsbag1
(g82
g3
NtRp1218
(dp1219
g85
Nsg86
S'OnWindowFocused'
p1220
sg88
g1
(g89
g3
NtRp1221
(dp1222
g10
(lp1223
g1
(g93
g3
NtRp1224
(dp1225
g85
Nsg86
S'focused_window_id'
p1226
sg15
Nsg19
g20
sg97
S'uint64'
p1227
sg16
I530
sbasg16
I530
sg19
g20
sbsg15
Nsg19
Nsg16
Nsg107
Nsbag1
(g82
g3
NtRp1228
(dp1229
g85
Nsg86
S'OnWindowCursorChanged'
p1230
sg88
g1
(g89
g3
NtRp1231
(dp1232
g10
(lp1233
g1
(g93
g3
NtRp1234
(dp1235
g85
Nsg86
S'window_id'
p1236
sg15
Nsg19
g20
sg97
S'uint64'
p1237
sg16
I532
sbag1
(g93
g3
NtRp1238
(dp1239
g85
Nsg86
S'cursor'
p1240
sg15
Nsg19
g20
sg97
S'CursorData'
p1241
sg16
I532
sbasg16
I532
sg19
g20
sbsg15
Nsg19
Nsg16
Nsg107
Nsbag1
(g82
g3
NtRp1242
(dp1243
g85
Nsg86
S'OnWindowSurfaceChanged'
p1244
sg88
g1
(g89
g3
NtRp1245
(dp1246
g10
(lp1247
g1
(g93
g3
NtRp1248
(dp1249
g85
Nsg86
S'window_id'
p1250
sg15
Nsg19
g20
sg97
S'uint64'
p1251
sg16
I540
sbag1
(g93
g3
NtRp1252
(dp1253
g85
Nsg86
S'surface_info'
p1254
sg15
Nsg19
g20
sg97
S'viz.mojom.SurfaceInfo'
p1255
sg16
I541
sbasg16
I540
sg19
g20
sbsg15
Nsg19
Nsg16
Nsg107
Nsbag1
(g82
g3
NtRp1256
(dp1257
g85
Nsg86
S'OnDragDropStart'
p1258
sg88
g1
(g89
g3
NtRp1259
(dp1260
g10
(lp1261
g1
(g93
g3
NtRp1262
(dp1263
g85
Nsg86
S'drag_data'
p1264
sg15
Nsg19
g20
sg97
S'uint8[]{string}'
p1265
sg16
I547
sbasg16
I547
sg19
g20
sbsg15
Nsg19
Nsg16
Nsg107
Nsbag1
(g82
g3
NtRp1266
(dp1267
g85
Nsg86
S'OnDragEnter'
p1268
sg88
g1
(g89
g3
NtRp1269
(dp1270
g10
(lp1271
g1
(g93
g3
NtRp1272
(dp1273
g85
Nsg86
S'window'
p1274
sg15
Nsg19
g20
sg97
S'uint64'
p1275
sg16
I553
sbag1
(g93
g3
NtRp1276
(dp1277
g85
Nsg86
S'key_state'
p1278
sg15
Nsg19
g20
sg97
S'uint32'
p1279
sg16
I554
sbag1
(g93
g3
NtRp1280
(dp1281
g85
Nsg86
S'screen_position'
p1282
sg15
Nsg19
g20
sg97
S'gfx.mojom.Point'
p1283
sg16
I555
sbag1
(g93
g3
NtRp1284
(dp1285
g85
Nsg86
S'effect_bitmask'
p1286
sg15
Nsg19
g20
sg97
S'uint32'
p1287
sg16
I556
sbasg16
I553
sg19
g20
sbsg15
Nsg19
Nsg16
Nsg107
g1
(g89
g3
NtRp1288
(dp1289
g10
(lp1290
g1
(g93
g3
NtRp1291
(dp1292
g85
Nsg86
S'supported_op_bitmask'
p1293
sg15
Nsg19
g20
sg97
S'uint32'
p1294
sg16
I556
sbasg16
I556
sg19
g20
sbsbag1
(g82
g3
NtRp1295
(dp1296
g85
Nsg86
S'OnDragOver'
p1297
sg88
g1
(g89
g3
NtRp1298
(dp1299
g10
(lp1300
g1
(g93
g3
NtRp1301
(dp1302
g85
Nsg86
S'window'
p1303
sg15
Nsg19
g20
sg97
S'uint64'
p1304
sg16
I561
sbag1
(g93
g3
NtRp1305
(dp1306
g85
Nsg86
S'key_state'
p1307
sg15
Nsg19
g20
sg97
S'uint32'
p1308
sg16
I562
sbag1
(g93
g3
NtRp1309
(dp1310
g85
Nsg86
S'screen_position'
p1311
sg15
Nsg19
g20
sg97
S'gfx.mojom.Point'
p1312
sg16
I563
sbag1
(g93
g3
NtRp1313
(dp1314
g85
Nsg86
S'effect_bitmask'
p1315
sg15
Nsg19
g20
sg97
S'uint32'
p1316
sg16
I564
sbasg16
I561
sg19
g20
sbsg15
Nsg19
Nsg16
Nsg107
g1
(g89
g3
NtRp1317
(dp1318
g10
(lp1319
g1
(g93
g3
NtRp1320
(dp1321
g85
Nsg86
S'supported_op_bitmask'
p1322
sg15
Nsg19
g20
sg97
S'uint32'
p1323
sg16
I564
sbasg16
I564
sg19
g20
sbsbag1
(g82
g3
NtRp1324
(dp1325
g85
Nsg86
S'OnDragLeave'
p1326
sg88
g1
(g89
g3
NtRp1327
(dp1328
g10
(lp1329
g1
(g93
g3
NtRp1330
(dp1331
g85
Nsg86
S'window'
p1332
sg15
Nsg19
g20
sg97
S'uint64'
p1333
sg16
I568
sbasg16
I568
sg19
g20
sbsg15
Nsg19
Nsg16
Nsg107
Nsbag1
(g82
g3
NtRp1334
(dp1335
g85
Nsg86
S'OnCompleteDrop'
p1336
sg88
g1
(g89
g3
NtRp1337
(dp1338
g10
(lp1339
g1
(g93
g3
NtRp1340
(dp1341
g85
Nsg86
S'window'
p1342
sg15
Nsg19
g20
sg97
S'uint64'
p1343
sg16
I572
sbag1
(g93
g3
NtRp1344
(dp1345
g85
Nsg86
S'key_state'
p1346
sg15
Nsg19
g20
sg97
S'uint32'
p1347
sg16
I573
sbag1
(g93
g3
NtRp1348
(dp1349
g85
Nsg86
S'screen_position'
p1350
sg15
Nsg19
g20
sg97
S'gfx.mojom.Point'
p1351
sg16
I574
sbag1
(g93
g3
NtRp1352
(dp1353
g85
Nsg86
S'effect_bitmask'
p1354
sg15
Nsg19
g20
sg97
S'uint32'
p1355
sg16
I575
sbasg16
I572
sg19
g20
sbsg15
Nsg19
Nsg16
Nsg107
g1
(g89
g3
NtRp1356
(dp1357
g10
(lp1358
g1
(g93
g3
NtRp1359
(dp1360
g85
Nsg86
S'action_taken'
p1361
sg15
Nsg19
g20
sg97
S'uint32'
p1362
sg16
I575
sbasg16
I575
sg19
g20
sbsbag1
(g82
g3
NtRp1363
(dp1364
g85
Nsg86
S'OnPerformDragDropCompleted'
p1365
sg88
g1
(g89
g3
NtRp1366
(dp1367
g10
(lp1368
g1
(g93
g3
NtRp1369
(dp1370
g85
Nsg86
S'change_id'
p1371
sg15
Nsg19
g20
sg97
S'uint32'
p1372
sg16
I579
sbag1
(g93
g3
NtRp1373
(dp1374
g85
Nsg86
S'success'
p1375
sg15
Nsg19
g20
sg97
S'bool'
p1376
sg16
I580
sbag1
(g93
g3
NtRp1377
(dp1378
g85
Nsg86
S'action_taken'
p1379
sg15
Nsg19
g20
sg97
S'uint32'
p1380
sg16
I581
sbasg16
I579
sg19
g20
sbsg15
Nsg19
Nsg16
Nsg107
Nsbag1
(g82
g3
NtRp1381
(dp1382
g85
Nsg86
S'OnDragDropDone'
p1383
sg88
g1
(g89
g3
NtRp1384
(dp1385
g10
(lp1386
sg16
Nsg19
Nsbsg15
Nsg19
Nsg16
Nsg107
Nsbag1
(g82
g3
NtRp1387
(dp1388
g85
Nsg86
S'OnChangeCompleted'
p1389
sg88
g1
(g89
g3
NtRp1390
(dp1391
g10
(lp1392
g1
(g93
g3
NtRp1393
(dp1394
g85
Nsg86
S'change_id'
p1395
sg15
Nsg19
g20
sg97
S'uint32'
p1396
sg16
I590
sbag1
(g93
g3
NtRp1397
(dp1398
g85
Nsg86
S'success'
p1399
sg15
Nsg19
g20
sg97
S'bool'
p1400
sg16
I590
sbasg16
I590
sg19
g20
sbsg15
Nsg19
Nsg16
Nsg107
Nsbag1
(g82
g3
NtRp1401
(dp1402
g85
Nsg86
S'RequestClose'
p1403
sg88
g1
(g89
g3
NtRp1404
(dp1405
g10
(lp1406
g1
(g93
g3
NtRp1407
(dp1408
g85
Nsg86
S'window_id'
p1409
sg15
Nsg19
g20
sg97
S'uint64'
p1410
sg16
I594
sbasg16
I594
sg19
g20
sbsg15
Nsg19
Nsg16
Nsg107
Nsbag1
(g82
g3
NtRp1411
(dp1412
g85
Nsg86
S'GetWindowManager'
p1413
sg88
g1
(g89
g3
NtRp1414
(dp1415
g10
(lp1416
g1
(g93
g3
NtRp1417
(dp1418
g85
Nsg86
S'internal'
p1419
sg15
Nsg19
g20
sg97
S'asso<WindowManager&>'
p1420
sg16
I597
sbasg16
I597
sg19
g20
sbsg15
Nsg19
Nsg16
Nsg107
Nsbasg16
Nsg19
Nsbsg15
Nsg16
Nsg86
S'WindowTreeClient'
p1421
sg19
Nsbag1
(g74
g3
NtRp1422
(dp1423
g77
g1
(g78
g3
NtRp1424
(dp1425
g10
(lp1426
g1
(g82
g3
NtRp1427
(dp1428
g85
Nsg86
S'CreateWindowTree'
p1429
sg88
g1
(g89
g3
NtRp1430
(dp1431
g10
(lp1432
g1
(g93
g3
NtRp1433
(dp1434
g85
Nsg86
S'tree_request'
p1435
sg15
Nsg19
g20
sg97
S'WindowTree&'
p1436
sg16
I604
sbag1
(g93
g3
NtRp1437
(dp1438
g85
Nsg86
S'client'
p1439
sg15
Nsg19
g20
sg97
S'WindowTreeClient'
p1440
sg16
I604
sbasg16
I604
sg19
g20
sbsg15
Nsg19
Nsg16
Nsg107
Nsbasg16
Nsg19
Nsbsg15
Nsg16
Nsg86
S'WindowTreeFactory'
p1441
sg19
Nsbasg16
NsS'module'
p1442
g1
(cmojom.parse.ast
Module
p1443
g3
NtRp1444
(dp1445
S'mojom_namespace'
p1446
(S'IDENTIFIER'
p1447
S'ui.mojom'
tp1448
sg16
I5
sg15
Nsg19
g20
sbsg19
Nsb.