ccopy_reg
_reconstructor
p1
(cmojom.parse.ast
Mojom
p2
c__builtin__
object
p3
NtRp4
(dp5
S'import_list'
p6
g1
(cmojom.parse.ast
ImportList
p7
g3
NtRp8
(dp9
S'items'
p10
(lp11
g1
(cmojom.parse.ast
Import
p12
g3
NtRp13
(dp14
S'attribute_list'
p15
NsS'lineno'
p16
I7
sS'import_filename'
p17
S'ui/gfx/geometry/mojo/geometry.mojom'
p18
sS'filename'
p19
S'../../services/ui/public/interfaces/window_tree_constants.mojom'
p20
sbasg16
I7
sg19
g20
sbsS'definition_list'
p21
(lp22
g1
(cmojom.parse.ast
Struct
p23
g3
NtRp24
(dp25
S'body'
p26
g1
(cmojom.parse.ast
StructBody
p27
g3
NtRp28
(dp29
g10
(lp30
g1
(cmojom.parse.ast
StructField
p31
g3
NtRp32
(dp33
S'ordinal'
p34
NsS'default_value'
p35
NsS'mojom_name'
p36
S'parent_id'
p37
sg15
Nsg19
NsS'typename'
p38
S'uint64'
p39
sg16
Nsbag1
(g31
g3
NtRp40
(dp41
g34
Nsg35
Nsg36
S'window_id'
p42
sg15
Nsg19
Nsg38
S'uint64'
p43
sg16
Nsbag1
(g31
g3
NtRp44
(dp45
g34
Nsg35
Nsg36
S'transient_parent_id'
p46
sg15
Nsg19
Nsg38
S'uint64'
p47
sg16
Nsbag1
(g31
g3
NtRp48
(dp49
g34
Nsg35
Nsg36
S'bounds'
p50
sg15
Nsg19
Nsg38
S'gfx.mojom.Rect'
p51
sg16
Nsbag1
(g31
g3
NtRp52
(dp53
g34
Nsg35
Nsg36
S'properties'
p54
sg15
Nsg19
Nsg38
S'uint8[]{string}'
p55
sg16
Nsbag1
(g31
g3
NtRp56
(dp57
g34
Nsg35
Nsg36
S'visible'
p58
sg15
Nsg19
Nsg38
S'bool'
p59
sg16
Nsbasg16
Nsg19
Nsbsg15
Nsg16
Nsg36
S'WindowData'
p60
sg19
Nsbag1
(cmojom.parse.ast
Enum
p61
g3
NtRp62
(dp63
g15
NsS'enum_value_list'
p64
g1
(cmojom.parse.ast
EnumValueList
p65
g3
NtRp66
(dp67
g10
(lp68
g1
(cmojom.parse.ast
EnumValue
p69
g3
NtRp70
(dp71
g15
NsS'value'
p72
Nsg16
I34
sg36
S'HANDLED'
p73
sg19
g20
sbag1
(g69
g3
NtRp74
(dp75
g15
Nsg72
Nsg16
I35
sg36
S'UNHANDLED'
p76
sg19
g20
sbasg16
I34
sg19
g20
sbsg16
I33
sg36
S'EventResult'
p77
sg19
g20
sbag1
(g61
g3
NtRp78
(dp79
g15
Nsg64
g1
(g65
g3
NtRp80
(dp81
g10
(lp82
g1
(g69
g3
NtRp83
(dp84
g15
Nsg72
Nsg16
I41
sg36
S'TARGET_ONLY'
p85
sg19
g20
sbag1
(g69
g3
NtRp86
(dp87
g15
Nsg72
Nsg16
I44
sg36
S'TARGET_AND_DESCENDANTS'
p88
sg19
g20
sbag1
(g69
g3
NtRp89
(dp90
g15
Nsg72
Nsg16
I47
sg36
S'DESCENDANTS_ONLY'
p91
sg19
g20
sbag1
(g69
g3
NtRp92
(dp93
g15
Nsg72
Nsg16
I50
sg36
S'NONE'
p94
sg19
g20
sbasg16
I41
sg19
g20
sbsg16
I38
sg36
S'EventTargetingPolicy'
p95
sg19
g20
sbag1
(cmojom.parse.ast
Const
p96
g3
NtRp97
(dp98
g36
S'kDropEffectNone'
p99
sg15
Nsg72
S'0'
sg19
Nsg38
S'uint32'
p100
sg16
Nsbag1
(g96
g3
NtRp101
(dp102
g36
S'kDropEffectMove'
p103
sg15
Nsg72
S'1'
sg19
Nsg38
S'uint32'
p104
sg16
Nsbag1
(g96
g3
NtRp105
(dp106
g36
S'kDropEffectCopy'
p107
sg15
Nsg72
S'2'
sg19
Nsg38
S'uint32'
p108
sg16
Nsbag1
(g96
g3
NtRp109
(dp110
g36
S'kDropEffectLink'
p111
sg15
Nsg72
S'4'
sg19
Nsg38
S'uint32'
p112
sg16
Nsbag1
(g96
g3
NtRp113
(dp114
g36
S'kEmbedFlagEmbedderInterceptsEvents'
p115
sg15
Nsg72
S'0x01'
p116
sg19
Nsg38
S'uint32'
p117
sg16
Nsbag1
(g96
g3
NtRp118
(dp119
g36
S'kEmbedFlagEmbedderControlsVisibility'
p120
sg15
Nsg72
S'0x02'
p121
sg19
Nsg38
S'uint32'
p122
sg16
Nsbasg16
NsS'module'
p123
g1
(cmojom.parse.ast
Module
p124
g3
NtRp125
(dp126
S'mojom_namespace'
p127
(S'IDENTIFIER'
p128
S'ui.mojom'
tp129
sg16
I5
sg15
Nsg19
g20
sbsg19
Nsb.