ccopy_reg
_reconstructor
p1
(cmojom.parse.ast
Mojom
p2
c__builtin__
object
p3
NtRp4
(dp5
S'import_list'
p6
g1
(cmojom.parse.ast
ImportList
p7
g3
NtRp8
(dp9
S'items'
p10
(lp11
g1
(cmojom.parse.ast
Import
p12
g3
NtRp13
(dp14
S'attribute_list'
p15
NsS'lineno'
p16
I7
sS'import_filename'
p17
S'ui/display/mojo/display.mojom'
p18
sS'filename'
p19
S'../../services/ui/public/interfaces/window_manager_constants.mojom'
p20
sbag1
(g12
g3
NtRp21
(dp22
g15
Nsg16
I8
sg17
S'ui/gfx/geometry/mojo/geometry.mojom'
p23
sg19
g20
sbasg16
I7
sg19
g20
sbsS'definition_list'
p24
(lp25
g1
(cmojom.parse.ast
Enum
p26
g3
NtRp27
(dp28
g15
NsS'enum_value_list'
p29
g1
(cmojom.parse.ast
EnumValueList
p30
g3
NtRp31
(dp32
g10
(lp33
g1
(cmojom.parse.ast
EnumValue
p34
g3
NtRp35
(dp36
g15
NsS'value'
p37
Nsg16
I11
sS'mojom_name'
p38
S'SUCCESS'
p39
sg19
g20
sbag1
(g34
g3
NtRp40
(dp41
g15
Nsg37
Nsg16
I12
sg38
S'ACCESS_DENIED'
p42
sg19
g20
sbasg16
I11
sg19
g20
sbsg16
I10
sg38
S'WindowManagerErrorCode'
p43
sg19
g20
sbag1
(g26
g3
NtRp44
(dp45
g15
Nsg29
g1
(g30
g3
NtRp46
(dp47
g10
(lp48
g1
(g34
g3
NtRp49
(dp50
g15
Nsg37
Nsg16
I19
sg38
S'DEFAULT'
p51
sg19
g20
sbag1
(g34
g3
NtRp52
(dp53
g15
Nsg37
Nsg16
I20
sg38
S'NORMAL'
p54
sg19
g20
sbag1
(g34
g3
NtRp55
(dp56
g15
Nsg37
Nsg16
I21
sg38
S'MINIMIZED'
p57
sg19
g20
sbag1
(g34
g3
NtRp58
(dp59
g15
Nsg37
Nsg16
I22
sg38
S'MAXIMIZED'
p60
sg19
g20
sbag1
(g34
g3
NtRp61
(dp62
g15
Nsg37
Nsg16
I23
sg38
S'INACTIVE'
p63
sg19
g20
sbag1
(g34
g3
NtRp64
(dp65
g15
Nsg37
Nsg16
I24
sg38
S'FULLSCREEN'
p66
sg19
g20
sbasg16
I19
sg19
g20
sbsg16
I18
sg38
S'ShowState'
p67
sg19
g20
sbag1
(cmojom.parse.ast
Const
p68
g3
NtRp69
(dp70
g38
S'kResizeBehaviorNone'
p71
sg15
Nsg37
S'0'
sg19
NsS'typename'
p72
S'int32'
p73
sg16
Nsbag1
(g68
g3
NtRp74
(dp75
g38
S'kResizeBehaviorCanResize'
p76
sg15
Nsg37
S'1'
sg19
Nsg72
S'int32'
p77
sg16
Nsbag1
(g68
g3
NtRp78
(dp79
g38
S'kResizeBehaviorCanMaximize'
p80
sg15
Nsg37
S'2'
sg19
Nsg72
S'int32'
p81
sg16
Nsbag1
(g68
g3
NtRp82
(dp83
g38
S'kResizeBehaviorCanMinimize'
p84
sg15
Nsg37
S'4'
sg19
Nsg72
S'int32'
p85
sg16
Nsbag1
(cmojom.parse.ast
Struct
p86
g3
NtRp87
(dp88
S'body'
p89
g1
(cmojom.parse.ast
StructBody
p90
g3
NtRp91
(dp92
g10
(lp93
g1
(cmojom.parse.ast
StructField
p94
g3
NtRp95
(dp96
S'ordinal'
p97
NsS'default_value'
p98
Nsg38
S'normal_client_area_insets'
p99
sg15
Nsg19
Nsg72
S'gfx.mojom.Insets'
p100
sg16
Nsbag1
(g94
g3
NtRp101
(dp102
g97
Nsg98
Nsg38
S'maximized_client_area_insets'
p103
sg15
Nsg19
Nsg72
S'gfx.mojom.Insets'
p104
sg16
Nsbag1
(g94
g3
NtRp105
(dp106
g97
Nsg98
Nsg38
S'max_title_bar_button_width'
p107
sg15
Nsg19
Nsg72
S'uint32'
p108
sg16
Nsbasg16
Nsg19
Nsbsg15
Nsg16
Nsg38
S'FrameDecorationValues'
p109
sg19
Nsbag1
(g86
g3
NtRp110
(dp111
g89
g1
(g90
g3
NtRp112
(dp113
g10
(lp114
g1
(g94
g3
NtRp115
(dp116
g97
Nsg98
Nsg38
S'display'
p117
sg15
Nsg19
Nsg72
S'display.mojom.Display'
p118
sg16
Nsbag1
(g94
g3
NtRp119
(dp120
g97
Nsg98
Nsg38
S'frame_decoration_values'
p121
sg15
Nsg19
Nsg72
S'FrameDecorationValues'
p122
sg16
Nsbasg16
Nsg19
Nsbsg15
Nsg16
Nsg38
S'WsDisplay'
p123
sg19
Nsbag1
(g26
g3
NtRp124
(dp125
g15
Nsg29
g1
(g30
g3
NtRp126
(dp127
g10
(lp128
g1
(g34
g3
NtRp129
(dp130
g15
Nsg37
Nsg16
I49
sg38
S'MOUSE'
p131
sg19
g20
sbag1
(g34
g3
NtRp132
(dp133
g15
Nsg37
Nsg16
I50
sg38
S'TOUCH'
p134
sg19
g20
sbasg16
I49
sg19
g20
sbsg16
I48
sg38
S'MoveLoopSource'
p135
sg19
g20
sbag1
(g26
g3
NtRp136
(dp137
g15
Nsg29
g1
(g30
g3
NtRp138
(dp139
g10
(lp140
g1
(g34
g3
NtRp141
(dp142
g15
Nsg37
Nsg16
I57
sg38
S'WINDOW'
p143
sg19
g20
sbag1
(g34
g3
NtRp144
(dp145
g15
Nsg37
Nsg16
I58
sg38
S'PANEL'
p146
sg19
g20
sbag1
(g34
g3
NtRp147
(dp148
g15
Nsg37
Nsg16
I59
sg38
S'WINDOW_FRAMELESS'
p149
sg19
g20
sbag1
(g34
g3
NtRp150
(dp151
g15
Nsg37
Nsg16
I60
sg38
S'CONTROL'
p152
sg19
g20
sbag1
(g34
g3
NtRp153
(dp154
g15
Nsg37
Nsg16
I61
sg38
S'POPUP'
p155
sg19
g20
sbag1
(g34
g3
NtRp156
(dp157
g15
Nsg37
Nsg16
I62
sg38
S'MENU'
p158
sg19
g20
sbag1
(g34
g3
NtRp159
(dp160
g15
Nsg37
Nsg16
I63
sg38
S'TOOLTIP'
p161
sg19
g20
sbag1
(g34
g3
NtRp162
(dp163
g15
Nsg37
Nsg16
I64
sg38
S'BUBBLE'
p164
sg19
g20
sbag1
(g34
g3
NtRp165
(dp166
g15
Nsg37
Nsg16
I65
sg38
S'DRAG'
p167
sg19
g20
sbag1
(g34
g3
NtRp168
(dp169
g15
Nsg37
Nsg16
I66
sg38
S'UNKNOWN'
p170
sg19
g20
sbasg16
I57
sg19
g20
sbsg16
I53
sg38
S'WindowType'
p171
sg19
g20
sbag1
(g86
g3
NtRp172
(dp173
g89
g1
(g90
g3
NtRp174
(dp175
g10
(lp176
g1
(g94
g3
NtRp177
(dp178
g97
Nsg98
Nsg38
S'bounds_in_pixels'
p179
sg15
Nsg19
Nsg72
S'gfx.mojom.Rect'
p180
sg16
Nsbag1
(g94
g3
NtRp181
(dp182
g97
Nsg98
Nsg38
S'device_scale_factor'
p183
sg15
Nsg19
Nsg72
S'float'
p184
sg16
Nsbag1
(g94
g3
NtRp185
(dp186
g97
Nsg98
Nsg38
S'ui_scale_factor'
p187
sg15
Nsg19
Nsg72
S'float'
p188
sg16
Nsbasg16
Nsg19
Nsbsg15
Nsg16
Nsg38
S'WmViewportMetrics'
p189
sg19
Nsbag1
(g68
g3
NtRp190
(dp191
g38
S'kCursorMultiplierForExternalDisplays'
p192
sg15
Nsg37
S'1.2'
p193
sg19
Nsg72
S'float'
p194
sg16
Nsbag1
(g86
g3
NtRp195
(dp196
g89
g1
(g90
g3
NtRp197
(dp198
g10
(lp199
g1
(g94
g3
NtRp200
(dp201
g97
Nsg98
Nsg38
S'system_modal_container_id'
p202
sg15
Nsg19
Nsg72
S'uint64'
p203
sg16
Nsbag1
(g94
g3
NtRp204
(dp205
g97
Nsg98
Nsg38
S'min_container_id'
p206
sg15
Nsg19
Nsg72
S'uint64'
p207
sg16
Nsbasg16
Nsg19
Nsbsg15
Nsg16
Nsg38
S'BlockingContainers'
p208
sg19
Nsbasg16
NsS'module'
p209
g1
(cmojom.parse.ast
Module
p210
g3
NtRp211
(dp212
S'mojom_namespace'
p213
(S'IDENTIFIER'
p214
S'ui.mojom'
tp215
sg16
I5
sg15
Nsg19
g20
sbsg19
Nsb.