ccopy_reg
_reconstructor
p1
(cmojom.parse.ast
Mojom
p2
c__builtin__
object
p3
NtRp4
(dp5
S'import_list'
p6
g1
(cmojom.parse.ast
ImportList
p7
g3
NtRp8
(dp9
S'items'
p10
(lp11
g1
(cmojom.parse.ast
Import
p12
g3
NtRp13
(dp14
S'attribute_list'
p15
NsS'lineno'
p16
I7
sS'import_filename'
p17
S'gpu/ipc/common/surface_handle.mojom'
p18
sS'filename'
p19
S'../../services/ui/public/interfaces/window_manager.mojom'
p20
sbag1
(g12
g3
NtRp21
(dp22
g15
Nsg16
I8
sg17
S'services/ui/public/interfaces/cursor/cursor.mojom'
p23
sg19
g20
sbag1
(g12
g3
NtRp24
(dp25
g15
Nsg16
I9
sg17
S'services/ui/public/interfaces/event_matcher.mojom'
p26
sg19
g20
sbag1
(g12
g3
NtRp27
(dp28
g15
Nsg16
I10
sg17
S'services/ui/public/interfaces/window_manager_constants.mojom'
p29
sg19
g20
sbag1
(g12
g3
NtRp30
(dp31
g15
Nsg16
I11
sg17
S'services/ui/public/interfaces/window_tree_constants.mojom'
p32
sg19
g20
sbag1
(g12
g3
NtRp33
(dp34
g15
Nsg16
I12
sg17
S'services/viz/public/interfaces/compositing/frame_sink_id.mojom'
p35
sg19
g20
sbag1
(g12
g3
NtRp36
(dp37
g15
Nsg16
I13
sg17
S'services/viz/public/interfaces/compositing/local_surface_id.mojom'
p38
sg19
g20
sbag1
(g12
g3
NtRp39
(dp40
g15
Nsg16
I14
sg17
S'skia/public/interfaces/bitmap.mojom'
p41
sg19
g20
sbag1
(g12
g3
NtRp42
(dp43
g15
Nsg16
I15
sg17
S'ui/base/mojo/ui_base_types.mojom'
p44
sg19
g20
sbag1
(g12
g3
NtRp45
(dp46
g15
Nsg16
I16
sg17
S'ui/display/mojo/display.mojom'
p47
sg19
g20
sbag1
(g12
g3
NtRp48
(dp49
g15
Nsg16
I17
sg17
S'ui/events/mojo/event.mojom'
p50
sg19
g20
sbag1
(g12
g3
NtRp51
(dp52
g15
Nsg16
I18
sg17
S'ui/events/mojo/event_constants.mojom'
p53
sg19
g20
sbag1
(g12
g3
NtRp54
(dp55
g15
Nsg16
I19
sg17
S'ui/gfx/geometry/mojo/geometry.mojom'
p56
sg19
g20
sbag1
(g12
g3
NtRp57
(dp58
g15
Nsg16
I20
sg17
S'ui/display/mojo/display.mojom'
p59
sg19
g20
sbasg16
I7
sg19
g20
sbsS'definition_list'
p60
(lp61
g1
(cmojom.parse.ast
Interface
p62
g3
NtRp63
(dp64
S'body'
p65
g1
(cmojom.parse.ast
InterfaceBody
p66
g3
NtRp67
(dp68
g10
(lp69
g1
(cmojom.parse.ast
Const
p70
g3
NtRp71
(dp72
S'mojom_name'
p73
S'kFocusable_InitProperty'
p74
sg15
NsS'value'
p75
S'"init:focusable"'
p76
sg19
NsS'typename'
p77
S'string'
p78
sg16
Nsbag1
(g70
g3
NtRp79
(dp80
g73
S'kTranslucent_InitProperty'
p81
sg15
Nsg75
S'"init:translucent"'
p82
sg19
Nsg77
S'string'
p83
sg16
Nsbag1
(g70
g3
NtRp84
(dp85
g73
S'kBounds_InitProperty'
p86
sg15
Nsg75
S'"init:bounds"'
p87
sg19
Nsg77
S'string'
p88
sg16
Nsbag1
(g70
g3
NtRp89
(dp90
g73
S'kContainerId_InitProperty'
p91
sg15
Nsg75
S'"init:container_id"'
p92
sg19
Nsg77
S'string'
p93
sg16
Nsbag1
(g70
g3
NtRp94
(dp95
g73
S'kDisableImmersive_InitProperty'
p96
sg15
Nsg75
S'"init:disable_immersive"'
p97
sg19
Nsg77
S'string'
p98
sg16
Nsbag1
(g70
g3
NtRp99
(dp100
g73
S'kDisplayId_InitProperty'
p101
sg15
Nsg75
S'"init:display_id"'
p102
sg19
Nsg77
S'string'
p103
sg16
Nsbag1
(g70
g3
NtRp104
(dp105
g73
S'kRemoveStandardFrame_InitProperty'
p106
sg15
Nsg75
S'"init:remove-standard-frame"'
p107
sg19
Nsg77
S'string'
p108
sg16
Nsbag1
(g70
g3
NtRp109
(dp110
g73
S'kActiveFrameColor_InitProperty'
p111
sg15
Nsg75
S'"init:active-frame-color"'
p112
sg19
Nsg77
S'string'
p113
sg16
Nsbag1
(g70
g3
NtRp114
(dp115
g73
S'kInactiveFrameColor_InitProperty'
p116
sg15
Nsg75
S'"init:inactive-frame-color"'
p117
sg19
Nsg77
S'string'
p118
sg16
Nsbag1
(g70
g3
NtRp119
(dp120
g73
S'kWindowIgnoredByShelf_InitProperty'
p121
sg15
Nsg75
S'"init:window-ignored-by-shelf"'
p122
sg19
Nsg77
S'string'
p123
sg16
Nsbag1
(g70
g3
NtRp124
(dp125
g73
S'kWindowType_InitProperty'
p126
sg15
Nsg75
S'"init:window-type"'
p127
sg19
Nsg77
S'string'
p128
sg16
Nsbag1
(g70
g3
NtRp129
(dp130
g73
S'kAlwaysOnTop_Property'
p131
sg15
Nsg75
S'"prop:always_on_top"'
p132
sg19
Nsg77
S'string'
p133
sg16
Nsbag1
(g70
g3
NtRp134
(dp135
g73
S'kAppIcon_Property'
p136
sg15
Nsg75
S'"prop:app-icon"'
p137
sg19
Nsg77
S'string'
p138
sg16
Nsbag1
(g70
g3
NtRp139
(dp140
g73
S'kDrawAttention_Property'
p141
sg15
Nsg75
S'"prop:draw-attention"'
p142
sg19
Nsg77
S'string'
p143
sg16
Nsbag1
(g70
g3
NtRp144
(dp145
g73
S'kExcludeFromMru_Property'
p146
sg15
Nsg75
S'"prop:exclude_from_mru"'
p147
sg19
Nsg77
S'string'
p148
sg16
Nsbag1
(g70
g3
NtRp149
(dp150
g73
S'kImmersiveFullscreen_Property'
p151
sg15
Nsg75
S'"prop:immersive-fullscreen"'
p152
sg19
Nsg77
S'string'
p153
sg16
Nsbag1
(g70
g3
NtRp154
(dp155
g73
S'kMinimumSize_Property'
p156
sg15
Nsg75
S'"prop:minimum-size"'
p157
sg19
Nsg77
S'string'
p158
sg16
Nsbag1
(g70
g3
NtRp159
(dp160
g73
S'kName_Property'
p161
sg15
Nsg75
S'"prop:name"'
p162
sg19
Nsg77
S'string'
p163
sg16
Nsbag1
(g70
g3
NtRp164
(dp165
g73
S'kPanelAttached_Property'
p166
sg15
Nsg75
S'"prop:panel-attached"'
p167
sg19
Nsg77
S'string'
p168
sg16
Nsbag1
(g70
g3
NtRp169
(dp170
g73
S'kPreferredSize_Property'
p171
sg15
Nsg75
S'"prop:preferred-size"'
p172
sg19
Nsg77
S'string'
p173
sg16
Nsbag1
(g70
g3
NtRp174
(dp175
g73
S'kRenderParentTitleArea_Property'
p176
sg15
Nsg75
S'"render-parent-non-client-area"'
p177
sg19
Nsg77
S'string'
p178
sg16
Nsbag1
(g70
g3
NtRp179
(dp180
g73
S'kResizeBehavior_Property'
p181
sg15
Nsg75
S'"prop:resize-behavior"'
p182
sg19
Nsg77
S'string'
p183
sg16
Nsbag1
(g70
g3
NtRp184
(dp185
g73
S'kRestoreBounds_Property'
p186
sg15
Nsg75
S'"prop:restore-bounds"'
p187
sg19
Nsg77
S'string'
p188
sg16
Nsbag1
(g70
g3
NtRp189
(dp190
g73
S'kShadowElevation_Property'
p191
sg15
Nsg75
S'"prop:shadow-elevation"'
p192
sg19
Nsg77
S'string'
p193
sg16
Nsbag1
(g70
g3
NtRp194
(dp195
g73
S'kShelfID_Property'
p196
sg15
Nsg75
S'"prop:shelf-id"'
p197
sg19
Nsg77
S'string'
p198
sg16
Nsbag1
(g70
g3
NtRp199
(dp200
g73
S'kShelfItemType_Property'
p201
sg15
Nsg75
S'"prop:shelf-item-type"'
p202
sg19
Nsg77
S'string'
p203
sg16
Nsbag1
(g70
g3
NtRp204
(dp205
g73
S'kShowState_Property'
p206
sg15
Nsg75
S'"prop:show-state"'
p207
sg19
Nsg77
S'string'
p208
sg16
Nsbag1
(g70
g3
NtRp209
(dp210
g73
S'kWindowCornerRadius_Property'
p211
sg15
Nsg75
S'"prop:window-corner-radius"'
p212
sg19
Nsg77
S'string'
p213
sg16
Nsbag1
(g70
g3
NtRp214
(dp215
g73
S'kWindowIcon_Property'
p216
sg15
Nsg75
S'"prop:window-icon"'
p217
sg19
Nsg77
S'string'
p218
sg16
Nsbag1
(g70
g3
NtRp219
(dp220
g73
S'kWindowTitle_Property'
p221
sg15
Nsg75
S'"prop:window-title"'
p222
sg19
Nsg77
S'string'
p223
sg16
Nsbag1
(g70
g3
NtRp224
(dp225
g73
S'kWindowTitleShown_Property'
p226
sg15
Nsg75
S'"prop:window-title-shown"'
p227
sg19
Nsg77
S'string'
p228
sg16
Nsbag1
(cmojom.parse.ast
Method
p229
g3
NtRp230
(dp231
S'ordinal'
p232
Nsg73
S'OnConnect'
p233
sS'parameter_list'
p234
g1
(cmojom.parse.ast
ParameterList
p235
g3
NtRp236
(dp237
g10
(lp238
sg16
Nsg19
Nsbsg15
Nsg19
Nsg16
NsS'response_parameter_list'
p239
Nsbag1
(g229
g3
NtRp240
(dp241
g232
Nsg73
S'WmOnAcceleratedWidgetForDisplay'
p242
sg234
g1
(g235
g3
NtRp243
(dp244
g10
(lp245
g1
(cmojom.parse.ast
Parameter
p246
g3
NtRp247
(dp248
g232
Nsg73
S'display_id'
p249
sg15
Nsg19
g20
sg77
S'int64'
p250
sg16
I183
sbag1
(g246
g3
NtRp251
(dp252
g232
Nsg73
S'surface_handle'
p253
sg15
Nsg19
g20
sg77
S'gpu.mojom.SurfaceHandle'
p254
sg16
I184
sbasg16
I183
sg19
g20
sbsg15
Nsg19
Nsg16
Nsg239
Nsbag1
(g229
g3
NtRp255
(dp256
g232
Nsg73
S'WmNewDisplayAdded'
p257
sg234
g1
(g235
g3
NtRp258
(dp259
g10
(lp260
g1
(g246
g3
NtRp261
(dp262
g232
Nsg73
S'display'
p263
sg15
Nsg19
g20
sg77
S'display.mojom.Display'
p264
sg16
I189
sbag1
(g246
g3
NtRp265
(dp266
g232
Nsg73
S'root'
p267
sg15
Nsg19
g20
sg77
S'WindowData'
p268
sg16
I190
sbag1
(g246
g3
NtRp269
(dp270
g232
Nsg73
S'parent_drawn'
p271
sg15
Nsg19
g20
sg77
S'bool'
p272
sg16
I191
sbag1
(g246
g3
NtRp273
(dp274
g232
Nsg73
S'local_surface_id'
p275
sg15
Nsg19
g20
sg77
S'viz.mojom.LocalSurfaceId?'
p276
sg16
I192
sbasg16
I189
sg19
g20
sbsg15
Nsg19
Nsg16
Nsg239
Nsbag1
(g229
g3
NtRp277
(dp278
g232
Nsg73
S'WmDisplayRemoved'
p279
sg234
g1
(g235
g3
NtRp280
(dp281
g10
(lp282
g1
(g246
g3
NtRp283
(dp284
g232
Nsg73
S'display_id'
p285
sg15
Nsg19
g20
sg77
S'int64'
p286
sg16
I197
sbasg16
I197
sg19
g20
sbsg15
Nsg19
Nsg16
Nsg239
Nsbag1
(g229
g3
NtRp287
(dp288
g232
Nsg73
S'WmDisplayModified'
p289
sg234
g1
(g235
g3
NtRp290
(dp291
g10
(lp292
g1
(g246
g3
NtRp293
(dp294
g232
Nsg73
S'display'
p295
sg15
Nsg19
g20
sg77
S'display.mojom.Display'
p296
sg16
I201
sbasg16
I201
sg19
g20
sbsg15
Nsg19
Nsg16
Nsg239
Nsbag1
(g229
g3
NtRp297
(dp298
g232
Nsg73
S'WmSetBounds'
p299
sg234
g1
(g235
g3
NtRp300
(dp301
g10
(lp302
g1
(g246
g3
NtRp303
(dp304
g232
Nsg73
S'change_id'
p305
sg15
Nsg19
g20
sg77
S'uint32'
p306
sg16
I205
sbag1
(g246
g3
NtRp307
(dp308
g232
Nsg73
S'window_id'
p309
sg15
Nsg19
g20
sg77
S'uint64'
p310
sg16
I205
sbag1
(g246
g3
NtRp311
(dp312
g232
Nsg73
S'bounds'
p313
sg15
Nsg19
g20
sg77
S'gfx.mojom.Rect'
p314
sg16
I205
sbasg16
I205
sg19
g20
sbsg15
Nsg19
Nsg16
Nsg239
Nsbag1
(g229
g3
NtRp315
(dp316
g232
Nsg73
S'WmSetProperty'
p317
sg234
g1
(g235
g3
NtRp318
(dp319
g10
(lp320
g1
(g246
g3
NtRp321
(dp322
g232
Nsg73
S'change_id'
p323
sg15
Nsg19
g20
sg77
S'uint32'
p324
sg16
I206
sbag1
(g246
g3
NtRp325
(dp326
g232
Nsg73
S'window_id'
p327
sg15
Nsg19
g20
sg77
S'uint64'
p328
sg16
I207
sbag1
(g246
g3
NtRp329
(dp330
g232
Nsg73
S'name'
p331
sg15
Nsg19
g20
sg77
S'string'
p332
sg16
I208
sbag1
(g246
g3
NtRp333
(dp334
g232
Nsg73
S'value'
p335
sg15
Nsg19
g20
sg77
S'uint8[]?'
p336
sg16
I209
sbasg16
I206
sg19
g20
sbsg15
Nsg19
Nsg16
Nsg239
Nsbag1
(g229
g3
NtRp337
(dp338
g232
Nsg73
S'WmSetModalType'
p339
sg234
g1
(g235
g3
NtRp340
(dp341
g10
(lp342
g1
(g246
g3
NtRp343
(dp344
g232
Nsg73
S'window_id'
p345
sg15
Nsg19
g20
sg77
S'uint64'
p346
sg16
I211
sbag1
(g246
g3
NtRp347
(dp348
g232
Nsg73
S'type'
p349
sg15
Nsg19
g20
sg77
S'ModalType'
p350
sg16
I211
sbasg16
I211
sg19
g20
sbsg15
Nsg19
Nsg16
Nsg239
Nsbag1
(g229
g3
NtRp351
(dp352
g232
Nsg73
S'WmSetCanFocus'
p353
sg234
g1
(g235
g3
NtRp354
(dp355
g10
(lp356
g1
(g246
g3
NtRp357
(dp358
g232
Nsg73
S'window_id'
p359
sg15
Nsg19
g20
sg77
S'uint64'
p360
sg16
I212
sbag1
(g246
g3
NtRp361
(dp362
g232
Nsg73
S'can_focus'
p363
sg15
Nsg19
g20
sg77
S'bool'
p364
sg16
I212
sbasg16
I212
sg19
g20
sbsg15
Nsg19
Nsg16
Nsg239
Nsbag1
(g229
g3
NtRp365
(dp366
g232
Nsg73
S'WmCreateTopLevelWindow'
p367
sg234
g1
(g235
g3
NtRp368
(dp369
g10
(lp370
g1
(g246
g3
NtRp371
(dp372
g232
Nsg73
S'change_id'
p373
sg15
Nsg19
g20
sg77
S'uint32'
p374
sg16
I217
sbag1
(g246
g3
NtRp375
(dp376
g232
Nsg73
S'frame_sink_id'
p377
sg15
Nsg19
g20
sg77
S'viz.mojom.FrameSinkId'
p378
sg16
I218
sbag1
(g246
g3
NtRp379
(dp380
g232
Nsg73
S'properties'
p381
sg15
Nsg19
g20
sg77
S'uint8[]{string}'
p382
sg16
I219
sbasg16
I217
sg19
g20
sbsg15
Nsg19
Nsg16
Nsg239
Nsbag1
(g229
g3
NtRp383
(dp384
g232
Nsg73
S'WmClientJankinessChanged'
p385
sg234
g1
(g235
g3
NtRp386
(dp387
g10
(lp388
g1
(g246
g3
NtRp389
(dp390
g232
Nsg73
S'client_id'
p391
sg15
Nsg19
g20
sg77
S'uint32'
p392
sg16
I225
sbag1
(g246
g3
NtRp393
(dp394
g232
Nsg73
S'janky'
p395
sg15
Nsg19
g20
sg77
S'bool'
p396
sg16
I225
sbasg16
I225
sg19
g20
sbsg15
Nsg19
Nsg16
Nsg239
Nsbag1
(g229
g3
NtRp397
(dp398
g232
Nsg73
S'WmBuildDragImage'
p399
sg234
g1
(g235
g3
NtRp400
(dp401
g10
(lp402
g1
(g246
g3
NtRp403
(dp404
g232
Nsg73
S'screen_location'
p405
sg15
Nsg19
g20
sg77
S'gfx.mojom.Point'
p406
sg16
I232
sbag1
(g246
g3
NtRp407
(dp408
g232
Nsg73
S'drag_image'
p409
sg15
Nsg19
g20
sg77
S'skia.mojom.Bitmap?'
p410
sg16
I233
sbag1
(g246
g3
NtRp411
(dp412
g232
Nsg73
S'drag_image_offset'
p413
sg15
Nsg19
g20
sg77
S'gfx.mojom.Vector2d'
p414
sg16
I234
sbag1
(g246
g3
NtRp415
(dp416
g232
Nsg73
S'source'
p417
sg15
Nsg19
g20
sg77
S'PointerKind'
p418
sg16
I235
sbasg16
I232
sg19
g20
sbsg15
Nsg19
Nsg16
Nsg239
Nsbag1
(g229
g3
NtRp419
(dp420
g232
Nsg73
S'WmMoveDragImage'
p421
sg234
g1
(g235
g3
NtRp422
(dp423
g10
(lp424
g1
(g246
g3
NtRp425
(dp426
g232
Nsg73
S'screen_location'
p427
sg15
Nsg19
g20
sg77
S'gfx.mojom.Point'
p428
sg16
I239
sbasg16
I239
sg19
g20
sbsg15
Nsg19
Nsg16
Nsg239
g1
(g235
g3
NtRp429
(dp430
g10
(lp431
sg16
Nsg19
Nsbsbag1
(g229
g3
NtRp432
(dp433
g232
Nsg73
S'WmDestroyDragImage'
p434
sg234
g1
(g235
g3
NtRp435
(dp436
g10
(lp437
sg16
Nsg19
Nsbsg15
Nsg19
Nsg16
Nsg239
Nsbag1
(g229
g3
NtRp438
(dp439
g232
Nsg73
S'WmPerformMoveLoop'
p440
sg234
g1
(g235
g3
NtRp441
(dp442
g10
(lp443
g1
(g246
g3
NtRp444
(dp445
g232
Nsg73
S'change_id'
p446
sg15
Nsg19
g20
sg77
S'uint32'
p447
sg16
I247
sbag1
(g246
g3
NtRp448
(dp449
g232
Nsg73
S'window_id'
p450
sg15
Nsg19
g20
sg77
S'uint64'
p451
sg16
I247
sbag1
(g246
g3
NtRp452
(dp453
g232
Nsg73
S'source'
p454
sg15
Nsg19
g20
sg77
S'MoveLoopSource'
p455
sg16
I248
sbag1
(g246
g3
NtRp456
(dp457
g232
Nsg73
S'cursor_location'
p458
sg15
Nsg19
g20
sg77
S'gfx.mojom.Point'
p459
sg16
I249
sbasg16
I247
sg19
g20
sbsg15
Nsg19
Nsg16
Nsg239
Nsbag1
(g229
g3
NtRp460
(dp461
g232
Nsg73
S'WmCancelMoveLoop'
p462
sg234
g1
(g235
g3
NtRp463
(dp464
g10
(lp465
g1
(g246
g3
NtRp466
(dp467
g232
Nsg73
S'change_id'
p468
sg15
Nsg19
g20
sg77
S'uint32'
p469
sg16
I252
sbasg16
I252
sg19
g20
sbsg15
Nsg19
Nsg16
Nsg239
Nsbag1
(g229
g3
NtRp470
(dp471
g232
Nsg73
S'WmDeactivateWindow'
p472
sg234
g1
(g235
g3
NtRp473
(dp474
g10
(lp475
g1
(g246
g3
NtRp476
(dp477
g232
Nsg73
S'window_id'
p478
sg15
Nsg19
g20
sg77
S'uint64'
p479
sg16
I256
sbasg16
I256
sg19
g20
sbsg15
Nsg19
Nsg16
Nsg239
Nsbag1
(g229
g3
NtRp480
(dp481
g232
Nsg73
S'WmStackAbove'
p482
sg234
g1
(g235
g3
NtRp483
(dp484
g10
(lp485
g1
(g246
g3
NtRp486
(dp487
g232
Nsg73
S'change_id'
p488
sg15
Nsg19
g20
sg77
S'uint32'
p489
sg16
I259
sbag1
(g246
g3
NtRp490
(dp491
g232
Nsg73
S'above_id'
p492
sg15
Nsg19
g20
sg77
S'uint64'
p493
sg16
I259
sbag1
(g246
g3
NtRp494
(dp495
g232
Nsg73
S'below_id'
p496
sg15
Nsg19
g20
sg77
S'uint64'
p497
sg16
I259
sbasg16
I259
sg19
g20
sbsg15
Nsg19
Nsg16
Nsg239
Nsbag1
(g229
g3
NtRp498
(dp499
g232
Nsg73
S'WmStackAtTop'
p500
sg234
g1
(g235
g3
NtRp501
(dp502
g10
(lp503
g1
(g246
g3
NtRp504
(dp505
g232
Nsg73
S'change_id'
p506
sg15
Nsg19
g20
sg77
S'uint32'
p507
sg16
I263
sbag1
(g246
g3
NtRp508
(dp509
g232
Nsg73
S'window_id'
p510
sg15
Nsg19
g20
sg77
S'uint64'
p511
sg16
I263
sbasg16
I263
sg19
g20
sbsg15
Nsg19
Nsg16
Nsg239
Nsbag1
(g229
g3
NtRp512
(dp513
g232
Nsg73
S'WmPerformWmAction'
p514
sg234
g1
(g235
g3
NtRp515
(dp516
g10
(lp517
g1
(g246
g3
NtRp518
(dp519
g232
Nsg73
S'window_id'
p520
sg15
Nsg19
g20
sg77
S'uint64'
p521
sg16
I266
sbag1
(g246
g3
NtRp522
(dp523
g232
Nsg73
S'action'
p524
sg15
Nsg19
g20
sg77
S'string'
p525
sg16
I266
sbasg16
I266
sg19
g20
sbsg15
Nsg19
Nsg16
Nsg239
Nsbag1
(g229
g3
NtRp526
(dp527
g232
Nsg73
S'OnAccelerator'
p528
sg234
g1
(g235
g3
NtRp529
(dp530
g10
(lp531
g1
(g246
g3
NtRp532
(dp533
g232
Nsg73
S'ack_id'
p534
sg15
Nsg19
g20
sg77
S'uint32'
p535
sg16
I271
sbag1
(g246
g3
NtRp536
(dp537
g232
Nsg73
S'accelerator_id'
p538
sg15
Nsg19
g20
sg77
S'uint32'
p539
sg16
I271
sbag1
(g246
g3
NtRp540
(dp541
g232
Nsg73
S'event'
p542
sg15
Nsg19
g20
sg77
S'ui.mojom.Event'
p543
sg16
I271
sbasg16
I271
sg19
g20
sbsg15
Nsg19
Nsg16
Nsg239
Nsbag1
(g229
g3
NtRp544
(dp545
g232
Nsg73
S'OnCursorTouchVisibleChanged'
p546
sg234
g1
(g235
g3
NtRp547
(dp548
g10
(lp549
g1
(g246
g3
NtRp550
(dp551
g232
Nsg73
S'enabled'
p552
sg15
Nsg19
g20
sg77
S'bool'
p553
sg16
I275
sbasg16
I275
sg19
g20
sbsg15
Nsg19
Nsg16
Nsg239
Nsbag1
(g229
g3
NtRp554
(dp555
g232
Nsg73
S'OnEventBlockedByModalWindow'
p556
sg234
g1
(g235
g3
NtRp557
(dp558
g10
(lp559
g1
(g246
g3
NtRp560
(dp561
g232
Nsg73
S'window_id'
p562
sg15
Nsg19
g20
sg77
S'uint64'
p563
sg16
I279
sbasg16
I279
sg19
g20
sbsg15
Nsg19
Nsg16
Nsg239
Nsbasg16
Nsg19
Nsbsg15
Nsg16
Nsg73
S'WindowManager'
p564
sg19
Nsbag1
(cmojom.parse.ast
Struct
p565
g3
NtRp566
(dp567
g65
g1
(cmojom.parse.ast
StructBody
p568
g3
NtRp569
(dp570
g10
(lp571
g1
(cmojom.parse.ast
StructField
p572
g3
NtRp573
(dp574
g232
NsS'default_value'
p575
Nsg73
S'id'
p576
sg15
Nsg19
Nsg77
S'uint32'
p577
sg16
Nsbag1
(g572
g3
NtRp578
(dp579
g232
Nsg575
Nsg73
S'event_matcher'
p580
sg15
Nsg19
Nsg77
S'EventMatcher'
p581
sg16
Nsbasg16
Nsg19
Nsbsg15
Nsg16
Nsg73
S'WmAccelerator'
p582
sg19
Nsbag1
(g62
g3
NtRp583
(dp584
g65
g1
(g66
g3
NtRp585
(dp586
g10
(lp587
g1
(g229
g3
NtRp588
(dp589
g232
Nsg73
S'AddActivationParent'
p590
sg234
g1
(g235
g3
NtRp591
(dp592
g10
(lp593
g1
(g246
g3
NtRp594
(dp595
g232
Nsg73
S'window_id'
p596
sg15
Nsg19
g20
sg77
S'uint64'
p597
sg16
I291
sbasg16
I291
sg19
g20
sbsg15
Nsg19
Nsg16
Nsg239
Nsbag1
(g229
g3
NtRp598
(dp599
g232
Nsg73
S'RemoveActivationParent'
p600
sg234
g1
(g235
g3
NtRp601
(dp602
g10
(lp603
g1
(g246
g3
NtRp604
(dp605
g232
Nsg73
S'window_id'
p606
sg15
Nsg19
g20
sg77
S'uint64'
p607
sg16
I292
sbasg16
I292
sg19
g20
sbsg15
Nsg19
Nsg16
Nsg239
Nsbag1
(g229
g3
NtRp608
(dp609
g232
Nsg73
S'SetExtendedHitRegionForChildren'
p610
sg234
g1
(g235
g3
NtRp611
(dp612
g10
(lp613
g1
(g246
g3
NtRp614
(dp615
g232
Nsg73
S'window_id'
p616
sg15
Nsg19
g20
sg77
S'uint64'
p617
sg16
I298
sbag1
(g246
g3
NtRp618
(dp619
g232
Nsg73
S'mouse_insets'
p620
sg15
Nsg19
g20
sg77
S'gfx.mojom.Insets'
p621
sg16
I299
sbag1
(g246
g3
NtRp622
(dp623
g232
Nsg73
S'touch_insets'
p624
sg15
Nsg19
g20
sg77
S'gfx.mojom.Insets'
p625
sg16
I300
sbasg16
I298
sg19
g20
sbsg15
Nsg19
Nsg16
Nsg239
Nsbag1
(g229
g3
NtRp626
(dp627
g232
Nsg73
S'AddAccelerators'
p628
sg234
g1
(g235
g3
NtRp629
(dp630
g10
(lp631
g1
(g246
g3
NtRp632
(dp633
g232
Nsg73
S'accelerators'
p634
sg15
Nsg19
g20
sg77
S'WmAccelerator[]'
p635
sg16
I311
sbasg16
I311
sg19
g20
sbsg15
Nsg19
Nsg16
Nsg239
g1
(g235
g3
NtRp636
(dp637
g10
(lp638
g1
(g246
g3
NtRp639
(dp640
g232
Nsg73
S'success'
p641
sg15
Nsg19
g20
sg77
S'bool'
p642
sg16
I311
sbasg16
I311
sg19
g20
sbsbag1
(g229
g3
NtRp643
(dp644
g232
Nsg73
S'RemoveAccelerator'
p645
sg234
g1
(g235
g3
NtRp646
(dp647
g10
(lp648
g1
(g246
g3
NtRp649
(dp650
g232
Nsg73
S'id'
p651
sg15
Nsg19
g20
sg77
S'uint32'
p652
sg16
I312
sbasg16
I312
sg19
g20
sbsg15
Nsg19
Nsg16
Nsg239
Nsbag1
(g229
g3
NtRp653
(dp654
g232
Nsg73
S'SetKeyEventsThatDontHideCursor'
p655
sg234
g1
(g235
g3
NtRp656
(dp657
g10
(lp658
g1
(g246
g3
NtRp659
(dp660
g232
Nsg73
S'dont_hide_cursor_list'
p661
sg15
Nsg19
g20
sg77
S'EventMatcher[]'
p662
sg16
I320
sbasg16
I320
sg19
g20
sbsg15
Nsg19
Nsg16
Nsg239
Nsbag1
(g229
g3
NtRp663
(dp664
g232
Nsg73
S'SetDisplayRoot'
p665
sg234
g1
(g235
g3
NtRp666
(dp667
g10
(lp668
g1
(g246
g3
NtRp669
(dp670
g232
Nsg73
S'display'
p671
sg15
Nsg19
g20
sg77
S'display.mojom.Display'
p672
sg16
I328
sbag1
(g246
g3
NtRp673
(dp674
g232
Nsg73
S'viewport_metrics'
p675
sg15
Nsg19
g20
sg77
S'WmViewportMetrics'
p676
sg16
I329
sbag1
(g246
g3
NtRp677
(dp678
g232
Nsg73
S'is_primary_display'
p679
sg15
Nsg19
g20
sg77
S'bool'
p680
sg16
I330
sbag1
(g246
g3
NtRp681
(dp682
g232
Nsg73
S'window_id'
p683
sg15
Nsg19
g20
sg77
S'uint64'
p684
sg16
I331
sbag1
(g246
g3
NtRp685
(dp686
g232
Nsg73
S'mirrors'
p687
sg15
Nsg19
g20
sg77
S'display.mojom.Display[]'
p688
sg16
I332
sbasg16
I328
sg19
g20
sbsg15
Nsg19
Nsg16
Nsg239
g1
(g235
g3
NtRp689
(dp690
g10
(lp691
g1
(g246
g3
NtRp692
(dp693
g232
Nsg73
S'success'
p694
sg15
Nsg19
g20
sg77
S'bool'
p695
sg16
I332
sbasg16
I332
sg19
g20
sbsbag1
(g229
g3
NtRp696
(dp697
g232
Nsg73
S'SetDisplayConfiguration'
p698
sg234
g1
(g235
g3
NtRp699
(dp700
g10
(lp701
g1
(g246
g3
NtRp702
(dp703
g232
Nsg73
S'displays'
p704
sg15
Nsg19
g20
sg77
S'display.mojom.Display[]'
p705
sg16
I342
sbag1
(g246
g3
NtRp706
(dp707
g232
Nsg73
S'viewport_metrics'
p708
sg15
Nsg19
g20
sg77
S'WmViewportMetrics[]'
p709
sg16
I343
sbag1
(g246
g3
NtRp710
(dp711
g232
Nsg73
S'primary_display_id'
p712
sg15
Nsg19
g20
sg77
S'int64'
p713
sg16
I344
sbag1
(g246
g3
NtRp714
(dp715
g232
Nsg73
S'internal_display_id'
p716
sg15
Nsg19
g20
sg77
S'int64'
p717
sg16
I345
sbag1
(g246
g3
NtRp718
(dp719
g232
Nsg73
S'mirrors'
p720
sg15
Nsg19
g20
sg77
S'display.mojom.Display[]'
p721
sg16
I346
sbasg16
I342
sg19
g20
sbsg15
Nsg19
Nsg16
Nsg239
g1
(g235
g3
NtRp722
(dp723
g10
(lp724
g1
(g246
g3
NtRp725
(dp726
g232
Nsg73
S'success'
p727
sg15
Nsg19
g20
sg77
S'bool'
p728
sg16
I346
sbasg16
I346
sg19
g20
sbsbag1
(g229
g3
NtRp729
(dp730
g232
Nsg73
S'SwapDisplayRoots'
p731
sg234
g1
(g235
g3
NtRp732
(dp733
g10
(lp734
g1
(g246
g3
NtRp735
(dp736
g232
Nsg73
S'display_id1'
p737
sg15
Nsg19
g20
sg77
S'int64'
p738
sg16
I349
sbag1
(g246
g3
NtRp739
(dp740
g232
Nsg73
S'display_id2'
p741
sg15
Nsg19
g20
sg77
S'int64'
p742
sg16
I349
sbasg16
I349
sg19
g20
sbsg15
Nsg19
Nsg16
Nsg239
g1
(g235
g3
NtRp743
(dp744
g10
(lp745
g1
(g246
g3
NtRp746
(dp747
g232
Nsg73
S'success'
p748
sg15
Nsg19
g20
sg77
S'bool'
p749
sg16
I349
sbasg16
I349
sg19
g20
sbsbag1
(g229
g3
NtRp750
(dp751
g232
Nsg73
S'SetBlockingContainers'
p752
sg234
g1
(g235
g3
NtRp753
(dp754
g10
(lp755
g1
(g246
g3
NtRp756
(dp757
g232
Nsg73
S'blocking_containers'
p758
sg15
Nsg19
g20
sg77
S'BlockingContainers[]'
p759
sg16
I354
sbasg16
I354
sg19
g20
sbsg15
Nsg19
Nsg16
Nsg239
g1
(g235
g3
NtRp760
(dp761
g10
(lp762
g1
(g246
g3
NtRp763
(dp764
g232
Nsg73
S'success'
p765
sg15
Nsg19
g20
sg77
S'bool'
p766
sg16
I355
sbasg16
I355
sg19
g20
sbsbag1
(g229
g3
NtRp767
(dp768
g232
Nsg73
S'WmResponse'
p769
sg234
g1
(g235
g3
NtRp770
(dp771
g10
(lp772
g1
(g246
g3
NtRp773
(dp774
g232
Nsg73
S'change_id'
p775
sg15
Nsg19
g20
sg77
S'uint32'
p776
sg16
I358
sbag1
(g246
g3
NtRp777
(dp778
g232
Nsg73
S'response'
p779
sg15
Nsg19
g20
sg77
S'bool'
p780
sg16
I358
sbasg16
I358
sg19
g20
sbsg15
Nsg19
Nsg16
Nsg239
Nsbag1
(g229
g3
NtRp781
(dp782
g232
Nsg73
S'WmSetBoundsResponse'
p783
sg234
g1
(g235
g3
NtRp784
(dp785
g10
(lp786
g1
(g246
g3
NtRp787
(dp788
g232
Nsg73
S'change_id'
p789
sg15
Nsg19
g20
sg77
S'uint32'
p790
sg16
I362
sbasg16
I362
sg19
g20
sbsg15
Nsg19
Nsg16
Nsg239
Nsbag1
(g229
g3
NtRp791
(dp792
g232
Nsg73
S'WmRequestClose'
p793
sg234
g1
(g235
g3
NtRp794
(dp795
g10
(lp796
g1
(g246
g3
NtRp797
(dp798
g232
Nsg73
S'window_id'
p799
sg15
Nsg19
g20
sg77
S'uint64'
p800
sg16
I366
sbasg16
I366
sg19
g20
sbsg15
Nsg19
Nsg16
Nsg239
Nsbag1
(g229
g3
NtRp801
(dp802
g232
Nsg73
S'WmSetFrameDecorationValues'
p803
sg234
g1
(g235
g3
NtRp804
(dp805
g10
(lp806
g1
(g246
g3
NtRp807
(dp808
g232
Nsg73
S'values'
p809
sg15
Nsg19
g20
sg77
S'FrameDecorationValues'
p810
sg16
I370
sbasg16
I370
sg19
g20
sbsg15
Nsg19
Nsg16
Nsg239
Nsbag1
(g229
g3
NtRp811
(dp812
g232
Nsg73
S'WmSetNonClientCursor'
p813
sg234
g1
(g235
g3
NtRp814
(dp815
g10
(lp816
g1
(g246
g3
NtRp817
(dp818
g232
Nsg73
S'window_id'
p819
sg15
Nsg19
g20
sg77
S'uint64'
p820
sg16
I373
sbag1
(g246
g3
NtRp821
(dp822
g232
Nsg73
S'cursor'
p823
sg15
Nsg19
g20
sg77
S'CursorData'
p824
sg16
I373
sbasg16
I373
sg19
g20
sbsg15
Nsg19
Nsg16
Nsg239
Nsbag1
(g229
g3
NtRp825
(dp826
g232
Nsg73
S'WmLockCursor'
p827
sg234
g1
(g235
g3
NtRp828
(dp829
g10
(lp830
sg16
Nsg19
Nsbsg15
Nsg19
Nsg16
Nsg239
Nsbag1
(g229
g3
NtRp831
(dp832
g232
Nsg73
S'WmUnlockCursor'
p833
sg234
g1
(g235
g3
NtRp834
(dp835
g10
(lp836
sg16
Nsg19
Nsbsg15
Nsg19
Nsg16
Nsg239
Nsbag1
(g229
g3
NtRp837
(dp838
g232
Nsg73
S'WmSetCursorVisible'
p839
sg234
g1
(g235
g3
NtRp840
(dp841
g10
(lp842
g1
(g246
g3
NtRp843
(dp844
g232
Nsg73
S'visible'
p845
sg15
Nsg19
g20
sg77
S'bool'
p846
sg16
I381
sbasg16
I381
sg19
g20
sbsg15
Nsg19
Nsg16
Nsg239
Nsbag1
(g229
g3
NtRp847
(dp848
g232
Nsg73
S'WmSetCursorSize'
p849
sg234
g1
(g235
g3
NtRp850
(dp851
g10
(lp852
g1
(g246
g3
NtRp853
(dp854
g232
Nsg73
S'cursor_size'
p855
sg15
Nsg19
g20
sg77
S'CursorSize'
p856
sg16
I384
sbasg16
I384
sg19
g20
sbsg15
Nsg19
Nsg16
Nsg239
Nsbag1
(g229
g3
NtRp857
(dp858
g232
Nsg73
S'WmSetGlobalOverrideCursor'
p859
sg234
g1
(g235
g3
NtRp860
(dp861
g10
(lp862
g1
(g246
g3
NtRp863
(dp864
g232
Nsg73
S'cursor'
p865
sg15
Nsg19
g20
sg77
S'CursorData?'
p866
sg16
I388
sbasg16
I388
sg19
g20
sbsg15
Nsg19
Nsg16
Nsg239
Nsbag1
(g229
g3
NtRp867
(dp868
g232
Nsg73
S'WmMoveCursorToDisplayLocation'
p869
sg234
g1
(g235
g3
NtRp870
(dp871
g10
(lp872
g1
(g246
g3
NtRp873
(dp874
g232
Nsg73
S'display_pixels'
p875
sg15
Nsg19
g20
sg77
S'gfx.mojom.Point'
p876
sg16
I391
sbag1
(g246
g3
NtRp877
(dp878
g232
Nsg73
S'display_id'
p879
sg15
Nsg19
g20
sg77
S'int64'
p880
sg16
I392
sbasg16
I391
sg19
g20
sbsg15
Nsg19
Nsg16
Nsg239
Nsbag1
(g229
g3
NtRp881
(dp882
g232
Nsg73
S'WmConfineCursorToBounds'
p883
sg234
g1
(g235
g3
NtRp884
(dp885
g10
(lp886
g1
(g246
g3
NtRp887
(dp888
g232
Nsg73
S'bounds_in_pixels'
p889
sg15
Nsg19
g20
sg77
S'gfx.mojom.Rect'
p890
sg16
I395
sbag1
(g246
g3
NtRp891
(dp892
g232
Nsg73
S'display_id'
p893
sg15
Nsg19
g20
sg77
S'int64'
p894
sg16
I396
sbasg16
I395
sg19
g20
sbsg15
Nsg19
Nsg16
Nsg239
Nsbag1
(g229
g3
NtRp895
(dp896
g232
Nsg73
S'WmSetCursorTouchVisible'
p897
sg234
g1
(g235
g3
NtRp898
(dp899
g10
(lp900
g1
(g246
g3
NtRp901
(dp902
g232
Nsg73
S'enabled'
p903
sg15
Nsg19
g20
sg77
S'bool'
p904
sg16
I400
sbasg16
I400
sg19
g20
sbsg15
Nsg19
Nsg16
Nsg239
Nsbag1
(g229
g3
NtRp905
(dp906
g232
Nsg73
S'OnWmCreatedTopLevelWindow'
p907
sg234
g1
(g235
g3
NtRp908
(dp909
g10
(lp910
g1
(g246
g3
NtRp911
(dp912
g232
Nsg73
S'change_id'
p913
sg15
Nsg19
g20
sg77
S'uint32'
p914
sg16
I404
sbag1
(g246
g3
NtRp915
(dp916
g232
Nsg73
S'window_id'
p917
sg15
Nsg19
g20
sg77
S'uint64'
p918
sg16
I404
sbasg16
I404
sg19
g20
sbsg15
Nsg19
Nsg16
Nsg239
Nsbag1
(g229
g3
NtRp919
(dp920
g232
Nsg73
S'OnAcceleratorAck'
p921
sg234
g1
(g235
g3
NtRp922
(dp923
g10
(lp924
g1
(g246
g3
NtRp925
(dp926
g232
Nsg73
S'ack_id'
p927
sg15
Nsg19
g20
sg77
S'uint32'
p928
sg16
I410
sbag1
(g246
g3
NtRp929
(dp930
g232
Nsg73
S'event_result'
p931
sg15
Nsg19
g20
sg77
S'EventResult'
p932
sg16
I411
sbag1
(g246
g3
NtRp933
(dp934
g232
Nsg73
S'properties'
p935
sg15
Nsg19
g20
sg77
S'uint8[]{string}'
p936
sg16
I412
sbasg16
I410
sg19
g20
sbsg15
Nsg19
Nsg16
Nsg239
Nsbasg16
Nsg19
Nsbsg15
Nsg16
Nsg73
S'WindowManagerClient'
p937
sg19
Nsbasg16
NsS'module'
p938
g1
(cmojom.parse.ast
Module
p939
g3
NtRp940
(dp941
S'mojom_namespace'
p942
(S'IDENTIFIER'
p943
S'ui.mojom'
tp944
sg16
I5
sg15
Nsg19
g20
sbsg19
Nsb.