ccopy_reg
_reconstructor
p1
(cmojom.parse.ast
Mojom
p2
c__builtin__
object
p3
NtRp4
(dp5
S'import_list'
p6
g1
(cmojom.parse.ast
ImportList
p7
g3
NtRp8
(dp9
S'items'
p10
(lp11
sS'lineno'
p12
NsS'filename'
p13
NsbsS'definition_list'
p14
(lp15
g1
(cmojom.parse.ast
Struct
p16
g3
NtRp17
(dp18
S'body'
p19
NsS'attribute_list'
p20
g1
(cmojom.parse.ast
AttributeList
p21
g3
NtRp22
(dp23
g10
(lp24
g1
(cmojom.parse.ast
Attribute
p25
g3
NtRp26
(dp27
S'value'
p28
I01
sg12
I11
sS'key'
p29
S'Native'
p30
sg13
S'../../content/common/media/media_stream.mojom'
p31
sbasg12
I11
sg13
g31
sbsg12
NsS'mojom_name'
p32
S'MediaStreamDevice'
p33
sg13
Nsbag1
(cmojom.parse.ast
Enum
p34
g3
NtRp35
(dp36
g20
NsS'enum_value_list'
p37
g1
(cmojom.parse.ast
EnumValueList
p38
g3
NtRp39
(dp40
g10
(lp41
g1
(cmojom.parse.ast
EnumValue
p42
g3
NtRp43
(dp44
g20
Nsg28
Nsg12
I16
sg32
S'MEDIA_NO_SERVICE'
p45
sg13
g31
sbag1
(g42
g3
NtRp46
(dp47
g20
Nsg28
Nsg12
I17
sg32
S'MEDIA_DEVICE_AUDIO_CAPTURE'
p48
sg13
g31
sbag1
(g42
g3
NtRp49
(dp50
g20
Nsg28
Nsg12
I18
sg32
S'MEDIA_DEVICE_VIDEO_CAPTURE'
p51
sg13
g31
sbag1
(g42
g3
NtRp52
(dp53
g20
Nsg28
Nsg12
I19
sg32
S'MEDIA_TAB_AUDIO_CAPTURE'
p54
sg13
g31
sbag1
(g42
g3
NtRp55
(dp56
g20
Nsg28
Nsg12
I20
sg32
S'MEDIA_TAB_VIDEO_CAPTURE'
p57
sg13
g31
sbag1
(g42
g3
NtRp58
(dp59
g20
Nsg28
Nsg12
I21
sg32
S'MEDIA_DESKTOP_VIDEO_CAPTURE'
p60
sg13
g31
sbag1
(g42
g3
NtRp61
(dp62
g20
Nsg28
Nsg12
I22
sg32
S'MEDIA_DESKTOP_AUDIO_CAPTURE'
p63
sg13
g31
sbag1
(g42
g3
NtRp64
(dp65
g20
Nsg28
Nsg12
I23
sg32
S'NUM_MEDIA_TYPES'
p66
sg13
g31
sbasg12
I16
sg13
g31
sbsg12
I15
sg32
S'MediaStreamType'
p67
sg13
g31
sbag1
(g34
g3
NtRp68
(dp69
g20
Nsg37
g1
(g38
g3
NtRp70
(dp71
g10
(lp72
g1
(g42
g3
NtRp73
(dp74
g20
Nsg28
Nsg12
I28
sg32
S'OK'
p75
sg13
g31
sbag1
(g42
g3
NtRp76
(dp77
g20
Nsg28
Nsg12
I29
sg32
S'PERMISSION_DENIED'
p78
sg13
g31
sbag1
(g42
g3
NtRp79
(dp80
g20
Nsg28
Nsg12
I30
sg32
S'PERMISSION_DISMISSED'
p81
sg13
g31
sbag1
(g42
g3
NtRp82
(dp83
g20
Nsg28
Nsg12
I31
sg32
S'INVALID_STATE'
p84
sg13
g31
sbag1
(g42
g3
NtRp85
(dp86
g20
Nsg28
Nsg12
I32
sg32
S'NO_HARDWARE'
p87
sg13
g31
sbag1
(g42
g3
NtRp88
(dp89
g20
Nsg28
Nsg12
I33
sg32
S'INVALID_SECURITY_ORIGIN'
p90
sg13
g31
sbag1
(g42
g3
NtRp91
(dp92
g20
Nsg28
Nsg12
I34
sg32
S'TAB_CAPTURE_FAILURE'
p93
sg13
g31
sbag1
(g42
g3
NtRp94
(dp95
g20
Nsg28
Nsg12
I35
sg32
S'SCREEN_CAPTURE_FAILURE'
p96
sg13
g31
sbag1
(g42
g3
NtRp97
(dp98
g20
Nsg28
Nsg12
I36
sg32
S'CAPTURE_FAILURE'
p99
sg13
g31
sbag1
(g42
g3
NtRp100
(dp101
g20
Nsg28
Nsg12
I37
sg32
S'CONSTRAINT_NOT_SATISFIED'
p102
sg13
g31
sbag1
(g42
g3
NtRp103
(dp104
g20
Nsg28
Nsg12
I38
sg32
S'TRACK_START_FAILURE_AUDIO'
p105
sg13
g31
sbag1
(g42
g3
NtRp106
(dp107
g20
Nsg28
Nsg12
I39
sg32
S'TRACK_START_FAILURE_VIDEO'
p108
sg13
g31
sbag1
(g42
g3
NtRp109
(dp110
g20
Nsg28
Nsg12
I40
sg32
S'NOT_SUPPORTED'
p111
sg13
g31
sbag1
(g42
g3
NtRp112
(dp113
g20
Nsg28
Nsg12
I41
sg32
S'FAILED_DUE_TO_SHUTDOWN'
p114
sg13
g31
sbag1
(g42
g3
NtRp115
(dp116
g20
Nsg28
Nsg12
I42
sg32
S'KILL_SWITCH_ON'
p117
sg13
g31
sbasg12
I28
sg13
g31
sbsg12
I27
sg32
S'MediaStreamRequestResult'
p118
sg13
g31
sbag1
(g16
g3
NtRp119
(dp120
g19
g1
(cmojom.parse.ast
StructBody
p121
g3
NtRp122
(dp123
g10
(lp124
g1
(cmojom.parse.ast
StructField
p125
g3
NtRp126
(dp127
S'ordinal'
p128
NsS'default_value'
p129
Nsg32
S'requested'
p130
sg20
Nsg13
NsS'typename'
p131
S'bool'
p132
sg12
Nsbag1
(g125
g3
NtRp133
(dp134
g128
Nsg129
Nsg32
S'stream_source'
p135
sg20
Nsg13
Nsg131
S'string'
p136
sg12
Nsbag1
(g125
g3
NtRp137
(dp138
g128
Nsg129
Nsg32
S'device_id'
p139
sg20
Nsg13
Nsg131
S'string'
p140
sg12
Nsbasg12
Nsg13
Nsbsg20
Nsg12
Nsg32
S'TrackControls'
p141
sg13
Nsbag1
(g16
g3
NtRp142
(dp143
g19
g1
(g121
g3
NtRp144
(dp145
g10
(lp146
g1
(g125
g3
NtRp147
(dp148
g128
Nsg129
Nsg32
S'audio'
p149
sg20
Nsg13
Nsg131
S'TrackControls'
p150
sg12
Nsbag1
(g125
g3
NtRp151
(dp152
g128
Nsg129
Nsg32
S'video'
p153
sg20
Nsg13
Nsg131
S'TrackControls'
p154
sg12
Nsbag1
(g125
g3
NtRp155
(dp156
g128
Nsg129
Nsg32
S'hotword_enabled'
p157
sg20
Nsg13
Nsg131
S'bool'
p158
sg12
Nsbag1
(g125
g3
NtRp159
(dp160
g128
Nsg129
Nsg32
S'disable_local_echo'
p161
sg20
Nsg13
Nsg131
S'bool'
p162
sg12
Nsbasg12
Nsg13
Nsbsg20
Nsg12
Nsg32
S'StreamControls'
p163
sg13
Nsbag1
(cmojom.parse.ast
Interface
p164
g3
NtRp165
(dp166
g19
g1
(cmojom.parse.ast
InterfaceBody
p167
g3
NtRp168
(dp169
g10
(lp170
g1
(cmojom.parse.ast
Method
p171
g3
NtRp172
(dp173
g128
Nsg32
S'OnDeviceStopped'
p174
sS'parameter_list'
p175
g1
(cmojom.parse.ast
ParameterList
p176
g3
NtRp177
(dp178
g10
(lp179
g1
(cmojom.parse.ast
Parameter
p180
g3
NtRp181
(dp182
g128
Nsg32
S'label'
p183
sg20
Nsg13
g31
sg131
S'string'
p184
sg12
I63
sbag1
(g180
g3
NtRp185
(dp186
g128
Nsg32
S'device'
p187
sg20
Nsg13
g31
sg131
S'MediaStreamDevice'
p188
sg12
I63
sbasg12
I63
sg13
g31
sbsg20
Nsg13
Nsg12
NsS'response_parameter_list'
p189
Nsbasg12
Nsg13
Nsbsg20
Nsg12
Nsg32
S'MediaStreamDeviceObserver'
p190
sg13
Nsbag1
(g164
g3
NtRp191
(dp192
g19
g1
(g167
g3
NtRp193
(dp194
g10
(lp195
g1
(g171
g3
NtRp196
(dp197
g128
Nsg32
S'GenerateStream'
p198
sg175
g1
(g176
g3
NtRp199
(dp200
g10
(lp201
g1
(g180
g3
NtRp202
(dp203
g128
Nsg32
S'request_id'
p204
sg20
Nsg13
g31
sg131
S'int32'
p205
sg12
I70
sbag1
(g180
g3
NtRp206
(dp207
g128
Nsg32
S'controls'
p208
sg20
Nsg13
g31
sg131
S'StreamControls'
p209
sg12
I70
sbag1
(g180
g3
NtRp210
(dp211
g128
Nsg32
S'user_gesture'
p212
sg20
Nsg13
g31
sg131
S'bool'
p213
sg12
I70
sbasg12
I70
sg13
g31
sbsg20
Nsg13
Nsg12
Nsg189
g1
(g176
g3
NtRp214
(dp215
g10
(lp216
g1
(g180
g3
NtRp217
(dp218
g128
Nsg32
S'result'
p219
sg20
Nsg13
g31
sg131
S'MediaStreamRequestResult'
p220
sg12
I71
sbag1
(g180
g3
NtRp221
(dp222
g128
Nsg32
S'label'
p223
sg20
Nsg13
g31
sg131
S'string'
p224
sg12
I71
sbag1
(g180
g3
NtRp225
(dp226
g128
Nsg32
S'audio_devices'
p227
sg20
Nsg13
g31
sg131
S'MediaStreamDevice[]'
p228
sg12
I72
sbag1
(g180
g3
NtRp229
(dp230
g128
Nsg32
S'video_devices'
p231
sg20
Nsg13
g31
sg131
S'MediaStreamDevice[]'
p232
sg12
I73
sbasg12
I71
sg13
g31
sbsbag1
(g171
g3
NtRp233
(dp234
g128
Nsg32
S'CancelRequest'
p235
sg175
g1
(g176
g3
NtRp236
(dp237
g10
(lp238
g1
(g180
g3
NtRp239
(dp240
g128
Nsg32
S'request_id'
p241
sg20
Nsg13
g31
sg131
S'int32'
p242
sg12
I76
sbasg12
I76
sg13
g31
sbsg20
Nsg13
Nsg12
Nsg189
Nsbag1
(g171
g3
NtRp243
(dp244
g128
Nsg32
S'StopStreamDevice'
p245
sg175
g1
(g176
g3
NtRp246
(dp247
g10
(lp248
g1
(g180
g3
NtRp249
(dp250
g128
Nsg32
S'device_id'
p251
sg20
Nsg13
g31
sg131
S'string'
p252
sg12
I79
sbag1
(g180
g3
NtRp253
(dp254
g128
Nsg32
S'session_id'
p255
sg20
Nsg13
g31
sg131
S'int32'
p256
sg12
I79
sbasg12
I79
sg13
g31
sbsg20
Nsg13
Nsg12
Nsg189
Nsbag1
(g171
g3
NtRp257
(dp258
g128
Nsg32
S'OpenDevice'
p259
sg175
g1
(g176
g3
NtRp260
(dp261
g10
(lp262
g1
(g180
g3
NtRp263
(dp264
g128
Nsg32
S'request_id'
p265
sg20
Nsg13
g31
sg131
S'int32'
p266
sg12
I82
sbag1
(g180
g3
NtRp267
(dp268
g128
Nsg32
S'device_id'
p269
sg20
Nsg13
g31
sg131
S'string'
p270
sg12
I82
sbag1
(g180
g3
NtRp271
(dp272
g128
Nsg32
S'type'
p273
sg20
Nsg13
g31
sg131
S'MediaStreamType'
p274
sg12
I82
sbasg12
I82
sg13
g31
sbsg20
Nsg13
Nsg12
Nsg189
g1
(g176
g3
NtRp275
(dp276
g10
(lp277
g1
(g180
g3
NtRp278
(dp279
g128
Nsg32
S'success'
p280
sg20
Nsg13
g31
sg131
S'bool'
p281
sg12
I83
sbag1
(g180
g3
NtRp282
(dp283
g128
Nsg32
S'label'
p284
sg20
Nsg13
g31
sg131
S'string'
p285
sg12
I83
sbag1
(g180
g3
NtRp286
(dp287
g128
Nsg32
S'device'
p288
sg20
Nsg13
g31
sg131
S'MediaStreamDevice'
p289
sg12
I83
sbasg12
I83
sg13
g31
sbsbag1
(g171
g3
NtRp290
(dp291
g128
Nsg32
S'CloseDevice'
p292
sg175
g1
(g176
g3
NtRp293
(dp294
g10
(lp295
g1
(g180
g3
NtRp296
(dp297
g128
Nsg32
S'label'
p298
sg20
Nsg13
g31
sg131
S'string'
p299
sg12
I86
sbasg12
I86
sg13
g31
sbsg20
Nsg13
Nsg12
Nsg189
Nsbag1
(g171
g3
NtRp300
(dp301
g128
Nsg32
S'SetCapturingLinkSecured'
p302
sg175
g1
(g176
g3
NtRp303
(dp304
g10
(lp305
g1
(g180
g3
NtRp306
(dp307
g128
Nsg32
S'session_id'
p308
sg20
Nsg13
g31
sg131
S'int32'
p309
sg12
I96
sbag1
(g180
g3
NtRp310
(dp311
g128
Nsg32
S'type'
p312
sg20
Nsg13
g31
sg131
S'MediaStreamType'
p313
sg12
I96
sbag1
(g180
g3
NtRp314
(dp315
g128
Nsg32
S'is_secure'
p316
sg20
Nsg13
g31
sg131
S'bool'
p317
sg12
I97
sbasg12
I96
sg13
g31
sbsg20
Nsg13
Nsg12
Nsg189
Nsbag1
(g171
g3
NtRp318
(dp319
g128
Nsg32
S'OnStreamStarted'
p320
sg175
g1
(g176
g3
NtRp321
(dp322
g10
(lp323
g1
(g180
g3
NtRp324
(dp325
g128
Nsg32
S'label'
p326
sg20
Nsg13
g31
sg131
S'string'
p327
sg12
I100
sbasg12
I100
sg13
g31
sbsg20
Nsg13
Nsg12
Nsg189
Nsbasg12
Nsg13
Nsbsg20
Nsg12
Nsg32
S'MediaStreamDispatcherHost'
p328
sg13
Nsbag1
(g164
g3
NtRp329
(dp330
g19
g1
(g167
g3
NtRp331
(dp332
g10
(lp333
g1
(g171
g3
NtRp334
(dp335
g128
Nsg32
S'AddTrack'
p336
sg175
g1
(g176
g3
NtRp337
(dp338
g10
(lp339
g1
(g180
g3
NtRp340
(dp341
g128
Nsg32
S'id'
p342
sg20
Nsg13
g31
sg131
S'uint64'
p343
sg12
I107
sbag1
(g180
g3
NtRp344
(dp345
g128
Nsg32
S'is_audio'
p346
sg20
Nsg13
g31
sg131
S'bool'
p347
sg12
I107
sbag1
(g180
g3
NtRp348
(dp349
g128
Nsg32
S'is_remote'
p350
sg20
Nsg13
g31
sg131
S'bool'
p351
sg12
I107
sbasg12
I107
sg13
g31
sbsg20
Nsg13
Nsg12
Nsg189
Nsbag1
(g171
g3
NtRp352
(dp353
g128
Nsg32
S'RemoveTrack'
p354
sg175
g1
(g176
g3
NtRp355
(dp356
g10
(lp357
g1
(g180
g3
NtRp358
(dp359
g128
Nsg32
S'id'
p360
sg20
Nsg13
g31
sg131
S'uint64'
p361
sg12
I110
sbasg12
I110
sg13
g31
sbsg20
Nsg13
Nsg12
Nsg189
Nsbasg12
Nsg13
Nsbsg20
Nsg12
Nsg32
S'MediaStreamTrackMetricsHost'
p362
sg13
Nsbasg12
NsS'module'
p363
g1
(cmojom.parse.ast
Module
p364
g3
NtRp365
(dp366
S'mojom_namespace'
p367
(S'IDENTIFIER'
p368
S'content.mojom'
tp369
sg12
I5
sg20
Nsg13
g31
sbsg13
Nsb.