ccopy_reg
_reconstructor
p1
(cmojom.parse.ast
Mojom
p2
c__builtin__
object
p3
NtRp4
(dp5
S'import_list'
p6
g1
(cmojom.parse.ast
ImportList
p7
g3
NtRp8
(dp9
S'items'
p10
(lp11
sS'lineno'
p12
NsS'filename'
p13
NsbsS'definition_list'
p14
(lp15
g1
(cmojom.parse.ast
Interface
p16
g3
NtRp17
(dp18
S'body'
p19
g1
(cmojom.parse.ast
InterfaceBody
p20
g3
NtRp21
(dp22
g10
(lp23
g1
(cmojom.parse.ast
Method
p24
g3
NtRp25
(dp26
S'ordinal'
p27
NsS'mojom_name'
p28
S'RemovePeerConnection'
p29
sS'parameter_list'
p30
g1
(cmojom.parse.ast
ParameterList
p31
g3
NtRp32
(dp33
g10
(lp34
g1
(cmojom.parse.ast
Parameter
p35
g3
NtRp36
(dp37
g27
Nsg28
S'lid'
p38
sS'attribute_list'
p39
Nsg13
S'../../content/common/media/peer_connection_tracker.mojom'
p40
sS'typename'
p41
S'int32'
p42
sg12
I16
sbasg12
I16
sg13
g40
sbsg39
Nsg13
Nsg12
NsS'response_parameter_list'
p43
Nsbag1
(g24
g3
NtRp44
(dp45
g27
Nsg28
S'UpdatePeerConnection'
p46
sg30
g1
(g31
g3
NtRp47
(dp48
g10
(lp49
g1
(g35
g3
NtRp50
(dp51
g27
Nsg28
S'lid'
p52
sg39
Nsg13
g40
sg41
S'int32'
p53
sg12
I23
sbag1
(g35
g3
NtRp54
(dp55
g27
Nsg28
S'type'
p56
sg39
Nsg13
g40
sg41
S'string'
p57
sg12
I23
sbag1
(g35
g3
NtRp58
(dp59
g27
Nsg28
S'value'
p60
sg39
Nsg13
g40
sg41
S'string'
p61
sg12
I23
sbasg12
I23
sg13
g40
sbsg39
Nsg13
Nsg12
Nsg43
Nsbag1
(g24
g3
NtRp62
(dp63
g27
Nsg28
S'GetUserMedia'
p64
sg30
g1
(g31
g3
NtRp65
(dp66
g10
(lp67
g1
(g35
g3
NtRp68
(dp69
g27
Nsg28
S'origin'
p70
sg39
Nsg13
g40
sg41
S'string'
p71
sg12
I34
sbag1
(g35
g3
NtRp72
(dp73
g27
Nsg28
S'audio'
p74
sg39
Nsg13
g40
sg41
S'bool'
p75
sg12
I34
sbag1
(g35
g3
NtRp76
(dp77
g27
Nsg28
S'video'
p78
sg39
Nsg13
g40
sg41
S'bool'
p79
sg12
I34
sbag1
(g35
g3
NtRp80
(dp81
g27
Nsg28
S'audio_constraints'
p82
sg39
Nsg13
g40
sg41
S'string'
p83
sg12
I35
sbag1
(g35
g3
NtRp84
(dp85
g27
Nsg28
S'video_constraints'
p86
sg39
Nsg13
g40
sg41
S'string'
p87
sg12
I35
sbasg12
I34
sg13
g40
sbsg39
Nsg13
Nsg12
Nsg43
Nsbag1
(g24
g3
NtRp88
(dp89
g27
Nsg28
S'WebRtcEventLogWrite'
p90
sg30
g1
(g31
g3
NtRp91
(dp92
g10
(lp93
g1
(g35
g3
NtRp94
(dp95
g27
Nsg28
S'lid'
p96
sg39
Nsg13
g40
sg41
S'int32'
p97
sg12
I38
sbag1
(g35
g3
NtRp98
(dp99
g27
Nsg28
S'output'
p100
sg39
Nsg13
g40
sg41
S'string'
p101
sg12
I38
sbasg12
I38
sg13
g40
sbsg39
Nsg13
Nsg12
Nsg43
Nsbasg12
Nsg13
Nsbsg39
Nsg12
Nsg28
S'PeerConnectionTrackerHost'
p102
sg13
Nsbasg12
NsS'module'
p103
g1
(cmojom.parse.ast
Module
p104
g3
NtRp105
(dp106
S'mojom_namespace'
p107
(S'IDENTIFIER'
p108
S'content.mojom'
tp109
sg12
I5
sg39
Nsg13
g40
sbsg13
Nsb.