ccopy_reg
_reconstructor
p1
(cmojom.parse.ast
Mojom
p2
c__builtin__
object
p3
NtRp4
(dp5
S'import_list'
p6
g1
(cmojom.parse.ast
ImportList
p7
g3
NtRp8
(dp9
S'items'
p10
(lp11
g1
(cmojom.parse.ast
Import
p12
g3
NtRp13
(dp14
S'attribute_list'
p15
NsS'lineno'
p16
I7
sS'import_filename'
p17
S'media/mojo/interfaces/audio_data_pipe.mojom'
p18
sS'filename'
p19
S'../../content/common/media/renderer_audio_input_stream_factory.mojom'
p20
sbag1
(g12
g3
NtRp21
(dp22
g15
Nsg16
I8
sg17
S'media/mojo/interfaces/audio_input_stream.mojom'
p23
sg19
g20
sbag1
(g12
g3
NtRp24
(dp25
g15
Nsg16
I9
sg17
S'media/mojo/interfaces/audio_parameters.mojom'
p26
sg19
g20
sbag1
(g12
g3
NtRp27
(dp28
g15
Nsg16
I10
sg17
S'media/mojo/interfaces/media_types.mojom'
p29
sg19
g20
sbag1
(g12
g3
NtRp30
(dp31
g15
Nsg16
I11
sg17
S'mojo/public/mojom/base/unguessable_token.mojom'
p32
sg19
g20
sbasg16
I7
sg19
g20
sbsS'definition_list'
p33
(lp34
g1
(cmojom.parse.ast
Interface
p35
g3
NtRp36
(dp37
S'body'
p38
g1
(cmojom.parse.ast
InterfaceBody
p39
g3
NtRp40
(dp41
g10
(lp42
g1
(cmojom.parse.ast
Method
p43
g3
NtRp44
(dp45
S'ordinal'
p46
NsS'mojom_name'
p47
S'CreateStream'
p48
sS'parameter_list'
p49
g1
(cmojom.parse.ast
ParameterList
p50
g3
NtRp51
(dp52
g10
(lp53
g1
(cmojom.parse.ast
Parameter
p54
g3
NtRp55
(dp56
g46
Nsg47
S'client'
p57
sg15
Nsg19
g20
sS'typename'
p58
S'RendererAudioInputStreamFactoryClient'
p59
sg16
I19
sbag1
(g54
g3
NtRp60
(dp61
g46
Nsg47
S'session_id'
p62
sg15
Nsg19
g20
sg58
S'int32'
p63
sg16
I20
sbag1
(g54
g3
NtRp64
(dp65
g46
Nsg47
S'params'
p66
sg15
Nsg19
g20
sg58
S'media.mojom.AudioParameters'
p67
sg16
I21
sbag1
(g54
g3
NtRp68
(dp69
g46
Nsg47
S'automatic_gain_control'
p70
sg15
Nsg19
g20
sg58
S'bool'
p71
sg16
I22
sbag1
(g54
g3
NtRp72
(dp73
g46
Nsg47
S'shared_memory_count'
p74
sg15
Nsg19
g20
sg58
S'uint32'
p75
sg16
I23
sbasg16
I19
sg19
g20
sbsg15
Nsg19
Nsg16
NsS'response_parameter_list'
p76
Nsbag1
(g43
g3
NtRp77
(dp78
g46
Nsg47
S'AssociateInputAndOutputForAec'
p79
sg49
g1
(g50
g3
NtRp80
(dp81
g10
(lp82
g1
(g54
g3
NtRp83
(dp84
g46
Nsg47
S'input_stream_id'
p85
sg15
Nsg19
g20
sg58
S'mojo_base.mojom.UnguessableToken'
p86
sg16
I31
sbag1
(g54
g3
NtRp87
(dp88
g46
Nsg47
S'output_device_id'
p89
sg15
Nsg19
g20
sg58
S'string'
p90
sg16
I32
sbasg16
I31
sg19
g20
sbsg15
Nsg19
Nsg16
Nsg76
Nsbasg16
Nsg19
Nsbsg15
Nsg16
Nsg47
S'RendererAudioInputStreamFactory'
p91
sg19
Nsbag1
(g35
g3
NtRp92
(dp93
g38
g1
(g39
g3
NtRp94
(dp95
g10
(lp96
g1
(g43
g3
NtRp97
(dp98
g46
Nsg47
S'StreamCreated'
p99
sg49
g1
(g50
g3
NtRp100
(dp101
g10
(lp102
g1
(g54
g3
NtRp103
(dp104
g46
Nsg47
S'stream'
p105
sg15
Nsg19
g20
sg58
S'media.mojom.AudioInputStream'
p106
sg16
I45
sbag1
(g54
g3
NtRp107
(dp108
g46
Nsg47
S'client_request'
p109
sg15
Nsg19
g20
sg58
S'media.mojom.AudioInputStreamClient&'
p110
sg16
I46
sbag1
(g54
g3
NtRp111
(dp112
g46
Nsg47
S'data_pipe'
p113
sg15
Nsg19
g20
sg58
S'media.mojom.AudioDataPipe'
p114
sg16
I47
sbag1
(g54
g3
NtRp115
(dp116
g46
Nsg47
S'initially_muted'
p117
sg15
Nsg19
g20
sg58
S'bool'
p118
sg16
I48
sbag1
(g54
g3
NtRp119
(dp120
g46
Nsg47
S'stream_id'
p121
sg15
Nsg19
g20
sg58
S'mojo_base.mojom.UnguessableToken?'
p122
sg16
I49
sbasg16
I45
sg19
g20
sbsg15
Nsg19
Nsg16
Nsg76
Nsbasg16
Nsg19
Nsbsg15
Nsg16
Nsg47
S'RendererAudioInputStreamFactoryClient'
p123
sg19
Nsbasg16
NsS'module'
p124
g1
(cmojom.parse.ast
Module
p125
g3
NtRp126
(dp127
S'mojom_namespace'
p128
(S'IDENTIFIER'
p129
S'content.mojom'
tp130
sg16
I5
sg15
Nsg19
g20
sbsg19
Nsb.