ccopy_reg
_reconstructor
p1
(cmojom.parse.ast
Mojom
p2
c__builtin__
object
p3
NtRp4
(dp5
S'import_list'
p6
g1
(cmojom.parse.ast
ImportList
p7
g3
NtRp8
(dp9
S'items'
p10
(lp11
g1
(cmojom.parse.ast
Import
p12
g3
NtRp13
(dp14
S'attribute_list'
p15
NsS'lineno'
p16
I7
sS'import_filename'
p17
S'ui/gfx/geometry/mojo/geometry.mojom'
p18
sS'filename'
p19
S'../../ui/events/devices/mojo/input_devices.mojom'
p20
sbasg16
I7
sg19
g20
sbsS'definition_list'
p21
(lp22
g1
(cmojom.parse.ast
Enum
p23
g3
NtRp24
(dp25
g15
NsS'enum_value_list'
p26
g1
(cmojom.parse.ast
EnumValueList
p27
g3
NtRp28
(dp29
g10
(lp30
g1
(cmojom.parse.ast
EnumValue
p31
g3
NtRp32
(dp33
g15
NsS'value'
p34
Nsg16
I11
sS'mojom_name'
p35
S'INPUT_DEVICE_INTERNAL'
p36
sg19
g20
sbag1
(g31
g3
NtRp37
(dp38
g15
Nsg34
Nsg16
I12
sg35
S'INPUT_DEVICE_EXTERNAL'
p39
sg19
g20
sbag1
(g31
g3
NtRp40
(dp41
g15
Nsg34
Nsg16
I13
sg35
S'INPUT_DEVICE_UNKNOWN'
p42
sg19
g20
sbasg16
I11
sg19
g20
sbsg16
I10
sg35
S'InputDeviceType'
p43
sg19
g20
sbag1
(cmojom.parse.ast
Struct
p44
g3
NtRp45
(dp46
S'body'
p47
g1
(cmojom.parse.ast
StructBody
p48
g3
NtRp49
(dp50
g10
(lp51
g1
(cmojom.parse.ast
StructField
p52
g3
NtRp53
(dp54
S'ordinal'
p55
NsS'default_value'
p56
Nsg35
S'id'
p57
sg15
Nsg19
NsS'typename'
p58
S'int32'
p59
sg16
Nsbag1
(g52
g3
NtRp60
(dp61
g55
Nsg56
Nsg35
S'type'
p62
sg15
Nsg19
Nsg58
S'InputDeviceType'
p63
sg16
Nsbag1
(g52
g3
NtRp64
(dp65
g55
Nsg56
Nsg35
S'name'
p66
sg15
Nsg19
Nsg58
S'string'
p67
sg16
Nsbag1
(g52
g3
NtRp68
(dp69
g55
Nsg56
Nsg35
S'enabled'
p70
sg15
Nsg19
Nsg58
S'bool'
p71
sg16
Nsbag1
(g52
g3
NtRp72
(dp73
g55
Nsg56
Nsg35
S'sys_path'
p74
sg15
Nsg19
Nsg58
S'string'
p75
sg16
Nsbag1
(g52
g3
NtRp76
(dp77
g55
Nsg56
Nsg35
S'vendor_id'
p78
sg15
Nsg19
Nsg58
S'uint16'
p79
sg16
Nsbag1
(g52
g3
NtRp80
(dp81
g55
Nsg56
Nsg35
S'product_id'
p82
sg15
Nsg19
Nsg58
S'uint16'
p83
sg16
Nsbasg16
Nsg19
Nsbsg15
Nsg16
Nsg35
S'InputDevice'
p84
sg19
Nsbag1
(g23
g3
NtRp85
(dp86
g15
Nsg26
g1
(g27
g3
NtRp87
(dp88
g10
(lp89
g1
(g31
g3
NtRp90
(dp91
g15
Nsg34
Nsg16
I28
sg35
S'REMOVED'
p92
sg19
g20
sbag1
(g31
g3
NtRp93
(dp94
g15
Nsg34
Nsg16
I28
sg35
S'INSERTED'
p95
sg19
g20
sbasg16
I28
sg19
g20
sbsg16
I28
sg35
S'StylusState'
p96
sg19
g20
sbag1
(g44
g3
NtRp97
(dp98
g47
g1
(g48
g3
NtRp99
(dp100
g10
(lp101
g1
(g52
g3
NtRp102
(dp103
g55
Nsg56
Nsg35
S'input_device'
p104
sg15
Nsg19
Nsg58
S'InputDevice'
p105
sg16
Nsbag1
(g52
g3
NtRp106
(dp107
g55
Nsg56
Nsg35
S'size'
p108
sg15
Nsg19
Nsg58
S'gfx.mojom.Size'
p109
sg16
Nsbag1
(g52
g3
NtRp110
(dp111
g55
Nsg56
Nsg35
S'touch_points'
p112
sg15
Nsg19
Nsg58
S'int32'
p113
sg16
Nsbag1
(g52
g3
NtRp114
(dp115
g55
Nsg56
Nsg35
S'has_stylus'
p116
sg15
Nsg19
Nsg58
S'bool'
p117
sg16
Nsbasg16
Nsg19
Nsbsg15
Nsg16
Nsg35
S'TouchscreenDevice'
p118
sg19
Nsbasg16
NsS'module'
p119
g1
(cmojom.parse.ast
Module
p120
g3
NtRp121
(dp122
S'mojom_namespace'
p123
(S'IDENTIFIER'
p124
S'ui.mojom'
tp125
sg16
I5
sg15
Nsg19
g20
sbsg19
Nsb.