ccopy_reg
_reconstructor
p1
(cmojom.parse.ast
Mojom
p2
c__builtin__
object
p3
NtRp4
(dp5
S'import_list'
p6
g1
(cmojom.parse.ast
ImportList
p7
g3
NtRp8
(dp9
S'items'
p10
(lp11
g1
(cmojom.parse.ast
Import
p12
g3
NtRp13
(dp14
S'attribute_list'
p15
NsS'lineno'
p16
I11
sS'import_filename'
p17
S'mojo/public/mojom/base/file.mojom'
p18
sS'filename'
p19
S'../../chrome/services/file_util/public/mojom/safe_archive_analyzer.mojom'
p20
sbag1
(g12
g3
NtRp21
(dp22
g15
Nsg16
I12
sg17
S'mojo/public/mojom/base/file_path.mojom'
p23
sg19
g20
sbasg16
I11
sg19
g20
sbsS'definition_list'
p24
(lp25
g1
(cmojom.parse.ast
Interface
p26
g3
NtRp27
(dp28
S'body'
p29
g1
(cmojom.parse.ast
InterfaceBody
p30
g3
NtRp31
(dp32
g10
(lp33
g1
(cmojom.parse.ast
Method
p34
g3
NtRp35
(dp36
S'ordinal'
p37
NsS'mojom_name'
p38
S'AnalyzeZipFile'
p39
sS'parameter_list'
p40
g1
(cmojom.parse.ast
ParameterList
p41
g3
NtRp42
(dp43
g10
(lp44
g1
(cmojom.parse.ast
Parameter
p45
g3
NtRp46
(dp47
g37
Nsg38
S'zip_file'
p48
sg15
Nsg19
g20
sS'typename'
p49
S'mojo_base.mojom.File'
p50
sg16
I18
sbag1
(g45
g3
NtRp51
(dp52
g37
Nsg38
S'temporary_file'
p53
sg15
Nsg19
g20
sg49
S'mojo_base.mojom.File'
p54
sg16
I19
sbasg16
I18
sg19
g20
sbsg15
Nsg19
Nsg16
NsS'response_parameter_list'
p55
g1
(g41
g3
NtRp56
(dp57
g10
(lp58
g1
(g45
g3
NtRp59
(dp60
g37
Nsg38
S'results'
p61
sg15
Nsg19
g20
sg49
S'SafeArchiveAnalyzerResults'
p62
sg16
I20
sbasg16
I20
sg19
g20
sbsbag1
(g34
g3
NtRp63
(dp64
g37
Nsg38
S'AnalyzeDmgFile'
p65
sg40
g1
(g41
g3
NtRp66
(dp67
g10
(lp68
g1
(g45
g3
NtRp69
(dp70
g37
Nsg38
S'dmg_file'
p71
sg15
Nsg19
g20
sg49
S'mojo_base.mojom.File'
p72
sg16
I24
sbasg16
I24
sg19
g20
sbsg15
Nsg19
Nsg16
Nsg55
g1
(g41
g3
NtRp73
(dp74
g10
(lp75
g1
(g45
g3
NtRp76
(dp77
g37
Nsg38
S'results'
p78
sg15
Nsg19
g20
sg49
S'SafeArchiveAnalyzerResults'
p79
sg16
I25
sbasg16
I25
sg19
g20
sbsbag1
(g34
g3
NtRp80
(dp81
g37
Nsg38
S'AnalyzeRarFile'
p82
sg40
g1
(g41
g3
NtRp83
(dp84
g10
(lp85
g1
(g45
g3
NtRp86
(dp87
g37
Nsg38
S'rar_file'
p88
sg15
Nsg19
g20
sg49
S'mojo_base.mojom.FilePath'
p89
sg16
I29
sbasg16
I29
sg19
g20
sbsg15
Nsg19
Nsg16
Nsg55
g1
(g41
g3
NtRp90
(dp91
g10
(lp92
g1
(g45
g3
NtRp93
(dp94
g37
Nsg38
S'results'
p95
sg15
Nsg19
g20
sg49
S'SafeArchiveAnalyzerResults'
p96
sg16
I30
sbasg16
I30
sg19
g20
sbsbasg16
Nsg19
Nsbsg15
Nsg16
Nsg38
S'SafeArchiveAnalyzer'
p97
sg19
Nsbag1
(cmojom.parse.ast
Struct
p98
g3
NtRp99
(dp100
g29
Nsg15
g1
(cmojom.parse.ast
AttributeList
p101
g3
NtRp102
(dp103
g10
(lp104
g1
(cmojom.parse.ast
Attribute
p105
g3
NtRp106
(dp107
S'value'
p108
I01
sg16
I33
sS'key'
p109
S'Native'
p110
sg19
g20
sbasg16
I33
sg19
g20
sbsg16
Nsg38
S'SafeArchiveAnalyzerResults'
p111
sg19
Nsbasg16
NsS'module'
p112
g1
(cmojom.parse.ast
Module
p113
g3
NtRp114
(dp115
S'mojom_namespace'
p116
(S'IDENTIFIER'
p117
S'chrome.mojom'
tp118
sg16
I9
sg15
Nsg19
g20
sbsg19
Nsb.