ccopy_reg
_reconstructor
p1
(cmojom.parse.ast
Mojom
p2
c__builtin__
object
p3
NtRp4
(dp5
S'import_list'
p6
g1
(cmojom.parse.ast
ImportList
p7
g3
NtRp8
(dp9
S'items'
p10
(lp11
sS'lineno'
p12
NsS'filename'
p13
NsbsS'definition_list'
p14
(lp15
g1
(cmojom.parse.ast
Const
p16
g3
NtRp17
(dp18
S'mojom_name'
p19
S'kWindow'
p20
sS'attribute_list'
p21
NsS'value'
p22
S'1'
sg13
NsS'typename'
p23
S'uint32'
p24
sg12
Nsbag1
(g16
g3
NtRp25
(dp26
g19
S'kIncognitoWindow'
p27
sg21
Nsg22
S'2'
sg13
Nsg23
S'uint32'
p28
sg12
Nsbag1
(cmojom.parse.ast
Enum
p29
g3
NtRp30
(dp31
g21
NsS'enum_value_list'
p32
g1
(cmojom.parse.ast
EnumValueList
p33
g3
NtRp34
(dp35
g10
(lp36
g1
(cmojom.parse.ast
EnumValue
p37
g3
NtRp38
(dp39
g21
Nsg22
Nsg12
I11
sg19
S'DEFAULT'
p40
sg13
S'../../mash/public/mojom/launchable.mojom'
p41
sbag1
(g37
g3
NtRp42
(dp43
g21
Nsg22
Nsg12
I12
sg19
S'REUSE'
p44
sg13
g41
sbag1
(g37
g3
NtRp45
(dp46
g21
Nsg22
Nsg12
I13
sg19
S'MAKE_NEW'
p47
sg13
g41
sbasg12
I11
sg13
g41
sbsg12
I10
sg19
S'LaunchMode'
p48
sg13
g41
sbag1
(cmojom.parse.ast
Interface
p49
g3
NtRp50
(dp51
S'body'
p52
g1
(cmojom.parse.ast
InterfaceBody
p53
g3
NtRp54
(dp55
g10
(lp56
g1
(cmojom.parse.ast
Method
p57
g3
NtRp58
(dp59
S'ordinal'
p60
Nsg19
S'Launch'
p61
sS'parameter_list'
p62
g1
(cmojom.parse.ast
ParameterList
p63
g3
NtRp64
(dp65
g10
(lp66
g1
(cmojom.parse.ast
Parameter
p67
g3
NtRp68
(dp69
g60
Nsg19
S'what'
p70
sg21
Nsg13
g41
sg23
S'uint32'
p71
sg12
I21
sbag1
(g67
g3
NtRp72
(dp73
g60
Nsg19
S'how'
p74
sg21
Nsg13
g41
sg23
S'LaunchMode'
p75
sg12
I21
sbasg12
I21
sg13
g41
sbsg21
Nsg13
Nsg12
NsS'response_parameter_list'
p76
Nsbasg12
Nsg13
Nsbsg21
Nsg12
Nsg19
S'Launchable'
p77
sg13
Nsbasg12
NsS'module'
p78
g1
(cmojom.parse.ast
Module
p79
g3
NtRp80
(dp81
S'mojom_namespace'
p82
(S'IDENTIFIER'
p83
S'mash.mojom'
tp84
sg12
I5
sg21
Nsg13
g41
sbsg13
Nsb.