ccopy_reg
_reconstructor
p1
(cmojom.parse.ast
Mojom
p2
c__builtin__
object
p3
NtRp4
(dp5
S'import_list'
p6
g1
(cmojom.parse.ast
ImportList
p7
g3
NtRp8
(dp9
S'items'
p10
(lp11
sS'lineno'
p12
NsS'filename'
p13
NsbsS'definition_list'
p14
(lp15
g1
(cmojom.parse.ast
Struct
p16
g3
NtRp17
(dp18
S'body'
p19
g1
(cmojom.parse.ast
StructBody
p20
g3
NtRp21
(dp22
g10
(lp23
g1
(cmojom.parse.ast
StructField
p24
g3
NtRp25
(dp26
S'ordinal'
p27
NsS'default_value'
p28
NsS'mojom_name'
p29
S'max'
p30
sS'attribute_list'
p31
Nsg13
NsS'typename'
p32
S'double'
p33
sg12
Nsbag1
(g24
g3
NtRp34
(dp35
g27
Nsg28
Nsg29
S'min'
p36
sg31
Nsg13
Nsg32
S'double'
p37
sg12
Nsbag1
(g24
g3
NtRp38
(dp39
g27
Nsg28
Nsg29
S'current'
p40
sg31
Nsg13
Nsg32
S'double'
p41
sg12
Nsbag1
(g24
g3
NtRp42
(dp43
g27
Nsg28
Nsg29
S'step'
p44
sg31
Nsg13
Nsg32
S'double'
p45
sg12
Nsbasg12
Nsg13
Nsbsg31
Nsg12
Nsg29
S'Range'
p46
sg13
Nsbag1
(cmojom.parse.ast
Enum
p47
g3
NtRp48
(dp49
g31
NsS'enum_value_list'
p50
g1
(cmojom.parse.ast
EnumValueList
p51
g3
NtRp52
(dp53
g10
(lp54
g1
(cmojom.parse.ast
EnumValue
p55
g3
NtRp56
(dp57
g31
NsS'value'
p58
Nsg12
I18
sg29
S'NONE'
p59
sg13
S'../../media/capture/mojom/image_capture.mojom'
p60
sbag1
(g55
g3
NtRp61
(dp62
g31
Nsg58
Nsg12
I18
sg29
S'MANUAL'
p63
sg13
g60
sbag1
(g55
g3
NtRp64
(dp65
g31
Nsg58
Nsg12
I18
sg29
S'SINGLE_SHOT'
p66
sg13
g60
sbag1
(g55
g3
NtRp67
(dp68
g31
Nsg58
Nsg12
I18
sg29
S'CONTINUOUS'
p69
sg13
g60
sbasg12
I18
sg13
g60
sbsg12
I18
sg29
S'MeteringMode'
p70
sg13
g60
sbag1
(g47
g3
NtRp71
(dp72
g31
Nsg50
g1
(g51
g3
NtRp73
(dp74
g10
(lp75
g1
(g55
g3
NtRp76
(dp77
g31
Nsg58
Nsg12
I21
sg29
S'NEVER'
p78
sg13
g60
sbag1
(g55
g3
NtRp79
(dp80
g31
Nsg58
Nsg12
I21
sg29
S'ALWAYS'
p81
sg13
g60
sbag1
(g55
g3
NtRp82
(dp83
g31
Nsg58
Nsg12
I21
sg29
S'CONTROLLABLE'
p84
sg13
g60
sbasg12
I21
sg13
g60
sbsg12
I21
sg29
S'RedEyeReduction'
p85
sg13
g60
sbag1
(g47
g3
NtRp86
(dp87
g31
Nsg50
g1
(g51
g3
NtRp88
(dp89
g10
(lp90
g1
(g55
g3
NtRp91
(dp92
g31
Nsg58
Nsg12
I24
sg29
S'OFF'
p93
sg13
g60
sbag1
(g55
g3
NtRp94
(dp95
g31
Nsg58
Nsg12
I24
sg29
S'AUTO'
p96
sg13
g60
sbag1
(g55
g3
NtRp97
(dp98
g31
Nsg58
Nsg12
I24
sg29
S'FLASH'
p99
sg13
g60
sbasg12
I24
sg13
g60
sbsg12
I24
sg29
S'FillLightMode'
p100
sg13
g60
sbag1
(g16
g3
NtRp101
(dp102
g19
g1
(g20
g3
NtRp103
(dp104
g10
(lp105
g1
(g24
g3
NtRp106
(dp107
g27
Nsg28
Nsg29
S'supported_white_balance_modes'
p108
sg31
Nsg13
Nsg32
S'MeteringMode[]'
p109
sg12
Nsbag1
(g24
g3
NtRp110
(dp111
g27
Nsg28
Nsg29
S'current_white_balance_mode'
p112
sg31
Nsg13
Nsg32
S'MeteringMode'
p113
sg12
Nsbag1
(g24
g3
NtRp114
(dp115
g27
Nsg28
Nsg29
S'supported_exposure_modes'
p116
sg31
Nsg13
Nsg32
S'MeteringMode[]'
p117
sg12
Nsbag1
(g24
g3
NtRp118
(dp119
g27
Nsg28
Nsg29
S'current_exposure_mode'
p120
sg31
Nsg13
Nsg32
S'MeteringMode'
p121
sg12
Nsbag1
(g24
g3
NtRp122
(dp123
g27
Nsg28
Nsg29
S'supported_focus_modes'
p124
sg31
Nsg13
Nsg32
S'MeteringMode[]'
p125
sg12
Nsbag1
(g24
g3
NtRp126
(dp127
g27
Nsg28
Nsg29
S'current_focus_mode'
p128
sg31
Nsg13
Nsg32
S'MeteringMode'
p129
sg12
Nsbag1
(g24
g3
NtRp130
(dp131
g27
Nsg28
Nsg29
S'points_of_interest'
p132
sg31
Nsg13
Nsg32
S'Point2D[]'
p133
sg12
Nsbag1
(g24
g3
NtRp134
(dp135
g27
Nsg28
Nsg29
S'exposure_compensation'
p136
sg31
Nsg13
Nsg32
S'Range'
p137
sg12
Nsbag1
(g24
g3
NtRp138
(dp139
g27
Nsg28
Nsg29
S'color_temperature'
p140
sg31
Nsg13
Nsg32
S'Range'
p141
sg12
Nsbag1
(g24
g3
NtRp142
(dp143
g27
Nsg28
Nsg29
S'iso'
p144
sg31
Nsg13
Nsg32
S'Range'
p145
sg12
Nsbag1
(g24
g3
NtRp146
(dp147
g27
Nsg28
Nsg29
S'brightness'
p148
sg31
Nsg13
Nsg32
S'Range'
p149
sg12
Nsbag1
(g24
g3
NtRp150
(dp151
g27
Nsg28
Nsg29
S'contrast'
p152
sg31
Nsg13
Nsg32
S'Range'
p153
sg12
Nsbag1
(g24
g3
NtRp154
(dp155
g27
Nsg28
Nsg29
S'saturation'
p156
sg31
Nsg13
Nsg32
S'Range'
p157
sg12
Nsbag1
(g24
g3
NtRp158
(dp159
g27
Nsg28
Nsg29
S'sharpness'
p160
sg31
Nsg13
Nsg32
S'Range'
p161
sg12
Nsbag1
(g24
g3
NtRp162
(dp163
g27
Nsg28
Nsg29
S'zoom'
p164
sg31
Nsg13
Nsg32
S'Range'
p165
sg12
Nsbag1
(g24
g3
NtRp166
(dp167
g27
Nsg28
Nsg29
S'supports_torch'
p168
sg31
Nsg13
Nsg32
S'bool'
p169
sg12
Nsbag1
(g24
g3
NtRp170
(dp171
g27
Nsg28
Nsg29
S'torch'
p172
sg31
Nsg13
Nsg32
S'bool'
p173
sg12
Nsbag1
(g24
g3
NtRp174
(dp175
g27
Nsg28
Nsg29
S'red_eye_reduction'
p176
sg31
Nsg13
Nsg32
S'RedEyeReduction'
p177
sg12
Nsbag1
(g24
g3
NtRp178
(dp179
g27
Nsg28
Nsg29
S'height'
p180
sg31
Nsg13
Nsg32
S'Range'
p181
sg12
Nsbag1
(g24
g3
NtRp182
(dp183
g27
Nsg28
Nsg29
S'width'
p184
sg31
Nsg13
Nsg32
S'Range'
p185
sg12
Nsbag1
(g24
g3
NtRp186
(dp187
g27
Nsg28
Nsg29
S'fill_light_mode'
p188
sg31
Nsg13
Nsg32
S'FillLightMode[]'
p189
sg12
Nsbasg12
Nsg13
Nsbsg31
Nsg12
Nsg29
S'PhotoState'
p190
sg13
Nsbag1
(g16
g3
NtRp191
(dp192
g19
g1
(g20
g3
NtRp193
(dp194
g10
(lp195
g1
(g24
g3
NtRp196
(dp197
g27
Nsg28
Nsg29
S'x'
sg31
Nsg13
Nsg32
S'float'
p198
sg12
Nsbag1
(g24
g3
NtRp199
(dp200
g27
Nsg28
Nsg29
S'y'
sg31
Nsg13
Nsg32
S'float'
p201
sg12
Nsbasg12
Nsg13
Nsbsg31
Nsg12
Nsg29
S'Point2D'
p202
sg13
Nsbag1
(g16
g3
NtRp203
(dp204
g19
g1
(g20
g3
NtRp205
(dp206
g10
(lp207
g1
(g24
g3
NtRp208
(dp209
g27
Nsg28
Nsg29
S'has_white_balance_mode'
p210
sg31
Nsg13
Nsg32
S'bool'
p211
sg12
Nsbag1
(g24
g3
NtRp212
(dp213
g27
Nsg28
Nsg29
S'white_balance_mode'
p214
sg31
Nsg13
Nsg32
S'MeteringMode'
p215
sg12
Nsbag1
(g24
g3
NtRp216
(dp217
g27
Nsg28
Nsg29
S'has_exposure_mode'
p218
sg31
Nsg13
Nsg32
S'bool'
p219
sg12
Nsbag1
(g24
g3
NtRp220
(dp221
g27
Nsg28
Nsg29
S'exposure_mode'
p222
sg31
Nsg13
Nsg32
S'MeteringMode'
p223
sg12
Nsbag1
(g24
g3
NtRp224
(dp225
g27
Nsg28
Nsg29
S'has_focus_mode'
p226
sg31
Nsg13
Nsg32
S'bool'
p227
sg12
Nsbag1
(g24
g3
NtRp228
(dp229
g27
Nsg28
Nsg29
S'focus_mode'
p230
sg31
Nsg13
Nsg32
S'MeteringMode'
p231
sg12
Nsbag1
(g24
g3
NtRp232
(dp233
g27
Nsg28
Nsg29
S'points_of_interest'
p234
sg31
Nsg13
Nsg32
S'Point2D[]'
p235
sg12
Nsbag1
(g24
g3
NtRp236
(dp237
g27
Nsg28
Nsg29
S'has_exposure_compensation'
p238
sg31
Nsg13
Nsg32
S'bool'
p239
sg12
Nsbag1
(g24
g3
NtRp240
(dp241
g27
Nsg28
Nsg29
S'exposure_compensation'
p242
sg31
Nsg13
Nsg32
S'double'
p243
sg12
Nsbag1
(g24
g3
NtRp244
(dp245
g27
Nsg28
Nsg29
S'has_color_temperature'
p246
sg31
Nsg13
Nsg32
S'bool'
p247
sg12
Nsbag1
(g24
g3
NtRp248
(dp249
g27
Nsg28
Nsg29
S'color_temperature'
p250
sg31
Nsg13
Nsg32
S'double'
p251
sg12
Nsbag1
(g24
g3
NtRp252
(dp253
g27
Nsg28
Nsg29
S'has_iso'
p254
sg31
Nsg13
Nsg32
S'bool'
p255
sg12
Nsbag1
(g24
g3
NtRp256
(dp257
g27
Nsg28
Nsg29
S'iso'
p258
sg31
Nsg13
Nsg32
S'double'
p259
sg12
Nsbag1
(g24
g3
NtRp260
(dp261
g27
Nsg28
Nsg29
S'has_brightness'
p262
sg31
Nsg13
Nsg32
S'bool'
p263
sg12
Nsbag1
(g24
g3
NtRp264
(dp265
g27
Nsg28
Nsg29
S'brightness'
p266
sg31
Nsg13
Nsg32
S'double'
p267
sg12
Nsbag1
(g24
g3
NtRp268
(dp269
g27
Nsg28
Nsg29
S'has_contrast'
p270
sg31
Nsg13
Nsg32
S'bool'
p271
sg12
Nsbag1
(g24
g3
NtRp272
(dp273
g27
Nsg28
Nsg29
S'contrast'
p274
sg31
Nsg13
Nsg32
S'double'
p275
sg12
Nsbag1
(g24
g3
NtRp276
(dp277
g27
Nsg28
Nsg29
S'has_saturation'
p278
sg31
Nsg13
Nsg32
S'bool'
p279
sg12
Nsbag1
(g24
g3
NtRp280
(dp281
g27
Nsg28
Nsg29
S'saturation'
p282
sg31
Nsg13
Nsg32
S'double'
p283
sg12
Nsbag1
(g24
g3
NtRp284
(dp285
g27
Nsg28
Nsg29
S'has_sharpness'
p286
sg31
Nsg13
Nsg32
S'bool'
p287
sg12
Nsbag1
(g24
g3
NtRp288
(dp289
g27
Nsg28
Nsg29
S'sharpness'
p290
sg31
Nsg13
Nsg32
S'double'
p291
sg12
Nsbag1
(g24
g3
NtRp292
(dp293
g27
Nsg28
Nsg29
S'has_zoom'
p294
sg31
Nsg13
Nsg32
S'bool'
p295
sg12
Nsbag1
(g24
g3
NtRp296
(dp297
g27
Nsg28
Nsg29
S'zoom'
p298
sg31
Nsg13
Nsg32
S'double'
p299
sg12
Nsbag1
(g24
g3
NtRp300
(dp301
g27
Nsg28
Nsg29
S'has_torch'
p302
sg31
Nsg13
Nsg32
S'bool'
p303
sg12
Nsbag1
(g24
g3
NtRp304
(dp305
g27
Nsg28
Nsg29
S'torch'
p306
sg31
Nsg13
Nsg32
S'bool'
p307
sg12
Nsbag1
(g24
g3
NtRp308
(dp309
g27
Nsg28
Nsg29
S'has_fill_light_mode'
p310
sg31
Nsg13
Nsg32
S'bool'
p311
sg12
Nsbag1
(g24
g3
NtRp312
(dp313
g27
Nsg28
Nsg29
S'fill_light_mode'
p314
sg31
Nsg13
Nsg32
S'FillLightMode'
p315
sg12
Nsbag1
(g24
g3
NtRp316
(dp317
g27
Nsg28
Nsg29
S'has_width'
p318
sg31
Nsg13
Nsg32
S'bool'
p319
sg12
Nsbag1
(g24
g3
NtRp320
(dp321
g27
Nsg28
Nsg29
S'width'
p322
sg31
Nsg13
Nsg32
S'double'
p323
sg12
Nsbag1
(g24
g3
NtRp324
(dp325
g27
Nsg28
Nsg29
S'has_height'
p326
sg31
Nsg13
Nsg32
S'bool'
p327
sg12
Nsbag1
(g24
g3
NtRp328
(dp329
g27
Nsg28
Nsg29
S'height'
p330
sg31
Nsg13
Nsg32
S'double'
p331
sg12
Nsbag1
(g24
g3
NtRp332
(dp333
g27
Nsg28
Nsg29
S'has_red_eye_reduction'
p334
sg31
Nsg13
Nsg32
S'bool'
p335
sg12
Nsbag1
(g24
g3
NtRp336
(dp337
g27
Nsg28
Nsg29
S'red_eye_reduction'
p338
sg31
Nsg13
Nsg32
S'bool'
p339
sg12
Nsbasg12
Nsg13
Nsbsg31
Nsg12
Nsg29
S'PhotoSettings'
p340
sg13
Nsbag1
(g16
g3
NtRp341
(dp342
g19
g1
(g20
g3
NtRp343
(dp344
g10
(lp345
g1
(g24
g3
NtRp346
(dp347
g27
Nsg28
Nsg29
S'mime_type'
p348
sg31
Nsg13
Nsg32
S'string'
p349
sg12
Nsbag1
(g24
g3
NtRp350
(dp351
g27
Nsg28
Nsg29
S'data'
p352
sg31
Nsg13
Nsg32
S'uint8[]'
p353
sg12
Nsbasg12
Nsg13
Nsbsg31
Nsg12
Nsg29
S'Blob'
p354
sg13
Nsbag1
(cmojom.parse.ast
Interface
p355
g3
NtRp356
(dp357
g19
g1
(cmojom.parse.ast
InterfaceBody
p358
g3
NtRp359
(dp360
g10
(lp361
g1
(cmojom.parse.ast
Method
p362
g3
NtRp363
(dp364
g27
Nsg29
S'GetPhotoState'
p365
sS'parameter_list'
p366
g1
(cmojom.parse.ast
ParameterList
p367
g3
NtRp368
(dp369
g10
(lp370
g1
(cmojom.parse.ast
Parameter
p371
g3
NtRp372
(dp373
g27
Nsg29
S'source_id'
p374
sg31
Nsg13
g60
sg32
S'string'
p375
sg12
I126
sbasg12
I126
sg13
g60
sbsg31
Nsg13
Nsg12
NsS'response_parameter_list'
p376
g1
(g367
g3
NtRp377
(dp378
g10
(lp379
g1
(g371
g3
NtRp380
(dp381
g27
Nsg29
S'state'
p382
sg31
Nsg13
g60
sg32
S'PhotoState'
p383
sg12
I127
sbasg12
I127
sg13
g60
sbsbag1
(g362
g3
NtRp384
(dp385
g27
Nsg29
S'SetOptions'
p386
sg366
g1
(g367
g3
NtRp387
(dp388
g10
(lp389
g1
(g371
g3
NtRp390
(dp391
g27
Nsg29
S'source_id'
p392
sg31
Nsg13
g60
sg32
S'string'
p393
sg12
I131
sbag1
(g371
g3
NtRp394
(dp395
g27
Nsg29
S'settings'
p396
sg31
Nsg13
g60
sg32
S'PhotoSettings'
p397
sg12
I131
sbasg12
I131
sg13
g60
sbsg31
Nsg13
Nsg12
Nsg376
g1
(g367
g3
NtRp398
(dp399
g10
(lp400
g1
(g371
g3
NtRp401
(dp402
g27
Nsg29
S'success'
p403
sg31
Nsg13
g60
sg32
S'bool'
p404
sg12
I132
sbasg12
I132
sg13
g60
sbsbag1
(g362
g3
NtRp405
(dp406
g27
Nsg29
S'TakePhoto'
p407
sg366
g1
(g367
g3
NtRp408
(dp409
g10
(lp410
g1
(g371
g3
NtRp411
(dp412
g27
Nsg29
S'source_id'
p413
sg31
Nsg13
g60
sg32
S'string'
p414
sg12
I137
sbasg12
I137
sg13
g60
sbsg31
Nsg13
Nsg12
Nsg376
g1
(g367
g3
NtRp415
(dp416
g10
(lp417
g1
(g371
g3
NtRp418
(dp419
g27
Nsg29
S'blob'
p420
sg31
Nsg13
g60
sg32
S'Blob'
p421
sg12
I138
sbasg12
I138
sg13
g60
sbsbasg12
Nsg13
Nsbsg31
Nsg12
Nsg29
S'ImageCapture'
p422
sg13
Nsbasg12
NsS'module'
p423
g1
(cmojom.parse.ast
Module
p424
g3
NtRp425
(dp426
S'mojom_namespace'
p427
(S'IDENTIFIER'
p428
S'media.mojom'
tp429
sg12
I5
sg31
Nsg13
g60
sbsg13
Nsb.