ccopy_reg
_reconstructor
p1
(cmojom.parse.ast
Mojom
p2
c__builtin__
object
p3
NtRp4
(dp5
S'import_list'
p6
g1
(cmojom.parse.ast
ImportList
p7
g3
NtRp8
(dp9
S'items'
p10
(lp11
g1
(cmojom.parse.ast
Import
p12
g3
NtRp13
(dp14
S'attribute_list'
p15
NsS'lineno'
p16
I7
sS'import_filename'
p17
S'gpu/ipc/common/mailbox_holder.mojom'
p18
sS'filename'
p19
S'../../media/capture/mojom/video_capture_types.mojom'
p20
sbag1
(g12
g3
NtRp21
(dp22
g15
Nsg16
I8
sg17
S'mojo/public/mojom/base/time.mojom'
p23
sg19
g20
sbag1
(g12
g3
NtRp24
(dp25
g15
Nsg16
I9
sg17
S'mojo/public/mojom/base/values.mojom'
p26
sg19
g20
sbag1
(g12
g3
NtRp27
(dp28
g15
Nsg16
I10
sg17
S'ui/gfx/geometry/mojo/geometry.mojom'
p29
sg19
g20
sbasg16
I7
sg19
g20
sbsS'definition_list'
p30
(lp31
g1
(cmojom.parse.ast
Enum
p32
g3
NtRp33
(dp34
g15
NsS'enum_value_list'
p35
g1
(cmojom.parse.ast
EnumValueList
p36
g3
NtRp37
(dp38
g10
(lp39
g1
(cmojom.parse.ast
EnumValue
p40
g3
NtRp41
(dp42
g15
NsS'value'
p43
Nsg16
I13
sS'mojom_name'
p44
S'I420'
p45
sg19
g20
sbag1
(g40
g3
NtRp46
(dp47
g15
Nsg43
Nsg16
I14
sg44
S'Y16'
p48
sg19
g20
sbag1
(g40
g3
NtRp49
(dp50
g15
Nsg43
Nsg16
I15
sg44
S'ARGB'
p51
sg19
g20
sbasg16
I13
sg19
g20
sbsg16
I12
sg44
S'VideoCapturePixelFormat'
p52
sg19
g20
sbag1
(g32
g3
NtRp53
(dp54
g15
Nsg35
g1
(g36
g3
NtRp55
(dp56
g10
(lp57
g1
(g40
g3
NtRp58
(dp59
g15
Nsg43
Nsg16
I19
sg44
S'FIXED_RESOLUTION'
p60
sg19
g20
sbag1
(g40
g3
NtRp61
(dp62
g15
Nsg43
Nsg16
I20
sg44
S'FIXED_ASPECT_RATIO'
p63
sg19
g20
sbag1
(g40
g3
NtRp64
(dp65
g15
Nsg43
Nsg16
I21
sg44
S'ANY_WITHIN_LIMIT'
p66
sg19
g20
sbasg16
I19
sg19
g20
sbsg16
I18
sg44
S'ResolutionChangePolicy'
p67
sg19
g20
sbag1
(g32
g3
NtRp68
(dp69
g15
Nsg35
g1
(g36
g3
NtRp70
(dp71
g10
(lp72
g1
(g40
g3
NtRp73
(dp74
g15
Nsg43
Nsg16
I25
sg44
S'DEFAULT'
p75
sg19
g20
sbag1
(g40
g3
NtRp76
(dp77
g15
Nsg43
Nsg16
I26
sg44
S'HZ_50'
p78
sg19
g20
sbag1
(g40
g3
NtRp79
(dp80
g15
Nsg43
Nsg16
I27
sg44
S'HZ_60'
p81
sg19
g20
sbasg16
I25
sg19
g20
sbsg16
I24
sg44
S'PowerLineFrequency'
p82
sg19
g20
sbag1
(g32
g3
NtRp83
(dp84
g15
Nsg35
g1
(g36
g3
NtRp85
(dp86
g10
(lp87
g1
(g40
g3
NtRp88
(dp89
g15
Nsg43
Nsg16
I31
sg44
S'LINUX_V4L2_SINGLE_PLANE'
p90
sg19
g20
sbag1
(g40
g3
NtRp91
(dp92
g15
Nsg43
Nsg16
I32
sg44
S'WIN_MEDIA_FOUNDATION'
p93
sg19
g20
sbag1
(g40
g3
NtRp94
(dp95
g15
Nsg43
Nsg16
I33
sg44
S'WIN_MEDIA_FOUNDATION_SENSOR'
p96
sg19
g20
sbag1
(g40
g3
NtRp97
(dp98
g15
Nsg43
Nsg16
I34
sg44
S'WIN_DIRECT_SHOW'
p99
sg19
g20
sbag1
(g40
g3
NtRp100
(dp101
g15
Nsg43
Nsg16
I35
sg44
S'MACOSX_AVFOUNDATION'
p102
sg19
g20
sbag1
(g40
g3
NtRp103
(dp104
g15
Nsg43
Nsg16
I36
sg44
S'MACOSX_DECKLINK'
p105
sg19
g20
sbag1
(g40
g3
NtRp106
(dp107
g15
Nsg43
Nsg16
I37
sg44
S'ANDROID_API1'
p108
sg19
g20
sbag1
(g40
g3
NtRp109
(dp110
g15
Nsg43
Nsg16
I38
sg44
S'ANDROID_API2_LEGACY'
p111
sg19
g20
sbag1
(g40
g3
NtRp112
(dp113
g15
Nsg43
Nsg16
I39
sg44
S'ANDROID_API2_FULL'
p114
sg19
g20
sbag1
(g40
g3
NtRp115
(dp116
g15
Nsg43
Nsg16
I40
sg44
S'ANDROID_API2_LIMITED'
p117
sg19
g20
sbag1
(g40
g3
NtRp118
(dp119
g15
Nsg43
Nsg16
I41
sg44
S'UNKNOWN'
p120
sg19
g20
sbasg16
I31
sg19
g20
sbsg16
I30
sg44
S'VideoCaptureApi'
p121
sg19
g20
sbag1
(g32
g3
NtRp122
(dp123
g15
Nsg35
g1
(g36
g3
NtRp124
(dp125
g10
(lp126
g1
(g40
g3
NtRp127
(dp128
g15
Nsg43
Nsg16
I46
sg44
S'MACOSX_USB_OR_BUILT_IN'
p129
sg19
g20
sbag1
(g40
g3
NtRp130
(dp131
g15
Nsg43
Nsg16
I47
sg44
S'OTHER_TRANSPORT'
p132
sg19
g20
sbasg16
I46
sg19
g20
sbsg16
I44
sg44
S'VideoCaptureTransportType'
p133
sg19
g20
sbag1
(cmojom.parse.ast
Struct
p134
g3
NtRp135
(dp136
S'body'
p137
g1
(cmojom.parse.ast
StructBody
p138
g3
NtRp139
(dp140
g10
(lp141
g1
(cmojom.parse.ast
StructField
p142
g3
NtRp143
(dp144
S'ordinal'
p145
NsS'default_value'
p146
Nsg44
S'frame_size'
p147
sg15
Nsg19
NsS'typename'
p148
S'gfx.mojom.Size'
p149
sg16
Nsbag1
(g142
g3
NtRp150
(dp151
g145
Nsg146
Nsg44
S'frame_rate'
p152
sg15
Nsg19
Nsg148
S'float'
p153
sg16
Nsbag1
(g142
g3
NtRp154
(dp155
g145
Nsg146
Nsg44
S'pixel_format'
p156
sg15
Nsg19
Nsg148
S'VideoCapturePixelFormat'
p157
sg16
Nsbasg16
Nsg19
Nsbsg15
Nsg16
Nsg44
S'VideoCaptureFormat'
p158
sg19
Nsbag1
(g134
g3
NtRp159
(dp160
g137
g1
(g138
g3
NtRp161
(dp162
g10
(lp163
g1
(g142
g3
NtRp164
(dp165
g145
Nsg146
Nsg44
S'requested_format'
p166
sg15
Nsg19
Nsg148
S'VideoCaptureFormat'
p167
sg16
Nsbag1
(g142
g3
NtRp168
(dp169
g145
Nsg146
Nsg44
S'resolution_change_policy'
p170
sg15
Nsg19
Nsg148
S'ResolutionChangePolicy'
p171
sg16
Nsbag1
(g142
g3
NtRp172
(dp173
g145
Nsg146
Nsg44
S'power_line_frequency'
p174
sg15
Nsg19
Nsg148
S'PowerLineFrequency'
p175
sg16
Nsbasg16
Nsg19
Nsbsg15
Nsg16
Nsg44
S'VideoCaptureParams'
p176
sg19
Nsbag1
(g134
g3
NtRp177
(dp178
g137
g1
(g138
g3
NtRp179
(dp180
g10
(lp181
g1
(g142
g3
NtRp182
(dp183
g145
Nsg146
Nsg44
S'timestamp'
p184
sg15
Nsg19
Nsg148
S'mojo_base.mojom.TimeDelta'
p185
sg16
Nsbag1
(g142
g3
NtRp186
(dp187
g145
Nsg146
Nsg44
S'metadata'
p188
sg15
Nsg19
Nsg148
S'mojo_base.mojom.DictionaryValue'
p189
sg16
Nsbag1
(g142
g3
NtRp190
(dp191
g145
Nsg146
Nsg44
S'pixel_format'
p192
sg15
Nsg19
Nsg148
S'VideoCapturePixelFormat'
p193
sg16
Nsbag1
(g142
g3
NtRp194
(dp195
g145
Nsg146
Nsg44
S'coded_size'
p196
sg15
Nsg19
Nsg148
S'gfx.mojom.Size'
p197
sg16
Nsbag1
(g142
g3
NtRp198
(dp199
g145
Nsg146
Nsg44
S'visible_rect'
p200
sg15
Nsg19
Nsg148
S'gfx.mojom.Rect'
p201
sg16
Nsbasg16
Nsg19
Nsbsg15
Nsg16
Nsg44
S'VideoFrameInfo'
p202
sg19
Nsbag1
(g134
g3
NtRp203
(dp204
g137
g1
(g138
g3
NtRp205
(dp206
g10
(lp207
g1
(g142
g3
NtRp208
(dp209
g145
Nsg146
Nsg44
S'focal_length_x'
p210
sg15
Nsg19
Nsg148
S'double'
p211
sg16
Nsbag1
(g142
g3
NtRp212
(dp213
g145
Nsg146
Nsg44
S'focal_length_y'
p214
sg15
Nsg19
Nsg148
S'double'
p215
sg16
Nsbag1
(g142
g3
NtRp216
(dp217
g145
Nsg146
Nsg44
S'depth_near'
p218
sg15
Nsg19
Nsg148
S'double'
p219
sg16
Nsbag1
(g142
g3
NtRp220
(dp221
g145
Nsg146
Nsg44
S'depth_far'
p222
sg15
Nsg19
Nsg148
S'double'
p223
sg16
Nsbasg16
Nsg19
Nsbsg15
Nsg16
Nsg44
S'VideoCaptureDeviceDescriptorCameraCalibration'
p224
sg19
Nsbag1
(g134
g3
NtRp225
(dp226
g137
g1
(g138
g3
NtRp227
(dp228
g10
(lp229
g1
(g142
g3
NtRp230
(dp231
g145
Nsg146
Nsg44
S'display_name'
p232
sg15
Nsg19
Nsg148
S'string'
p233
sg16
Nsbag1
(g142
g3
NtRp234
(dp235
g145
Nsg146
Nsg44
S'device_id'
p236
sg15
Nsg19
Nsg148
S'string'
p237
sg16
Nsbag1
(g142
g3
NtRp238
(dp239
g145
Nsg146
Nsg44
S'model_id'
p240
sg15
Nsg19
Nsg148
S'string'
p241
sg16
Nsbag1
(g142
g3
NtRp242
(dp243
g145
Nsg146
Nsg44
S'capture_api'
p244
sg15
Nsg19
Nsg148
S'VideoCaptureApi'
p245
sg16
Nsbag1
(g142
g3
NtRp246
(dp247
g145
Nsg146
Nsg44
S'transport_type'
p248
sg15
Nsg19
Nsg148
S'VideoCaptureTransportType'
p249
sg16
Nsbag1
(g142
g3
NtRp250
(dp251
g145
Nsg146
Nsg44
S'camera_calibration'
p252
sg15
Nsg19
Nsg148
S'VideoCaptureDeviceDescriptorCameraCalibration?'
p253
sg16
Nsbasg16
Nsg19
Nsbsg15
Nsg16
Nsg44
S'VideoCaptureDeviceDescriptor'
p254
sg19
Nsbag1
(g134
g3
NtRp255
(dp256
g137
g1
(g138
g3
NtRp257
(dp258
g10
(lp259
g1
(g142
g3
NtRp260
(dp261
g145
Nsg146
Nsg44
S'descriptor'
p262
sg15
Nsg19
Nsg148
S'VideoCaptureDeviceDescriptor'
p263
sg16
Nsbag1
(g142
g3
NtRp264
(dp265
g145
Nsg146
Nsg44
S'supported_formats'
p266
sg15
Nsg19
Nsg148
S'VideoCaptureFormat[]'
p267
sg16
Nsbasg16
Nsg19
Nsbsg15
Nsg16
Nsg44
S'VideoCaptureDeviceInfo'
p268
sg19
Nsbag1
(g134
g3
NtRp269
(dp270
g137
g1
(g138
g3
NtRp271
(dp272
g10
(lp273
g1
(g142
g3
NtRp274
(dp275
g145
Nsg146
Nsg44
S'mailbox_holder'
p276
sg15
Nsg19
Nsg148
S'gpu.mojom.MailboxHolder[4]'
p277
sg16
Nsbasg16
Nsg19
Nsbsg15
Nsg16
Nsg44
S'MailboxBufferHandleSet'
p278
sg19
Nsbag1
(cmojom.parse.ast
Union
p279
g3
NtRp280
(dp281
g137
g1
(cmojom.parse.ast
UnionBody
p282
g3
NtRp283
(dp284
g10
(lp285
g1
(cmojom.parse.ast
UnionField
p286
g3
NtRp287
(dp288
g145
Nsg44
S'shared_buffer_handle'
p289
sg15
Nsg19
Nsg148
S'handle<shared_buffer>'
p290
sg16
Nsbag1
(g286
g3
NtRp291
(dp292
g145
Nsg44
S'mailbox_handles'
p293
sg15
Nsg19
Nsg148
S'MailboxBufferHandleSet'
p294
sg16
Nsbasg16
Nsg19
Nsbsg15
Nsg16
Nsg44
S'VideoBufferHandle'
p295
sg19
Nsbasg16
NsS'module'
p296
g1
(cmojom.parse.ast
Module
p297
g3
NtRp298
(dp299
S'mojom_namespace'
p300
(S'IDENTIFIER'
p301
S'media.mojom'
tp302
sg16
I5
sg15
Nsg19
g20
sbsg19
Nsb.