ccopy_reg
_reconstructor
p1
(cmojom.parse.ast
Mojom
p2
c__builtin__
object
p3
NtRp4
(dp5
S'import_list'
p6
g1
(cmojom.parse.ast
ImportList
p7
g3
NtRp8
(dp9
S'items'
p10
(lp11
g1
(cmojom.parse.ast
Import
p12
g3
NtRp13
(dp14
S'attribute_list'
p15
NsS'lineno'
p16
I7
sS'import_filename'
p17
S'mojo/public/mojom/base/time.mojom'
p18
sS'filename'
p19
S'../../services/network/public/mojom/cookie_manager.mojom'
p20
sbag1
(g12
g3
NtRp21
(dp22
g15
Nsg16
I8
sg17
S'url/mojom/url.mojom'
p23
sg19
g20
sbasg16
I7
sg19
g20
sbsS'definition_list'
p24
(lp25
g1
(cmojom.parse.ast
Enum
p26
g3
NtRp27
(dp28
g15
NsS'enum_value_list'
p29
g1
(cmojom.parse.ast
EnumValueList
p30
g3
NtRp31
(dp32
g10
(lp33
g1
(cmojom.parse.ast
EnumValue
p34
g3
NtRp35
(dp36
g15
NsS'value'
p37
Nsg16
I11
sS'mojom_name'
p38
S'LOW'
p39
sg19
g20
sbag1
(g34
g3
NtRp40
(dp41
g15
Nsg37
Nsg16
I12
sg38
S'MEDIUM'
p42
sg19
g20
sbag1
(g34
g3
NtRp43
(dp44
g15
Nsg37
Nsg16
I13
sg38
S'HIGH'
p45
sg19
g20
sbasg16
I11
sg19
g20
sbsg16
I10
sg38
S'CookiePriority'
p46
sg19
g20
sbag1
(g26
g3
NtRp47
(dp48
g15
Nsg29
g1
(g30
g3
NtRp49
(dp50
g10
(lp51
g1
(g34
g3
NtRp52
(dp53
g15
Nsg37
Nsg16
I20
sg38
S'NO_RESTRICTION'
p54
sg19
g20
sbag1
(g34
g3
NtRp55
(dp56
g15
Nsg37
Nsg16
I21
sg38
S'LAX_MODE'
p57
sg19
g20
sbag1
(g34
g3
NtRp58
(dp59
g15
Nsg37
Nsg16
I22
sg38
S'STRICT_MODE'
p60
sg19
g20
sbasg16
I20
sg19
g20
sbsg16
I19
sg38
S'CookieSameSite'
p61
sg19
g20
sbag1
(g26
g3
NtRp62
(dp63
g15
Nsg29
g1
(g30
g3
NtRp64
(dp65
g10
(lp66
g1
(g34
g3
NtRp67
(dp68
g15
Nsg37
Nsg16
I26
sg38
S'INCLUDE_STRICT_AND_LAX'
p69
sg19
g20
sbag1
(g34
g3
NtRp70
(dp71
g15
Nsg37
Nsg16
I27
sg38
S'INCLUDE_LAX'
p72
sg19
g20
sbag1
(g34
g3
NtRp73
(dp74
g15
Nsg37
Nsg16
I28
sg38
S'DO_NOT_INCLUDE'
p75
sg19
g20
sbasg16
I26
sg19
g20
sbsg16
I25
sg38
S'CookieSameSiteFilter'
p76
sg19
g20
sbag1
(cmojom.parse.ast
Struct
p77
g3
NtRp78
(dp79
S'body'
p80
g1
(cmojom.parse.ast
StructBody
p81
g3
NtRp82
(dp83
g10
(lp84
g1
(cmojom.parse.ast
StructField
p85
g3
NtRp86
(dp87
S'ordinal'
p88
NsS'default_value'
p89
S'true'
p90
sg38
S'exclude_httponly'
p91
sg15
Nsg19
NsS'typename'
p92
S'bool'
p93
sg16
Nsbag1
(g85
g3
NtRp94
(dp95
g88
Nsg89
(S'IDENTIFIER'
p96
S'DO_NOT_INCLUDE'
tp97
sg38
S'cookie_same_site_filter'
p98
sg15
Nsg19
Nsg92
S'CookieSameSiteFilter'
p99
sg16
Nsbag1
(g85
g3
NtRp100
(dp101
g88
Nsg89
S'true'
p102
sg38
S'update_access_time'
p103
sg15
Nsg19
Nsg92
S'bool'
p104
sg16
Nsbag1
(g85
g3
NtRp105
(dp106
g88
Nsg89
Nsg38
S'server_time'
p107
sg15
Nsg19
Nsg92
S'mojo_base.mojom.Time?'
p108
sg16
Nsbasg16
Nsg19
Nsbsg15
Nsg16
Nsg38
S'CookieOptions'
p109
sg19
Nsbag1
(g77
g3
NtRp110
(dp111
g80
g1
(g81
g3
NtRp112
(dp113
g10
(lp114
g1
(g85
g3
NtRp115
(dp116
g88
Nsg89
Nsg38
S'name'
p117
sg15
Nsg19
Nsg92
S'string'
p118
sg16
Nsbag1
(g85
g3
NtRp119
(dp120
g88
Nsg89
Nsg38
S'value'
p121
sg15
Nsg19
Nsg92
S'string'
p122
sg16
Nsbag1
(g85
g3
NtRp123
(dp124
g88
Nsg89
Nsg38
S'domain'
p125
sg15
Nsg19
Nsg92
S'string'
p126
sg16
Nsbag1
(g85
g3
NtRp127
(dp128
g88
Nsg89
Nsg38
S'path'
p129
sg15
Nsg19
Nsg92
S'string'
p130
sg16
Nsbag1
(g85
g3
NtRp131
(dp132
g88
Nsg89
Nsg38
S'creation'
p133
sg15
Nsg19
Nsg92
S'mojo_base.mojom.Time?'
p134
sg16
Nsbag1
(g85
g3
NtRp135
(dp136
g88
Nsg89
Nsg38
S'expiry'
p137
sg15
Nsg19
Nsg92
S'mojo_base.mojom.Time?'
p138
sg16
Nsbag1
(g85
g3
NtRp139
(dp140
g88
Nsg89
Nsg38
S'last_access'
p141
sg15
Nsg19
Nsg92
S'mojo_base.mojom.Time?'
p142
sg16
Nsbag1
(g85
g3
NtRp143
(dp144
g88
Nsg89
S'false'
p145
sg38
S'secure'
p146
sg15
Nsg19
Nsg92
S'bool'
p147
sg16
Nsbag1
(g85
g3
NtRp148
(dp149
g88
Nsg89
S'false'
p150
sg38
S'httponly'
p151
sg15
Nsg19
Nsg92
S'bool'
p152
sg16
Nsbag1
(g85
g3
NtRp153
(dp154
g88
Nsg89
(g96
S'NO_RESTRICTION'
tp155
sg38
S'site_restrictions'
p156
sg15
Nsg19
Nsg92
S'CookieSameSite'
p157
sg16
Nsbag1
(g85
g3
NtRp158
(dp159
g88
Nsg89
(g96
S'MEDIUM'
tp160
sg38
S'priority'
p161
sg15
Nsg19
Nsg92
S'CookiePriority'
p162
sg16
Nsbasg16
Nsg19
Nsbsg15
Nsg16
Nsg38
S'CanonicalCookie'
p163
sg19
Nsbag1
(g26
g3
NtRp164
(dp165
g15
Nsg29
g1
(g30
g3
NtRp166
(dp167
g10
(lp168
g1
(g34
g3
NtRp169
(dp170
g15
Nsg37
Nsg16
I61
sg38
S'INSERTED'
p171
sg19
g20
sbag1
(g34
g3
NtRp172
(dp173
g15
Nsg37
Nsg16
I63
sg38
S'EXPLICIT'
p174
sg19
g20
sbag1
(g34
g3
NtRp175
(dp176
g15
Nsg37
Nsg16
I65
sg38
S'UNKNOWN_DELETION'
p177
sg19
g20
sbag1
(g34
g3
NtRp178
(dp179
g15
Nsg37
Nsg16
I68
sg38
S'OVERWRITE'
p180
sg19
g20
sbag1
(g34
g3
NtRp181
(dp182
g15
Nsg37
Nsg16
I70
sg38
S'EXPIRED'
p183
sg19
g20
sbag1
(g34
g3
NtRp184
(dp185
g15
Nsg37
Nsg16
I72
sg38
S'EVICTED'
p186
sg19
g20
sbag1
(g34
g3
NtRp187
(dp188
g15
Nsg37
Nsg16
I74
sg38
S'EXPIRED_OVERWRITE'
p189
sg19
g20
sbasg16
I61
sg19
g20
sbsg16
I59
sg38
S'CookieChangeCause'
p190
sg19
g20
sbag1
(g26
g3
NtRp191
(dp192
g15
Nsg29
g1
(g30
g3
NtRp193
(dp194
g10
(lp195
g1
(g34
g3
NtRp196
(dp197
g15
Nsg37
Nsg16
I80
sg38
S'IGNORE_CONTROL'
p198
sg19
g20
sbag1
(g34
g3
NtRp199
(dp200
g15
Nsg37
Nsg16
I81
sg38
S'SESSION_COOKIES'
p201
sg19
g20
sbag1
(g34
g3
NtRp202
(dp203
g15
Nsg37
Nsg16
I82
sg38
S'PERSISTENT_COOKIES'
p204
sg19
g20
sbasg16
I80
sg19
g20
sbsg16
I79
sg38
S'CookieDeletionSessionControl'
p205
sg19
g20
sbag1
(g77
g3
NtRp206
(dp207
g80
g1
(g81
g3
NtRp208
(dp209
g10
(lp210
g1
(g85
g3
NtRp211
(dp212
g88
Nsg89
Nsg38
S'created_after_time'
p213
sg15
Nsg19
Nsg92
S'mojo_base.mojom.Time?'
p214
sg16
Nsbag1
(g85
g3
NtRp215
(dp216
g88
Nsg89
Nsg38
S'created_before_time'
p217
sg15
Nsg19
Nsg92
S'mojo_base.mojom.Time?'
p218
sg16
Nsbag1
(g85
g3
NtRp219
(dp220
g88
Nsg89
Nsg38
S'excluding_domains'
p221
sg15
Nsg19
Nsg92
S'string[]?'
p222
sg16
Nsbag1
(g85
g3
NtRp223
(dp224
g88
Nsg89
Nsg38
S'including_domains'
p225
sg15
Nsg19
Nsg92
S'string[]?'
p226
sg16
Nsbag1
(g85
g3
NtRp227
(dp228
g88
Nsg89
Nsg38
S'cookie_name'
p229
sg15
Nsg19
Nsg92
S'string?'
p230
sg16
Nsbag1
(g85
g3
NtRp231
(dp232
g88
Nsg89
Nsg38
S'host_name'
p233
sg15
Nsg19
Nsg92
S'string?'
p234
sg16
Nsbag1
(g85
g3
NtRp235
(dp236
g88
Nsg89
Nsg38
S'url'
p237
sg15
Nsg19
Nsg92
S'url.mojom.Url?'
p238
sg16
Nsbag1
(g85
g3
NtRp239
(dp240
g88
Nsg89
(g96
S'IGNORE_CONTROL'
tp241
sg38
S'session_control'
p242
sg15
Nsg19
Nsg92
S'CookieDeletionSessionControl'
p243
sg16
Nsbasg16
Nsg19
Nsbsg15
Nsg16
Nsg38
S'CookieDeletionFilter'
p244
sg19
Nsbag1
(cmojom.parse.ast
Interface
p245
g3
NtRp246
(dp247
g80
g1
(cmojom.parse.ast
InterfaceBody
p248
g3
NtRp249
(dp250
g10
(lp251
g1
(cmojom.parse.ast
Method
p252
g3
NtRp253
(dp254
g88
Nsg38
S'OnCookieChange'
p255
sS'parameter_list'
p256
g1
(cmojom.parse.ast
ParameterList
p257
g3
NtRp258
(dp259
g10
(lp260
g1
(cmojom.parse.ast
Parameter
p261
g3
NtRp262
(dp263
g88
Nsg38
S'cookie'
p264
sg15
Nsg19
g20
sg92
S'CanonicalCookie'
p265
sg16
I145
sbag1
(g261
g3
NtRp266
(dp267
g88
Nsg38
S'cause'
p268
sg15
Nsg19
g20
sg92
S'CookieChangeCause'
p269
sg16
I145
sbasg16
I145
sg19
g20
sbsg15
Nsg19
Nsg16
NsS'response_parameter_list'
p270
Nsbasg16
Nsg19
Nsbsg15
Nsg16
Nsg38
S'CookieChangeListener'
p271
sg19
Nsbag1
(g245
g3
NtRp272
(dp273
g80
g1
(g248
g3
NtRp274
(dp275
g10
(lp276
g1
(g252
g3
NtRp277
(dp278
g88
Nsg38
S'GetAllCookies'
p279
sg256
g1
(g257
g3
NtRp280
(dp281
g10
(lp282
sg16
Nsg19
Nsbsg15
Nsg19
Nsg16
Nsg270
g1
(g257
g3
NtRp283
(dp284
g10
(lp285
g1
(g261
g3
NtRp286
(dp287
g88
Nsg38
S'cookies'
p288
sg15
Nsg19
g20
sg92
S'CanonicalCookie[]'
p289
sg16
I157
sbasg16
I157
sg19
g20
sbsbag1
(g252
g3
NtRp290
(dp291
g88
Nsg38
S'GetCookieList'
p292
sg256
g1
(g257
g3
NtRp293
(dp294
g10
(lp295
g1
(g261
g3
NtRp296
(dp297
g88
Nsg38
S'url'
p298
sg15
Nsg19
g20
sg92
S'url.mojom.Url'
p299
sg16
I162
sbag1
(g261
g3
NtRp300
(dp301
g88
Nsg38
S'cookie_options'
p302
sg15
Nsg19
g20
sg92
S'CookieOptions'
p303
sg16
I162
sbasg16
I162
sg19
g20
sbsg15
Nsg19
Nsg16
Nsg270
g1
(g257
g3
NtRp304
(dp305
g10
(lp306
g1
(g261
g3
NtRp307
(dp308
g88
Nsg38
S'cookies'
p309
sg15
Nsg19
g20
sg92
S'CanonicalCookie[]'
p310
sg16
I163
sbasg16
I163
sg19
g20
sbsbag1
(g252
g3
NtRp311
(dp312
g88
Nsg38
S'SetCanonicalCookie'
p313
sg256
g1
(g257
g3
NtRp314
(dp315
g10
(lp316
g1
(g261
g3
NtRp317
(dp318
g88
Nsg38
S'cookie'
p319
sg15
Nsg19
g20
sg92
S'CanonicalCookie'
p320
sg16
I170
sbag1
(g261
g3
NtRp321
(dp322
g88
Nsg38
S'secure_source'
p323
sg15
Nsg19
g20
sg92
S'bool'
p324
sg16
I170
sbag1
(g261
g3
NtRp325
(dp326
g88
Nsg38
S'modify_http_only'
p327
sg15
Nsg19
g20
sg92
S'bool'
p328
sg16
I170
sbasg16
I170
sg19
g20
sbsg15
Nsg19
Nsg16
Nsg270
g1
(g257
g3
NtRp329
(dp330
g10
(lp331
g1
(g261
g3
NtRp332
(dp333
g88
Nsg38
S'success'
p334
sg15
Nsg19
g20
sg92
S'bool'
p335
sg16
I171
sbasg16
I171
sg19
g20
sbsbag1
(g252
g3
NtRp336
(dp337
g88
Nsg38
S'DeleteCookies'
p338
sg256
g1
(g257
g3
NtRp339
(dp340
g10
(lp341
g1
(g261
g3
NtRp342
(dp343
g88
Nsg38
S'filter'
p344
sg15
Nsg19
g20
sg92
S'CookieDeletionFilter'
p345
sg16
I177
sbasg16
I177
sg19
g20
sbsg15
Nsg19
Nsg16
Nsg270
g1
(g257
g3
NtRp346
(dp347
g10
(lp348
g1
(g261
g3
NtRp349
(dp350
g88
Nsg38
S'num_deleted'
p351
sg15
Nsg19
g20
sg92
S'uint32'
p352
sg16
I177
sbasg16
I177
sg19
g20
sbsbag1
(g252
g3
NtRp353
(dp354
g88
Nsg38
S'AddCookieChangeListener'
p355
sg256
g1
(g257
g3
NtRp356
(dp357
g10
(lp358
g1
(g261
g3
NtRp359
(dp360
g88
Nsg38
S'url'
p361
sg15
Nsg19
g20
sg92
S'url.mojom.Url'
p362
sg16
I193
sbag1
(g261
g3
NtRp363
(dp364
g88
Nsg38
S'name'
p365
sg15
Nsg19
g20
sg92
S'string'
p366
sg16
I194
sbag1
(g261
g3
NtRp367
(dp368
g88
Nsg38
S'listener'
p369
sg15
Nsg19
g20
sg92
S'CookieChangeListener'
p370
sg16
I195
sbasg16
I193
sg19
g20
sbsg15
Nsg19
Nsg16
Nsg270
Nsbag1
(g252
g3
NtRp371
(dp372
g88
Nsg38
S'AddGlobalChangeListener'
p373
sg256
g1
(g257
g3
NtRp374
(dp375
g10
(lp376
g1
(g261
g3
NtRp377
(dp378
g88
Nsg38
S'notification_pointer'
p379
sg15
Nsg19
g20
sg92
S'CookieChangeListener'
p380
sg16
I203
sbasg16
I203
sg19
g20
sbsg15
Nsg19
Nsg16
Nsg270
Nsbag1
(g252
g3
NtRp381
(dp382
g88
Nsg38
S'CloneInterface'
p383
sg256
g1
(g257
g3
NtRp384
(dp385
g10
(lp386
g1
(g261
g3
NtRp387
(dp388
g88
Nsg38
S'new_interface'
p389
sg15
Nsg19
g20
sg92
S'CookieManager&'
p390
sg16
I208
sbasg16
I208
sg19
g20
sbsg15
Nsg19
Nsg16
Nsg270
Nsbag1
(g252
g3
NtRp391
(dp392
g88
Nsg38
S'FlushCookieStore'
p393
sg256
g1
(g257
g3
NtRp394
(dp395
g10
(lp396
sg16
Nsg19
Nsbsg15
Nsg19
Nsg16
Nsg270
g1
(g257
g3
NtRp397
(dp398
g10
(lp399
sg16
Nsg19
Nsbsbasg16
Nsg19
Nsbsg15
Nsg16
Nsg38
S'CookieManager'
p400
sg19
Nsbasg16
NsS'module'
p401
g1
(cmojom.parse.ast
Module
p402
g3
NtRp403
(dp404
S'mojom_namespace'
p405
(g96
S'network.mojom'
tp406
sg16
I5
sg15
Nsg19
g20
sbsg19
Nsb.