ccopy_reg
_reconstructor
p1
(cmojom.parse.ast
Mojom
p2
c__builtin__
object
p3
NtRp4
(dp5
S'import_list'
p6
g1
(cmojom.parse.ast
ImportList
p7
g3
NtRp8
(dp9
S'items'
p10
(lp11
g1
(cmojom.parse.ast
Import
p12
g3
NtRp13
(dp14
S'attribute_list'
p15
NsS'lineno'
p16
I7
sS'import_filename'
p17
S'services/network/public/mojom/network_change_manager.mojom'
p18
sS'filename'
p19
S'../../services/network/public/mojom/network_service.mojom'
p20
sbag1
(g12
g3
NtRp21
(dp22
g15
Nsg16
I8
sg17
S'services/network/public/mojom/network_context.mojom'
p23
sg19
g20
sbag1
(g12
g3
NtRp24
(dp25
g15
Nsg16
I9
sg17
S'services/network/public/mojom/url_loader.mojom'
p26
sg19
g20
sbag1
(g12
g3
NtRp27
(dp28
g15
Nsg16
I10
sg17
S'services/network/public/mojom/network_param.mojom'
p29
sg19
g20
sbag1
(g12
g3
NtRp30
(dp31
g15
Nsg16
I11
sg17
S'services/network/public/mojom/signed_tree_head.mojom'
p32
sg19
g20
sbag1
(g12
g3
NtRp33
(dp34
g15
Nsg16
I12
sg17
S'services/network/public/mojom/url_loader_factory.mojom'
p35
sg19
g20
sbag1
(g12
g3
NtRp36
(dp37
g15
Nsg16
I13
sg17
S'url/mojom/origin.mojom'
p38
sg19
g20
sbag1
(g12
g3
NtRp39
(dp40
g15
Nsg16
I14
sg17
S'url/mojom/url.mojom'
p41
sg19
g20
sbasg16
I7
sg19
g20
sbsS'definition_list'
p42
(lp43
g1
(cmojom.parse.ast
Interface
p44
g3
NtRp45
(dp46
S'body'
p47
g1
(cmojom.parse.ast
InterfaceBody
p48
g3
NtRp49
(dp50
g10
(lp51
g1
(cmojom.parse.ast
Method
p52
g3
NtRp53
(dp54
S'ordinal'
p55
NsS'mojom_name'
p56
S'Sign'
p57
sS'parameter_list'
p58
g1
(cmojom.parse.ast
ParameterList
p59
g3
NtRp60
(dp61
g10
(lp62
g1
(cmojom.parse.ast
Parameter
p63
g3
NtRp64
(dp65
g55
Nsg56
S'algorithm'
p66
sg15
Nsg19
g20
sS'typename'
p67
S'uint16'
p68
sg16
I27
sbag1
(g63
g3
NtRp69
(dp70
g55
Nsg56
S'input'
p71
sg15
Nsg19
g20
sg67
S'uint8[]'
p72
sg16
I28
sbasg16
I27
sg19
g20
sbsg15
Nsg19
Nsg16
NsS'response_parameter_list'
p73
g1
(g59
g3
NtRp74
(dp75
g10
(lp76
g1
(g63
g3
NtRp77
(dp78
g55
Nsg56
S'net_error'
p79
sg15
Nsg19
g20
sg67
S'int32'
p80
sg16
I28
sbag1
(g63
g3
NtRp81
(dp82
g55
Nsg56
S'signature'
p83
sg15
Nsg19
g20
sg67
S'uint8[]'
p84
sg16
I28
sbasg16
I28
sg19
g20
sbsbasg16
Nsg19
Nsbsg15
Nsg16
Nsg56
S'SSLPrivateKey'
p85
sg19
Nsbag1
(g44
g3
NtRp86
(dp87
g47
g1
(g48
g3
NtRp88
(dp89
g10
(lp90
g1
(g52
g3
NtRp91
(dp92
g55
Nsg56
S'OnAuthCredentials'
p93
sg58
g1
(g59
g3
NtRp94
(dp95
g10
(lp96
g1
(g63
g3
NtRp97
(dp98
g55
Nsg56
S'credentials'
p99
sg15
Nsg19
g20
sg67
S'AuthCredentials?'
p100
sg16
I35
sbasg16
I35
sg19
g20
sbsg15
Nsg19
Nsg16
Nsg73
Nsbasg16
Nsg19
Nsbsg15
Nsg16
Nsg56
S'AuthChallengeResponder'
p101
sg19
Nsbag1
(g44
g3
NtRp102
(dp103
g47
g1
(g48
g3
NtRp104
(dp105
g10
(lp106
g1
(g52
g3
NtRp107
(dp108
g55
Nsg56
S'OnAuthRequired'
p109
sg58
g1
(g59
g3
NtRp110
(dp111
g10
(lp112
g1
(g63
g3
NtRp113
(dp114
g55
Nsg56
S'process_id'
p115
sg15
Nsg19
g20
sg67
S'uint32'
p116
sg16
I43
sbag1
(g63
g3
NtRp117
(dp118
g55
Nsg56
S'routing_id'
p119
sg15
Nsg19
g20
sg67
S'uint32'
p120
sg16
I44
sbag1
(g63
g3
NtRp121
(dp122
g55
Nsg56
S'request_id'
p123
sg15
Nsg19
g20
sg67
S'uint32'
p124
sg16
I45
sbag1
(g63
g3
NtRp125
(dp126
g55
Nsg56
S'url'
p127
sg15
Nsg19
g20
sg67
S'url.mojom.Url'
p128
sg16
I46
sbag1
(g63
g3
NtRp129
(dp130
g55
Nsg56
S'site_for_cookies'
p131
sg15
Nsg19
g20
sg67
S'url.mojom.Url'
p132
sg16
I47
sbag1
(g63
g3
NtRp133
(dp134
g55
Nsg56
S'first_auth_attempt'
p135
sg15
Nsg19
g20
sg67
S'bool'
p136
sg16
I48
sbag1
(g63
g3
NtRp137
(dp138
g55
Nsg56
S'auth_info'
p139
sg15
Nsg19
g20
sg67
S'AuthChallengeInfo'
p140
sg16
I49
sbag1
(g63
g3
NtRp141
(dp142
g55
Nsg56
S'resource_type'
p143
sg15
Nsg19
g20
sg67
S'int32'
p144
sg16
I50
sbag1
(g63
g3
NtRp145
(dp146
g55
Nsg56
S'auth_challenge_responder'
p147
sg15
Nsg19
g20
sg67
S'AuthChallengeResponder'
p148
sg16
I51
sbasg16
I43
sg19
g20
sbsg15
Nsg19
Nsg16
Nsg73
Nsbag1
(g52
g3
NtRp149
(dp150
g55
Nsg56
S'OnCertificateRequested'
p151
sg58
g1
(g59
g3
NtRp152
(dp153
g10
(lp154
g1
(g63
g3
NtRp155
(dp156
g55
Nsg56
S'process_id'
p157
sg15
Nsg19
g20
sg67
S'uint32'
p158
sg16
I64
sbag1
(g63
g3
NtRp159
(dp160
g55
Nsg56
S'routing_id'
p161
sg15
Nsg19
g20
sg67
S'uint32'
p162
sg16
I65
sbag1
(g63
g3
NtRp163
(dp164
g55
Nsg56
S'request_id'
p165
sg15
Nsg19
g20
sg67
S'uint32'
p166
sg16
I66
sbag1
(g63
g3
NtRp167
(dp168
g55
Nsg56
S'cert_info'
p169
sg15
Nsg19
g20
sg67
S'network.mojom.SSLCertRequestInfo'
p170
sg16
I67
sbasg16
I64
sg19
g20
sbsg15
Nsg19
Nsg16
Nsg73
g1
(g59
g3
NtRp171
(dp172
g10
(lp173
g1
(g63
g3
NtRp174
(dp175
g55
Nsg56
S'x509_certificate'
p176
sg15
Nsg19
g20
sg67
S'network.mojom.X509Certificate'
p177
sg16
I68
sbag1
(g63
g3
NtRp178
(dp179
g55
Nsg56
S'algorithm_preferences'
p180
sg15
Nsg19
g20
sg67
S'uint16[]'
p181
sg16
I69
sbag1
(g63
g3
NtRp182
(dp183
g55
Nsg56
S'ssl_private_key'
p184
sg15
Nsg19
g20
sg67
S'SSLPrivateKey'
p185
sg16
I70
sbag1
(g63
g3
NtRp186
(dp187
g55
Nsg56
S'cancel_certificate_selection'
p188
sg15
Nsg19
g20
sg67
S'bool'
p189
sg16
I71
sbasg16
I68
sg19
g20
sbsbag1
(g52
g3
NtRp190
(dp191
g55
Nsg56
S'OnSSLCertificateError'
p192
sg58
g1
(g59
g3
NtRp193
(dp194
g10
(lp195
g1
(g63
g3
NtRp196
(dp197
g55
Nsg56
S'process_id'
p198
sg15
Nsg19
g20
sg67
S'uint32'
p199
sg16
I75
sbag1
(g63
g3
NtRp200
(dp201
g55
Nsg56
S'routing_id'
p202
sg15
Nsg19
g20
sg67
S'uint32'
p203
sg16
I76
sbag1
(g63
g3
NtRp204
(dp205
g55
Nsg56
S'request_id'
p206
sg15
Nsg19
g20
sg67
S'uint32'
p207
sg16
I77
sbag1
(g63
g3
NtRp208
(dp209
g55
Nsg56
S'resource_type'
p210
sg15
Nsg19
g20
sg67
S'int32'
p211
sg16
I78
sbag1
(g63
g3
NtRp212
(dp213
g55
Nsg56
S'url'
p214
sg15
Nsg19
g20
sg67
S'url.mojom.Url'
p215
sg16
I79
sbag1
(g63
g3
NtRp216
(dp217
g55
Nsg56
S'ssl_info'
p218
sg15
Nsg19
g20
sg67
S'SSLInfo'
p219
sg16
I80
sbag1
(g63
g3
NtRp220
(dp221
g55
Nsg56
S'fatal'
p222
sg15
Nsg19
g20
sg67
S'bool'
p223
sg16
I81
sbasg16
I75
sg19
g20
sbsg15
Nsg19
Nsg16
Nsg73
g1
(g59
g3
NtRp224
(dp225
g10
(lp226
g1
(g63
g3
NtRp227
(dp228
g55
Nsg56
S'net_error'
p229
sg15
Nsg19
g20
sg67
S'int32'
p230
sg16
I81
sbasg16
I81
sg19
g20
sbsbasg16
Nsg19
Nsbsg15
Nsg16
Nsg56
S'NetworkServiceClient'
p231
sg19
Nsbag1
(g44
g3
NtRp232
(dp233
g47
g1
(g48
g3
NtRp234
(dp235
g10
(lp236
g1
(g52
g3
NtRp237
(dp238
g55
Nsg56
S'SetClient'
p239
sg58
g1
(g59
g3
NtRp240
(dp241
g10
(lp242
g1
(g63
g3
NtRp243
(dp244
g55
Nsg56
S'client'
p245
sg15
Nsg19
g20
sg67
S'NetworkServiceClient'
p246
sg16
I86
sbasg16
I86
sg19
g20
sbsg15
Nsg19
Nsg16
Nsg73
Nsbag1
(g52
g3
NtRp247
(dp248
g55
Nsg56
S'CreateNetworkContext'
p249
sg58
g1
(g59
g3
NtRp250
(dp251
g10
(lp252
g1
(g63
g3
NtRp253
(dp254
g55
Nsg56
S'context'
p255
sg15
Nsg19
g20
sg67
S'NetworkContext&'
p256
sg16
I89
sbag1
(g63
g3
NtRp257
(dp258
g55
Nsg56
S'params'
p259
sg15
Nsg19
g20
sg67
S'NetworkContextParams'
p260
sg16
I90
sbasg16
I89
sg19
g20
sbsg15
Nsg19
Nsg16
Nsg73
Nsbag1
(g52
g3
NtRp261
(dp262
g55
Nsg56
S'DisableQuic'
p263
sg58
g1
(g59
g3
NtRp264
(dp265
g10
(lp266
sg16
Nsg19
Nsbsg15
Nsg19
Nsg16
Nsg73
Nsbag1
(g52
g3
NtRp267
(dp268
g55
Nsg56
S'SetRawHeadersAccess'
p269
sg58
g1
(g59
g3
NtRp270
(dp271
g10
(lp272
g1
(g63
g3
NtRp273
(dp274
g55
Nsg56
S'process_id'
p275
sg15
Nsg19
g20
sg67
S'uint32'
p276
sg16
I100
sbag1
(g63
g3
NtRp277
(dp278
g55
Nsg56
S'allow'
p279
sg15
Nsg19
g20
sg67
S'bool'
p280
sg16
I100
sbasg16
I100
sg19
g20
sbsg15
Nsg19
Nsg16
Nsg73
Nsbag1
(g52
g3
NtRp281
(dp282
g55
Nsg56
S'GetNetworkChangeManager'
p283
sg58
g1
(g59
g3
NtRp284
(dp285
g10
(lp286
g1
(g63
g3
NtRp287
(dp288
g55
Nsg56
S'network_change_manager'
p289
sg15
Nsg19
g20
sg67
S'NetworkChangeManager&'
p290
sg16
I104
sbasg16
I104
sg19
g20
sbsg15
Nsg19
Nsg16
Nsg73
Nsbag1
(g52
g3
NtRp291
(dp292
g55
Nsg56
S'GetTotalNetworkUsages'
p293
sg58
g1
(g59
g3
NtRp294
(dp295
g10
(lp296
sg16
Nsg19
Nsbsg15
Nsg19
Nsg16
Nsg73
g1
(g59
g3
NtRp297
(dp298
g10
(lp299
g1
(g63
g3
NtRp300
(dp301
g55
Nsg56
S'total_network_usages'
p302
sg15
Nsg19
g20
sg67
S'NetworkUsage[]'
p303
sg16
I107
sbasg16
I107
sg19
g20
sbsbag1
(g52
g3
NtRp304
(dp305
g55
Nsg56
S'UpdateSignedTreeHead'
p306
sg58
g1
(g59
g3
NtRp307
(dp308
g10
(lp309
g1
(g63
g3
NtRp310
(dp311
g55
Nsg56
S'signed_tree_head'
p312
sg15
Nsg19
g20
sg67
S'SignedTreeHead'
p313
sg16
I112
sbasg16
I112
sg19
g20
sbsg15
Nsg19
Nsg16
Nsg73
Nsbasg16
Nsg19
Nsbsg15
Nsg16
Nsg56
S'NetworkService'
p314
sg19
Nsbasg16
NsS'module'
p315
g1
(cmojom.parse.ast
Module
p316
g3
NtRp317
(dp318
S'mojom_namespace'
p319
(S'IDENTIFIER'
p320
S'network.mojom'
tp321
sg16
I5
sg15
Nsg19
g20
sbsg19
Nsb.