ccopy_reg
_reconstructor
p1
(cmojom.parse.ast
Mojom
p2
c__builtin__
object
p3
NtRp4
(dp5
S'import_list'
p6
g1
(cmojom.parse.ast
ImportList
p7
g3
NtRp8
(dp9
S'items'
p10
(lp11
g1
(cmojom.parse.ast
Import
p12
g3
NtRp13
(dp14
S'attribute_list'
p15
NsS'lineno'
p16
I7
sS'import_filename'
p17
S'mojo/public/mojom/base/file.mojom'
p18
sS'filename'
p19
S'../../services/network/public/mojom/network_context.mojom'
p20
sbag1
(g12
g3
NtRp21
(dp22
g15
Nsg16
I8
sg17
S'mojo/public/mojom/base/file_path.mojom'
p23
sg19
g20
sbag1
(g12
g3
NtRp24
(dp25
g15
Nsg16
I9
sg17
S'mojo/public/mojom/base/values.mojom'
p26
sg19
g20
sbag1
(g12
g3
NtRp27
(dp28
g15
Nsg16
I10
sg17
S'mojo/public/mojom/base/time.mojom'
p29
sg19
g20
sbag1
(g12
g3
NtRp30
(dp31
g15
Nsg16
I11
sg17
S'net/interfaces/address_list.mojom'
p32
sg19
g20
sbag1
(g12
g3
NtRp33
(dp34
g15
Nsg16
I12
sg17
S'net/interfaces/ip_endpoint.mojom'
p35
sg19
g20
sbag1
(g12
g3
NtRp36
(dp37
g15
Nsg16
I13
sg17
S'services/network/public/mojom/cookie_manager.mojom'
p38
sg19
g20
sbag1
(g12
g3
NtRp39
(dp40
g15
Nsg16
I14
sg17
S'services/network/public/mojom/ct_log_info.mojom'
p41
sg19
g20
sbag1
(g12
g3
NtRp42
(dp43
g15
Nsg16
I15
sg17
S'services/network/public/mojom/mutable_network_traffic_annotation_tag.mojom'
p44
sg19
g20
sbag1
(g12
g3
NtRp45
(dp46
g15
Nsg16
I16
sg17
S'services/network/public/mojom/proxy_config.mojom'
p47
sg19
g20
sbag1
(g12
g3
NtRp48
(dp49
g15
Nsg16
I17
sg17
S'services/network/public/mojom/proxy_config_with_annotation.mojom'
p50
sg19
g20
sbag1
(g12
g3
NtRp51
(dp52
g15
Nsg16
I18
sg17
S'services/network/public/mojom/ssl_config.mojom'
p53
sg19
g20
sbag1
(g12
g3
NtRp54
(dp55
g15
Nsg16
I19
sg17
S'services/network/public/mojom/tcp_socket.mojom'
p56
sg19
g20
sbag1
(g12
g3
NtRp57
(dp58
g15
Nsg16
I20
sg17
S'services/network/public/mojom/udp_socket.mojom'
p59
sg19
g20
sbag1
(g12
g3
NtRp60
(dp61
g15
Nsg16
I21
sg17
S'services/network/public/mojom/url_loader.mojom'
p62
sg19
g20
sbag1
(g12
g3
NtRp63
(dp64
g15
Nsg16
I22
sg17
S'services/network/public/mojom/url_loader_factory.mojom'
p65
sg19
g20
sbag1
(g12
g3
NtRp66
(dp67
g15
Nsg16
I23
sg17
S'services/network/public/mojom/websocket.mojom'
p68
sg19
g20
sbag1
(g12
g3
NtRp69
(dp70
g15
Nsg16
I24
sg17
S'services/proxy_resolver/public/mojom/proxy_resolver.mojom'
p71
sg19
g20
sbag1
(g12
g3
NtRp72
(dp73
g15
Nsg16
I25
sg17
S'services/network/public/mojom/restricted_cookie_manager.mojom'
p74
sg19
g20
sbag1
(g12
g3
NtRp75
(dp76
g15
Nsg16
I26
sg17
S'url/mojom/origin.mojom'
p77
sg19
g20
sbag1
(g12
g3
NtRp78
(dp79
g15
Nsg16
I27
sg17
S'url/mojom/url.mojom'
p80
sg19
g20
sbasg16
I7
sg19
g20
sbsS'definition_list'
p81
(lp82
g1
(cmojom.parse.ast
Struct
p83
g3
NtRp84
(dp85
S'body'
p86
g1
(cmojom.parse.ast
StructBody
p87
g3
NtRp88
(dp89
g10
(lp90
g1
(cmojom.parse.ast
StructField
p91
g3
NtRp92
(dp93
S'ordinal'
p94
NsS'default_value'
p95
NsS'mojom_name'
p96
S'context_name'
p97
sg15
Nsg19
NsS'typename'
p98
S'string?'
p99
sg16
Nsbag1
(g91
g3
NtRp100
(dp101
g94
Nsg95
Nsg96
S'user_agent'
p102
sg15
Nsg19
Nsg98
S'string'
p103
sg16
Nsbag1
(g91
g3
NtRp104
(dp105
g94
Nsg95
Nsg96
S'accept_language'
p106
sg15
Nsg19
Nsg98
S'string'
p107
sg16
Nsbag1
(g91
g3
NtRp108
(dp109
g94
Nsg95
S'true'
p110
sg96
S'enable_brotli'
p111
sg15
Nsg19
Nsg98
S'bool'
p112
sg16
Nsbag1
(g91
g3
NtRp113
(dp114
g94
Nsg95
Nsg96
S'quic_user_agent_id'
p115
sg15
Nsg19
Nsg98
S'string'
p116
sg16
Nsbag1
(g91
g3
NtRp117
(dp118
g94
Nsg95
Nsg96
S'proxy_resolver_factory'
p119
sg15
Nsg19
Nsg98
S'proxy_resolver.mojom.ProxyResolverFactory?'
p120
sg16
Nsbag1
(g91
g3
NtRp121
(dp122
g94
Nsg95
Nsg96
S'cookie_path'
p123
sg15
Nsg19
Nsg98
S'mojo_base.mojom.FilePath?'
p124
sg16
Nsbag1
(g91
g3
NtRp125
(dp126
g94
Nsg95
S'false'
p127
sg96
S'restore_old_session_cookies'
p128
sg15
Nsg19
Nsg98
S'bool'
p129
sg16
Nsbag1
(g91
g3
NtRp130
(dp131
g94
Nsg95
S'false'
p132
sg96
S'persist_session_cookies'
p133
sg15
Nsg19
Nsg98
S'bool'
p134
sg16
Nsbag1
(g91
g3
NtRp135
(dp136
g94
Nsg95
Nsg96
S'channel_id_path'
p137
sg15
Nsg19
Nsg98
S'mojo_base.mojom.FilePath?'
p138
sg16
Nsbag1
(g91
g3
NtRp139
(dp140
g94
Nsg95
S'true'
p141
sg96
S'http_cache_enabled'
p142
sg15
Nsg19
Nsg98
S'bool'
p143
sg16
Nsbag1
(g91
g3
NtRp144
(dp145
g94
Nsg95
S'0'
sg96
S'http_cache_max_size'
p146
sg15
Nsg19
Nsg98
S'int32'
p147
sg16
Nsbag1
(g91
g3
NtRp148
(dp149
g94
Nsg95
Nsg96
S'http_cache_path'
p150
sg15
Nsg19
Nsg98
S'mojo_base.mojom.FilePath?'
p151
sg16
Nsbag1
(g91
g3
NtRp152
(dp153
g94
Nsg95
Nsg96
S'http_server_properties_path'
p154
sg15
Nsg19
Nsg98
S'mojo_base.mojom.FilePath?'
p155
sg16
Nsbag1
(g91
g3
NtRp156
(dp157
g94
Nsg95
Nsg96
S'transport_security_persister_path'
p158
sg15
Nsg19
Nsg98
S'mojo_base.mojom.FilePath?'
p159
sg16
Nsbag1
(g91
g3
NtRp160
(dp161
g94
Nsg95
S'false'
p162
sg96
S'enable_data_url_support'
p163
sg15
Nsg19
Nsg98
S'bool'
p164
sg16
Nsbag1
(g91
g3
NtRp165
(dp166
g94
Nsg95
S'false'
p167
sg96
S'enable_file_url_support'
p168
sg15
Nsg19
Nsg98
S'bool'
p169
sg16
Nsbag1
(g91
g3
NtRp170
(dp171
g94
Nsg95
S'false'
p172
sg96
S'enable_ftp_url_support'
p173
sg15
Nsg19
Nsg98
S'bool'
p174
sg16
Nsbag1
(g91
g3
NtRp175
(dp176
g94
Nsg95
S'false'
p177
sg96
S'enforce_chrome_ct_policy'
p178
sg15
Nsg19
Nsg98
S'bool'
p179
sg16
Nsbag1
(g91
g3
NtRp180
(dp181
g94
Nsg95
S'false'
p182
sg96
S'http_09_on_non_default_ports_enabled'
p183
sg15
Nsg19
Nsg98
S'bool'
p184
sg16
Nsbag1
(g91
g3
NtRp185
(dp186
g94
Nsg95
Nsg96
S'initial_ssl_config'
p187
sg15
Nsg19
Nsg98
S'SSLConfig?'
p188
sg16
Nsbag1
(g91
g3
NtRp189
(dp190
g94
Nsg95
Nsg96
S'ssl_config_client_request'
p191
sg15
Nsg19
Nsg98
S'SSLConfigClient&?'
p192
sg16
Nsbag1
(g91
g3
NtRp193
(dp194
g94
Nsg95
Nsg96
S'initial_proxy_config'
p195
sg15
Nsg19
Nsg98
S'ProxyConfigWithAnnotation?'
p196
sg16
Nsbag1
(g91
g3
NtRp197
(dp198
g94
Nsg95
Nsg96
S'proxy_config_client_request'
p199
sg15
Nsg19
Nsg98
S'ProxyConfigClient&?'
p200
sg16
Nsbag1
(g91
g3
NtRp201
(dp202
g94
Nsg95
Nsg96
S'proxy_config_poller_client'
p203
sg15
Nsg19
Nsg98
S'ProxyConfigPollerClient?'
p204
sg16
Nsbag1
(g91
g3
NtRp205
(dp206
g94
Nsg95
S'true'
p207
sg96
S'pac_quick_check_enabled'
p208
sg15
Nsg19
Nsg98
S'bool'
p209
sg16
Nsbag1
(g91
g3
NtRp210
(dp211
g94
Nsg95
S'false'
p212
sg96
S'dangerously_allow_pac_access_to_secure_urls'
p213
sg15
Nsg19
Nsg98
S'bool'
p214
sg16
Nsbag1
(g91
g3
NtRp215
(dp216
g94
Nsg95
S'false'
p217
sg96
S'allow_gssapi_library_load'
p218
sg15
Nsg19
Nsg98
S'bool'
p219
sg16
Nsbag1
(g91
g3
NtRp220
(dp221
g94
Nsg95
Nsg96
S'gssapi_library_name'
p222
sg15
Nsg19
Nsg98
S'string'
p223
sg16
Nsbag1
(g91
g3
NtRp224
(dp225
g94
Nsg95
S'false'
p226
sg96
S'enable_certificate_reporting'
p227
sg15
Nsg19
Nsg98
S'bool'
p228
sg16
Nsbag1
(g91
g3
NtRp229
(dp230
g94
Nsg95
Nsg96
S'ct_logs'
p231
sg15
Nsg19
Nsg98
S'CTLogInfo[]'
p232
sg16
Nsbasg16
Nsg19
Nsbsg15
Nsg16
Nsg96
S'NetworkContextParams'
p233
sg19
Nsbag1
(g83
g3
NtRp234
(dp235
g86
g1
(g87
g3
NtRp236
(dp237
g10
(lp238
g1
(g91
g3
NtRp239
(dp240
g94
Nsg95
Nsg96
S'offline'
p241
sg15
Nsg19
Nsg98
S'bool'
p242
sg16
Nsbag1
(g91
g3
NtRp243
(dp244
g94
Nsg95
Nsg96
S'latency'
p245
sg15
Nsg19
Nsg98
S'mojo_base.mojom.TimeDelta'
p246
sg16
Nsbag1
(g91
g3
NtRp247
(dp248
g94
Nsg95
Nsg96
S'download_throughput'
p249
sg15
Nsg19
Nsg98
S'double'
p250
sg16
Nsbag1
(g91
g3
NtRp251
(dp252
g94
Nsg95
Nsg96
S'upload_throughput'
p253
sg15
Nsg19
Nsg98
S'double'
p254
sg16
Nsbasg16
Nsg19
Nsbsg15
Nsg16
Nsg96
S'NetworkConditions'
p255
sg19
Nsbag1
(g83
g3
NtRp256
(dp257
g86
g1
(g87
g3
NtRp258
(dp259
g10
(lp260
g1
(cmojom.parse.ast
Enum
p261
g3
NtRp262
(dp263
g15
NsS'enum_value_list'
p264
g1
(cmojom.parse.ast
EnumValueList
p265
g3
NtRp266
(dp267
g10
(lp268
g1
(cmojom.parse.ast
EnumValue
p269
g3
NtRp270
(dp271
g15
NsS'value'
p272
Nsg16
I181
sg96
S'DELETE_MATCHES'
p273
sg19
g20
sbag1
(g269
g3
NtRp274
(dp275
g15
Nsg272
Nsg16
I181
sg96
S'KEEP_MATCHES'
p276
sg19
g20
sbasg16
I181
sg19
g20
sbsg16
I181
sg96
S'Type'
p277
sg19
g20
sbag1
(g91
g3
NtRp278
(dp279
g94
Nsg95
Nsg96
S'type'
p280
sg15
Nsg19
Nsg98
S'Type'
p281
sg16
Nsbag1
(g91
g3
NtRp282
(dp283
g94
Nsg95
Nsg96
S'domains'
p284
sg15
Nsg19
Nsg98
S'string[]'
p285
sg16
Nsbag1
(g91
g3
NtRp286
(dp287
g94
Nsg95
Nsg96
S'origins'
p288
sg15
Nsg19
Nsg98
S'url.mojom.Origin[]'
p289
sg16
Nsbasg16
I181
sg19
g20
sbsg15
Nsg16
Nsg96
S'ClearDataFilter'
p290
sg19
Nsbag1
(g83
g3
NtRp291
(dp292
g86
g1
(g87
g3
NtRp293
(dp294
g10
(lp295
g1
(g91
g3
NtRp296
(dp297
g94
Nsg95
Nsg96
S'process_id'
p298
sg15
Nsg19
Nsg98
S'uint32'
p299
sg16
Nsbag1
(g91
g3
NtRp300
(dp301
g94
Nsg95
Nsg96
S'routing_id'
p302
sg15
Nsg19
Nsg98
S'uint32'
p303
sg16
Nsbag1
(g91
g3
NtRp304
(dp305
g94
Nsg95
Nsg96
S'total_bytes_received'
p306
sg15
Nsg19
Nsg98
S'int64'
p307
sg16
Nsbag1
(g91
g3
NtRp308
(dp309
g94
Nsg95
Nsg96
S'total_bytes_sent'
p310
sg15
Nsg19
Nsg98
S'int64'
p311
sg16
Nsbasg16
Nsg19
Nsbsg15
Nsg16
Nsg96
S'NetworkUsage'
p312
sg19
Nsbag1
(cmojom.parse.ast
Interface
p313
g3
NtRp314
(dp315
g86
g1
(cmojom.parse.ast
InterfaceBody
p316
g3
NtRp317
(dp318
g10
(lp319
g1
(g261
g3
NtRp320
(dp321
g15
Nsg264
g1
(g265
g3
NtRp322
(dp323
g10
(lp324
g1
(g269
g3
NtRp325
(dp326
g15
Nsg272
Nsg16
I223
sg96
S'DEFAULT'
p327
sg19
g20
sbag1
(g269
g3
NtRp328
(dp329
g15
Nsg272
Nsg16
I227
sg96
S'INCLUDE_COOKIES_AND_CREDENTIALS'
p330
sg19
g20
sbag1
(g269
g3
NtRp331
(dp332
g15
Nsg272
Nsg16
I231
sg96
S'INCLUDE_SOCKET_BYTES'
p333
sg19
g20
sbasg16
I223
sg19
g20
sbsg16
I220
sg96
S'CaptureMode'
p334
sg19
g20
sbag1
(cmojom.parse.ast
Const
p335
g3
NtRp336
(dp337
g96
S'kUnlimitedFileSize'
p338
sg15
Nsg272
S'0xFFFFFFFFFFFFFFFF'
p339
sg19
Nsg98
S'uint64'
p340
sg16
Nsbag1
(cmojom.parse.ast
Method
p341
g3
NtRp342
(dp343
g94
Nsg96
S'Start'
p344
sS'parameter_list'
p345
g1
(cmojom.parse.ast
ParameterList
p346
g3
NtRp347
(dp348
g10
(lp349
g1
(cmojom.parse.ast
Parameter
p350
g3
NtRp351
(dp352
g94
Nsg96
S'destination'
p353
sg15
Nsg19
g20
sg98
S'mojo_base.mojom.File'
p354
sg16
I245
sbag1
(g350
g3
NtRp355
(dp356
g94
Nsg96
S'extra_constants'
p357
sg15
Nsg19
g20
sg98
S'mojo_base.mojom.DictionaryValue'
p358
sg16
I246
sbag1
(g350
g3
NtRp359
(dp360
g94
Nsg96
S'capture_mode'
p361
sg15
Nsg19
g20
sg98
S'CaptureMode'
p362
sg16
I247
sbag1
(g350
g3
NtRp363
(dp364
g94
Nsg96
S'max_file_size'
p365
sg15
Nsg19
g20
sg98
S'uint64'
p366
sg16
I248
sbasg16
I245
sg19
g20
sbsg15
Nsg19
Nsg16
NsS'response_parameter_list'
p367
g1
(g346
g3
NtRp368
(dp369
g10
(lp370
g1
(g350
g3
NtRp371
(dp372
g94
Nsg96
S'net_error'
p373
sg15
Nsg19
g20
sg98
S'int32'
p374
sg16
I248
sbasg16
I248
sg19
g20
sbsbag1
(g341
g3
NtRp375
(dp376
g94
Nsg96
S'Stop'
p377
sg345
g1
(g346
g3
NtRp378
(dp379
g10
(lp380
g1
(g350
g3
NtRp381
(dp382
g94
Nsg96
S'polled_values'
p383
sg15
Nsg19
g20
sg98
S'mojo_base.mojom.DictionaryValue'
p384
sg16
I256
sbasg16
I256
sg19
g20
sbsg15
Nsg19
Nsg16
Nsg367
g1
(g346
g3
NtRp385
(dp386
g10
(lp387
g1
(g350
g3
NtRp388
(dp389
g94
Nsg96
S'net_error'
p390
sg15
Nsg19
g20
sg98
S'int32'
p391
sg16
I256
sbasg16
I256
sg19
g20
sbsbasg16
I220
sg19
g20
sbsg15
Nsg16
Nsg96
S'NetLogExporter'
p392
sg19
Nsbag1
(g335
g3
NtRp393
(dp394
g96
S'kBrowserProcessId'
p395
sg15
Nsg272
S'0'
sg19
Nsg98
S'uint32'
p396
sg16
Nsbag1
(g335
g3
NtRp397
(dp398
g96
S'kInvalidProcessId'
p399
sg15
Nsg272
S'0xffffffff'
p400
sg19
Nsg98
S'uint32'
p401
sg16
Nsbag1
(g83
g3
NtRp402
(dp403
g86
g1
(g87
g3
NtRp404
(dp405
g10
(lp406
g1
(g91
g3
NtRp407
(dp408
g94
Nsg95
(S'IDENTIFIER'
p409
S'kInvalidProcessId'
tp410
sg96
S'process_id'
p411
sg15
Nsg19
Nsg98
S'uint32'
p412
sg16
Nsbag1
(g91
g3
NtRp413
(dp414
g94
Nsg95
S'true'
p415
sg96
S'is_corb_enabled'
p416
sg15
Nsg19
Nsg98
S'bool'
p417
sg16
Nsbag1
(g91
g3
NtRp418
(dp419
g94
Nsg95
Nsg96
S'corb_excluded_initiator_scheme'
p420
sg15
Nsg19
Nsg98
S'string'
p421
sg16
Nsbasg16
Nsg19
Nsbsg15
Nsg16
Nsg96
S'URLLoaderFactoryParams'
p422
sg19
Nsbag1
(g313
g3
NtRp423
(dp424
g86
g1
(g316
g3
NtRp425
(dp426
g10
(lp427
g1
(g341
g3
NtRp428
(dp429
g94
Nsg96
S'CreateURLLoaderFactory'
p430
sg345
g1
(g346
g3
NtRp431
(dp432
g10
(lp433
g1
(g350
g3
NtRp434
(dp435
g94
Nsg96
S'url_loader_factory'
p436
sg15
Nsg19
g20
sg98
S'URLLoaderFactory&'
p437
sg16
I277
sbag1
(g350
g3
NtRp438
(dp439
g94
Nsg96
S'params'
p440
sg15
Nsg19
g20
sg98
S'URLLoaderFactoryParams'
p441
sg16
I278
sbasg16
I277
sg19
g20
sbsg15
Nsg19
Nsg16
Nsg367
Nsbag1
(g341
g3
NtRp442
(dp443
g94
Nsg96
S'GetCookieManager'
p444
sg345
g1
(g346
g3
NtRp445
(dp446
g10
(lp447
g1
(g350
g3
NtRp448
(dp449
g94
Nsg96
S'cookie_manager'
p450
sg15
Nsg19
g20
sg98
S'CookieManager&'
p451
sg16
I281
sbasg16
I281
sg19
g20
sbsg15
Nsg19
Nsg16
Nsg367
Nsbag1
(g341
g3
NtRp452
(dp453
g94
Nsg96
S'GetRestrictedCookieManager'
p454
sg345
g1
(g346
g3
NtRp455
(dp456
g10
(lp457
g1
(g350
g3
NtRp458
(dp459
g94
Nsg96
S'restricted_cookie_manager'
p460
sg15
Nsg19
g20
sg98
S'RestrictedCookieManager&'
p461
sg16
I286
sbag1
(g350
g3
NtRp462
(dp463
g94
Nsg96
S'render_process_id'
p464
sg15
Nsg19
g20
sg98
S'int32'
p465
sg16
I287
sbag1
(g350
g3
NtRp466
(dp467
g94
Nsg96
S'render_frame_id'
p468
sg15
Nsg19
g20
sg98
S'int32'
p469
sg16
I287
sbasg16
I286
sg19
g20
sbsg15
Nsg19
Nsg16
Nsg367
Nsbag1
(g341
g3
NtRp470
(dp471
g94
Nsg96
S'ClearNetworkingHistorySince'
p472
sg345
g1
(g346
g3
NtRp473
(dp474
g10
(lp475
g1
(g350
g3
NtRp476
(dp477
g94
Nsg96
S'start_time'
p478
sg15
Nsg19
g20
sg98
S'mojo_base.mojom.Time'
p479
sg16
I296
sbasg16
I296
sg19
g20
sbsg15
Nsg19
Nsg16
Nsg367
g1
(g346
g3
NtRp480
(dp481
g10
(lp482
sg16
Nsg19
Nsbsbag1
(g341
g3
NtRp483
(dp484
g94
Nsg96
S'ClearHttpCache'
p485
sg345
g1
(g346
g3
NtRp486
(dp487
g10
(lp488
g1
(g350
g3
NtRp489
(dp490
g94
Nsg96
S'start_time'
p491
sg15
Nsg19
g20
sg98
S'mojo_base.mojom.Time'
p492
sg16
I301
sbag1
(g350
g3
NtRp493
(dp494
g94
Nsg96
S'end_time'
p495
sg15
Nsg19
g20
sg98
S'mojo_base.mojom.Time'
p496
sg16
I302
sbag1
(g350
g3
NtRp497
(dp498
g94
Nsg96
S'filter'
p499
sg15
Nsg19
g20
sg98
S'ClearDataFilter?'
p500
sg16
I303
sbasg16
I301
sg19
g20
sbsg15
Nsg19
Nsg16
Nsg367
g1
(g346
g3
NtRp501
(dp502
g10
(lp503
sg16
Nsg19
Nsbsbag1
(g341
g3
NtRp504
(dp505
g94
Nsg96
S'ClearChannelIds'
p506
sg345
g1
(g346
g3
NtRp507
(dp508
g10
(lp509
g1
(g350
g3
NtRp510
(dp511
g94
Nsg96
S'start_time'
p512
sg15
Nsg19
g20
sg98
S'mojo_base.mojom.Time'
p513
sg16
I312
sbag1
(g350
g3
NtRp514
(dp515
g94
Nsg96
S'end_time'
p516
sg15
Nsg19
g20
sg98
S'mojo_base.mojom.Time'
p517
sg16
I313
sbag1
(g350
g3
NtRp518
(dp519
g94
Nsg96
S'filter'
p520
sg15
Nsg19
g20
sg98
S'ClearDataFilter?'
p521
sg16
I314
sbasg16
I312
sg19
g20
sbsg15
Nsg19
Nsg16
Nsg367
g1
(g346
g3
NtRp522
(dp523
g10
(lp524
sg16
Nsg19
Nsbsbag1
(g341
g3
NtRp525
(dp526
g94
Nsg96
S'ClearHttpAuthCache'
p527
sg345
g1
(g346
g3
NtRp528
(dp529
g10
(lp530
g1
(g350
g3
NtRp531
(dp532
g94
Nsg96
S'start_time'
p533
sg15
Nsg19
g20
sg98
S'mojo_base.mojom.Time'
p534
sg16
I318
sbasg16
I318
sg19
g20
sbsg15
Nsg19
Nsg16
Nsg367
g1
(g346
g3
NtRp535
(dp536
g10
(lp537
sg16
Nsg19
Nsbsbag1
(g341
g3
NtRp538
(dp539
g94
Nsg96
S'ClearReportingCacheReports'
p540
sg345
g1
(g346
g3
NtRp541
(dp542
g10
(lp543
g1
(g350
g3
NtRp544
(dp545
g94
Nsg96
S'filter'
p546
sg15
Nsg19
g20
sg98
S'ClearDataFilter?'
p547
sg16
I325
sbasg16
I325
sg19
g20
sbsg15
Nsg19
Nsg16
Nsg367
g1
(g346
g3
NtRp548
(dp549
g10
(lp550
sg16
Nsg19
Nsbsbag1
(g341
g3
NtRp551
(dp552
g94
Nsg96
S'ClearReportingCacheClients'
p553
sg345
g1
(g346
g3
NtRp554
(dp555
g10
(lp556
g1
(g350
g3
NtRp557
(dp558
g94
Nsg96
S'filter'
p559
sg15
Nsg19
g20
sg98
S'ClearDataFilter?'
p560
sg16
I332
sbasg16
I332
sg19
g20
sbsg15
Nsg19
Nsg16
Nsg367
g1
(g346
g3
NtRp561
(dp562
g10
(lp563
sg16
Nsg19
Nsbsbag1
(g341
g3
NtRp564
(dp565
g94
Nsg96
S'ClearNetworkErrorLogging'
p566
sg345
g1
(g346
g3
NtRp567
(dp568
g10
(lp569
g1
(g350
g3
NtRp570
(dp571
g94
Nsg96
S'filter'
p572
sg15
Nsg19
g20
sg98
S'ClearDataFilter?'
p573
sg16
I339
sbasg16
I339
sg19
g20
sbsg15
Nsg19
Nsg16
Nsg367
g1
(g346
g3
NtRp574
(dp575
g10
(lp576
sg16
Nsg19
Nsbsbag1
(g341
g3
NtRp577
(dp578
g94
Nsg96
S'SetNetworkConditions'
p579
sg345
g1
(g346
g3
NtRp580
(dp581
g10
(lp582
g1
(g350
g3
NtRp583
(dp584
g94
Nsg96
S'profile_id'
p585
sg15
Nsg19
g20
sg98
S'string'
p586
sg16
I347
sbag1
(g350
g3
NtRp587
(dp588
g94
Nsg96
S'conditions'
p589
sg15
Nsg19
g20
sg98
S'NetworkConditions?'
p590
sg16
I347
sbasg16
I347
sg19
g20
sbsg15
Nsg19
Nsg16
Nsg367
Nsbag1
(g341
g3
NtRp591
(dp592
g94
Nsg96
S'SetAcceptLanguage'
p593
sg345
g1
(g346
g3
NtRp594
(dp595
g10
(lp596
g1
(g350
g3
NtRp597
(dp598
g94
Nsg96
S'new_accept_language'
p599
sg15
Nsg19
g20
sg98
S'string'
p600
sg16
I350
sbasg16
I350
sg19
g20
sbsg15
Nsg19
Nsg16
Nsg367
Nsbag1
(g341
g3
NtRp601
(dp602
g94
Nsg96
S'SetCTPolicy'
p603
sg345
g1
(g346
g3
NtRp604
(dp605
g10
(lp606
g1
(g350
g3
NtRp607
(dp608
g94
Nsg96
S'required_hosts'
p609
sg15
Nsg19
g20
sg98
S'string[]'
p610
sg16
I356
sbag1
(g350
g3
NtRp611
(dp612
g94
Nsg96
S'excluded_hosts'
p613
sg15
Nsg19
g20
sg98
S'string[]'
p614
sg16
I357
sbag1
(g350
g3
NtRp615
(dp616
g94
Nsg96
S'excluded_spkis'
p617
sg15
Nsg19
g20
sg98
S'string[]'
p618
sg16
I358
sbag1
(g350
g3
NtRp619
(dp620
g94
Nsg96
S'excluded_legacy_spkis'
p621
sg15
Nsg19
g20
sg98
S'string[]'
p622
sg16
I359
sbasg16
I356
sg19
g20
sbsg15
Nsg19
Nsg16
Nsg367
Nsbag1
(g341
g3
NtRp623
(dp624
g94
Nsg96
S'CreateUDPSocket'
p625
sg345
g1
(g346
g3
NtRp626
(dp627
g10
(lp628
g1
(g350
g3
NtRp629
(dp630
g94
Nsg96
S'request'
p631
sg15
Nsg19
g20
sg98
S'UDPSocket&'
p632
sg16
I366
sbag1
(g350
g3
NtRp633
(dp634
g94
Nsg96
S'receiver'
p635
sg15
Nsg19
g20
sg98
S'UDPSocketReceiver?'
p636
sg16
I366
sbasg16
I366
sg19
g20
sbsg15
Nsg19
Nsg16
Nsg367
Nsbag1
(g341
g3
NtRp637
(dp638
g94
Nsg96
S'CreateTCPServerSocket'
p639
sg345
g1
(g346
g3
NtRp640
(dp641
g10
(lp642
g1
(g350
g3
NtRp643
(dp644
g94
Nsg96
S'local_addr'
p645
sg15
Nsg19
g20
sg98
S'net.interfaces.IPEndPoint'
p646
sg16
I380
sbag1
(g350
g3
NtRp647
(dp648
g94
Nsg96
S'backlog'
p649
sg15
Nsg19
g20
sg98
S'uint32'
p650
sg16
I381
sbag1
(g350
g3
NtRp651
(dp652
g94
Nsg96
S'traffic_annotation'
p653
sg15
Nsg19
g20
sg98
S'MutableNetworkTrafficAnnotationTag'
p654
sg16
I382
sbag1
(g350
g3
NtRp655
(dp656
g94
Nsg96
S'socket'
p657
sg15
Nsg19
g20
sg98
S'TCPServerSocket&'
p658
sg16
I383
sbasg16
I380
sg19
g20
sbsg15
Nsg19
Nsg16
Nsg367
g1
(g346
g3
NtRp659
(dp660
g10
(lp661
g1
(g350
g3
NtRp662
(dp663
g94
Nsg96
S'result'
p664
sg15
Nsg19
g20
sg98
S'int32'
p665
sg16
I384
sbag1
(g350
g3
NtRp666
(dp667
g94
Nsg96
S'local_addr_out'
p668
sg15
Nsg19
g20
sg98
S'net.interfaces.IPEndPoint?'
p669
sg16
I384
sbasg16
I384
sg19
g20
sbsbag1
(g341
g3
NtRp670
(dp671
g94
Nsg96
S'CreateTCPConnectedSocket'
p672
sg345
g1
(g346
g3
NtRp673
(dp674
g10
(lp675
g1
(g350
g3
NtRp676
(dp677
g94
Nsg96
S'local_addr'
p678
sg15
Nsg19
g20
sg98
S'net.interfaces.IPEndPoint?'
p679
sg16
I399
sbag1
(g350
g3
NtRp680
(dp681
g94
Nsg96
S'remote_addr_list'
p682
sg15
Nsg19
g20
sg98
S'net.interfaces.AddressList'
p683
sg16
I400
sbag1
(g350
g3
NtRp684
(dp685
g94
Nsg96
S'traffic_annotation'
p686
sg15
Nsg19
g20
sg98
S'MutableNetworkTrafficAnnotationTag'
p687
sg16
I401
sbag1
(g350
g3
NtRp688
(dp689
g94
Nsg96
S'socket'
p690
sg15
Nsg19
g20
sg98
S'TCPConnectedSocket&'
p691
sg16
I402
sbag1
(g350
g3
NtRp692
(dp693
g94
Nsg96
S'observer'
p694
sg15
Nsg19
g20
sg98
S'SocketObserver?'
p695
sg16
I403
sbasg16
I399
sg19
g20
sbsg15
Nsg19
Nsg16
Nsg367
g1
(g346
g3
NtRp696
(dp697
g10
(lp698
g1
(g350
g3
NtRp699
(dp700
g94
Nsg96
S'result'
p701
sg15
Nsg19
g20
sg98
S'int32'
p702
sg16
I404
sbag1
(g350
g3
NtRp703
(dp704
g94
Nsg96
S'receive_stream'
p705
sg15
Nsg19
g20
sg98
S'handle<data_pipe_consumer>?'
p706
sg16
I405
sbag1
(g350
g3
NtRp707
(dp708
g94
Nsg96
S'send_stream'
p709
sg15
Nsg19
g20
sg98
S'handle<data_pipe_producer>?'
p710
sg16
I406
sbasg16
I404
sg19
g20
sbsbag1
(g341
g3
NtRp711
(dp712
g94
Nsg96
S'CreateWebSocket'
p713
sg345
g1
(g346
g3
NtRp714
(dp715
g10
(lp716
g1
(g350
g3
NtRp717
(dp718
g94
Nsg96
S'request'
p719
sg15
Nsg19
g20
sg98
S'WebSocket&'
p720
sg16
I409
sbag1
(g350
g3
NtRp721
(dp722
g94
Nsg96
S'process_id'
p723
sg15
Nsg19
g20
sg98
S'int32'
p724
sg16
I410
sbag1
(g350
g3
NtRp725
(dp726
g94
Nsg96
S'render_frame_id'
p727
sg15
Nsg19
g20
sg98
S'int32'
p728
sg16
I411
sbag1
(g350
g3
NtRp729
(dp730
g94
Nsg96
S'origin'
p731
sg15
Nsg19
g20
sg98
S'url.mojom.Origin'
p732
sg16
I412
sbasg16
I409
sg19
g20
sbsg15
Nsg19
Nsg16
Nsg367
Nsbag1
(g341
g3
NtRp733
(dp734
g94
Nsg96
S'CreateNetLogExporter'
p735
sg345
g1
(g346
g3
NtRp736
(dp737
g10
(lp738
g1
(g350
g3
NtRp739
(dp740
g94
Nsg96
S'exporter'
p741
sg15
Nsg19
g20
sg98
S'NetLogExporter&'
p742
sg16
I419
sbasg16
I419
sg19
g20
sbsg15
Nsg19
Nsg16
Nsg367
Nsbag1
(g341
g3
NtRp743
(dp744
g94
Nsg96
S'BlockThirdPartyCookies'
p745
sg345
g1
(g346
g3
NtRp746
(dp747
g10
(lp748
g1
(g350
g3
NtRp749
(dp750
g94
Nsg96
S'block'
p751
sg15
Nsg19
g20
sg98
S'bool'
p752
sg16
I422
sbasg16
I422
sg19
g20
sbsg15
Nsg19
Nsg16
Nsg367
Nsbag1
(g341
g3
NtRp753
(dp754
g94
Nsg96
S'AddHSTSForTesting'
p755
sg345
g1
(g346
g3
NtRp756
(dp757
g10
(lp758
g1
(g350
g3
NtRp759
(dp760
g94
Nsg96
S'host'
p761
sg15
Nsg19
g20
sg98
S'string'
p762
sg16
I427
sbag1
(g350
g3
NtRp763
(dp764
g94
Nsg96
S'expiry'
p765
sg15
Nsg19
g20
sg98
S'mojo_base.mojom.Time'
p766
sg16
I428
sbag1
(g350
g3
NtRp767
(dp768
g94
Nsg96
S'include_subdomains'
p769
sg15
Nsg19
g20
sg98
S'bool'
p770
sg16
I429
sbasg16
I427
sg19
g20
sbsg15
g1
(cmojom.parse.ast
AttributeList
p771
g3
NtRp772
(dp773
g10
(lp774
g1
(cmojom.parse.ast
Attribute
p775
g3
NtRp776
(dp777
g272
I01
sg16
I424
sS'key'
p778
S'Sync'
p779
sg19
g20
sbasg16
I424
sg19
g20
sbsg19
Nsg16
Nsg367
g1
(g346
g3
NtRp780
(dp781
g10
(lp782
sg16
Nsg19
Nsbsbag1
(g341
g3
NtRp783
(dp784
g94
Nsg96
S'SetFailingHttpTransactionForTesting'
p785
sg345
g1
(g346
g3
NtRp786
(dp787
g10
(lp788
g1
(g350
g3
NtRp789
(dp790
g94
Nsg96
S'rv'
p791
sg15
Nsg19
g20
sg98
S'int32'
p792
sg16
I433
sbasg16
I433
sg19
g20
sbsg15
g1
(g771
g3
NtRp793
(dp794
g10
(lp795
g1
(g775
g3
NtRp796
(dp797
g272
I01
sg16
I431
sg778
S'Sync'
p798
sg19
g20
sbasg16
I431
sg19
g20
sbsg19
Nsg16
Nsg367
g1
(g346
g3
NtRp799
(dp800
g10
(lp801
sg16
Nsg19
Nsbsbasg16
Nsg19
Nsbsg15
Nsg16
Nsg96
S'NetworkContext'
p802
sg19
Nsbasg16
NsS'module'
p803
g1
(cmojom.parse.ast
Module
p804
g3
NtRp805
(dp806
S'mojom_namespace'
p807
(g409
S'network.mojom'
tp808
sg16
I5
sg15
Nsg19
g20
sbsg19
Nsb.