ccopy_reg
_reconstructor
p1
(cmojom.parse.ast
Mojom
p2
c__builtin__
object
p3
NtRp4
(dp5
S'import_list'
p6
g1
(cmojom.parse.ast
ImportList
p7
g3
NtRp8
(dp9
S'items'
p10
(lp11
sS'lineno'
p12
NsS'filename'
p13
NsbsS'definition_list'
p14
(lp15
g1
(cmojom.parse.ast
Enum
p16
g3
NtRp17
(dp18
S'attribute_list'
p19
NsS'enum_value_list'
p20
g1
(cmojom.parse.ast
EnumValueList
p21
g3
NtRp22
(dp23
g10
(lp24
g1
(cmojom.parse.ast
EnumValue
p25
g3
NtRp26
(dp27
g19
NsS'value'
p28
S'0'
sg12
I9
sS'mojom_name'
p29
S'CONNECTION_UNKNOWN'
p30
sg13
S'../../services/network/public/mojom/network_change_manager.mojom'
p31
sbag1
(g25
g3
NtRp32
(dp33
g19
Nsg28
S'1'
sg12
I11
sg29
S'CONNECTION_ETHERNET'
p34
sg13
g31
sbag1
(g25
g3
NtRp35
(dp36
g19
Nsg28
S'2'
sg12
I12
sg29
S'CONNECTION_WIFI'
p37
sg13
g31
sbag1
(g25
g3
NtRp38
(dp39
g19
Nsg28
S'3'
sg12
I13
sg29
S'CONNECTION_2G'
p40
sg13
g31
sbag1
(g25
g3
NtRp41
(dp42
g19
Nsg28
S'4'
sg12
I14
sg29
S'CONNECTION_3G'
p43
sg13
g31
sbag1
(g25
g3
NtRp44
(dp45
g19
Nsg28
S'5'
sg12
I15
sg29
S'CONNECTION_4G'
p46
sg13
g31
sbag1
(g25
g3
NtRp47
(dp48
g19
Nsg28
S'6'
sg12
I16
sg29
S'CONNECTION_NONE'
p49
sg13
g31
sbag1
(g25
g3
NtRp50
(dp51
g19
Nsg28
S'7'
sg12
I17
sg29
S'CONNECTION_BLUETOOTH'
p52
sg13
g31
sbag1
(g25
g3
NtRp53
(dp54
g19
Nsg28
(S'IDENTIFIER'
p55
S'CONNECTION_BLUETOOTH'
tp56
sg12
I18
sg29
S'CONNECTION_LAST'
p57
sg13
g31
sbasg12
I9
sg13
g31
sbsg12
I8
sg29
S'ConnectionType'
p58
sg13
g31
sbag1
(cmojom.parse.ast
Interface
p59
g3
NtRp60
(dp61
S'body'
p62
g1
(cmojom.parse.ast
InterfaceBody
p63
g3
NtRp64
(dp65
g10
(lp66
g1
(cmojom.parse.ast
Method
p67
g3
NtRp68
(dp69
S'ordinal'
p70
Nsg29
S'OnInitialConnectionType'
p71
sS'parameter_list'
p72
g1
(cmojom.parse.ast
ParameterList
p73
g3
NtRp74
(dp75
g10
(lp76
g1
(cmojom.parse.ast
Parameter
p77
g3
NtRp78
(dp79
g70
Nsg29
S'type'
p80
sg19
Nsg13
g31
sS'typename'
p81
S'ConnectionType'
p82
sg12
I25
sbasg12
I25
sg13
g31
sbsg19
Nsg13
Nsg12
NsS'response_parameter_list'
p83
Nsbag1
(g67
g3
NtRp84
(dp85
g70
Nsg29
S'OnNetworkChanged'
p86
sg72
g1
(g73
g3
NtRp87
(dp88
g10
(lp89
g1
(g77
g3
NtRp90
(dp91
g70
Nsg29
S'type'
p92
sg19
Nsg13
g31
sg81
S'ConnectionType'
p93
sg12
I43
sbasg12
I43
sg13
g31
sbsg19
Nsg13
Nsg12
Nsg83
Nsbasg12
Nsg13
Nsbsg19
Nsg12
Nsg29
S'NetworkChangeManagerClient'
p94
sg13
Nsbag1
(g59
g3
NtRp95
(dp96
g62
g1
(g63
g3
NtRp97
(dp98
g10
(lp99
g1
(g67
g3
NtRp100
(dp101
g70
Nsg29
S'RequestNotifications'
p102
sg72
g1
(g73
g3
NtRp103
(dp104
g10
(lp105
g1
(g77
g3
NtRp106
(dp107
g70
Nsg29
S'client_ptr'
p108
sg19
Nsg13
g31
sg81
S'NetworkChangeManagerClient'
p109
sg12
I49
sbasg12
I49
sg13
g31
sbsg19
Nsg13
Nsg12
Nsg83
Nsbasg12
Nsg13
Nsbsg19
Nsg12
Nsg29
S'NetworkChangeManager'
p110
sg13
Nsbasg12
NsS'module'
p111
g1
(cmojom.parse.ast
Module
p112
g3
NtRp113
(dp114
S'mojom_namespace'
p115
(g55
S'network.mojom'
tp116
sg12
I5
sg19
Nsg13
g31
sbsg13
Nsb.