ccopy_reg
_reconstructor
p1
(cmojom.parse.ast
Mojom
p2
c__builtin__
object
p3
NtRp4
(dp5
S'import_list'
p6
g1
(cmojom.parse.ast
ImportList
p7
g3
NtRp8
(dp9
S'items'
p10
(lp11
sS'lineno'
p12
NsS'filename'
p13
NsbsS'definition_list'
p14
(lp15
g1
(cmojom.parse.ast
Struct
p16
g3
NtRp17
(dp18
S'body'
p19
NsS'attribute_list'
p20
g1
(cmojom.parse.ast
AttributeList
p21
g3
NtRp22
(dp23
g10
(lp24
g1
(cmojom.parse.ast
Attribute
p25
g3
NtRp26
(dp27
S'value'
p28
I01
sg12
I7
sS'key'
p29
S'Native'
p30
sg13
S'../../services/network/public/mojom/network_param.mojom'
p31
sbasg12
I7
sg13
g31
sbsg12
NsS'mojom_name'
p32
S'AuthChallengeInfo'
p33
sg13
Nsbag1
(g16
g3
NtRp34
(dp35
g19
Nsg20
g1
(g21
g3
NtRp36
(dp37
g10
(lp38
g1
(g25
g3
NtRp39
(dp40
g28
I01
sg12
I10
sg29
S'Native'
p41
sg13
g31
sbasg12
I10
sg13
g31
sbsg12
Nsg32
S'AuthCredentials'
p42
sg13
Nsbag1
(g16
g3
NtRp43
(dp44
g19
Nsg20
g1
(g21
g3
NtRp45
(dp46
g10
(lp47
g1
(g25
g3
NtRp48
(dp49
g28
I01
sg12
I13
sg29
S'Native'
p50
sg13
g31
sbasg12
I13
sg13
g31
sbsg12
Nsg32
S'CertVerifyResult'
p51
sg13
Nsbag1
(g16
g3
NtRp52
(dp53
g19
Nsg20
g1
(g21
g3
NtRp54
(dp55
g10
(lp56
g1
(g25
g3
NtRp57
(dp58
g28
I01
sg12
I16
sg29
S'Native'
p59
sg13
g31
sbasg12
I16
sg13
g31
sbsg12
Nsg32
S'HostPortPair'
p60
sg13
Nsbag1
(g16
g3
NtRp61
(dp62
g19
Nsg20
g1
(g21
g3
NtRp63
(dp64
g10
(lp65
g1
(g25
g3
NtRp66
(dp67
g28
I01
sg12
I19
sg29
S'Native'
p68
sg13
g31
sbasg12
I19
sg13
g31
sbsg12
Nsg32
S'X509Certificate'
p69
sg13
Nsbag1
(g16
g3
NtRp70
(dp71
g19
Nsg20
g1
(g21
g3
NtRp72
(dp73
g10
(lp74
g1
(g25
g3
NtRp75
(dp76
g28
I01
sg12
I22
sg29
S'Native'
p77
sg13
g31
sbasg12
I22
sg13
g31
sbsg12
Nsg32
S'SSLCertRequestInfo'
p78
sg13
Nsbag1
(g16
g3
NtRp79
(dp80
g19
Nsg20
g1
(g21
g3
NtRp81
(dp82
g10
(lp83
g1
(g25
g3
NtRp84
(dp85
g28
I01
sg12
I25
sg29
S'Native'
p86
sg13
g31
sbasg12
I25
sg13
g31
sbsg12
Nsg32
S'SSLInfo'
p87
sg13
Nsbasg12
NsS'module'
p88
g1
(cmojom.parse.ast
Module
p89
g3
NtRp90
(dp91
S'mojom_namespace'
p92
(S'IDENTIFIER'
p93
S'network.mojom'
tp94
sg12
I5
sg20
Nsg13
g31
sbsg13
Nsb.