ccopy_reg
_reconstructor
p1
(cmojom.parse.ast
Mojom
p2
c__builtin__
object
p3
NtRp4
(dp5
S'import_list'
p6
g1
(cmojom.parse.ast
ImportList
p7
g3
NtRp8
(dp9
S'items'
p10
(lp11
g1
(cmojom.parse.ast
Import
p12
g3
NtRp13
(dp14
S'attribute_list'
p15
NsS'lineno'
p16
I7
sS'import_filename'
p17
S'services/network/public/mojom/mutable_network_traffic_annotation_tag.mojom'
p18
sS'filename'
p19
S'../../services/network/public/mojom/proxy_config_with_annotation.mojom'
p20
sbag1
(g12
g3
NtRp21
(dp22
g15
Nsg16
I8
sg17
S'services/network/public/mojom/proxy_config.mojom'
p23
sg19
g20
sbasg16
I7
sg19
g20
sbsS'definition_list'
p24
(lp25
g1
(cmojom.parse.ast
Struct
p26
g3
NtRp27
(dp28
S'body'
p29
g1
(cmojom.parse.ast
StructBody
p30
g3
NtRp31
(dp32
g10
(lp33
g1
(cmojom.parse.ast
StructField
p34
g3
NtRp35
(dp36
S'ordinal'
p37
NsS'default_value'
p38
NsS'mojom_name'
p39
S'value'
p40
sg15
Nsg19
NsS'typename'
p41
S'ProxyConfig'
p42
sg16
Nsbag1
(g34
g3
NtRp43
(dp44
g37
Nsg38
Nsg39
S'traffic_annotation'
p45
sg15
Nsg19
Nsg41
S'MutableNetworkTrafficAnnotationTag'
p46
sg16
Nsbasg16
Nsg19
Nsbsg15
Nsg16
Nsg39
S'ProxyConfigWithAnnotation'
p47
sg19
Nsbag1
(cmojom.parse.ast
Interface
p48
g3
NtRp49
(dp50
g29
g1
(cmojom.parse.ast
InterfaceBody
p51
g3
NtRp52
(dp53
g10
(lp54
g1
(cmojom.parse.ast
Method
p55
g3
NtRp56
(dp57
g37
Nsg39
S'OnProxyConfigUpdated'
p58
sS'parameter_list'
p59
g1
(cmojom.parse.ast
ParameterList
p60
g3
NtRp61
(dp62
g10
(lp63
g1
(cmojom.parse.ast
Parameter
p64
g3
NtRp65
(dp66
g37
Nsg39
S'proxy_config'
p67
sg15
Nsg19
g20
sg41
S'ProxyConfigWithAnnotation'
p68
sg16
I18
sbasg16
I18
sg19
g20
sbsg15
Nsg19
Nsg16
NsS'response_parameter_list'
p69
Nsbasg16
Nsg19
Nsbsg15
Nsg16
Nsg39
S'ProxyConfigClient'
p70
sg19
Nsbag1
(g48
g3
NtRp71
(dp72
g29
g1
(g51
g3
NtRp73
(dp74
g10
(lp75
g1
(g55
g3
NtRp76
(dp77
g37
Nsg39
S'OnLazyProxyConfigPoll'
p78
sg59
g1
(g60
g3
NtRp79
(dp80
g10
(lp81
sg16
Nsg19
Nsbsg15
Nsg19
Nsg16
Nsg69
Nsbasg16
Nsg19
Nsbsg15
Nsg16
Nsg39
S'ProxyConfigPollerClient'
p82
sg19
Nsbasg16
NsS'module'
p83
g1
(cmojom.parse.ast
Module
p84
g3
NtRp85
(dp86
S'mojom_namespace'
p87
(S'IDENTIFIER'
p88
S'network.mojom'
tp89
sg16
I5
sg15
Nsg19
g20
sbsg19
Nsb.