ccopy_reg
_reconstructor
p1
(cmojom.parse.ast
Mojom
p2
c__builtin__
object
p3
NtRp4
(dp5
S'import_list'
p6
g1
(cmojom.parse.ast
ImportList
p7
g3
NtRp8
(dp9
S'items'
p10
(lp11
sS'lineno'
p12
NsS'filename'
p13
NsbsS'definition_list'
p14
(lp15
g1
(cmojom.parse.ast
Enum
p16
g3
NtRp17
(dp18
S'attribute_list'
p19
NsS'enum_value_list'
p20
g1
(cmojom.parse.ast
EnumValueList
p21
g3
NtRp22
(dp23
g10
(lp24
g1
(cmojom.parse.ast
EnumValue
p25
g3
NtRp26
(dp27
g19
NsS'value'
p28
Nsg12
I8
sS'mojom_name'
p29
S'kTLS1'
p30
sg13
S'../../services/network/public/mojom/ssl_config.mojom'
p31
sbag1
(g25
g3
NtRp32
(dp33
g19
Nsg28
Nsg12
I9
sg29
S'kTLS11'
p34
sg13
g31
sbag1
(g25
g3
NtRp35
(dp36
g19
Nsg28
Nsg12
I10
sg29
S'kTLS12'
p37
sg13
g31
sbag1
(g25
g3
NtRp38
(dp39
g19
Nsg28
Nsg12
I11
sg29
S'kTLS13'
p40
sg13
g31
sbasg12
I8
sg13
g31
sbsg12
I7
sg29
S'SSLVersion'
p41
sg13
g31
sbag1
(g16
g3
NtRp42
(dp43
g19
Nsg20
g1
(g21
g3
NtRp44
(dp45
g10
(lp46
g1
(g25
g3
NtRp47
(dp48
g19
Nsg28
Nsg12
I16
sg29
S'kDraft23'
p49
sg13
g31
sbag1
(g25
g3
NtRp50
(dp51
g19
Nsg28
Nsg12
I17
sg29
S'kDraft28'
p52
sg13
g31
sbasg12
I16
sg13
g31
sbsg12
I15
sg29
S'TLS13Variant'
p53
sg13
g31
sbag1
(cmojom.parse.ast
Struct
p54
g3
NtRp55
(dp56
S'body'
p57
g1
(cmojom.parse.ast
StructBody
p58
g3
NtRp59
(dp60
g10
(lp61
g1
(cmojom.parse.ast
StructField
p62
g3
NtRp63
(dp64
S'ordinal'
p65
NsS'default_value'
p66
S'false'
p67
sg29
S'rev_checking_enabled'
p68
sg19
Nsg13
NsS'typename'
p69
S'bool'
p70
sg12
Nsbag1
(g62
g3
NtRp71
(dp72
g65
Nsg66
S'false'
p73
sg29
S'rev_checking_required_local_anchors'
p74
sg19
Nsg13
Nsg69
S'bool'
p75
sg12
Nsbag1
(g62
g3
NtRp76
(dp77
g65
Nsg66
S'false'
p78
sg29
S'sha1_local_anchors_enabled'
p79
sg19
Nsg13
Nsg69
S'bool'
p80
sg12
Nsbag1
(g62
g3
NtRp81
(dp82
g65
Nsg66
S'false'
p83
sg29
S'symantec_enforcement_disabled'
p84
sg19
Nsg13
Nsg69
S'bool'
p85
sg12
Nsbag1
(g62
g3
NtRp86
(dp87
g65
Nsg66
(S'IDENTIFIER'
p88
S'kTLS1'
tp89
sg29
S'version_min'
p90
sg19
Nsg13
Nsg69
S'SSLVersion'
p91
sg12
Nsbag1
(g62
g3
NtRp92
(dp93
g65
Nsg66
(g88
S'kTLS12'
tp94
sg29
S'version_max'
p95
sg19
Nsg13
Nsg69
S'SSLVersion'
p96
sg12
Nsbag1
(g62
g3
NtRp97
(dp98
g65
Nsg66
(g88
S'kDraft23'
tp99
sg29
S'tls13_variant'
p100
sg19
Nsg13
Nsg69
S'TLS13Variant'
p101
sg12
Nsbag1
(g62
g3
NtRp102
(dp103
g65
Nsg66
Nsg29
S'disabled_cipher_suites'
p104
sg19
Nsg13
Nsg69
S'uint16[]'
p105
sg12
Nsbasg12
Nsg13
Nsbsg19
Nsg12
Nsg29
S'SSLConfig'
p106
sg13
Nsbag1
(cmojom.parse.ast
Interface
p107
g3
NtRp108
(dp109
g57
g1
(cmojom.parse.ast
InterfaceBody
p110
g3
NtRp111
(dp112
g10
(lp113
g1
(cmojom.parse.ast
Method
p114
g3
NtRp115
(dp116
g65
Nsg29
S'OnSSLConfigUpdated'
p117
sS'parameter_list'
p118
g1
(cmojom.parse.ast
ParameterList
p119
g3
NtRp120
(dp121
g10
(lp122
g1
(cmojom.parse.ast
Parameter
p123
g3
NtRp124
(dp125
g65
Nsg29
S'ssl_config'
p126
sg19
Nsg13
g31
sg69
S'SSLConfig'
p127
sg12
I45
sbasg12
I45
sg13
g31
sbsg19
Nsg13
Nsg12
NsS'response_parameter_list'
p128
Nsbasg12
Nsg13
Nsbsg19
Nsg12
Nsg29
S'SSLConfigClient'
p129
sg13
Nsbasg12
NsS'module'
p130
g1
(cmojom.parse.ast
Module
p131
g3
NtRp132
(dp133
S'mojom_namespace'
p134
(g88
S'network.mojom'
tp135
sg12
I5
sg19
Nsg13
g31
sbsg13
Nsb.