ccopy_reg
_reconstructor
p1
(cmojom.parse.ast
Mojom
p2
c__builtin__
object
p3
NtRp4
(dp5
S'import_list'
p6
g1
(cmojom.parse.ast
ImportList
p7
g3
NtRp8
(dp9
S'items'
p10
(lp11
g1
(cmojom.parse.ast
Import
p12
g3
NtRp13
(dp14
S'attribute_list'
p15
NsS'lineno'
p16
I7
sS'import_filename'
p17
S'net/interfaces/ip_endpoint.mojom'
p18
sS'filename'
p19
S'../../services/network/public/mojom/tcp_socket.mojom'
p20
sbag1
(g12
g3
NtRp21
(dp22
g15
Nsg16
I8
sg17
S'services/network/public/mojom/tls_socket.mojom'
p23
sg19
g20
sbag1
(g12
g3
NtRp24
(dp25
g15
Nsg16
I9
sg17
S'services/network/public/mojom/network_param.mojom'
p26
sg19
g20
sbag1
(g12
g3
NtRp27
(dp28
g15
Nsg16
I10
sg17
S'services/network/public/mojom/mutable_network_traffic_annotation_tag.mojom'
p29
sg19
g20
sbasg16
I7
sg19
g20
sbsS'definition_list'
p30
(lp31
g1
(cmojom.parse.ast
Interface
p32
g3
NtRp33
(dp34
S'body'
p35
g1
(cmojom.parse.ast
InterfaceBody
p36
g3
NtRp37
(dp38
g10
(lp39
g1
(cmojom.parse.ast
Method
p40
g3
NtRp41
(dp42
S'ordinal'
p43
NsS'mojom_name'
p44
S'GetLocalAddress'
p45
sS'parameter_list'
p46
g1
(cmojom.parse.ast
ParameterList
p47
g3
NtRp48
(dp49
g10
(lp50
sg16
Nsg19
Nsbsg15
Nsg19
Nsg16
NsS'response_parameter_list'
p51
g1
(g47
g3
NtRp52
(dp53
g10
(lp54
g1
(cmojom.parse.ast
Parameter
p55
g3
NtRp56
(dp57
g43
Nsg44
S'net_error'
p58
sg15
Nsg19
g20
sS'typename'
p59
S'int32'
p60
sg16
I21
sbag1
(g55
g3
NtRp61
(dp62
g43
Nsg44
S'local_addr'
p63
sg15
Nsg19
g20
sg59
S'net.interfaces.IPEndPoint?'
p64
sg16
I21
sbasg16
I21
sg19
g20
sbsbag1
(g40
g3
NtRp65
(dp66
g43
Nsg44
S'UpgradeToTLS'
p67
sg46
g1
(g47
g3
NtRp68
(dp69
g10
(lp70
g1
(g55
g3
NtRp71
(dp72
g43
Nsg44
S'host_port_pair'
p73
sg15
Nsg19
g20
sg59
S'HostPortPair'
p74
sg16
I30
sbag1
(g55
g3
NtRp75
(dp76
g43
Nsg44
S'traffic_annotation'
p77
sg15
Nsg19
g20
sg59
S'MutableNetworkTrafficAnnotationTag'
p78
sg16
I31
sbag1
(g55
g3
NtRp79
(dp80
g43
Nsg44
S'request'
p81
sg15
Nsg19
g20
sg59
S'TLSClientSocket&'
p82
sg16
I32
sbag1
(g55
g3
NtRp83
(dp84
g43
Nsg44
S'observer'
p85
sg15
Nsg19
g20
sg59
S'SocketObserver?'
p86
sg16
I33
sbasg16
I30
sg19
g20
sbsg15
Nsg19
Nsg16
Nsg51
g1
(g47
g3
NtRp87
(dp88
g10
(lp89
g1
(g55
g3
NtRp90
(dp91
g43
Nsg44
S'net_error'
p92
sg15
Nsg19
g20
sg59
S'int32'
p93
sg16
I34
sbag1
(g55
g3
NtRp94
(dp95
g43
Nsg44
S'receive_stream'
p96
sg15
Nsg19
g20
sg59
S'handle<data_pipe_consumer>?'
p97
sg16
I35
sbag1
(g55
g3
NtRp98
(dp99
g43
Nsg44
S'send_stream'
p100
sg15
Nsg19
g20
sg59
S'handle<data_pipe_producer>?'
p101
sg16
I36
sbasg16
I34
sg19
g20
sbsbasg16
Nsg19
Nsbsg15
Nsg16
Nsg44
S'TCPConnectedSocket'
p102
sg19
Nsbag1
(g32
g3
NtRp103
(dp104
g35
g1
(g36
g3
NtRp105
(dp106
g10
(lp107
g1
(g40
g3
NtRp108
(dp109
g43
Nsg44
S'OnReadError'
p110
sg46
g1
(g47
g3
NtRp111
(dp112
g10
(lp113
g1
(g55
g3
NtRp114
(dp115
g43
Nsg44
S'net_error'
p116
sg15
Nsg19
g20
sg59
S'int32'
p117
sg16
I46
sbasg16
I46
sg19
g20
sbsg15
Nsg19
Nsg16
Nsg51
Nsbag1
(g40
g3
NtRp118
(dp119
g43
Nsg44
S'OnWriteError'
p120
sg46
g1
(g47
g3
NtRp121
(dp122
g10
(lp123
g1
(g55
g3
NtRp124
(dp125
g43
Nsg44
S'net_error'
p126
sg15
Nsg19
g20
sg59
S'int32'
p127
sg16
I50
sbasg16
I50
sg19
g20
sbsg15
Nsg19
Nsg16
Nsg51
Nsbasg16
Nsg19
Nsbsg15
Nsg16
Nsg44
S'SocketObserver'
p128
sg19
Nsbag1
(g32
g3
NtRp129
(dp130
g35
g1
(g36
g3
NtRp131
(dp132
g10
(lp133
g1
(g40
g3
NtRp134
(dp135
g43
Nsg44
S'Accept'
p136
sg46
g1
(g47
g3
NtRp137
(dp138
g10
(lp139
g1
(g55
g3
NtRp140
(dp141
g43
Nsg44
S'observer'
p142
sg15
Nsg19
g20
sg59
S'SocketObserver?'
p143
sg16
I66
sbasg16
I66
sg19
g20
sbsg15
Nsg19
Nsg16
Nsg51
g1
(g47
g3
NtRp144
(dp145
g10
(lp146
g1
(g55
g3
NtRp147
(dp148
g43
Nsg44
S'net_error'
p149
sg15
Nsg19
g20
sg59
S'int32'
p150
sg16
I67
sbag1
(g55
g3
NtRp151
(dp152
g43
Nsg44
S'remote_addr'
p153
sg15
Nsg19
g20
sg59
S'net.interfaces.IPEndPoint?'
p154
sg16
I68
sbag1
(g55
g3
NtRp155
(dp156
g43
Nsg44
S'connected_socket'
p157
sg15
Nsg19
g20
sg59
S'TCPConnectedSocket?'
p158
sg16
I69
sbag1
(g55
g3
NtRp159
(dp160
g43
Nsg44
S'send_stream'
p161
sg15
Nsg19
g20
sg59
S'handle<data_pipe_consumer>?'
p162
sg16
I70
sbag1
(g55
g3
NtRp163
(dp164
g43
Nsg44
S'receive_stream'
p165
sg15
Nsg19
g20
sg59
S'handle<data_pipe_producer>?'
p166
sg16
I71
sbasg16
I67
sg19
g20
sbsbag1
(g40
g3
NtRp167
(dp168
g43
Nsg44
S'GetLocalAddress'
p169
sg46
g1
(g47
g3
NtRp170
(dp171
g10
(lp172
sg16
Nsg19
Nsbsg15
Nsg19
Nsg16
Nsg51
g1
(g47
g3
NtRp173
(dp174
g10
(lp175
g1
(g55
g3
NtRp176
(dp177
g43
Nsg44
S'net_error'
p178
sg15
Nsg19
g20
sg59
S'int32'
p179
sg16
I76
sbag1
(g55
g3
NtRp180
(dp181
g43
Nsg44
S'local_addr'
p182
sg15
Nsg19
g20
sg59
S'net.interfaces.IPEndPoint?'
p183
sg16
I76
sbasg16
I76
sg19
g20
sbsbasg16
Nsg19
Nsbsg15
Nsg16
Nsg44
S'TCPServerSocket'
p184
sg19
Nsbasg16
NsS'module'
p185
g1
(cmojom.parse.ast
Module
p186
g3
NtRp187
(dp188
S'mojom_namespace'
p189
(S'IDENTIFIER'
p190
S'network.mojom'
tp191
sg16
I5
sg15
Nsg19
g20
sbsg19
Nsb.