ccopy_reg
_reconstructor
p1
(cmojom.parse.ast
Mojom
p2
c__builtin__
object
p3
NtRp4
(dp5
S'import_list'
p6
g1
(cmojom.parse.ast
ImportList
p7
g3
NtRp8
(dp9
S'items'
p10
(lp11
g1
(cmojom.parse.ast
Import
p12
g3
NtRp13
(dp14
S'attribute_list'
p15
NsS'lineno'
p16
I7
sS'import_filename'
p17
S'net/interfaces/ip_endpoint.mojom'
p18
sS'filename'
p19
S'../../services/network/public/mojom/tls_socket.mojom'
p20
sbasg16
I7
sg19
g20
sbsS'definition_list'
p21
(lp22
g1
(cmojom.parse.ast
Interface
p23
g3
NtRp24
(dp25
S'body'
p26
g1
(cmojom.parse.ast
InterfaceBody
p27
g3
NtRp28
(dp29
g10
(lp30
sg16
Nsg19
Nsbsg15
Nsg16
NsS'mojom_name'
p31
S'TLSClientSocket'
p32
sg19
Nsbasg16
NsS'module'
p33
g1
(cmojom.parse.ast
Module
p34
g3
NtRp35
(dp36
S'mojom_namespace'
p37
(S'IDENTIFIER'
p38
S'network.mojom'
tp39
sg16
I5
sg15
Nsg19
g20
sbsg19
Nsb.