ccopy_reg
_reconstructor
p1
(cmojom.parse.ast
Mojom
p2
c__builtin__
object
p3
NtRp4
(dp5
S'import_list'
p6
g1
(cmojom.parse.ast
ImportList
p7
g3
NtRp8
(dp9
S'items'
p10
(lp11
g1
(cmojom.parse.ast
Import
p12
g3
NtRp13
(dp14
S'attribute_list'
p15
NsS'lineno'
p16
I7
sS'import_filename'
p17
S'services/network/public/mojom/mutable_network_traffic_annotation_tag.mojom'
p18
sS'filename'
p19
S'../../services/network/public/mojom/udp_socket.mojom'
p20
sbag1
(g12
g3
NtRp21
(dp22
g15
Nsg16
I8
sg17
S'mojo/public/mojom/base/read_only_buffer.mojom'
p23
sg19
g20
sbag1
(g12
g3
NtRp24
(dp25
g15
Nsg16
I9
sg17
S'net/interfaces/address_family.mojom'
p26
sg19
g20
sbag1
(g12
g3
NtRp27
(dp28
g15
Nsg16
I10
sg17
S'net/interfaces/ip_address.mojom'
p29
sg19
g20
sbag1
(g12
g3
NtRp30
(dp31
g15
Nsg16
I11
sg17
S'net/interfaces/ip_endpoint.mojom'
p32
sg19
g20
sbasg16
I7
sg19
g20
sbsS'definition_list'
p33
(lp34
g1
(cmojom.parse.ast
Struct
p35
g3
NtRp36
(dp37
S'body'
p38
g1
(cmojom.parse.ast
StructBody
p39
g3
NtRp40
(dp41
g10
(lp42
g1
(cmojom.parse.ast
StructField
p43
g3
NtRp44
(dp45
S'ordinal'
p46
NsS'default_value'
p47
S'false'
p48
sS'mojom_name'
p49
S'allow_address_reuse'
p50
sg15
Nsg19
NsS'typename'
p51
S'bool'
p52
sg16
Nsbag1
(g43
g3
NtRp53
(dp54
g46
Nsg47
S'0'
sg49
S'multicast_interface'
p55
sg15
Nsg19
Nsg51
S'uint32'
p56
sg16
Nsbag1
(g43
g3
NtRp57
(dp58
g46
Nsg47
S'1'
sg49
S'multicast_time_to_live'
p59
sg15
Nsg19
Nsg51
S'uint32'
p60
sg16
Nsbag1
(g43
g3
NtRp61
(dp62
g46
Nsg47
S'true'
p63
sg49
S'multicast_loopback_mode'
p64
sg15
Nsg19
Nsg51
S'bool'
p65
sg16
Nsbag1
(g43
g3
NtRp66
(dp67
g46
Nsg47
S'0'
sg49
S'send_buffer_size'
p68
sg15
Nsg19
Nsg51
S'int32'
p69
sg16
Nsbag1
(g43
g3
NtRp70
(dp71
g46
Nsg47
S'0'
sg49
S'receive_buffer_size'
p72
sg15
Nsg19
Nsg51
S'int32'
p73
sg16
Nsbasg16
Nsg19
Nsbsg15
Nsg16
Nsg49
S'UDPSocketOptions'
p74
sg19
Nsbag1
(cmojom.parse.ast
Interface
p75
g3
NtRp76
(dp77
g38
g1
(cmojom.parse.ast
InterfaceBody
p78
g3
NtRp79
(dp80
g10
(lp81
g1
(cmojom.parse.ast
Method
p82
g3
NtRp83
(dp84
g46
Nsg49
S'Bind'
p85
sS'parameter_list'
p86
g1
(cmojom.parse.ast
ParameterList
p87
g3
NtRp88
(dp89
g10
(lp90
g1
(cmojom.parse.ast
Parameter
p91
g3
NtRp92
(dp93
g46
Nsg49
S'local_addr'
p94
sg15
Nsg19
g20
sg51
S'net.interfaces.IPEndPoint'
p95
sg16
I71
sbag1
(g91
g3
NtRp96
(dp97
g46
Nsg49
S'socket_options'
p98
sg15
Nsg19
g20
sg51
S'UDPSocketOptions?'
p99
sg16
I71
sbasg16
I71
sg19
g20
sbsg15
Nsg19
Nsg16
NsS'response_parameter_list'
p100
g1
(g87
g3
NtRp101
(dp102
g10
(lp103
g1
(g91
g3
NtRp104
(dp105
g46
Nsg49
S'result'
p106
sg15
Nsg19
g20
sg51
S'int32'
p107
sg16
I72
sbag1
(g91
g3
NtRp108
(dp109
g46
Nsg49
S'local_addr_out'
p110
sg15
Nsg19
g20
sg51
S'net.interfaces.IPEndPoint?'
p111
sg16
I72
sbasg16
I72
sg19
g20
sbsbag1
(g82
g3
NtRp112
(dp113
g46
Nsg49
S'Connect'
p114
sg86
g1
(g87
g3
NtRp115
(dp116
g10
(lp117
g1
(g91
g3
NtRp118
(dp119
g46
Nsg49
S'remote_addr'
p120
sg15
Nsg19
g20
sg51
S'net.interfaces.IPEndPoint'
p121
sg16
I82
sbag1
(g91
g3
NtRp122
(dp123
g46
Nsg49
S'socket_options'
p124
sg15
Nsg19
g20
sg51
S'UDPSocketOptions?'
p125
sg16
I83
sbasg16
I82
sg19
g20
sbsg15
Nsg19
Nsg16
Nsg100
g1
(g87
g3
NtRp126
(dp127
g10
(lp128
g1
(g91
g3
NtRp129
(dp130
g46
Nsg49
S'result'
p131
sg15
Nsg19
g20
sg51
S'int32'
p132
sg16
I84
sbag1
(g91
g3
NtRp133
(dp134
g46
Nsg49
S'local_addr_out'
p135
sg15
Nsg19
g20
sg51
S'net.interfaces.IPEndPoint?'
p136
sg16
I84
sbasg16
I84
sg19
g20
sbsbag1
(g82
g3
NtRp137
(dp138
g46
Nsg49
S'SetBroadcast'
p139
sg86
g1
(g87
g3
NtRp140
(dp141
g10
(lp142
g1
(g91
g3
NtRp143
(dp144
g46
Nsg49
S'broadcast'
p145
sg15
Nsg19
g20
sg51
S'bool'
p146
sg16
I88
sbasg16
I88
sg19
g20
sbsg15
Nsg19
Nsg16
Nsg100
g1
(g87
g3
NtRp147
(dp148
g10
(lp149
g1
(g91
g3
NtRp150
(dp151
g46
Nsg49
S'result'
p152
sg15
Nsg19
g20
sg51
S'int32'
p153
sg16
I88
sbasg16
I88
sg19
g20
sbsbag1
(g82
g3
NtRp154
(dp155
g46
Nsg49
S'JoinGroup'
p156
sg86
g1
(g87
g3
NtRp157
(dp158
g10
(lp159
g1
(g91
g3
NtRp160
(dp161
g46
Nsg49
S'group_address'
p162
sg15
Nsg19
g20
sg51
S'net.interfaces.IPAddress'
p163
sg16
I93
sbasg16
I93
sg19
g20
sbsg15
Nsg19
Nsg16
Nsg100
g1
(g87
g3
NtRp164
(dp165
g10
(lp166
g1
(g91
g3
NtRp167
(dp168
g46
Nsg49
S'result'
p169
sg15
Nsg19
g20
sg51
S'int32'
p170
sg16
I93
sbasg16
I93
sg19
g20
sbsbag1
(g82
g3
NtRp171
(dp172
g46
Nsg49
S'LeaveGroup'
p173
sg86
g1
(g87
g3
NtRp174
(dp175
g10
(lp176
g1
(g91
g3
NtRp177
(dp178
g46
Nsg49
S'group_address'
p179
sg15
Nsg19
g20
sg51
S'net.interfaces.IPAddress'
p180
sg16
I99
sbasg16
I99
sg19
g20
sbsg15
Nsg19
Nsg16
Nsg100
g1
(g87
g3
NtRp181
(dp182
g10
(lp183
g1
(g91
g3
NtRp184
(dp185
g46
Nsg49
S'result'
p186
sg15
Nsg19
g20
sg51
S'int32'
p187
sg16
I99
sbasg16
I99
sg19
g20
sbsbag1
(g82
g3
NtRp188
(dp189
g46
Nsg49
S'ReceiveMore'
p190
sg86
g1
(g87
g3
NtRp191
(dp192
g10
(lp193
g1
(g91
g3
NtRp194
(dp195
g46
Nsg49
S'num_additional_datagrams'
p196
sg15
Nsg19
g20
sg51
S'uint32'
p197
sg16
I140
sbasg16
I140
sg19
g20
sbsg15
Nsg19
Nsg16
Nsg100
Nsbag1
(g82
g3
NtRp198
(dp199
g46
Nsg49
S'ReceiveMoreWithBufferSize'
p200
sg86
g1
(g87
g3
NtRp201
(dp202
g10
(lp203
g1
(g91
g3
NtRp204
(dp205
g46
Nsg49
S'num_additional_datagrams'
p206
sg15
Nsg19
g20
sg51
S'uint32'
p207
sg16
I149
sbag1
(g91
g3
NtRp208
(dp209
g46
Nsg49
S'buffer_size'
p210
sg15
Nsg19
g20
sg51
S'uint32'
p211
sg16
I149
sbasg16
I149
sg19
g20
sbsg15
Nsg19
Nsg16
Nsg100
Nsbag1
(g82
g3
NtRp212
(dp213
g46
Nsg49
S'SendTo'
p214
sg86
g1
(g87
g3
NtRp215
(dp216
g10
(lp217
g1
(g91
g3
NtRp218
(dp219
g46
Nsg49
S'dest_addr'
p220
sg15
Nsg19
g20
sg51
S'net.interfaces.IPEndPoint'
p221
sg16
I162
sbag1
(g91
g3
NtRp222
(dp223
g46
Nsg49
S'data'
p224
sg15
Nsg19
g20
sg51
S'mojo_base.mojom.ReadOnlyBuffer'
p225
sg16
I163
sbag1
(g91
g3
NtRp226
(dp227
g46
Nsg49
S'traffic_annotation'
p228
sg15
Nsg19
g20
sg51
S'MutableNetworkTrafficAnnotationTag'
p229
sg16
I164
sbasg16
I162
sg19
g20
sbsg15
Nsg19
Nsg16
Nsg100
g1
(g87
g3
NtRp230
(dp231
g10
(lp232
g1
(g91
g3
NtRp233
(dp234
g46
Nsg49
S'result'
p235
sg15
Nsg19
g20
sg51
S'int32'
p236
sg16
I165
sbasg16
I165
sg19
g20
sbsbag1
(g82
g3
NtRp237
(dp238
g46
Nsg49
S'Send'
p239
sg86
g1
(g87
g3
NtRp240
(dp241
g10
(lp242
g1
(g91
g3
NtRp243
(dp244
g46
Nsg49
S'data'
p245
sg15
Nsg19
g20
sg51
S'mojo_base.mojom.ReadOnlyBuffer'
p246
sg16
I170
sbag1
(g91
g3
NtRp247
(dp248
g46
Nsg49
S'traffic_annotation'
p249
sg15
Nsg19
g20
sg51
S'MutableNetworkTrafficAnnotationTag'
p250
sg16
I171
sbasg16
I170
sg19
g20
sbsg15
Nsg19
Nsg16
Nsg100
g1
(g87
g3
NtRp251
(dp252
g10
(lp253
g1
(g91
g3
NtRp254
(dp255
g46
Nsg49
S'result'
p256
sg15
Nsg19
g20
sg51
S'int32'
p257
sg16
I172
sbasg16
I172
sg19
g20
sbsbag1
(g82
g3
NtRp258
(dp259
g46
Nsg49
S'Close'
p260
sg86
g1
(g87
g3
NtRp261
(dp262
g10
(lp263
sg16
Nsg19
Nsbsg15
Nsg19
Nsg16
Nsg100
Nsbasg16
Nsg19
Nsbsg15
Nsg16
Nsg49
S'UDPSocket'
p264
sg19
Nsbag1
(g75
g3
NtRp265
(dp266
g38
g1
(g78
g3
NtRp267
(dp268
g10
(lp269
g1
(g82
g3
NtRp270
(dp271
g46
Nsg49
S'OnReceived'
p272
sg86
g1
(g87
g3
NtRp273
(dp274
g10
(lp275
g1
(g91
g3
NtRp276
(dp277
g46
Nsg49
S'result'
p278
sg15
Nsg19
g20
sg51
S'int32'
p279
sg16
I195
sbag1
(g91
g3
NtRp280
(dp281
g46
Nsg49
S'src_addr'
p282
sg15
Nsg19
g20
sg51
S'net.interfaces.IPEndPoint?'
p283
sg16
I196
sbag1
(g91
g3
NtRp284
(dp285
g46
Nsg49
S'data'
p286
sg15
Nsg19
g20
sg51
S'mojo_base.mojom.ReadOnlyBuffer?'
p287
sg16
I197
sbasg16
I195
sg19
g20
sbsg15
Nsg19
Nsg16
Nsg100
Nsbasg16
Nsg19
Nsbsg15
Nsg16
Nsg49
S'UDPSocketReceiver'
p288
sg19
Nsbasg16
NsS'module'
p289
g1
(cmojom.parse.ast
Module
p290
g3
NtRp291
(dp292
S'mojom_namespace'
p293
(S'IDENTIFIER'
p294
S'network.mojom'
tp295
sg16
I5
sg15
Nsg19
g20
sbsg19
Nsb.