ccopy_reg
_reconstructor
p1
(cmojom.parse.ast
Mojom
p2
c__builtin__
object
p3
NtRp4
(dp5
S'import_list'
p6
g1
(cmojom.parse.ast
ImportList
p7
g3
NtRp8
(dp9
S'items'
p10
(lp11
g1
(cmojom.parse.ast
Import
p12
g3
NtRp13
(dp14
S'attribute_list'
p15
NsS'lineno'
p16
I7
sS'import_filename'
p17
S'services/network/public/mojom/http_request_headers.mojom'
p18
sS'filename'
p19
S'../../services/network/public/mojom/url_loader.mojom'
p20
sbag1
(g12
g3
NtRp21
(dp22
g15
Nsg16
I8
sg17
S'services/network/public/mojom/network_param.mojom'
p23
sg19
g20
sbasg16
I7
sg19
g20
sbsS'definition_list'
p24
(lp25
g1
(cmojom.parse.ast
Struct
p26
g3
NtRp27
(dp28
S'body'
p29
Nsg15
g1
(cmojom.parse.ast
AttributeList
p30
g3
NtRp31
(dp32
g10
(lp33
g1
(cmojom.parse.ast
Attribute
p34
g3
NtRp35
(dp36
S'value'
p37
I01
sg16
I10
sS'key'
p38
S'Native'
p39
sg19
g20
sbasg16
I10
sg19
g20
sbsg16
NsS'mojom_name'
p40
S'URLRequest'
p41
sg19
Nsbag1
(g26
g3
NtRp42
(dp43
g29
Nsg15
g1
(g30
g3
NtRp44
(dp45
g10
(lp46
g1
(g34
g3
NtRp47
(dp48
g37
I01
sg16
I13
sg38
S'Native'
p49
sg19
g20
sbasg16
I13
sg19
g20
sbsg16
Nsg40
S'URLResponseHead'
p50
sg19
Nsbag1
(g26
g3
NtRp51
(dp52
g29
Nsg15
g1
(g30
g3
NtRp53
(dp54
g10
(lp55
g1
(g34
g3
NtRp56
(dp57
g37
I01
sg16
I16
sg38
S'Native'
p58
sg19
g20
sbasg16
I16
sg19
g20
sbsg16
Nsg40
S'URLRequestRedirectInfo'
p59
sg19
Nsbag1
(g26
g3
NtRp60
(dp61
g29
Nsg15
g1
(g30
g3
NtRp62
(dp63
g10
(lp64
g1
(g34
g3
NtRp65
(dp66
g37
I01
sg16
I19
sg38
S'Native'
p67
sg19
g20
sbasg16
I19
sg19
g20
sbsg16
Nsg40
S'CORSErrorStatus'
p68
sg19
Nsbag1
(g26
g3
NtRp69
(dp70
g29
Nsg15
g1
(g30
g3
NtRp71
(dp72
g10
(lp73
g1
(g34
g3
NtRp74
(dp75
g37
I01
sg16
I22
sg38
S'Native'
p76
sg19
g20
sbasg16
I22
sg19
g20
sbsg16
Nsg40
S'URLLoaderCompletionStatus'
p77
sg19
Nsbag1
(cmojom.parse.ast
Enum
p78
g3
NtRp79
(dp80
g15
NsS'enum_value_list'
p81
g1
(cmojom.parse.ast
EnumValueList
p82
g3
NtRp83
(dp84
g10
(lp85
g1
(cmojom.parse.ast
EnumValue
p86
g3
NtRp87
(dp88
g15
Nsg37
S'0'
sg16
I27
sg40
S'kThrottled'
p89
sg19
g20
sbag1
(g86
g3
NtRp90
(dp91
g15
Nsg37
Nsg16
I28
sg40
S'kIdle'
p92
sg19
g20
sbag1
(g86
g3
NtRp93
(dp94
g15
Nsg37
Nsg16
I29
sg40
S'kLowest'
p95
sg19
g20
sbag1
(g86
g3
NtRp96
(dp97
g15
Nsg37
Nsg16
I30
sg40
S'kLow'
p98
sg19
g20
sbag1
(g86
g3
NtRp99
(dp100
g15
Nsg37
Nsg16
I31
sg40
S'kMedium'
p101
sg19
g20
sbag1
(g86
g3
NtRp102
(dp103
g15
Nsg37
Nsg16
I32
sg40
S'kHighest'
p104
sg19
g20
sbasg16
I27
sg19
g20
sbsg16
I26
sg40
S'RequestPriority'
p105
sg19
g20
sbag1
(cmojom.parse.ast
Interface
p106
g3
NtRp107
(dp108
g29
g1
(cmojom.parse.ast
InterfaceBody
p109
g3
NtRp110
(dp111
g10
(lp112
g1
(cmojom.parse.ast
Const
p113
g3
NtRp114
(dp115
g40
S'kClientDisconnectReason'
p116
sg15
Nsg37
S'1'
sg19
NsS'typename'
p117
S'uint32'
p118
sg16
Nsbag1
(cmojom.parse.ast
Method
p119
g3
NtRp120
(dp121
S'ordinal'
p122
Nsg40
S'FollowRedirect'
p123
sS'parameter_list'
p124
g1
(cmojom.parse.ast
ParameterList
p125
g3
NtRp126
(dp127
g10
(lp128
g1
(cmojom.parse.ast
Parameter
p129
g3
NtRp130
(dp131
g122
Nsg40
S'modified_request_headers'
p132
sg15
Nsg19
g20
sg117
S'network.mojom.HttpRequestHeaders?'
p133
sg16
I47
sbasg16
I47
sg19
g20
sbsg15
Nsg19
Nsg16
NsS'response_parameter_list'
p134
Nsbag1
(g119
g3
NtRp135
(dp136
g122
Nsg40
S'ProceedWithResponse'
p137
sg124
g1
(g125
g3
NtRp138
(dp139
g10
(lp140
sg16
Nsg19
Nsbsg15
Nsg19
Nsg16
Nsg134
Nsbag1
(g119
g3
NtRp141
(dp142
g122
Nsg40
S'SetPriority'
p143
sg124
g1
(g125
g3
NtRp144
(dp145
g10
(lp146
g1
(g129
g3
NtRp147
(dp148
g122
Nsg40
S'priority'
p149
sg15
Nsg19
g20
sg117
S'RequestPriority'
p150
sg16
I61
sbag1
(g129
g3
NtRp151
(dp152
g122
Nsg40
S'intra_priority_value'
p153
sg15
Nsg19
g20
sg117
S'int32'
p154
sg16
I61
sbasg16
I61
sg19
g20
sbsg15
Nsg19
Nsg16
Nsg134
Nsbag1
(g119
g3
NtRp155
(dp156
g122
Nsg40
S'PauseReadingBodyFromNet'
p157
sg124
g1
(g125
g3
NtRp158
(dp159
g10
(lp160
sg16
Nsg19
Nsbsg15
Nsg19
Nsg16
Nsg134
Nsbag1
(g119
g3
NtRp161
(dp162
g122
Nsg40
S'ResumeReadingBodyFromNet'
p163
sg124
g1
(g125
g3
NtRp164
(dp165
g10
(lp166
sg16
Nsg19
Nsbsg15
Nsg19
Nsg16
Nsg134
Nsbasg16
Nsg19
Nsbsg15
Nsg16
Nsg40
S'URLLoader'
p167
sg19
Nsbag1
(g106
g3
NtRp168
(dp169
g29
g1
(g109
g3
NtRp170
(dp171
g10
(lp172
sg16
Nsg19
Nsbsg15
Nsg16
Nsg40
S'DownloadedTempFile'
p173
sg19
Nsbag1
(g106
g3
NtRp174
(dp175
g29
g1
(g109
g3
NtRp176
(dp177
g10
(lp178
g1
(g119
g3
NtRp179
(dp180
g122
Nsg40
S'OnReceiveResponse'
p181
sg124
g1
(g125
g3
NtRp182
(dp183
g10
(lp184
g1
(g129
g3
NtRp185
(dp186
g122
Nsg40
S'head'
p187
sg15
Nsg19
g20
sg117
S'URLResponseHead'
p188
sg16
I92
sbag1
(g129
g3
NtRp189
(dp190
g122
Nsg40
S'downloaded_file'
p191
sg15
Nsg19
g20
sg117
S'DownloadedTempFile?'
p192
sg16
I93
sbasg16
I92
sg19
g20
sbsg15
Nsg19
Nsg16
Nsg134
Nsbag1
(g119
g3
NtRp193
(dp194
g122
Nsg40
S'OnReceiveRedirect'
p195
sg124
g1
(g125
g3
NtRp196
(dp197
g10
(lp198
g1
(g129
g3
NtRp199
(dp200
g122
Nsg40
S'redirect_info'
p201
sg15
Nsg19
g20
sg117
S'URLRequestRedirectInfo'
p202
sg16
I97
sbag1
(g129
g3
NtRp203
(dp204
g122
Nsg40
S'head'
p205
sg15
Nsg19
g20
sg117
S'URLResponseHead'
p206
sg16
I97
sbasg16
I97
sg19
g20
sbsg15
Nsg19
Nsg16
Nsg134
Nsbag1
(g119
g3
NtRp207
(dp208
g122
Nsg40
S'OnDataDownloaded'
p209
sg124
g1
(g125
g3
NtRp210
(dp211
g10
(lp212
g1
(g129
g3
NtRp213
(dp214
g122
Nsg40
S'data_length'
p215
sg15
Nsg19
g20
sg117
S'int64'
p216
sg16
I104
sbag1
(g129
g3
NtRp217
(dp218
g122
Nsg40
S'encoded_length'
p219
sg15
Nsg19
g20
sg117
S'int64'
p220
sg16
I104
sbasg16
I104
sg19
g20
sbsg15
Nsg19
Nsg16
Nsg134
Nsbag1
(g119
g3
NtRp221
(dp222
g122
Nsg40
S'OnUploadProgress'
p223
sg124
g1
(g125
g3
NtRp224
(dp225
g10
(lp226
g1
(g129
g3
NtRp227
(dp228
g122
Nsg40
S'current_position'
p229
sg15
Nsg19
g20
sg117
S'int64'
p230
sg16
I110
sbag1
(g129
g3
NtRp231
(dp232
g122
Nsg40
S'total_size'
p233
sg15
Nsg19
g20
sg117
S'int64'
p234
sg16
I110
sbasg16
I110
sg19
g20
sbsg15
Nsg19
Nsg16
Nsg134
g1
(g125
g3
NtRp235
(dp236
g10
(lp237
sg16
Nsg19
Nsbsbag1
(g119
g3
NtRp238
(dp239
g122
Nsg40
S'OnReceiveCachedMetadata'
p240
sg124
g1
(g125
g3
NtRp241
(dp242
g10
(lp243
g1
(g129
g3
NtRp244
(dp245
g122
Nsg40
S'data'
p246
sg15
Nsg19
g20
sg117
S'uint8[]'
p247
sg16
I113
sbasg16
I113
sg19
g20
sbsg15
Nsg19
Nsg16
Nsg134
Nsbag1
(g119
g3
NtRp248
(dp249
g122
Nsg40
S'OnTransferSizeUpdated'
p250
sg124
g1
(g125
g3
NtRp251
(dp252
g10
(lp253
g1
(g129
g3
NtRp254
(dp255
g122
Nsg40
S'transfer_size_diff'
p256
sg15
Nsg19
g20
sg117
S'int32'
p257
sg16
I124
sbasg16
I124
sg19
g20
sbsg15
Nsg19
Nsg16
Nsg134
Nsbag1
(g119
g3
NtRp258
(dp259
g122
Nsg40
S'OnStartLoadingResponseBody'
p260
sg124
g1
(g125
g3
NtRp261
(dp262
g10
(lp263
g1
(g129
g3
NtRp264
(dp265
g122
Nsg40
S'body'
p266
sg15
Nsg19
g20
sg117
S'handle<data_pipe_consumer>'
p267
sg16
I128
sbasg16
I128
sg19
g20
sbsg15
Nsg19
Nsg16
Nsg134
Nsbag1
(g119
g3
NtRp268
(dp269
g122
Nsg40
S'OnComplete'
p270
sg124
g1
(g125
g3
NtRp271
(dp272
g10
(lp273
g1
(g129
g3
NtRp274
(dp275
g122
Nsg40
S'status'
p276
sg15
Nsg19
g20
sg117
S'URLLoaderCompletionStatus'
p277
sg16
I133
sbasg16
I133
sg19
g20
sbsg15
Nsg19
Nsg16
Nsg134
Nsbasg16
Nsg19
Nsbsg15
Nsg16
Nsg40
S'URLLoaderClient'
p278
sg19
Nsbag1
(g26
g3
NtRp279
(dp280
g29
g1
(cmojom.parse.ast
StructBody
p281
g3
NtRp282
(dp283
g10
(lp284
g1
(cmojom.parse.ast
StructField
p285
g3
NtRp286
(dp287
g122
NsS'default_value'
p288
Nsg40
S'url_loader'
p289
sg15
Nsg19
Nsg117
S'URLLoader'
p290
sg16
Nsbag1
(g285
g3
NtRp291
(dp292
g122
Nsg288
Nsg40
S'url_loader_client'
p293
sg15
Nsg19
Nsg117
S'URLLoaderClient&'
p294
sg16
Nsbasg16
Nsg19
Nsbsg15
Nsg16
Nsg40
S'URLLoaderClientEndpoints'
p295
sg19
Nsbasg16
NsS'module'
p296
g1
(cmojom.parse.ast
Module
p297
g3
NtRp298
(dp299
S'mojom_namespace'
p300
(S'IDENTIFIER'
p301
S'network.mojom'
tp302
sg16
I5
sg15
Nsg19
g20
sbsg19
Nsb.