ccopy_reg
_reconstructor
p1
(cmojom.parse.ast
Mojom
p2
c__builtin__
object
p3
NtRp4
(dp5
S'import_list'
p6
g1
(cmojom.parse.ast
ImportList
p7
g3
NtRp8
(dp9
S'items'
p10
(lp11
g1
(cmojom.parse.ast
Import
p12
g3
NtRp13
(dp14
S'attribute_list'
p15
NsS'lineno'
p16
I7
sS'import_filename'
p17
S'services/network/public/mojom/mutable_network_traffic_annotation_tag.mojom'
p18
sS'filename'
p19
S'../../services/network/public/mojom/url_loader_factory.mojom'
p20
sbag1
(g12
g3
NtRp21
(dp22
g15
Nsg16
I8
sg17
S'services/network/public/mojom/url_loader.mojom'
p23
sg19
g20
sbasg16
I7
sg19
g20
sbsS'definition_list'
p24
(lp25
g1
(cmojom.parse.ast
Const
p26
g3
NtRp27
(dp28
S'mojom_name'
p29
S'kURLLoadOptionNone'
p30
sg15
NsS'value'
p31
S'0'
sg19
NsS'typename'
p32
S'uint32'
p33
sg16
Nsbag1
(g26
g3
NtRp34
(dp35
g29
S'kURLLoadOptionSendSSLInfoWithResponse'
p36
sg15
Nsg31
S'1'
sg19
Nsg32
S'uint32'
p37
sg16
Nsbag1
(g26
g3
NtRp38
(dp39
g29
S'kURLLoadOptionSniffMimeType'
p40
sg15
Nsg31
S'2'
sg19
Nsg32
S'uint32'
p41
sg16
Nsbag1
(g26
g3
NtRp42
(dp43
g29
S'kURLLoadOptionSynchronous'
p44
sg15
Nsg31
S'4'
sg19
Nsg32
S'uint32'
p45
sg16
Nsbag1
(g26
g3
NtRp46
(dp47
g29
S'kURLLoadOptionSendSSLInfoForCertificateError'
p48
sg15
Nsg31
S'8'
sg19
Nsg32
S'uint32'
p49
sg16
Nsbag1
(g26
g3
NtRp50
(dp51
g29
S'kURLLoadOptionPauseOnResponseStarted'
p52
sg15
Nsg31
S'16'
p53
sg19
Nsg32
S'uint32'
p54
sg16
Nsbag1
(cmojom.parse.ast
Interface
p55
g3
NtRp56
(dp57
S'body'
p58
g1
(cmojom.parse.ast
InterfaceBody
p59
g3
NtRp60
(dp61
g10
(lp62
g1
(cmojom.parse.ast
Method
p63
g3
NtRp64
(dp65
S'ordinal'
p66
Nsg29
S'CreateLoaderAndStart'
p67
sS'parameter_list'
p68
g1
(cmojom.parse.ast
ParameterList
p69
g3
NtRp70
(dp71
g10
(lp72
g1
(cmojom.parse.ast
Parameter
p73
g3
NtRp74
(dp75
g66
Nsg29
S'loader'
p76
sg15
Nsg19
g20
sg32
S'URLLoader&'
p77
sg16
I36
sbag1
(g73
g3
NtRp78
(dp79
g66
Nsg29
S'routing_id'
p80
sg15
Nsg19
g20
sg32
S'int32'
p81
sg16
I37
sbag1
(g73
g3
NtRp82
(dp83
g66
Nsg29
S'request_id'
p84
sg15
Nsg19
g20
sg32
S'int32'
p85
sg16
I38
sbag1
(g73
g3
NtRp86
(dp87
g66
Nsg29
S'options'
p88
sg15
Nsg19
g20
sg32
S'uint32'
p89
sg16
I39
sbag1
(g73
g3
NtRp90
(dp91
g66
Nsg29
S'request'
p92
sg15
Nsg19
g20
sg32
S'URLRequest'
p93
sg16
I40
sbag1
(g73
g3
NtRp94
(dp95
g66
Nsg29
S'client'
p96
sg15
Nsg19
g20
sg32
S'URLLoaderClient'
p97
sg16
I41
sbag1
(g73
g3
NtRp98
(dp99
g66
Nsg29
S'traffic_annotation'
p100
sg15
Nsg19
g20
sg32
S'MutableNetworkTrafficAnnotationTag'
p101
sg16
I42
sbasg16
I36
sg19
g20
sbsg15
Nsg19
Nsg16
NsS'response_parameter_list'
p102
Nsbag1
(g63
g3
NtRp103
(dp104
g66
Nsg29
S'Clone'
p105
sg68
g1
(g69
g3
NtRp106
(dp107
g10
(lp108
g1
(g73
g3
NtRp109
(dp110
g66
Nsg29
S'factory'
p111
sg15
Nsg19
g20
sg32
S'URLLoaderFactory&'
p112
sg16
I45
sbasg16
I45
sg19
g20
sbsg15
Nsg19
Nsg16
Nsg102
Nsbasg16
Nsg19
Nsbsg15
Nsg16
Nsg29
S'URLLoaderFactory'
p113
sg19
Nsbasg16
NsS'module'
p114
g1
(cmojom.parse.ast
Module
p115
g3
NtRp116
(dp117
S'mojom_namespace'
p118
(S'IDENTIFIER'
p119
S'network.mojom'
tp120
sg16
I5
sg15
Nsg19
g20
sbsg19
Nsb.