ccopy_reg
_reconstructor
p1
(cmojom.parse.ast
Mojom
p2
c__builtin__
object
p3
NtRp4
(dp5
S'import_list'
p6
g1
(cmojom.parse.ast
ImportList
p7
g3
NtRp8
(dp9
S'items'
p10
(lp11
g1
(cmojom.parse.ast
Import
p12
g3
NtRp13
(dp14
S'attribute_list'
p15
NsS'lineno'
p16
I7
sS'import_filename'
p17
S'url/mojom/url.mojom'
p18
sS'filename'
p19
S'../../services/network/public/mojom/websocket.mojom'
p20
sbasg16
I7
sg19
g20
sbsS'definition_list'
p21
(lp22
g1
(cmojom.parse.ast
Enum
p23
g3
NtRp24
(dp25
g15
NsS'enum_value_list'
p26
g1
(cmojom.parse.ast
EnumValueList
p27
g3
NtRp28
(dp29
g10
(lp30
g1
(cmojom.parse.ast
EnumValue
p31
g3
NtRp32
(dp33
g15
NsS'value'
p34
Nsg16
I10
sS'mojom_name'
p35
S'CONTINUATION'
p36
sg19
g20
sbag1
(g31
g3
NtRp37
(dp38
g15
Nsg34
Nsg16
I11
sg35
S'TEXT'
p39
sg19
g20
sbag1
(g31
g3
NtRp40
(dp41
g15
Nsg34
Nsg16
I12
sg35
S'BINARY'
p42
sg19
g20
sbag1
(g31
g3
NtRp43
(dp44
g15
Nsg34
(S'IDENTIFIER'
p45
S'BINARY'
tp46
sg16
I13
sg35
S'LAST'
p47
sg19
g20
sbasg16
I10
sg19
g20
sbsg16
I9
sg35
S'WebSocketMessageType'
p48
sg19
g20
sbag1
(cmojom.parse.ast
Struct
p49
g3
NtRp50
(dp51
S'body'
p52
g1
(cmojom.parse.ast
StructBody
p53
g3
NtRp54
(dp55
g10
(lp56
g1
(cmojom.parse.ast
StructField
p57
g3
NtRp58
(dp59
S'ordinal'
p60
NsS'default_value'
p61
Nsg35
S'name'
p62
sg15
Nsg19
NsS'typename'
p63
S'string'
p64
sg16
Nsbag1
(g57
g3
NtRp65
(dp66
g60
Nsg61
Nsg35
S'value'
p67
sg15
Nsg19
Nsg63
S'string'
p68
sg16
Nsbasg16
Nsg19
Nsbsg15
Nsg16
Nsg35
S'HttpHeader'
p69
sg19
Nsbag1
(g49
g3
NtRp70
(dp71
g52
g1
(g53
g3
NtRp72
(dp73
g10
(lp74
g1
(g57
g3
NtRp75
(dp76
g60
Nsg61
Nsg35
S'url'
p77
sg15
Nsg19
Nsg63
S'url.mojom.Url'
p78
sg16
Nsbag1
(g57
g3
NtRp79
(dp80
g60
Nsg61
Nsg35
S'headers'
p81
sg15
Nsg19
Nsg63
S'HttpHeader[]'
p82
sg16
Nsbag1
(g57
g3
NtRp83
(dp84
g60
Nsg61
Nsg35
S'headers_text'
p85
sg15
Nsg19
Nsg63
S'string'
p86
sg16
Nsbasg16
Nsg19
Nsbsg15
Nsg16
Nsg35
S'WebSocketHandshakeRequest'
p87
sg19
Nsbag1
(g49
g3
NtRp88
(dp89
g52
g1
(g53
g3
NtRp90
(dp91
g10
(lp92
g1
(g57
g3
NtRp93
(dp94
g60
Nsg61
Nsg35
S'url'
p95
sg15
Nsg19
Nsg63
S'url.mojom.Url'
p96
sg16
Nsbag1
(g57
g3
NtRp97
(dp98
g60
Nsg61
Nsg35
S'status_code'
p99
sg15
Nsg19
Nsg63
S'int32'
p100
sg16
Nsbag1
(g57
g3
NtRp101
(dp102
g60
Nsg61
Nsg35
S'status_text'
p103
sg15
Nsg19
Nsg63
S'string'
p104
sg16
Nsbag1
(g57
g3
NtRp105
(dp106
g60
Nsg61
Nsg35
S'headers'
p107
sg15
Nsg19
Nsg63
S'HttpHeader[]'
p108
sg16
Nsbag1
(g57
g3
NtRp109
(dp110
g60
Nsg61
Nsg35
S'headers_text'
p111
sg15
Nsg19
Nsg63
S'string'
p112
sg16
Nsbasg16
Nsg19
Nsbsg15
Nsg16
Nsg35
S'WebSocketHandshakeResponse'
p113
sg19
Nsbag1
(cmojom.parse.ast
Interface
p114
g3
NtRp115
(dp116
g52
g1
(cmojom.parse.ast
InterfaceBody
p117
g3
NtRp118
(dp119
g10
(lp120
g1
(cmojom.parse.ast
Method
p121
g3
NtRp122
(dp123
g60
Nsg35
S'OnFailChannel'
p124
sS'parameter_list'
p125
g1
(cmojom.parse.ast
ParameterList
p126
g3
NtRp127
(dp128
g10
(lp129
g1
(cmojom.parse.ast
Parameter
p130
g3
NtRp131
(dp132
g60
Nsg35
S'reason'
p133
sg15
Nsg19
g20
sg63
S'string'
p134
sg16
I39
sbasg16
I39
sg19
g20
sbsg15
Nsg19
Nsg16
NsS'response_parameter_list'
p135
Nsbag1
(g121
g3
NtRp136
(dp137
g60
Nsg35
S'OnStartOpeningHandshake'
p138
sg125
g1
(g126
g3
NtRp139
(dp140
g10
(lp141
g1
(g130
g3
NtRp142
(dp143
g60
Nsg35
S'request'
p144
sg15
Nsg19
g20
sg63
S'WebSocketHandshakeRequest'
p145
sg16
I44
sbasg16
I44
sg19
g20
sbsg15
Nsg19
Nsg16
Nsg135
Nsbag1
(g121
g3
NtRp146
(dp147
g60
Nsg35
S'OnFinishOpeningHandshake'
p148
sg125
g1
(g126
g3
NtRp149
(dp150
g10
(lp151
g1
(g130
g3
NtRp152
(dp153
g60
Nsg35
S'response'
p154
sg15
Nsg19
g20
sg63
S'WebSocketHandshakeResponse'
p155
sg16
I50
sbasg16
I50
sg19
g20
sbsg15
Nsg19
Nsg16
Nsg135
Nsbag1
(g121
g3
NtRp156
(dp157
g60
Nsg35
S'OnAddChannelResponse'
p158
sg125
g1
(g126
g3
NtRp159
(dp160
g10
(lp161
g1
(g130
g3
NtRp162
(dp163
g60
Nsg35
S'selected_protocol'
p164
sg15
Nsg19
g20
sg63
S'string'
p165
sg16
I55
sbag1
(g130
g3
NtRp166
(dp167
g60
Nsg35
S'extensions'
p168
sg15
Nsg19
g20
sg63
S'string'
p169
sg16
I55
sbasg16
I55
sg19
g20
sbsg15
Nsg19
Nsg16
Nsg135
Nsbag1
(g121
g3
NtRp170
(dp171
g60
Nsg35
S'OnDataFrame'
p172
sg125
g1
(g126
g3
NtRp173
(dp174
g10
(lp175
g1
(g130
g3
NtRp176
(dp177
g60
Nsg35
S'fin'
p178
sg15
Nsg19
g20
sg63
S'bool'
p179
sg16
I66
sbag1
(g130
g3
NtRp180
(dp181
g60
Nsg35
S'type'
p182
sg15
Nsg19
g20
sg63
S'WebSocketMessageType'
p183
sg16
I66
sbag1
(g130
g3
NtRp184
(dp185
g60
Nsg35
S'data'
p186
sg15
Nsg19
g20
sg63
S'uint8[]'
p187
sg16
I66
sbasg16
I66
sg19
g20
sbsg15
Nsg19
Nsg16
Nsg135
Nsbag1
(g121
g3
NtRp188
(dp189
g60
Nsg35
S'OnFlowControl'
p190
sg125
g1
(g126
g3
NtRp191
(dp192
g10
(lp193
g1
(g130
g3
NtRp194
(dp195
g60
Nsg35
S'quota'
p196
sg15
Nsg19
g20
sg63
S'int64'
p197
sg16
I74
sbasg16
I74
sg19
g20
sbsg15
Nsg19
Nsg16
Nsg135
Nsbag1
(g121
g3
NtRp198
(dp199
g60
Nsg35
S'OnDropChannel'
p200
sg125
g1
(g126
g3
NtRp201
(dp202
g10
(lp203
g1
(g130
g3
NtRp204
(dp205
g60
Nsg35
S'was_clean'
p206
sg15
Nsg19
g20
sg63
S'bool'
p207
sg16
I90
sbag1
(g130
g3
NtRp208
(dp209
g60
Nsg35
S'code'
p210
sg15
Nsg19
g20
sg63
S'uint16'
p211
sg16
I90
sbag1
(g130
g3
NtRp212
(dp213
g60
Nsg35
S'reason'
p214
sg15
Nsg19
g20
sg63
S'string'
p215
sg16
I90
sbasg16
I90
sg19
g20
sbsg15
Nsg19
Nsg16
Nsg135
Nsbag1
(g121
g3
NtRp216
(dp217
g60
Nsg35
S'OnClosingHandshake'
p218
sg125
g1
(g126
g3
NtRp219
(dp220
g10
(lp221
sg16
Nsg19
Nsbsg15
Nsg19
Nsg16
Nsg135
Nsbasg16
Nsg19
Nsbsg15
Nsg16
Nsg35
S'WebSocketClient'
p222
sg19
Nsbag1
(g114
g3
NtRp223
(dp224
g52
g1
(g117
g3
NtRp225
(dp226
g10
(lp227
g1
(cmojom.parse.ast
Const
p228
g3
NtRp229
(dp230
g35
S'kInsufficientResources'
p231
sg15
Nsg34
S'1'
sg19
Nsg63
S'uint32'
p232
sg16
Nsbag1
(g121
g3
NtRp233
(dp234
g60
Nsg35
S'AddChannelRequest'
p235
sg125
g1
(g126
g3
NtRp236
(dp237
g10
(lp238
g1
(g130
g3
NtRp239
(dp240
g60
Nsg35
S'url'
p241
sg15
Nsg19
g20
sg63
S'url.mojom.Url'
p242
sg16
I105
sbag1
(g130
g3
NtRp243
(dp244
g60
Nsg35
S'requested_protocols'
p245
sg15
Nsg19
g20
sg63
S'string[]'
p246
sg16
I106
sbag1
(g130
g3
NtRp247
(dp248
g60
Nsg35
S'first_party_for_cookies'
p249
sg15
Nsg19
g20
sg63
S'url.mojom.Url'
p250
sg16
I107
sbag1
(g130
g3
NtRp251
(dp252
g60
Nsg35
S'user_agent_override'
p253
sg15
Nsg19
g20
sg63
S'string'
p254
sg16
I108
sbag1
(g130
g3
NtRp255
(dp256
g60
Nsg35
S'client'
p257
sg15
Nsg19
g20
sg63
S'WebSocketClient'
p258
sg16
I109
sbasg16
I105
sg19
g20
sbsg15
Nsg19
Nsg16
Nsg135
Nsbag1
(g121
g3
NtRp259
(dp260
g60
Nsg35
S'SendFrame'
p261
sg125
g1
(g126
g3
NtRp262
(dp263
g10
(lp264
g1
(g130
g3
NtRp265
(dp266
g60
Nsg35
S'fin'
p267
sg15
Nsg19
g20
sg63
S'bool'
p268
sg16
I120
sbag1
(g130
g3
NtRp269
(dp270
g60
Nsg35
S'type'
p271
sg15
Nsg19
g20
sg63
S'WebSocketMessageType'
p272
sg16
I120
sbag1
(g130
g3
NtRp273
(dp274
g60
Nsg35
S'data'
p275
sg15
Nsg19
g20
sg63
S'uint8[]'
p276
sg16
I120
sbasg16
I120
sg19
g20
sbsg15
Nsg19
Nsg16
Nsg135
Nsbag1
(g121
g3
NtRp277
(dp278
g60
Nsg35
S'SendFlowControl'
p279
sg125
g1
(g126
g3
NtRp280
(dp281
g10
(lp282
g1
(g130
g3
NtRp283
(dp284
g60
Nsg35
S'quota'
p285
sg15
Nsg19
g20
sg63
S'int64'
p286
sg16
I128
sbasg16
I128
sg19
g20
sbsg15
Nsg19
Nsg16
Nsg135
Nsbag1
(g121
g3
NtRp287
(dp288
g60
Nsg35
S'StartClosingHandshake'
p289
sg125
g1
(g126
g3
NtRp290
(dp291
g10
(lp292
g1
(g130
g3
NtRp293
(dp294
g60
Nsg35
S'code'
p295
sg15
Nsg19
g20
sg63
S'uint16'
p296
sg16
I139
sbag1
(g130
g3
NtRp297
(dp298
g60
Nsg35
S'reason'
p299
sg15
Nsg19
g20
sg63
S'string'
p300
sg16
I139
sbasg16
I139
sg19
g20
sbsg15
Nsg19
Nsg16
Nsg135
Nsbasg16
Nsg19
Nsbsg15
Nsg16
Nsg35
S'WebSocket'
p301
sg19
Nsbasg16
NsS'module'
p302
g1
(cmojom.parse.ast
Module
p303
g3
NtRp304
(dp305
S'mojom_namespace'
p306
(g45
S'network.mojom'
tp307
sg16
I5
sg15
Nsg19
g20
sbsg19
Nsb.