ccopy_reg
_reconstructor
p1
(cmojom.parse.ast
Mojom
p2
c__builtin__
object
p3
NtRp4
(dp5
S'import_list'
p6
g1
(cmojom.parse.ast
ImportList
p7
g3
NtRp8
(dp9
S'items'
p10
(lp11
g1
(cmojom.parse.ast
Import
p12
g3
NtRp13
(dp14
S'attribute_list'
p15
NsS'lineno'
p16
I7
sS'import_filename'
p17
S'mojo/public/mojom/base/file_path.mojom'
p18
sS'filename'
p19
S'../../services/preferences/public/mojom/preferences.mojom'
p20
sbag1
(g12
g3
NtRp21
(dp22
g15
Nsg16
I8
sg17
S'mojo/public/mojom/base/string16.mojom'
p23
sg19
g20
sbag1
(g12
g3
NtRp24
(dp25
g15
Nsg16
I9
sg17
S'mojo/public/mojom/base/values.mojom'
p26
sg19
g20
sbag1
(g12
g3
NtRp27
(dp28
g15
Nsg16
I10
sg17
S'services/preferences/public/mojom/tracked_preference_validation_delegate.mojom'
p29
sg19
g20
sbasg16
I7
sg19
g20
sbsS'definition_list'
p30
(lp31
g1
(cmojom.parse.ast
Const
p32
g3
NtRp33
(dp34
S'mojom_name'
p35
S'kServiceName'
p36
sg15
NsS'value'
p37
S'"preferences"'
p38
sg19
NsS'typename'
p39
S'string'
p40
sg16
Nsbag1
(g32
g3
NtRp41
(dp42
g35
S'kLocalStateServiceName'
p43
sg15
Nsg37
S'"local_state"'
p44
sg19
Nsg39
S'string'
p45
sg16
Nsbag1
(cmojom.parse.ast
Enum
p46
g3
NtRp47
(dp48
g15
NsS'enum_value_list'
p49
g1
(cmojom.parse.ast
EnumValueList
p50
g3
NtRp51
(dp52
g10
(lp53
g1
(cmojom.parse.ast
EnumValue
p54
g3
NtRp55
(dp56
g15
Nsg37
Nsg16
I19
sg35
S'MANAGED'
p57
sg19
g20
sbag1
(g54
g3
NtRp58
(dp59
g15
Nsg37
Nsg16
I20
sg35
S'SUPERVISED_USER'
p60
sg19
g20
sbag1
(g54
g3
NtRp61
(dp62
g15
Nsg37
Nsg16
I21
sg35
S'EXTENSION'
p63
sg19
g20
sbag1
(g54
g3
NtRp64
(dp65
g15
Nsg37
Nsg16
I22
sg35
S'COMMAND_LINE'
p66
sg19
g20
sbag1
(g54
g3
NtRp67
(dp68
g15
Nsg37
Nsg16
I23
sg35
S'USER'
p69
sg19
g20
sbag1
(g54
g3
NtRp70
(dp71
g15
Nsg37
Nsg16
I24
sg35
S'RECOMMENDED'
p72
sg19
g20
sbag1
(g54
g3
NtRp73
(dp74
g15
Nsg37
Nsg16
I25
sg35
S'DEFAULT'
p75
sg19
g20
sbasg16
I19
sg19
g20
sbsg16
I18
sg35
S'PrefStoreType'
p76
sg19
g20
sbag1
(cmojom.parse.ast
Interface
p77
g3
NtRp78
(dp79
S'body'
p80
g1
(cmojom.parse.ast
InterfaceBody
p81
g3
NtRp82
(dp83
g10
(lp84
g1
(cmojom.parse.ast
Method
p85
g3
NtRp86
(dp87
S'ordinal'
p88
Nsg35
S'OnPrefsChanged'
p89
sS'parameter_list'
p90
g1
(cmojom.parse.ast
ParameterList
p91
g3
NtRp92
(dp93
g10
(lp94
g1
(cmojom.parse.ast
Parameter
p95
g3
NtRp96
(dp97
g88
Nsg35
S'updates'
p98
sg15
Nsg19
g20
sg39
S'PrefUpdate[]'
p99
sg16
I31
sbasg16
I31
sg19
g20
sbsg15
Nsg19
Nsg16
NsS'response_parameter_list'
p100
Nsbag1
(g85
g3
NtRp101
(dp102
g88
Nsg35
S'OnInitializationCompleted'
p103
sg90
g1
(g91
g3
NtRp104
(dp105
g10
(lp106
g1
(g95
g3
NtRp107
(dp108
g88
Nsg35
S'succeeded'
p109
sg15
Nsg19
g20
sg39
S'bool'
p110
sg16
I34
sbasg16
I34
sg19
g20
sbsg15
Nsg19
Nsg16
Nsg100
Nsbag1
(g85
g3
NtRp111
(dp112
g88
Nsg35
S'OnPrefChangeAck'
p113
sg90
g1
(g91
g3
NtRp114
(dp115
g10
(lp116
sg16
Nsg19
Nsbsg15
Nsg19
Nsg16
Nsg100
Nsbasg16
Nsg19
Nsbsg15
Nsg16
Nsg35
S'PrefStoreObserver'
p117
sg19
Nsbag1
(cmojom.parse.ast
Struct
p118
g3
NtRp119
(dp120
g80
g1
(cmojom.parse.ast
StructBody
p121
g3
NtRp122
(dp123
g10
(lp124
g1
(cmojom.parse.ast
StructField
p125
g3
NtRp126
(dp127
g88
NsS'default_value'
p128
Nsg35
S'observer'
p129
sg15
Nsg19
Nsg39
S'PrefStoreObserver&'
p130
sg16
Nsbag1
(g125
g3
NtRp131
(dp132
g88
Nsg128
Nsg35
S'initial_prefs'
p133
sg15
Nsg19
Nsg39
S'mojo_base.mojom.DictionaryValue'
p134
sg16
Nsbag1
(g125
g3
NtRp135
(dp136
g88
Nsg128
Nsg35
S'is_initialized'
p137
sg15
Nsg19
Nsg39
S'bool'
p138
sg16
Nsbasg16
Nsg19
Nsbsg15
Nsg16
Nsg35
S'PrefStoreConnection'
p139
sg19
Nsbag1
(g118
g3
NtRp140
(dp141
g80
g1
(g121
g3
NtRp142
(dp143
g10
(lp144
g1
(g46
g3
NtRp145
(dp146
g15
Nsg49
g1
(g50
g3
NtRp147
(dp148
g10
(lp149
g1
(g54
g3
NtRp150
(dp151
g15
Nsg37
S'0'
sg16
I61
sg35
S'NONE'
p152
sg19
g20
sbag1
(g54
g3
NtRp153
(dp154
g15
Nsg37
S'1'
sg16
I62
sg35
S'JSON_PARSE'
p155
sg19
g20
sbag1
(g54
g3
NtRp156
(dp157
g15
Nsg37
S'2'
sg16
I63
sg35
S'JSON_TYPE'
p158
sg19
g20
sbag1
(g54
g3
NtRp159
(dp160
g15
Nsg37
S'3'
sg16
I64
sg35
S'ACCESS_DENIED'
p161
sg19
g20
sbag1
(g54
g3
NtRp162
(dp163
g15
Nsg37
S'4'
sg16
I65
sg35
S'FILE_OTHER'
p164
sg19
g20
sbag1
(g54
g3
NtRp165
(dp166
g15
Nsg37
S'5'
sg16
I66
sg35
S'FILE_LOCKED'
p167
sg19
g20
sbag1
(g54
g3
NtRp168
(dp169
g15
Nsg37
S'6'
sg16
I67
sg35
S'NO_FILE'
p170
sg19
g20
sbag1
(g54
g3
NtRp171
(dp172
g15
Nsg37
S'7'
sg16
I68
sg35
S'JSON_REPEAT'
p173
sg19
g20
sbag1
(g54
g3
NtRp174
(dp175
g15
Nsg37
S'9'
sg16
I70
sg35
S'FILE_NOT_SPECIFIED'
p176
sg19
g20
sbag1
(g54
g3
NtRp177
(dp178
g15
Nsg37
S'10'
p179
sg16
I71
sg35
S'ASYNCHRONOUS_TASK_INCOMPLETE'
p180
sg19
g20
sbasg16
I61
sg19
g20
sbsg16
I60
sg35
S'ReadError'
p181
sg19
g20
sbag1
(g125
g3
NtRp182
(dp183
g88
Nsg128
Nsg35
S'pref_store_connection'
p184
sg15
Nsg19
Nsg39
S'PrefStoreConnection?'
p185
sg16
Nsbag1
(g125
g3
NtRp186
(dp187
g88
Nsg128
Nsg35
S'pref_store'
p188
sg15
Nsg19
Nsg39
S'PersistentPrefStore?'
p189
sg16
Nsbag1
(g125
g3
NtRp190
(dp191
g88
Nsg128
Nsg35
S'read_error'
p192
sg15
Nsg19
Nsg39
S'ReadError'
p193
sg16
Nsbag1
(g125
g3
NtRp194
(dp195
g88
Nsg128
Nsg35
S'read_only'
p196
sg15
Nsg19
Nsg39
S'bool'
p197
sg16
Nsbasg16
I60
sg19
g20
sbsg15
Nsg16
Nsg35
S'PersistentPrefStoreConnection'
p198
sg19
Nsbag1
(g118
g3
NtRp199
(dp200
g80
g1
(g121
g3
NtRp201
(dp202
g10
(lp203
g1
(g125
g3
NtRp204
(dp205
g88
Nsg128
Nsg35
S'pref_store_connection'
p206
sg15
Nsg19
Nsg39
S'PersistentPrefStoreConnection'
p207
sg16
Nsbag1
(g125
g3
NtRp208
(dp209
g88
Nsg128
Nsg35
S'overlay_pref_names'
p210
sg15
Nsg19
Nsg39
S'string[]'
p211
sg16
Nsbasg16
Nsg19
Nsbsg15
Nsg16
Nsg35
S'IncognitoPersistentPrefStoreConnection'
p212
sg19
Nsbag1
(g77
g3
NtRp213
(dp214
g80
g1
(g81
g3
NtRp215
(dp216
g10
(lp217
g1
(g85
g3
NtRp218
(dp219
g88
Nsg35
S'Connect'
p220
sg90
g1
(g91
g3
NtRp221
(dp222
g10
(lp223
g1
(g95
g3
NtRp224
(dp225
g88
Nsg35
S'pref_registry'
p226
sg15
Nsg19
g20
sg39
S'PrefRegistry'
p227
sg16
I96
sbasg16
I96
sg19
g20
sbsg15
Nsg19
Nsg16
Nsg100
g1
(g91
g3
NtRp228
(dp229
g10
(lp230
g1
(g95
g3
NtRp231
(dp232
g88
Nsg35
S'connection'
p233
sg15
Nsg19
g20
sg39
S'PersistentPrefStoreConnection'
p234
sg16
I97
sbag1
(g95
g3
NtRp235
(dp236
g88
Nsg35
S'underlay'
p237
sg15
Nsg19
g20
sg39
S'IncognitoPersistentPrefStoreConnection?'
p238
sg16
I98
sbag1
(g95
g3
NtRp239
(dp240
g88
Nsg35
S'remote_defaults'
p241
sg15
Nsg19
g20
sg39
S'PrefRegistration[]'
p242
sg16
I99
sbag1
(g95
g3
NtRp243
(dp244
g88
Nsg35
S'connections'
p245
sg15
Nsg19
g20
sg39
S'PrefStoreConnection{PrefStoreType}'
p246
sg16
I100
sbasg16
I97
sg19
g20
sbsbasg16
Nsg19
Nsbsg15
Nsg16
Nsg35
S'PrefStoreConnector'
p247
sg19
Nsbag1
(g118
g3
NtRp248
(dp249
g80
g1
(g121
g3
NtRp250
(dp251
g10
(lp252
g1
(g125
g3
NtRp253
(dp254
g88
Nsg128
Nsg35
S'path'
p255
sg15
Nsg19
Nsg39
S'string[]'
p256
sg16
Nsbag1
(g125
g3
NtRp257
(dp258
g88
Nsg128
Nsg35
S'value'
p259
sg15
Nsg19
Nsg39
S'mojo_base.mojom.Value?'
p260
sg16
Nsbasg16
Nsg19
Nsbsg15
Nsg16
Nsg35
S'SubPrefUpdate'
p261
sg19
Nsbag1
(cmojom.parse.ast
Union
p262
g3
NtRp263
(dp264
g80
g1
(cmojom.parse.ast
UnionBody
p265
g3
NtRp266
(dp267
g10
(lp268
g1
(cmojom.parse.ast
UnionField
p269
g3
NtRp270
(dp271
g88
Nsg35
S'split_updates'
p272
sg15
Nsg19
Nsg39
S'SubPrefUpdate[]'
p273
sg16
Nsbag1
(g269
g3
NtRp274
(dp275
g88
Nsg35
S'atomic_update'
p276
sg15
Nsg19
Nsg39
S'mojo_base.mojom.Value?'
p277
sg16
Nsbasg16
Nsg19
Nsbsg15
Nsg16
Nsg35
S'PrefUpdateValue'
p278
sg19
Nsbag1
(g118
g3
NtRp279
(dp280
g80
g1
(g121
g3
NtRp281
(dp282
g10
(lp283
g1
(g125
g3
NtRp284
(dp285
g88
Nsg128
Nsg35
S'key'
p286
sg15
Nsg19
Nsg39
S'string'
p287
sg16
Nsbag1
(g125
g3
NtRp288
(dp289
g88
Nsg128
Nsg35
S'value'
p290
sg15
Nsg19
Nsg39
S'PrefUpdateValue'
p291
sg16
Nsbag1
(g125
g3
NtRp292
(dp293
g88
Nsg128
Nsg35
S'flags'
p294
sg15
Nsg19
Nsg39
S'uint32'
p295
sg16
Nsbasg16
Nsg19
Nsbsg15
Nsg16
Nsg35
S'PrefUpdate'
p296
sg19
Nsbag1
(g77
g3
NtRp297
(dp298
g80
g1
(g81
g3
NtRp299
(dp300
g10
(lp301
g1
(g85
g3
NtRp302
(dp303
g88
Nsg35
S'SetValues'
p304
sg90
g1
(g91
g3
NtRp305
(dp306
g10
(lp307
g1
(g95
g3
NtRp308
(dp309
g88
Nsg35
S'updates'
p310
sg15
Nsg19
g20
sg39
S'PrefUpdate[]'
p311
sg16
I132
sbasg16
I132
sg19
g20
sbsg15
Nsg19
Nsg16
Nsg100
Nsbag1
(g85
g3
NtRp312
(dp313
g88
Nsg35
S'RequestValue'
p314
sg90
g1
(g91
g3
NtRp315
(dp316
g10
(lp317
g1
(g95
g3
NtRp318
(dp319
g88
Nsg35
S'key'
p320
sg15
Nsg19
g20
sg39
S'string'
p321
sg16
I138
sbag1
(g95
g3
NtRp322
(dp323
g88
Nsg35
S'sub_pref_path'
p324
sg15
Nsg19
g20
sg39
S'string[]'
p325
sg16
I138
sbasg16
I138
sg19
g20
sbsg15
Nsg19
Nsg16
Nsg100
Nsbag1
(g85
g3
NtRp326
(dp327
g88
Nsg35
S'CommitPendingWrite'
p328
sg90
g1
(g91
g3
NtRp329
(dp330
g10
(lp331
sg16
Nsg19
Nsbsg15
Nsg19
Nsg16
Nsg100
g1
(g91
g3
NtRp332
(dp333
g10
(lp334
sg16
Nsg19
Nsbsbag1
(g85
g3
NtRp335
(dp336
g88
Nsg35
S'SchedulePendingLossyWrites'
p337
sg90
g1
(g91
g3
NtRp338
(dp339
g10
(lp340
sg16
Nsg19
Nsbsg15
Nsg19
Nsg16
Nsg100
Nsbag1
(g85
g3
NtRp341
(dp342
g88
Nsg35
S'ClearMutableValues'
p343
sg90
g1
(g91
g3
NtRp344
(dp345
g10
(lp346
sg16
Nsg19
Nsbsg15
Nsg19
Nsg16
Nsg100
Nsbag1
(g85
g3
NtRp347
(dp348
g88
Nsg35
S'OnStoreDeletionFromDisk'
p349
sg90
g1
(g91
g3
NtRp350
(dp351
g10
(lp352
sg16
Nsg19
Nsbsg15
Nsg19
Nsg16
Nsg100
Nsbasg16
Nsg19
Nsbsg15
Nsg16
Nsg35
S'PersistentPrefStore'
p353
sg19
Nsbag1
(g118
g3
NtRp354
(dp355
g80
g1
(g121
g3
NtRp356
(dp357
g10
(lp358
g1
(g125
g3
NtRp359
(dp360
g88
Nsg128
Nsg35
S'private_registrations'
p361
sg15
Nsg19
Nsg39
S'string[]'
p362
sg16
Nsbag1
(g125
g3
NtRp363
(dp364
g88
Nsg128
Nsg35
S'foreign_registrations'
p365
sg15
Nsg19
Nsg39
S'string[]'
p366
sg16
Nsbag1
(g125
g3
NtRp367
(dp368
g88
Nsg128
Nsg35
S'public_registrations'
p369
sg15
Nsg19
Nsg39
S'PrefRegistration[]'
p370
sg16
Nsbasg16
Nsg19
Nsbsg15
Nsg16
Nsg35
S'PrefRegistry'
p371
sg19
Nsbag1
(g118
g3
NtRp372
(dp373
g80
g1
(g121
g3
NtRp374
(dp375
g10
(lp376
g1
(g125
g3
NtRp377
(dp378
g88
Nsg128
Nsg35
S'key'
p379
sg15
Nsg19
Nsg39
S'string'
p380
sg16
Nsbag1
(g125
g3
NtRp381
(dp382
g88
Nsg128
Nsg35
S'default_value'
p383
sg15
Nsg19
Nsg39
S'mojo_base.mojom.Value'
p384
sg16
Nsbag1
(g125
g3
NtRp385
(dp386
g88
Nsg128
Nsg35
S'flags'
p387
sg15
Nsg19
Nsg39
S'uint32'
p388
sg16
Nsbasg16
Nsg19
Nsbsg15
Nsg16
Nsg35
S'PrefRegistration'
p389
sg19
Nsbag1
(g118
g3
NtRp390
(dp391
g80
g1
(g121
g3
NtRp392
(dp393
g10
(lp394
g1
(g125
g3
NtRp395
(dp396
g88
Nsg128
Nsg35
S'unprotected_pref_filename'
p397
sg15
Nsg19
Nsg39
S'mojo_base.mojom.FilePath'
p398
sg16
Nsbag1
(g125
g3
NtRp399
(dp400
g88
Nsg128
Nsg35
S'protected_pref_filename'
p401
sg15
Nsg19
Nsg39
S'mojo_base.mojom.FilePath'
p402
sg16
Nsbag1
(g125
g3
NtRp403
(dp404
g88
Nsg128
Nsg35
S'tracking_configuration'
p405
sg15
Nsg19
Nsg39
S'TrackedPreferenceMetadata[]'
p406
sg16
Nsbag1
(g125
g3
NtRp407
(dp408
g88
Nsg128
Nsg35
S'reporting_ids_count'
p409
sg15
Nsg19
Nsg39
S'uint64'
p410
sg16
Nsbag1
(g125
g3
NtRp411
(dp412
g88
Nsg128
Nsg35
S'seed'
p413
sg15
Nsg19
Nsg39
S'string'
p414
sg16
Nsbag1
(g125
g3
NtRp415
(dp416
g88
Nsg128
Nsg35
S'legacy_device_id'
p417
sg15
Nsg19
Nsg39
S'string'
p418
sg16
Nsbag1
(g125
g3
NtRp419
(dp420
g88
Nsg128
Nsg35
S'registry_seed'
p421
sg15
Nsg19
Nsg39
S'string'
p422
sg16
Nsbag1
(g125
g3
NtRp423
(dp424
g88
Nsg128
Nsg35
S'registry_path'
p425
sg15
Nsg19
Nsg39
S'mojo_base.mojom.String16'
p426
sg16
Nsbag1
(g125
g3
NtRp427
(dp428
g88
Nsg128
Nsg35
S'validation_delegate'
p429
sg15
Nsg19
Nsg39
S'TrackedPreferenceValidationDelegate?'
p430
sg16
Nsbag1
(g125
g3
NtRp431
(dp432
g88
Nsg128
Nsg35
S'reset_on_load_observer'
p433
sg15
Nsg19
Nsg39
S'ResetOnLoadObserver?'
p434
sg16
Nsbasg16
Nsg19
Nsbsg15
Nsg16
Nsg35
S'TrackedPersistentPrefStoreConfiguration'
p435
sg19
Nsbag1
(g118
g3
NtRp436
(dp437
g80
g1
(g121
g3
NtRp438
(dp439
g10
(lp440
g1
(g46
g3
NtRp441
(dp442
g15
Nsg49
g1
(g50
g3
NtRp443
(dp444
g10
(lp445
g1
(g54
g3
NtRp446
(dp447
g15
Nsg37
Nsg16
I192
sg35
S'NO_ENFORCEMENT'
p448
sg19
g20
sbag1
(g54
g3
NtRp449
(dp450
g15
Nsg37
Nsg16
I192
sg35
S'ENFORCE_ON_LOAD'
p451
sg19
g20
sbasg16
I192
sg19
g20
sbsg16
I192
sg35
S'EnforcementLevel'
p452
sg19
g20
sbag1
(g46
g3
NtRp453
(dp454
g15
Nsg49
g1
(g50
g3
NtRp455
(dp456
g10
(lp457
g1
(g54
g3
NtRp458
(dp459
g15
Nsg37
Nsg16
I196
sg35
S'ATOMIC'
p460
sg19
g20
sbag1
(g54
g3
NtRp461
(dp462
g15
Nsg37
Nsg16
I200
sg35
S'SPLIT'
p463
sg19
g20
sbasg16
I196
sg19
g20
sbsg16
I194
sg35
S'PrefTrackingStrategy'
p464
sg19
g20
sbag1
(g46
g3
NtRp465
(dp466
g15
Nsg49
g1
(g50
g3
NtRp467
(dp468
g10
(lp469
g1
(g54
g3
NtRp470
(dp471
g15
Nsg37
Nsg16
I204
sg35
S'IMPERSONAL'
p472
sg19
g20
sbag1
(g54
g3
NtRp473
(dp474
g15
Nsg37
Nsg16
I206
sg35
S'PERSONAL'
p475
sg19
g20
sbasg16
I204
sg19
g20
sbsg16
I203
sg35
S'ValueType'
p476
sg19
g20
sbag1
(g125
g3
NtRp477
(dp478
g88
Nsg128
Nsg35
S'reporting_id'
p479
sg15
Nsg19
Nsg39
S'uint64'
p480
sg16
Nsbag1
(g125
g3
NtRp481
(dp482
g88
Nsg128
Nsg35
S'name'
p483
sg15
Nsg19
Nsg39
S'string'
p484
sg16
Nsbag1
(g125
g3
NtRp485
(dp486
g88
Nsg128
Nsg35
S'enforcement_level'
p487
sg15
Nsg19
Nsg39
S'EnforcementLevel'
p488
sg16
Nsbag1
(g125
g3
NtRp489
(dp490
g88
Nsg128
Nsg35
S'strategy'
p491
sg15
Nsg19
Nsg39
S'PrefTrackingStrategy'
p492
sg16
Nsbag1
(g125
g3
NtRp493
(dp494
g88
Nsg128
Nsg35
S'value_type'
p495
sg15
Nsg19
Nsg39
S'ValueType'
p496
sg16
Nsbasg16
I192
sg19
g20
sbsg15
Nsg16
Nsg35
S'TrackedPreferenceMetadata'
p497
sg19
Nsbag1
(g77
g3
NtRp498
(dp499
g80
g1
(g81
g3
NtRp500
(dp501
g10
(lp502
g1
(g85
g3
NtRp503
(dp504
g88
Nsg35
S'OnResetOnLoad'
p505
sg90
g1
(g91
g3
NtRp506
(dp507
g10
(lp508
sg16
Nsg19
Nsbsg15
Nsg19
Nsg16
Nsg100
Nsbasg16
Nsg19
Nsbsg15
Nsg16
Nsg35
S'ResetOnLoadObserver'
p509
sg19
Nsbasg16
NsS'module'
p510
g1
(cmojom.parse.ast
Module
p511
g3
NtRp512
(dp513
S'mojom_namespace'
p514
(S'IDENTIFIER'
p515
S'prefs.mojom'
tp516
sg16
I5
sg15
Nsg19
g20
sbsg19
Nsb.