ccopy_reg
_reconstructor
p1
(cmojom.parse.ast
Mojom
p2
c__builtin__
object
p3
NtRp4
(dp5
S'import_list'
p6
g1
(cmojom.parse.ast
ImportList
p7
g3
NtRp8
(dp9
S'items'
p10
(lp11
g1
(cmojom.parse.ast
Import
p12
g3
NtRp13
(dp14
S'attribute_list'
p15
NsS'lineno'
p16
I11
sS'import_filename'
p17
S'mojo/public/mojom/base/file_path.mojom'
p18
sS'filename'
p19
S'../../content/common/indexed_db/indexed_db.mojom'
p20
sbag1
(g12
g3
NtRp21
(dp22
g15
Nsg16
I12
sg17
S'mojo/public/mojom/base/string16.mojom'
p23
sg19
g20
sbag1
(g12
g3
NtRp24
(dp25
g15
Nsg16
I13
sg17
S'mojo/public/mojom/base/string16.mojom'
p26
sg19
g20
sbag1
(g12
g3
NtRp27
(dp28
g15
Nsg16
I14
sg17
S'mojo/public/mojom/base/time.mojom'
p29
sg19
g20
sbag1
(g12
g3
NtRp30
(dp31
g15
Nsg16
I15
sg17
S'third_party/blink/public/mojom/blob/blob.mojom'
p32
sg19
g20
sbag1
(g12
g3
NtRp33
(dp34
g15
Nsg16
I16
sg17
S'url/mojom/origin.mojom'
p35
sg19
g20
sbasg16
I11
sg19
g20
sbsS'definition_list'
p36
(lp37
g1
(cmojom.parse.ast
Enum
p38
g3
NtRp39
(dp40
g15
NsS'enum_value_list'
p41
g1
(cmojom.parse.ast
EnumValueList
p42
g3
NtRp43
(dp44
g10
(lp45
g1
(cmojom.parse.ast
EnumValue
p46
g3
NtRp47
(dp48
g15
NsS'value'
p49
Nsg16
I19
sS'mojom_name'
p50
S'Next'
p51
sg19
g20
sbag1
(g46
g3
NtRp52
(dp53
g15
Nsg49
Nsg16
I20
sg50
S'NextNoDuplicate'
p54
sg19
g20
sbag1
(g46
g3
NtRp55
(dp56
g15
Nsg49
Nsg16
I21
sg50
S'Prev'
p57
sg19
g20
sbag1
(g46
g3
NtRp58
(dp59
g15
Nsg49
Nsg16
I22
sg50
S'PrevNoDuplicate'
p60
sg19
g20
sbasg16
I19
sg19
g20
sbsg16
I18
sg50
S'CursorDirection'
p61
sg19
g20
sbag1
(g38
g3
NtRp62
(dp63
g15
Nsg41
g1
(g42
g3
NtRp64
(dp65
g10
(lp66
g1
(g46
g3
NtRp67
(dp68
g15
Nsg49
Nsg16
I26
sg50
S'None'
p69
sg19
g20
sbag1
(g46
g3
NtRp70
(dp71
g15
Nsg49
Nsg16
I27
sg50
S'Total'
p72
sg19
g20
sbasg16
I26
sg19
g20
sbsg16
I25
sg50
S'DataLoss'
p73
sg19
g20
sbag1
(g38
g3
NtRp74
(dp75
g15
Nsg41
g1
(g42
g3
NtRp76
(dp77
g10
(lp78
g1
(g46
g3
NtRp79
(dp80
g15
Nsg49
Nsg16
I35
sg50
S'Invalid'
p81
sg19
g20
sbag1
(g46
g3
NtRp82
(dp83
g15
Nsg49
Nsg16
I36
sg50
S'Null'
p84
sg19
g20
sbasg16
I35
sg19
g20
sbsg16
I34
sg50
S'DatalessKeyType'
p85
sg19
g20
sbag1
(cmojom.parse.ast
Union
p86
g3
NtRp87
(dp88
S'body'
p89
g1
(cmojom.parse.ast
UnionBody
p90
g3
NtRp91
(dp92
g10
(lp93
g1
(cmojom.parse.ast
UnionField
p94
g3
NtRp95
(dp96
S'ordinal'
p97
Nsg50
S'key_array'
p98
sg15
Nsg19
NsS'typename'
p99
S'Key[]'
p100
sg16
Nsbag1
(g94
g3
NtRp101
(dp102
g97
Nsg50
S'binary'
p103
sg15
Nsg19
Nsg99
S'uint8[]'
p104
sg16
Nsbag1
(g94
g3
NtRp105
(dp106
g97
Nsg50
S'string'
p107
sg15
Nsg19
Nsg99
S'mojo_base.mojom.String16'
p108
sg16
Nsbag1
(g94
g3
NtRp109
(dp110
g97
Nsg50
S'date'
p111
sg15
Nsg19
Nsg99
S'double'
p112
sg16
Nsbag1
(g94
g3
NtRp113
(dp114
g97
Nsg50
S'number'
p115
sg15
Nsg19
Nsg99
S'double'
p116
sg16
Nsbag1
(g94
g3
NtRp117
(dp118
g97
Nsg50
S'other'
p119
sg15
Nsg19
Nsg99
S'DatalessKeyType'
p120
sg16
Nsbasg16
Nsg19
Nsbsg15
Nsg16
Nsg50
S'KeyData'
p121
sg19
Nsbag1
(cmojom.parse.ast
Struct
p122
g3
NtRp123
(dp124
g89
g1
(cmojom.parse.ast
StructBody
p125
g3
NtRp126
(dp127
g10
(lp128
g1
(cmojom.parse.ast
StructField
p129
g3
NtRp130
(dp131
g97
NsS'default_value'
p132
Nsg50
S'data'
p133
sg15
Nsg19
Nsg99
S'KeyData'
p134
sg16
Nsbasg16
Nsg19
Nsbsg15
Nsg16
Nsg50
S'Key'
p135
sg19
Nsbag1
(g86
g3
NtRp136
(dp137
g89
g1
(g90
g3
NtRp138
(dp139
g10
(lp140
g1
(g94
g3
NtRp141
(dp142
g97
Nsg50
S'string'
p143
sg15
Nsg19
Nsg99
S'mojo_base.mojom.String16'
p144
sg16
Nsbag1
(g94
g3
NtRp145
(dp146
g97
Nsg50
S'string_array'
p147
sg15
Nsg19
Nsg99
S'mojo_base.mojom.String16[]'
p148
sg16
Nsbasg16
Nsg19
Nsbsg15
Nsg16
Nsg50
S'KeyPathData'
p149
sg19
Nsbag1
(g122
g3
NtRp150
(dp151
g89
g1
(g125
g3
NtRp152
(dp153
g10
(lp154
g1
(g129
g3
NtRp155
(dp156
g97
Nsg132
Nsg50
S'data'
p157
sg15
Nsg19
Nsg99
S'KeyPathData?'
p158
sg16
Nsbasg16
Nsg19
Nsbsg15
Nsg16
Nsg50
S'KeyPath'
p159
sg19
Nsbag1
(g122
g3
NtRp160
(dp161
g89
g1
(g125
g3
NtRp162
(dp163
g10
(lp164
g1
(g129
g3
NtRp165
(dp166
g97
Nsg132
Nsg50
S'lower'
p167
sg15
Nsg19
Nsg99
S'Key'
p168
sg16
Nsbag1
(g129
g3
NtRp169
(dp170
g97
Nsg132
Nsg50
S'upper'
p171
sg15
Nsg19
Nsg99
S'Key'
p172
sg16
Nsbag1
(g129
g3
NtRp173
(dp174
g97
Nsg132
Nsg50
S'lower_open'
p175
sg15
Nsg19
Nsg99
S'bool'
p176
sg16
Nsbag1
(g129
g3
NtRp177
(dp178
g97
Nsg132
Nsg50
S'upper_open'
p179
sg15
Nsg19
Nsg99
S'bool'
p180
sg16
Nsbasg16
Nsg19
Nsbsg15
Nsg16
Nsg50
S'KeyRange'
p181
sg19
Nsbag1
(g38
g3
NtRp182
(dp183
g15
Nsg41
g1
(g42
g3
NtRp184
(dp185
g10
(lp186
g1
(g46
g3
NtRp187
(dp188
g15
Nsg49
Nsg16
I72
sg50
S'Add'
p189
sg19
g20
sbag1
(g46
g3
NtRp190
(dp191
g15
Nsg49
Nsg16
I73
sg50
S'Put'
p192
sg19
g20
sbag1
(g46
g3
NtRp193
(dp194
g15
Nsg49
Nsg16
I74
sg50
S'Delete'
p195
sg19
g20
sbag1
(g46
g3
NtRp196
(dp197
g15
Nsg49
Nsg16
I75
sg50
S'Clear'
p198
sg19
g20
sbasg16
I72
sg19
g20
sbsg16
I71
sg50
S'OperationType'
p199
sg19
g20
sbag1
(g38
g3
NtRp200
(dp201
g15
Nsg41
g1
(g42
g3
NtRp202
(dp203
g10
(lp204
g1
(g46
g3
NtRp205
(dp206
g15
Nsg49
Nsg16
I79
sg50
S'AddOrUpdate'
p207
sg19
g20
sbag1
(g46
g3
NtRp208
(dp209
g15
Nsg49
Nsg16
I80
sg50
S'AddOnly'
p210
sg19
g20
sbag1
(g46
g3
NtRp211
(dp212
g15
Nsg49
Nsg16
I81
sg50
S'CursorUpdate'
p213
sg19
g20
sbasg16
I79
sg19
g20
sbsg16
I78
sg50
S'PutMode'
p214
sg19
g20
sbag1
(g38
g3
NtRp215
(dp216
g15
Nsg41
g1
(g42
g3
NtRp217
(dp218
g10
(lp219
g1
(g46
g3
NtRp220
(dp221
g15
Nsg49
Nsg16
I85
sg50
S'Normal'
p222
sg19
g20
sbag1
(g46
g3
NtRp223
(dp224
g15
Nsg49
Nsg16
I86
sg50
S'Preemptive'
p225
sg19
g20
sbasg16
I85
sg19
g20
sbsg16
I84
sg50
S'TaskType'
p226
sg19
g20
sbag1
(g38
g3
NtRp227
(dp228
g15
Nsg41
g1
(g42
g3
NtRp229
(dp230
g10
(lp231
g1
(g46
g3
NtRp232
(dp233
g15
Nsg49
Nsg16
I90
sg50
S'ReadOnly'
p234
sg19
g20
sbag1
(g46
g3
NtRp235
(dp236
g15
Nsg49
Nsg16
I91
sg50
S'ReadWrite'
p237
sg19
g20
sbag1
(g46
g3
NtRp238
(dp239
g15
Nsg49
Nsg16
I92
sg50
S'VersionChange'
p240
sg19
g20
sbasg16
I90
sg19
g20
sbsg16
I89
sg50
S'TransactionMode'
p241
sg19
g20
sbag1
(g38
g3
NtRp242
(dp243
g15
Nsg41
g1
(g42
g3
NtRp244
(dp245
g10
(lp246
g1
(g46
g3
NtRp247
(dp248
g15
Nsg49
Nsg16
I96
sg50
S'OK'
p249
sg19
g20
sbag1
(g46
g3
NtRp250
(dp251
g15
Nsg49
Nsg16
I97
sg50
S'NotFound'
p252
sg19
g20
sbag1
(g46
g3
NtRp253
(dp254
g15
Nsg49
Nsg16
I98
sg50
S'Corruption'
p255
sg19
g20
sbag1
(g46
g3
NtRp256
(dp257
g15
Nsg49
Nsg16
I99
sg50
S'NotSupported'
p258
sg19
g20
sbag1
(g46
g3
NtRp259
(dp260
g15
Nsg49
Nsg16
I100
sg50
S'InvalidArgument'
p261
sg19
g20
sbag1
(g46
g3
NtRp262
(dp263
g15
Nsg49
Nsg16
I101
sg50
S'IOError'
p264
sg19
g20
sbasg16
I96
sg19
g20
sbsg16
I95
sg50
S'Status'
p265
sg19
g20
sbag1
(g122
g3
NtRp266
(dp267
g89
g1
(g125
g3
NtRp268
(dp269
g10
(lp270
g1
(g129
g3
NtRp271
(dp272
g97
Nsg132
Nsg50
S'id'
p273
sg15
Nsg19
Nsg99
S'int64'
p274
sg16
Nsbag1
(g129
g3
NtRp275
(dp276
g97
Nsg132
Nsg50
S'name'
p277
sg15
Nsg19
Nsg99
S'mojo_base.mojom.String16'
p278
sg16
Nsbag1
(g129
g3
NtRp279
(dp280
g97
Nsg132
Nsg50
S'key_path'
p281
sg15
Nsg19
Nsg99
S'KeyPath'
p282
sg16
Nsbag1
(g129
g3
NtRp283
(dp284
g97
Nsg132
Nsg50
S'unique'
p285
sg15
Nsg19
Nsg99
S'bool'
p286
sg16
Nsbag1
(g129
g3
NtRp287
(dp288
g97
Nsg132
Nsg50
S'multi_entry'
p289
sg15
Nsg19
Nsg99
S'bool'
p290
sg16
Nsbasg16
Nsg19
Nsbsg15
Nsg16
Nsg50
S'IndexMetadata'
p291
sg19
Nsbag1
(g122
g3
NtRp292
(dp293
g89
g1
(g125
g3
NtRp294
(dp295
g10
(lp296
g1
(g129
g3
NtRp297
(dp298
g97
Nsg132
Nsg50
S'id'
p299
sg15
Nsg19
Nsg99
S'int64'
p300
sg16
Nsbag1
(g129
g3
NtRp301
(dp302
g97
Nsg132
Nsg50
S'name'
p303
sg15
Nsg19
Nsg99
S'mojo_base.mojom.String16'
p304
sg16
Nsbag1
(g129
g3
NtRp305
(dp306
g97
Nsg132
Nsg50
S'key_path'
p307
sg15
Nsg19
Nsg99
S'KeyPath'
p308
sg16
Nsbag1
(g129
g3
NtRp309
(dp310
g97
Nsg132
Nsg50
S'auto_increment'
p311
sg15
Nsg19
Nsg99
S'bool'
p312
sg16
Nsbag1
(g129
g3
NtRp313
(dp314
g97
Nsg132
Nsg50
S'max_index_id'
p315
sg15
Nsg19
Nsg99
S'int64'
p316
sg16
Nsbag1
(g129
g3
NtRp317
(dp318
g97
Nsg132
Nsg50
S'indexes'
p319
sg15
Nsg19
Nsg99
S'IndexMetadata[]'
p320
sg16
Nsbasg16
Nsg19
Nsbsg15
Nsg16
Nsg50
S'ObjectStoreMetadata'
p321
sg19
Nsbag1
(g122
g3
NtRp322
(dp323
g89
g1
(g125
g3
NtRp324
(dp325
g10
(lp326
g1
(g129
g3
NtRp327
(dp328
g97
Nsg132
Nsg50
S'id'
p329
sg15
Nsg19
Nsg99
S'int64'
p330
sg16
Nsbag1
(g129
g3
NtRp331
(dp332
g97
Nsg132
Nsg50
S'name'
p333
sg15
Nsg19
Nsg99
S'mojo_base.mojom.String16'
p334
sg16
Nsbag1
(g129
g3
NtRp335
(dp336
g97
Nsg132
Nsg50
S'version'
p337
sg15
Nsg19
Nsg99
S'int64'
p338
sg16
Nsbag1
(g129
g3
NtRp339
(dp340
g97
Nsg132
Nsg50
S'max_object_store_id'
p341
sg15
Nsg19
Nsg99
S'int64'
p342
sg16
Nsbag1
(g129
g3
NtRp343
(dp344
g97
Nsg132
Nsg50
S'object_stores'
p345
sg15
Nsg19
Nsg99
S'ObjectStoreMetadata[]'
p346
sg16
Nsbasg16
Nsg19
Nsbsg15
Nsg16
Nsg50
S'DatabaseMetadata'
p347
sg19
Nsbag1
(g122
g3
NtRp348
(dp349
g89
g1
(g125
g3
NtRp350
(dp351
g10
(lp352
g1
(g129
g3
NtRp353
(dp354
g97
Nsg132
Nsg50
S'index_id'
p355
sg15
Nsg19
Nsg99
S'int64'
p356
sg16
Nsbag1
(g129
g3
NtRp357
(dp358
g97
Nsg132
Nsg50
S'index_keys'
p359
sg15
Nsg19
Nsg99
S'Key[]'
p360
sg16
Nsbasg16
Nsg19
Nsbsg15
Nsg16
Nsg50
S'IndexKeys'
p361
sg19
Nsbag1
(g122
g3
NtRp362
(dp363
g89
g1
(g125
g3
NtRp364
(dp365
g10
(lp366
g1
(g129
g3
NtRp367
(dp368
g97
Nsg132
Nsg50
S'path'
p369
sg15
Nsg19
Nsg99
S'mojo_base.mojom.FilePath'
p370
sg16
Nsbag1
(g129
g3
NtRp371
(dp372
g97
Nsg132
Nsg50
S'name'
p373
sg15
Nsg19
Nsg99
S'mojo_base.mojom.String16'
p374
sg16
Nsbag1
(g129
g3
NtRp375
(dp376
g97
Nsg132
Nsg50
S'last_modified'
p377
sg15
Nsg19
Nsg99
S'mojo_base.mojom.Time'
p378
sg16
Nsbasg16
Nsg19
Nsbsg15
Nsg16
Nsg50
S'FileInfo'
p379
sg19
Nsbag1
(g122
g3
NtRp380
(dp381
g89
g1
(g125
g3
NtRp382
(dp383
g10
(lp384
g1
(g129
g3
NtRp385
(dp386
g97
Nsg132
Nsg50
S'blob'
p387
sg15
Nsg19
Nsg99
S'blink.mojom.Blob'
p388
sg16
Nsbag1
(g129
g3
NtRp389
(dp390
g97
Nsg132
Nsg50
S'uuid'
p391
sg15
Nsg19
Nsg99
S'string'
p392
sg16
Nsbag1
(g129
g3
NtRp393
(dp394
g97
Nsg132
Nsg50
S'mime_type'
p395
sg15
Nsg19
Nsg99
S'mojo_base.mojom.String16'
p396
sg16
Nsbag1
(g129
g3
NtRp397
(dp398
g97
Nsg132
Nsg50
S'size'
p399
sg15
Nsg19
Nsg99
S'int64'
p400
sg16
Nsbag1
(g129
g3
NtRp401
(dp402
g97
Nsg132
Nsg50
S'file'
p403
sg15
Nsg19
Nsg99
S'FileInfo?'
p404
sg16
Nsbasg16
Nsg19
Nsbsg15
Nsg16
Nsg50
S'BlobInfo'
p405
sg19
Nsbag1
(g122
g3
NtRp406
(dp407
g89
g1
(g125
g3
NtRp408
(dp409
g10
(lp410
g1
(g129
g3
NtRp411
(dp412
g97
Nsg132
Nsg50
S'bits'
p413
sg15
Nsg19
Nsg99
S'string'
p414
sg16
Nsbag1
(g129
g3
NtRp415
(dp416
g97
Nsg132
Nsg50
S'blob_or_file_info'
p417
sg15
Nsg19
Nsg99
S'BlobInfo[]'
p418
sg16
Nsbasg16
Nsg19
Nsbsg15
Nsg16
Nsg50
S'Value'
p419
sg19
Nsbag1
(g122
g3
NtRp420
(dp421
g89
g1
(g125
g3
NtRp422
(dp423
g10
(lp424
g1
(g129
g3
NtRp425
(dp426
g97
Nsg132
Nsg50
S'value'
p427
sg15
Nsg19
Nsg99
S'Value'
p428
sg16
Nsbag1
(g129
g3
NtRp429
(dp430
g97
Nsg132
Nsg50
S'primary_key'
p431
sg15
Nsg19
Nsg99
S'Key'
p432
sg16
Nsbag1
(g129
g3
NtRp433
(dp434
g97
Nsg132
Nsg50
S'key_path'
p435
sg15
Nsg19
Nsg99
S'KeyPath'
p436
sg16
Nsbasg16
Nsg19
Nsbsg15
Nsg16
Nsg50
S'ReturnValue'
p437
sg19
Nsbag1
(g122
g3
NtRp438
(dp439
g89
g1
(g125
g3
NtRp440
(dp441
g10
(lp442
g1
(g129
g3
NtRp443
(dp444
g97
Nsg132
Nsg50
S'object_store_id'
p445
sg15
Nsg19
Nsg99
S'int64'
p446
sg16
Nsbag1
(g129
g3
NtRp447
(dp448
g97
Nsg132
Nsg50
S'type'
p449
sg15
Nsg19
Nsg99
S'OperationType'
p450
sg16
Nsbag1
(g129
g3
NtRp451
(dp452
g97
Nsg132
Nsg50
S'key_range'
p453
sg15
Nsg19
Nsg99
S'KeyRange'
p454
sg16
Nsbag1
(g129
g3
NtRp455
(dp456
g97
Nsg132
Nsg50
S'value'
p457
sg15
Nsg19
Nsg99
S'Value?'
p458
sg16
Nsbasg16
Nsg19
Nsbsg15
Nsg16
Nsg50
S'Observation'
p459
sg19
Nsbag1
(g122
g3
NtRp460
(dp461
g89
g1
(g125
g3
NtRp462
(dp463
g10
(lp464
g1
(g129
g3
NtRp465
(dp466
g97
Nsg132
Nsg50
S'id'
p467
sg15
Nsg19
Nsg99
S'int64'
p468
sg16
Nsbag1
(g129
g3
NtRp469
(dp470
g97
Nsg132
Nsg50
S'scope'
p471
sg15
Nsg19
Nsg99
S'int64[]'
p472
sg16
Nsbasg16
Nsg19
Nsbsg15
Nsg16
Nsg50
S'ObserverTransaction'
p473
sg19
Nsbag1
(g122
g3
NtRp474
(dp475
g89
g1
(g125
g3
NtRp476
(dp477
g10
(lp478
g1
(g129
g3
NtRp479
(dp480
g97
Nsg132
Nsg50
S'observation_index_map'
p481
sg15
Nsg19
Nsg99
S'int32[]{int32}'
p482
sg16
Nsbag1
(g129
g3
NtRp483
(dp484
g97
Nsg132
Nsg50
S'transaction_map'
p485
sg15
Nsg19
Nsg99
S'ObserverTransaction{int32}'
p486
sg16
Nsbag1
(g129
g3
NtRp487
(dp488
g97
Nsg132
Nsg50
S'observations'
p489
sg15
Nsg19
Nsg99
S'Observation[]'
p490
sg16
Nsbasg16
Nsg19
Nsbsg15
Nsg16
Nsg50
S'ObserverChanges'
p491
sg19
Nsbag1
(cmojom.parse.ast
Interface
p492
g3
NtRp493
(dp494
g89
g1
(cmojom.parse.ast
InterfaceBody
p495
g3
NtRp496
(dp497
g10
(lp498
g1
(cmojom.parse.ast
Method
p499
g3
NtRp500
(dp501
g97
Nsg50
S'Error'
p502
sS'parameter_list'
p503
g1
(cmojom.parse.ast
ParameterList
p504
g3
NtRp505
(dp506
g10
(lp507
g1
(cmojom.parse.ast
Parameter
p508
g3
NtRp509
(dp510
g97
Nsg50
S'code'
p511
sg15
Nsg19
g20
sg99
S'int32'
p512
sg16
I184
sbag1
(g508
g3
NtRp513
(dp514
g97
Nsg50
S'message'
p515
sg15
Nsg19
g20
sg99
S'mojo_base.mojom.String16'
p516
sg16
I184
sbasg16
I184
sg19
g20
sbsg15
Nsg19
Nsg16
NsS'response_parameter_list'
p517
Nsbag1
(g499
g3
NtRp518
(dp519
g97
Nsg50
S'SuccessStringList'
p520
sg503
g1
(g504
g3
NtRp521
(dp522
g10
(lp523
g1
(g508
g3
NtRp524
(dp525
g97
Nsg50
S'value'
p526
sg15
Nsg19
g20
sg99
S'mojo_base.mojom.String16[]'
p527
sg16
I187
sbasg16
I187
sg19
g20
sbsg15
Nsg19
Nsg16
Nsg517
Nsbag1
(g499
g3
NtRp528
(dp529
g97
Nsg50
S'Blocked'
p530
sg503
g1
(g504
g3
NtRp531
(dp532
g10
(lp533
g1
(g508
g3
NtRp534
(dp535
g97
Nsg50
S'existing_version'
p536
sg15
Nsg19
g20
sg99
S'int64'
p537
sg16
I190
sbasg16
I190
sg19
g20
sbsg15
Nsg19
Nsg16
Nsg517
Nsbag1
(g499
g3
NtRp538
(dp539
g97
Nsg50
S'UpgradeNeeded'
p540
sg503
g1
(g504
g3
NtRp541
(dp542
g10
(lp543
g1
(g508
g3
NtRp544
(dp545
g97
Nsg50
S'database'
p546
sg15
Nsg19
g20
sg99
S'asso<Database>'
p547
sg16
I193
sbag1
(g508
g3
NtRp548
(dp549
g97
Nsg50
S'old_version'
p550
sg15
Nsg19
g20
sg99
S'int64'
p551
sg16
I193
sbag1
(g508
g3
NtRp552
(dp553
g97
Nsg50
S'data_loss'
p554
sg15
Nsg19
g20
sg99
S'DataLoss'
p555
sg16
I194
sbag1
(g508
g3
NtRp556
(dp557
g97
Nsg50
S'data_loss_message'
p558
sg15
Nsg19
g20
sg99
S'string'
p559
sg16
I194
sbag1
(g508
g3
NtRp560
(dp561
g97
Nsg50
S'db_metadata'
p562
sg15
Nsg19
g20
sg99
S'DatabaseMetadata'
p563
sg16
I195
sbasg16
I193
sg19
g20
sbsg15
Nsg19
Nsg16
Nsg517
Nsbag1
(g499
g3
NtRp564
(dp565
g97
Nsg50
S'SuccessDatabase'
p566
sg503
g1
(g504
g3
NtRp567
(dp568
g10
(lp569
g1
(g508
g3
NtRp570
(dp571
g97
Nsg50
S'database'
p572
sg15
Nsg19
g20
sg99
S'asso<Database>?'
p573
sg16
I196
sbag1
(g508
g3
NtRp574
(dp575
g97
Nsg50
S'metadata'
p576
sg15
Nsg19
g20
sg99
S'DatabaseMetadata'
p577
sg16
I196
sbasg16
I196
sg19
g20
sbsg15
Nsg19
Nsg16
Nsg517
Nsbag1
(g499
g3
NtRp578
(dp579
g97
Nsg50
S'SuccessCursor'
p580
sg503
g1
(g504
g3
NtRp581
(dp582
g10
(lp583
g1
(g508
g3
NtRp584
(dp585
g97
Nsg50
S'cursor'
p586
sg15
Nsg19
g20
sg99
S'asso<Cursor>'
p587
sg16
I199
sbag1
(g508
g3
NtRp588
(dp589
g97
Nsg50
S'key'
p590
sg15
Nsg19
g20
sg99
S'Key'
p591
sg16
I200
sbag1
(g508
g3
NtRp592
(dp593
g97
Nsg50
S'primary_key'
p594
sg15
Nsg19
g20
sg99
S'Key'
p595
sg16
I201
sbag1
(g508
g3
NtRp596
(dp597
g97
Nsg50
S'value'
p598
sg15
Nsg19
g20
sg99
S'Value?'
p599
sg16
I202
sbasg16
I199
sg19
g20
sbsg15
Nsg19
Nsg16
Nsg517
Nsbag1
(g499
g3
NtRp600
(dp601
g97
Nsg50
S'SuccessValue'
p602
sg503
g1
(g504
g3
NtRp603
(dp604
g10
(lp605
g1
(g508
g3
NtRp606
(dp607
g97
Nsg50
S'value'
p608
sg15
Nsg19
g20
sg99
S'ReturnValue?'
p609
sg16
I205
sbasg16
I205
sg19
g20
sbsg15
Nsg19
Nsg16
Nsg517
Nsbag1
(g499
g3
NtRp610
(dp611
g97
Nsg50
S'SuccessCursorContinue'
p612
sg503
g1
(g504
g3
NtRp613
(dp614
g10
(lp615
g1
(g508
g3
NtRp616
(dp617
g97
Nsg50
S'key'
p618
sg15
Nsg19
g20
sg99
S'Key'
p619
sg16
I208
sbag1
(g508
g3
NtRp620
(dp621
g97
Nsg50
S'primary_key'
p622
sg15
Nsg19
g20
sg99
S'Key'
p623
sg16
I208
sbag1
(g508
g3
NtRp624
(dp625
g97
Nsg50
S'value'
p626
sg15
Nsg19
g20
sg99
S'Value?'
p627
sg16
I208
sbasg16
I208
sg19
g20
sbsg15
Nsg19
Nsg16
Nsg517
Nsbag1
(g499
g3
NtRp628
(dp629
g97
Nsg50
S'SuccessCursorPrefetch'
p630
sg503
g1
(g504
g3
NtRp631
(dp632
g10
(lp633
g1
(g508
g3
NtRp634
(dp635
g97
Nsg50
S'keys'
p636
sg15
Nsg19
g20
sg99
S'Key[]'
p637
sg16
I211
sbag1
(g508
g3
NtRp638
(dp639
g97
Nsg50
S'primary_keys'
p640
sg15
Nsg19
g20
sg99
S'Key[]'
p641
sg16
I212
sbag1
(g508
g3
NtRp642
(dp643
g97
Nsg50
S'values'
p644
sg15
Nsg19
g20
sg99
S'Value[]'
p645
sg16
I213
sbasg16
I211
sg19
g20
sbsg15
Nsg19
Nsg16
Nsg517
Nsbag1
(g499
g3
NtRp646
(dp647
g97
Nsg50
S'SuccessArray'
p648
sg503
g1
(g504
g3
NtRp649
(dp650
g10
(lp651
g1
(g508
g3
NtRp652
(dp653
g97
Nsg50
S'values'
p654
sg15
Nsg19
g20
sg99
S'ReturnValue[]'
p655
sg16
I216
sbasg16
I216
sg19
g20
sbsg15
Nsg19
Nsg16
Nsg517
Nsbag1
(g499
g3
NtRp656
(dp657
g97
Nsg50
S'SuccessKey'
p658
sg503
g1
(g504
g3
NtRp659
(dp660
g10
(lp661
g1
(g508
g3
NtRp662
(dp663
g97
Nsg50
S'key'
p664
sg15
Nsg19
g20
sg99
S'Key'
p665
sg16
I219
sbasg16
I219
sg19
g20
sbsg15
Nsg19
Nsg16
Nsg517
Nsbag1
(g499
g3
NtRp666
(dp667
g97
Nsg50
S'SuccessInteger'
p668
sg503
g1
(g504
g3
NtRp669
(dp670
g10
(lp671
g1
(g508
g3
NtRp672
(dp673
g97
Nsg50
S'value'
p674
sg15
Nsg19
g20
sg99
S'int64'
p675
sg16
I223
sbasg16
I223
sg19
g20
sbsg15
Nsg19
Nsg16
Nsg517
Nsbag1
(g499
g3
NtRp676
(dp677
g97
Nsg50
S'Success'
p678
sg503
g1
(g504
g3
NtRp679
(dp680
g10
(lp681
sg16
Nsg19
Nsbsg15
Nsg19
Nsg16
Nsg517
Nsbasg16
Nsg19
Nsbsg15
Nsg16
Nsg50
S'Callbacks'
p682
sg19
Nsbag1
(g492
g3
NtRp683
(dp684
g89
g1
(g495
g3
NtRp685
(dp686
g10
(lp687
g1
(g499
g3
NtRp688
(dp689
g97
Nsg50
S'ForcedClose'
p690
sg503
g1
(g504
g3
NtRp691
(dp692
g10
(lp693
sg16
Nsg19
Nsbsg15
Nsg19
Nsg16
Nsg517
Nsbag1
(g499
g3
NtRp694
(dp695
g97
Nsg50
S'VersionChange'
p696
sg503
g1
(g504
g3
NtRp697
(dp698
g10
(lp699
g1
(g508
g3
NtRp700
(dp701
g97
Nsg50
S'old_version'
p702
sg15
Nsg19
g20
sg99
S'int64'
p703
sg16
I234
sbag1
(g508
g3
NtRp704
(dp705
g97
Nsg50
S'new_version'
p706
sg15
Nsg19
g20
sg99
S'int64'
p707
sg16
I234
sbasg16
I234
sg19
g20
sbsg15
Nsg19
Nsg16
Nsg517
Nsbag1
(g499
g3
NtRp708
(dp709
g97
Nsg50
S'Abort'
p710
sg503
g1
(g504
g3
NtRp711
(dp712
g10
(lp713
g1
(g508
g3
NtRp714
(dp715
g97
Nsg50
S'transaction_id'
p716
sg15
Nsg19
g20
sg99
S'int64'
p717
sg16
I235
sbag1
(g508
g3
NtRp718
(dp719
g97
Nsg50
S'code'
p720
sg15
Nsg19
g20
sg99
S'int32'
p721
sg16
I235
sbag1
(g508
g3
NtRp722
(dp723
g97
Nsg50
S'message'
p724
sg15
Nsg19
g20
sg99
S'mojo_base.mojom.String16'
p725
sg16
I236
sbasg16
I235
sg19
g20
sbsg15
Nsg19
Nsg16
Nsg517
Nsbag1
(g499
g3
NtRp726
(dp727
g97
Nsg50
S'Complete'
p728
sg503
g1
(g504
g3
NtRp729
(dp730
g10
(lp731
g1
(g508
g3
NtRp732
(dp733
g97
Nsg50
S'transaction_id'
p734
sg15
Nsg19
g20
sg99
S'int64'
p735
sg16
I237
sbasg16
I237
sg19
g20
sbsg15
Nsg19
Nsg16
Nsg517
Nsbag1
(g499
g3
NtRp736
(dp737
g97
Nsg50
S'Changes'
p738
sg503
g1
(g504
g3
NtRp739
(dp740
g10
(lp741
g1
(g508
g3
NtRp742
(dp743
g97
Nsg50
S'changes'
p744
sg15
Nsg19
g20
sg99
S'ObserverChanges'
p745
sg16
I238
sbasg16
I238
sg19
g20
sbsg15
Nsg19
Nsg16
Nsg517
Nsbasg16
Nsg19
Nsbsg15
Nsg16
Nsg50
S'DatabaseCallbacks'
p746
sg19
Nsbag1
(g492
g3
NtRp747
(dp748
g89
g1
(g495
g3
NtRp749
(dp750
g10
(lp751
g1
(g499
g3
NtRp752
(dp753
g97
Nsg50
S'Advance'
p754
sg503
g1
(g504
g3
NtRp755
(dp756
g10
(lp757
g1
(g508
g3
NtRp758
(dp759
g97
Nsg50
S'count'
p760
sg15
Nsg19
g20
sg99
S'uint32'
p761
sg16
I242
sbag1
(g508
g3
NtRp762
(dp763
g97
Nsg50
S'callbacks'
p764
sg15
Nsg19
g20
sg99
S'asso<Callbacks>'
p765
sg16
I242
sbasg16
I242
sg19
g20
sbsg15
Nsg19
Nsg16
Nsg517
Nsbag1
(g499
g3
NtRp766
(dp767
g97
Nsg50
S'Continue'
p768
sg503
g1
(g504
g3
NtRp769
(dp770
g10
(lp771
g1
(g508
g3
NtRp772
(dp773
g97
Nsg50
S'key'
p774
sg15
Nsg19
g20
sg99
S'Key'
p775
sg16
I243
sbag1
(g508
g3
NtRp776
(dp777
g97
Nsg50
S'primary_key'
p778
sg15
Nsg19
g20
sg99
S'Key'
p779
sg16
I243
sbag1
(g508
g3
NtRp780
(dp781
g97
Nsg50
S'callbacks'
p782
sg15
Nsg19
g20
sg99
S'asso<Callbacks>'
p783
sg16
I243
sbasg16
I243
sg19
g20
sbsg15
Nsg19
Nsg16
Nsg517
Nsbag1
(g499
g3
NtRp784
(dp785
g97
Nsg50
S'Prefetch'
p786
sg503
g1
(g504
g3
NtRp787
(dp788
g10
(lp789
g1
(g508
g3
NtRp790
(dp791
g97
Nsg50
S'count'
p792
sg15
Nsg19
g20
sg99
S'int32'
p793
sg16
I244
sbag1
(g508
g3
NtRp794
(dp795
g97
Nsg50
S'callbacks'
p796
sg15
Nsg19
g20
sg99
S'asso<Callbacks>'
p797
sg16
I244
sbasg16
I244
sg19
g20
sbsg15
Nsg19
Nsg16
Nsg517
Nsbag1
(g499
g3
NtRp798
(dp799
g97
Nsg50
S'PrefetchReset'
p800
sg503
g1
(g504
g3
NtRp801
(dp802
g10
(lp803
g1
(g508
g3
NtRp804
(dp805
g97
Nsg50
S'used_prefetches'
p806
sg15
Nsg19
g20
sg99
S'int32'
p807
sg16
I245
sbag1
(g508
g3
NtRp808
(dp809
g97
Nsg50
S'unused_prefetches'
p810
sg15
Nsg19
g20
sg99
S'int32'
p811
sg16
I245
sbasg16
I245
sg19
g20
sbsg15
Nsg19
Nsg16
Nsg517
Nsbasg16
Nsg19
Nsbsg15
Nsg16
Nsg50
S'Cursor'
p812
sg19
Nsbag1
(g492
g3
NtRp813
(dp814
g89
g1
(g495
g3
NtRp815
(dp816
g10
(lp817
g1
(g499
g3
NtRp818
(dp819
g97
Nsg50
S'CreateObjectStore'
p820
sg503
g1
(g504
g3
NtRp821
(dp822
g10
(lp823
g1
(g508
g3
NtRp824
(dp825
g97
Nsg50
S'transaction_id'
p826
sg15
Nsg19
g20
sg99
S'int64'
p827
sg16
I249
sbag1
(g508
g3
NtRp828
(dp829
g97
Nsg50
S'object_store_id'
p830
sg15
Nsg19
g20
sg99
S'int64'
p831
sg16
I250
sbag1
(g508
g3
NtRp832
(dp833
g97
Nsg50
S'name'
p834
sg15
Nsg19
g20
sg99
S'mojo_base.mojom.String16'
p835
sg16
I251
sbag1
(g508
g3
NtRp836
(dp837
g97
Nsg50
S'key_path'
p838
sg15
Nsg19
g20
sg99
S'KeyPath'
p839
sg16
I252
sbag1
(g508
g3
NtRp840
(dp841
g97
Nsg50
S'auto_increment'
p842
sg15
Nsg19
g20
sg99
S'bool'
p843
sg16
I253
sbasg16
I249
sg19
g20
sbsg15
Nsg19
Nsg16
Nsg517
Nsbag1
(g499
g3
NtRp844
(dp845
g97
Nsg50
S'DeleteObjectStore'
p846
sg503
g1
(g504
g3
NtRp847
(dp848
g10
(lp849
g1
(g508
g3
NtRp850
(dp851
g97
Nsg50
S'transaction_id'
p852
sg15
Nsg19
g20
sg99
S'int64'
p853
sg16
I254
sbag1
(g508
g3
NtRp854
(dp855
g97
Nsg50
S'object_store_id'
p856
sg15
Nsg19
g20
sg99
S'int64'
p857
sg16
I255
sbasg16
I254
sg19
g20
sbsg15
Nsg19
Nsg16
Nsg517
Nsbag1
(g499
g3
NtRp858
(dp859
g97
Nsg50
S'RenameObjectStore'
p860
sg503
g1
(g504
g3
NtRp861
(dp862
g10
(lp863
g1
(g508
g3
NtRp864
(dp865
g97
Nsg50
S'transaction_id'
p866
sg15
Nsg19
g20
sg99
S'int64'
p867
sg16
I256
sbag1
(g508
g3
NtRp868
(dp869
g97
Nsg50
S'object_store_id'
p870
sg15
Nsg19
g20
sg99
S'int64'
p871
sg16
I257
sbag1
(g508
g3
NtRp872
(dp873
g97
Nsg50
S'new_name'
p874
sg15
Nsg19
g20
sg99
S'mojo_base.mojom.String16'
p875
sg16
I258
sbasg16
I256
sg19
g20
sbsg15
Nsg19
Nsg16
Nsg517
Nsbag1
(g499
g3
NtRp876
(dp877
g97
Nsg50
S'CreateTransaction'
p878
sg503
g1
(g504
g3
NtRp879
(dp880
g10
(lp881
g1
(g508
g3
NtRp882
(dp883
g97
Nsg50
S'transaction_id'
p884
sg15
Nsg19
g20
sg99
S'int64'
p885
sg16
I259
sbag1
(g508
g3
NtRp886
(dp887
g97
Nsg50
S'object_store_ids'
p888
sg15
Nsg19
g20
sg99
S'int64[]'
p889
sg16
I260
sbag1
(g508
g3
NtRp890
(dp891
g97
Nsg50
S'mode'
p892
sg15
Nsg19
g20
sg99
S'TransactionMode'
p893
sg16
I261
sbasg16
I259
sg19
g20
sbsg15
Nsg19
Nsg16
Nsg517
Nsbag1
(g499
g3
NtRp894
(dp895
g97
Nsg50
S'Close'
p896
sg503
g1
(g504
g3
NtRp897
(dp898
g10
(lp899
sg16
Nsg19
Nsbsg15
Nsg19
Nsg16
Nsg517
Nsbag1
(g499
g3
NtRp900
(dp901
g97
Nsg50
S'VersionChangeIgnored'
p902
sg503
g1
(g504
g3
NtRp903
(dp904
g10
(lp905
sg16
Nsg19
Nsbsg15
Nsg19
Nsg16
Nsg517
Nsbag1
(g499
g3
NtRp906
(dp907
g97
Nsg50
S'AddObserver'
p908
sg503
g1
(g504
g3
NtRp909
(dp910
g10
(lp911
g1
(g508
g3
NtRp912
(dp913
g97
Nsg50
S'transaction_id'
p914
sg15
Nsg19
g20
sg99
S'int64'
p915
sg16
I264
sbag1
(g508
g3
NtRp916
(dp917
g97
Nsg50
S'observer_id'
p918
sg15
Nsg19
g20
sg99
S'int32'
p919
sg16
I265
sbag1
(g508
g3
NtRp920
(dp921
g97
Nsg50
S'include_transaction'
p922
sg15
Nsg19
g20
sg99
S'bool'
p923
sg16
I266
sbag1
(g508
g3
NtRp924
(dp925
g97
Nsg50
S'no_records'
p926
sg15
Nsg19
g20
sg99
S'bool'
p927
sg16
I267
sbag1
(g508
g3
NtRp928
(dp929
g97
Nsg50
S'values'
p930
sg15
Nsg19
g20
sg99
S'bool'
p931
sg16
I268
sbag1
(g508
g3
NtRp932
(dp933
g97
Nsg50
S'operation_types'
p934
sg15
Nsg19
g20
sg99
S'uint16'
p935
sg16
I269
sbasg16
I264
sg19
g20
sbsg15
Nsg19
Nsg16
Nsg517
Nsbag1
(g499
g3
NtRp936
(dp937
g97
Nsg50
S'RemoveObservers'
p938
sg503
g1
(g504
g3
NtRp939
(dp940
g10
(lp941
g1
(g508
g3
NtRp942
(dp943
g97
Nsg50
S'observers'
p944
sg15
Nsg19
g20
sg99
S'int32[]'
p945
sg16
I270
sbasg16
I270
sg19
g20
sbsg15
Nsg19
Nsg16
Nsg517
Nsbag1
(g499
g3
NtRp946
(dp947
g97
Nsg50
S'Get'
p948
sg503
g1
(g504
g3
NtRp949
(dp950
g10
(lp951
g1
(g508
g3
NtRp952
(dp953
g97
Nsg50
S'transaction_id'
p954
sg15
Nsg19
g20
sg99
S'int64'
p955
sg16
I271
sbag1
(g508
g3
NtRp956
(dp957
g97
Nsg50
S'object_store_id'
p958
sg15
Nsg19
g20
sg99
S'int64'
p959
sg16
I272
sbag1
(g508
g3
NtRp960
(dp961
g97
Nsg50
S'index_id'
p962
sg15
Nsg19
g20
sg99
S'int64'
p963
sg16
I273
sbag1
(g508
g3
NtRp964
(dp965
g97
Nsg50
S'key_range'
p966
sg15
Nsg19
g20
sg99
S'KeyRange'
p967
sg16
I274
sbag1
(g508
g3
NtRp968
(dp969
g97
Nsg50
S'key_only'
p970
sg15
Nsg19
g20
sg99
S'bool'
p971
sg16
I275
sbag1
(g508
g3
NtRp972
(dp973
g97
Nsg50
S'callbacks'
p974
sg15
Nsg19
g20
sg99
S'asso<Callbacks>'
p975
sg16
I276
sbasg16
I271
sg19
g20
sbsg15
Nsg19
Nsg16
Nsg517
Nsbag1
(g499
g3
NtRp976
(dp977
g97
Nsg50
S'GetAll'
p978
sg503
g1
(g504
g3
NtRp979
(dp980
g10
(lp981
g1
(g508
g3
NtRp982
(dp983
g97
Nsg50
S'transaction_id'
p984
sg15
Nsg19
g20
sg99
S'int64'
p985
sg16
I277
sbag1
(g508
g3
NtRp986
(dp987
g97
Nsg50
S'object_store_id'
p988
sg15
Nsg19
g20
sg99
S'int64'
p989
sg16
I278
sbag1
(g508
g3
NtRp990
(dp991
g97
Nsg50
S'index_id'
p992
sg15
Nsg19
g20
sg99
S'int64'
p993
sg16
I279
sbag1
(g508
g3
NtRp994
(dp995
g97
Nsg50
S'key_range'
p996
sg15
Nsg19
g20
sg99
S'KeyRange'
p997
sg16
I280
sbag1
(g508
g3
NtRp998
(dp999
g97
Nsg50
S'key_only'
p1000
sg15
Nsg19
g20
sg99
S'bool'
p1001
sg16
I281
sbag1
(g508
g3
NtRp1002
(dp1003
g97
Nsg50
S'max_count'
p1004
sg15
Nsg19
g20
sg99
S'int64'
p1005
sg16
I282
sbag1
(g508
g3
NtRp1006
(dp1007
g97
Nsg50
S'callbacks'
p1008
sg15
Nsg19
g20
sg99
S'asso<Callbacks>'
p1009
sg16
I283
sbasg16
I277
sg19
g20
sbsg15
Nsg19
Nsg16
Nsg517
Nsbag1
(g499
g3
NtRp1010
(dp1011
g97
Nsg50
S'Put'
p1012
sg503
g1
(g504
g3
NtRp1013
(dp1014
g10
(lp1015
g1
(g508
g3
NtRp1016
(dp1017
g97
Nsg50
S'transaction_id'
p1018
sg15
Nsg19
g20
sg99
S'int64'
p1019
sg16
I284
sbag1
(g508
g3
NtRp1020
(dp1021
g97
Nsg50
S'object_store_id'
p1022
sg15
Nsg19
g20
sg99
S'int64'
p1023
sg16
I285
sbag1
(g508
g3
NtRp1024
(dp1025
g97
Nsg50
S'value'
p1026
sg15
Nsg19
g20
sg99
S'Value'
p1027
sg16
I286
sbag1
(g508
g3
NtRp1028
(dp1029
g97
Nsg50
S'key'
p1030
sg15
Nsg19
g20
sg99
S'Key'
p1031
sg16
I287
sbag1
(g508
g3
NtRp1032
(dp1033
g97
Nsg50
S'mode'
p1034
sg15
Nsg19
g20
sg99
S'PutMode'
p1035
sg16
I288
sbag1
(g508
g3
NtRp1036
(dp1037
g97
Nsg50
S'index_keys'
p1038
sg15
Nsg19
g20
sg99
S'IndexKeys[]'
p1039
sg16
I289
sbag1
(g508
g3
NtRp1040
(dp1041
g97
Nsg50
S'callbacks'
p1042
sg15
Nsg19
g20
sg99
S'asso<Callbacks>'
p1043
sg16
I290
sbasg16
I284
sg19
g20
sbsg15
Nsg19
Nsg16
Nsg517
Nsbag1
(g499
g3
NtRp1044
(dp1045
g97
Nsg50
S'SetIndexKeys'
p1046
sg503
g1
(g504
g3
NtRp1047
(dp1048
g10
(lp1049
g1
(g508
g3
NtRp1050
(dp1051
g97
Nsg50
S'transaction_id'
p1052
sg15
Nsg19
g20
sg99
S'int64'
p1053
sg16
I291
sbag1
(g508
g3
NtRp1054
(dp1055
g97
Nsg50
S'object_store_id'
p1056
sg15
Nsg19
g20
sg99
S'int64'
p1057
sg16
I292
sbag1
(g508
g3
NtRp1058
(dp1059
g97
Nsg50
S'primary_key'
p1060
sg15
Nsg19
g20
sg99
S'Key'
p1061
sg16
I293
sbag1
(g508
g3
NtRp1062
(dp1063
g97
Nsg50
S'index_keys'
p1064
sg15
Nsg19
g20
sg99
S'IndexKeys[]'
p1065
sg16
I294
sbasg16
I291
sg19
g20
sbsg15
Nsg19
Nsg16
Nsg517
Nsbag1
(g499
g3
NtRp1066
(dp1067
g97
Nsg50
S'SetIndexesReady'
p1068
sg503
g1
(g504
g3
NtRp1069
(dp1070
g10
(lp1071
g1
(g508
g3
NtRp1072
(dp1073
g97
Nsg50
S'transaction_id'
p1074
sg15
Nsg19
g20
sg99
S'int64'
p1075
sg16
I295
sbag1
(g508
g3
NtRp1076
(dp1077
g97
Nsg50
S'object_store_id'
p1078
sg15
Nsg19
g20
sg99
S'int64'
p1079
sg16
I296
sbag1
(g508
g3
NtRp1080
(dp1081
g97
Nsg50
S'index_ids'
p1082
sg15
Nsg19
g20
sg99
S'int64[]'
p1083
sg16
I297
sbasg16
I295
sg19
g20
sbsg15
Nsg19
Nsg16
Nsg517
Nsbag1
(g499
g3
NtRp1084
(dp1085
g97
Nsg50
S'OpenCursor'
p1086
sg503
g1
(g504
g3
NtRp1087
(dp1088
g10
(lp1089
g1
(g508
g3
NtRp1090
(dp1091
g97
Nsg50
S'transaction_id'
p1092
sg15
Nsg19
g20
sg99
S'int64'
p1093
sg16
I298
sbag1
(g508
g3
NtRp1094
(dp1095
g97
Nsg50
S'object_store_id'
p1096
sg15
Nsg19
g20
sg99
S'int64'
p1097
sg16
I299
sbag1
(g508
g3
NtRp1098
(dp1099
g97
Nsg50
S'index_id'
p1100
sg15
Nsg19
g20
sg99
S'int64'
p1101
sg16
I300
sbag1
(g508
g3
NtRp1102
(dp1103
g97
Nsg50
S'key_range'
p1104
sg15
Nsg19
g20
sg99
S'KeyRange'
p1105
sg16
I301
sbag1
(g508
g3
NtRp1106
(dp1107
g97
Nsg50
S'direction'
p1108
sg15
Nsg19
g20
sg99
S'CursorDirection'
p1109
sg16
I302
sbag1
(g508
g3
NtRp1110
(dp1111
g97
Nsg50
S'key_only'
p1112
sg15
Nsg19
g20
sg99
S'bool'
p1113
sg16
I303
sbag1
(g508
g3
NtRp1114
(dp1115
g97
Nsg50
S'task_type'
p1116
sg15
Nsg19
g20
sg99
S'TaskType'
p1117
sg16
I304
sbag1
(g508
g3
NtRp1118
(dp1119
g97
Nsg50
S'callbacks'
p1120
sg15
Nsg19
g20
sg99
S'asso<Callbacks>'
p1121
sg16
I305
sbasg16
I298
sg19
g20
sbsg15
Nsg19
Nsg16
Nsg517
Nsbag1
(g499
g3
NtRp1122
(dp1123
g97
Nsg50
S'Count'
p1124
sg503
g1
(g504
g3
NtRp1125
(dp1126
g10
(lp1127
g1
(g508
g3
NtRp1128
(dp1129
g97
Nsg50
S'transaction_id'
p1130
sg15
Nsg19
g20
sg99
S'int64'
p1131
sg16
I306
sbag1
(g508
g3
NtRp1132
(dp1133
g97
Nsg50
S'object_store_id'
p1134
sg15
Nsg19
g20
sg99
S'int64'
p1135
sg16
I307
sbag1
(g508
g3
NtRp1136
(dp1137
g97
Nsg50
S'index_id'
p1138
sg15
Nsg19
g20
sg99
S'int64'
p1139
sg16
I308
sbag1
(g508
g3
NtRp1140
(dp1141
g97
Nsg50
S'key_range'
p1142
sg15
Nsg19
g20
sg99
S'KeyRange'
p1143
sg16
I309
sbag1
(g508
g3
NtRp1144
(dp1145
g97
Nsg50
S'callbacks'
p1146
sg15
Nsg19
g20
sg99
S'asso<Callbacks>'
p1147
sg16
I310
sbasg16
I306
sg19
g20
sbsg15
Nsg19
Nsg16
Nsg517
Nsbag1
(g499
g3
NtRp1148
(dp1149
g97
Nsg50
S'DeleteRange'
p1150
sg503
g1
(g504
g3
NtRp1151
(dp1152
g10
(lp1153
g1
(g508
g3
NtRp1154
(dp1155
g97
Nsg50
S'transaction_id'
p1156
sg15
Nsg19
g20
sg99
S'int64'
p1157
sg16
I311
sbag1
(g508
g3
NtRp1158
(dp1159
g97
Nsg50
S'object_store_id'
p1160
sg15
Nsg19
g20
sg99
S'int64'
p1161
sg16
I312
sbag1
(g508
g3
NtRp1162
(dp1163
g97
Nsg50
S'key_range'
p1164
sg15
Nsg19
g20
sg99
S'KeyRange'
p1165
sg16
I313
sbag1
(g508
g3
NtRp1166
(dp1167
g97
Nsg50
S'callbacks'
p1168
sg15
Nsg19
g20
sg99
S'asso<Callbacks>'
p1169
sg16
I314
sbasg16
I311
sg19
g20
sbsg15
Nsg19
Nsg16
Nsg517
Nsbag1
(g499
g3
NtRp1170
(dp1171
g97
Nsg50
S'Clear'
p1172
sg503
g1
(g504
g3
NtRp1173
(dp1174
g10
(lp1175
g1
(g508
g3
NtRp1176
(dp1177
g97
Nsg50
S'transaction_id'
p1178
sg15
Nsg19
g20
sg99
S'int64'
p1179
sg16
I315
sbag1
(g508
g3
NtRp1180
(dp1181
g97
Nsg50
S'object_store_id'
p1182
sg15
Nsg19
g20
sg99
S'int64'
p1183
sg16
I316
sbag1
(g508
g3
NtRp1184
(dp1185
g97
Nsg50
S'callbacks'
p1186
sg15
Nsg19
g20
sg99
S'asso<Callbacks>'
p1187
sg16
I317
sbasg16
I315
sg19
g20
sbsg15
Nsg19
Nsg16
Nsg517
Nsbag1
(g499
g3
NtRp1188
(dp1189
g97
Nsg50
S'CreateIndex'
p1190
sg503
g1
(g504
g3
NtRp1191
(dp1192
g10
(lp1193
g1
(g508
g3
NtRp1194
(dp1195
g97
Nsg50
S'transaction_id'
p1196
sg15
Nsg19
g20
sg99
S'int64'
p1197
sg16
I318
sbag1
(g508
g3
NtRp1198
(dp1199
g97
Nsg50
S'object_store_id'
p1200
sg15
Nsg19
g20
sg99
S'int64'
p1201
sg16
I319
sbag1
(g508
g3
NtRp1202
(dp1203
g97
Nsg50
S'index_id'
p1204
sg15
Nsg19
g20
sg99
S'int64'
p1205
sg16
I320
sbag1
(g508
g3
NtRp1206
(dp1207
g97
Nsg50
S'name'
p1208
sg15
Nsg19
g20
sg99
S'mojo_base.mojom.String16'
p1209
sg16
I321
sbag1
(g508
g3
NtRp1210
(dp1211
g97
Nsg50
S'key_path'
p1212
sg15
Nsg19
g20
sg99
S'KeyPath'
p1213
sg16
I322
sbag1
(g508
g3
NtRp1214
(dp1215
g97
Nsg50
S'unique'
p1216
sg15
Nsg19
g20
sg99
S'bool'
p1217
sg16
I323
sbag1
(g508
g3
NtRp1218
(dp1219
g97
Nsg50
S'multi_entry'
p1220
sg15
Nsg19
g20
sg99
S'bool'
p1221
sg16
I324
sbasg16
I318
sg19
g20
sbsg15
Nsg19
Nsg16
Nsg517
Nsbag1
(g499
g3
NtRp1222
(dp1223
g97
Nsg50
S'DeleteIndex'
p1224
sg503
g1
(g504
g3
NtRp1225
(dp1226
g10
(lp1227
g1
(g508
g3
NtRp1228
(dp1229
g97
Nsg50
S'transaction_id'
p1230
sg15
Nsg19
g20
sg99
S'int64'
p1231
sg16
I325
sbag1
(g508
g3
NtRp1232
(dp1233
g97
Nsg50
S'object_store_id'
p1234
sg15
Nsg19
g20
sg99
S'int64'
p1235
sg16
I326
sbag1
(g508
g3
NtRp1236
(dp1237
g97
Nsg50
S'index_id'
p1238
sg15
Nsg19
g20
sg99
S'int64'
p1239
sg16
I327
sbasg16
I325
sg19
g20
sbsg15
Nsg19
Nsg16
Nsg517
Nsbag1
(g499
g3
NtRp1240
(dp1241
g97
Nsg50
S'RenameIndex'
p1242
sg503
g1
(g504
g3
NtRp1243
(dp1244
g10
(lp1245
g1
(g508
g3
NtRp1246
(dp1247
g97
Nsg50
S'transaction_id'
p1248
sg15
Nsg19
g20
sg99
S'int64'
p1249
sg16
I328
sbag1
(g508
g3
NtRp1250
(dp1251
g97
Nsg50
S'object_store_id'
p1252
sg15
Nsg19
g20
sg99
S'int64'
p1253
sg16
I329
sbag1
(g508
g3
NtRp1254
(dp1255
g97
Nsg50
S'index_id'
p1256
sg15
Nsg19
g20
sg99
S'int64'
p1257
sg16
I330
sbag1
(g508
g3
NtRp1258
(dp1259
g97
Nsg50
S'new_name'
p1260
sg15
Nsg19
g20
sg99
S'mojo_base.mojom.String16'
p1261
sg16
I331
sbasg16
I328
sg19
g20
sbsg15
Nsg19
Nsg16
Nsg517
Nsbag1
(g499
g3
NtRp1262
(dp1263
g97
Nsg50
S'Abort'
p1264
sg503
g1
(g504
g3
NtRp1265
(dp1266
g10
(lp1267
g1
(g508
g3
NtRp1268
(dp1269
g97
Nsg50
S'transaction_id'
p1270
sg15
Nsg19
g20
sg99
S'int64'
p1271
sg16
I332
sbasg16
I332
sg19
g20
sbsg15
Nsg19
Nsg16
Nsg517
Nsbag1
(g499
g3
NtRp1272
(dp1273
g97
Nsg50
S'Commit'
p1274
sg503
g1
(g504
g3
NtRp1275
(dp1276
g10
(lp1277
g1
(g508
g3
NtRp1278
(dp1279
g97
Nsg50
S'transaction_id'
p1280
sg15
Nsg19
g20
sg99
S'int64'
p1281
sg16
I333
sbasg16
I333
sg19
g20
sbsg15
Nsg19
Nsg16
Nsg517
Nsbasg16
Nsg19
Nsbsg15
Nsg16
Nsg50
S'Database'
p1282
sg19
Nsbag1
(g492
g3
NtRp1283
(dp1284
g89
g1
(g495
g3
NtRp1285
(dp1286
g10
(lp1287
g1
(g499
g3
NtRp1288
(dp1289
g97
Nsg50
S'GetDatabaseNames'
p1290
sg503
g1
(g504
g3
NtRp1291
(dp1292
g10
(lp1293
g1
(g508
g3
NtRp1294
(dp1295
g97
Nsg50
S'callbacks'
p1296
sg15
Nsg19
g20
sg99
S'asso<Callbacks>'
p1297
sg16
I337
sbag1
(g508
g3
NtRp1298
(dp1299
g97
Nsg50
S'origin'
p1300
sg15
Nsg19
g20
sg99
S'url.mojom.Origin'
p1301
sg16
I337
sbasg16
I337
sg19
g20
sbsg15
Nsg19
Nsg16
Nsg517
Nsbag1
(g499
g3
NtRp1302
(dp1303
g97
Nsg50
S'Open'
p1304
sg503
g1
(g504
g3
NtRp1305
(dp1306
g10
(lp1307
g1
(g508
g3
NtRp1308
(dp1309
g97
Nsg50
S'callbacks'
p1310
sg15
Nsg19
g20
sg99
S'asso<Callbacks>'
p1311
sg16
I338
sbag1
(g508
g3
NtRp1312
(dp1313
g97
Nsg50
S'database_callbacks'
p1314
sg15
Nsg19
g20
sg99
S'asso<DatabaseCallbacks>'
p1315
sg16
I339
sbag1
(g508
g3
NtRp1316
(dp1317
g97
Nsg50
S'origin'
p1318
sg15
Nsg19
g20
sg99
S'url.mojom.Origin'
p1319
sg16
I339
sbag1
(g508
g3
NtRp1320
(dp1321
g97
Nsg50
S'name'
p1322
sg15
Nsg19
g20
sg99
S'mojo_base.mojom.String16'
p1323
sg16
I340
sbag1
(g508
g3
NtRp1324
(dp1325
g97
Nsg50
S'version'
p1326
sg15
Nsg19
g20
sg99
S'int64'
p1327
sg16
I340
sbag1
(g508
g3
NtRp1328
(dp1329
g97
Nsg50
S'transaction_id'
p1330
sg15
Nsg19
g20
sg99
S'int64'
p1331
sg16
I340
sbasg16
I338
sg19
g20
sbsg15
Nsg19
Nsg16
Nsg517
Nsbag1
(g499
g3
NtRp1332
(dp1333
g97
Nsg50
S'DeleteDatabase'
p1334
sg503
g1
(g504
g3
NtRp1335
(dp1336
g10
(lp1337
g1
(g508
g3
NtRp1338
(dp1339
g97
Nsg50
S'callbacks'
p1340
sg15
Nsg19
g20
sg99
S'asso<Callbacks>'
p1341
sg16
I341
sbag1
(g508
g3
NtRp1342
(dp1343
g97
Nsg50
S'origin'
p1344
sg15
Nsg19
g20
sg99
S'url.mojom.Origin'
p1345
sg16
I341
sbag1
(g508
g3
NtRp1346
(dp1347
g97
Nsg50
S'name'
p1348
sg15
Nsg19
g20
sg99
S'mojo_base.mojom.String16'
p1349
sg16
I342
sbag1
(g508
g3
NtRp1350
(dp1351
g97
Nsg50
S'force_close'
p1352
sg15
Nsg19
g20
sg99
S'bool'
p1353
sg16
I342
sbasg16
I341
sg19
g20
sbsg15
Nsg19
Nsg16
Nsg517
Nsbag1
(g499
g3
NtRp1354
(dp1355
g97
Nsg50
S'AbortTransactionsAndCompactDatabase'
p1356
sg503
g1
(g504
g3
NtRp1357
(dp1358
g10
(lp1359
g1
(g508
g3
NtRp1360
(dp1361
g97
Nsg50
S'origin'
p1362
sg15
Nsg19
g20
sg99
S'url.mojom.Origin'
p1363
sg16
I343
sbasg16
I343
sg19
g20
sbsg15
Nsg19
Nsg16
Nsg517
g1
(g504
g3
NtRp1364
(dp1365
g10
(lp1366
g1
(g508
g3
NtRp1367
(dp1368
g97
Nsg50
S'status'
p1369
sg15
Nsg19
g20
sg99
S'Status'
p1370
sg16
I343
sbasg16
I343
sg19
g20
sbsbag1
(g499
g3
NtRp1371
(dp1372
g97
Nsg50
S'AbortTransactionsForDatabase'
p1373
sg503
g1
(g504
g3
NtRp1374
(dp1375
g10
(lp1376
g1
(g508
g3
NtRp1377
(dp1378
g97
Nsg50
S'origin'
p1379
sg15
Nsg19
g20
sg99
S'url.mojom.Origin'
p1380
sg16
I344
sbasg16
I344
sg19
g20
sbsg15
Nsg19
Nsg16
Nsg517
g1
(g504
g3
NtRp1381
(dp1382
g10
(lp1383
g1
(g508
g3
NtRp1384
(dp1385
g97
Nsg50
S'status'
p1386
sg15
Nsg19
g20
sg99
S'Status'
p1387
sg16
I344
sbasg16
I344
sg19
g20
sbsbasg16
Nsg19
Nsbsg15
Nsg16
Nsg50
S'Factory'
p1388
sg19
Nsbasg16
NsS'module'
p1389
g1
(cmojom.parse.ast
Module
p1390
g3
NtRp1391
(dp1392
S'mojom_namespace'
p1393
(S'IDENTIFIER'
p1394
S'indexed_db.mojom'
tp1395
sg16
I9
sg15
Nsg19
g20
sbsg19
Nsb.