ccopy_reg
_reconstructor
p1
(cmojom.parse.ast
Mojom
p2
c__builtin__
object
p3
NtRp4
(dp5
S'import_list'
p6
g1
(cmojom.parse.ast
ImportList
p7
g3
NtRp8
(dp9
S'items'
p10
(lp11
sS'lineno'
p12
NsS'filename'
p13
NsbsS'definition_list'
p14
(lp15
g1
(cmojom.parse.ast
Struct
p16
g3
NtRp17
(dp18
S'body'
p19
g1
(cmojom.parse.ast
StructBody
p20
g3
NtRp21
(dp22
g10
(lp23
g1
(cmojom.parse.ast
StructField
p24
g3
NtRp25
(dp26
S'ordinal'
p27
NsS'default_value'
p28
NsS'mojom_name'
p29
S'x'
sS'attribute_list'
p30
Nsg13
NsS'typename'
p31
S'float'
p32
sg12
Nsbag1
(g24
g3
NtRp33
(dp34
g27
Nsg28
Nsg29
S'y'
sg30
Nsg13
Nsg31
S'float'
p35
sg12
Nsbag1
(g24
g3
NtRp36
(dp37
g27
Nsg28
Nsg29
S'z'
sg30
Nsg13
Nsg31
S'float'
p38
sg12
Nsbag1
(g24
g3
NtRp39
(dp40
g27
Nsg28
Nsg29
S'w'
sg30
Nsg13
Nsg31
S'float'
p41
sg12
Nsbasg12
Nsg13
Nsbsg30
Nsg12
Nsg29
S'GamepadQuaternion'
p42
sg13
Nsbag1
(g16
g3
NtRp43
(dp44
g19
g1
(g20
g3
NtRp45
(dp46
g10
(lp47
g1
(g24
g3
NtRp48
(dp49
g27
Nsg28
Nsg29
S'x'
sg30
Nsg13
Nsg31
S'float'
p50
sg12
Nsbag1
(g24
g3
NtRp51
(dp52
g27
Nsg28
Nsg29
S'y'
sg30
Nsg13
Nsg31
S'float'
p53
sg12
Nsbag1
(g24
g3
NtRp54
(dp55
g27
Nsg28
Nsg29
S'z'
sg30
Nsg13
Nsg31
S'float'
p56
sg12
Nsbasg12
Nsg13
Nsbsg30
Nsg12
Nsg29
S'GamepadVector'
p57
sg13
Nsbag1
(g16
g3
NtRp58
(dp59
g19
g1
(g20
g3
NtRp60
(dp61
g10
(lp62
g1
(g24
g3
NtRp63
(dp64
g27
Nsg28
Nsg29
S'pressed'
p65
sg30
Nsg13
Nsg31
S'bool'
p66
sg12
Nsbag1
(g24
g3
NtRp67
(dp68
g27
Nsg28
Nsg29
S'touched'
p69
sg30
Nsg13
Nsg31
S'bool'
p70
sg12
Nsbag1
(g24
g3
NtRp71
(dp72
g27
Nsg28
Nsg29
S'value'
p73
sg30
Nsg13
Nsg31
S'double'
p74
sg12
Nsbasg12
Nsg13
Nsbsg30
Nsg12
Nsg29
S'GamepadButton'
p75
sg13
Nsbag1
(g16
g3
NtRp76
(dp77
g19
g1
(g20
g3
NtRp78
(dp79
g10
(lp80
g1
(g24
g3
NtRp81
(dp82
g27
Nsg28
Nsg29
S'orientation'
p83
sg30
Nsg13
Nsg31
S'GamepadQuaternion?'
p84
sg12
Nsbag1
(g24
g3
NtRp85
(dp86
g27
Nsg28
Nsg29
S'position'
p87
sg30
Nsg13
Nsg31
S'GamepadVector?'
p88
sg12
Nsbag1
(g24
g3
NtRp89
(dp90
g27
Nsg28
Nsg29
S'angular_velocity'
p91
sg30
Nsg13
Nsg31
S'GamepadVector?'
p92
sg12
Nsbag1
(g24
g3
NtRp93
(dp94
g27
Nsg28
Nsg29
S'linear_velocity'
p95
sg30
Nsg13
Nsg31
S'GamepadVector?'
p96
sg12
Nsbag1
(g24
g3
NtRp97
(dp98
g27
Nsg28
Nsg29
S'angular_acceleration'
p99
sg30
Nsg13
Nsg31
S'GamepadVector?'
p100
sg12
Nsbag1
(g24
g3
NtRp101
(dp102
g27
Nsg28
Nsg29
S'linear_acceleration'
p103
sg30
Nsg13
Nsg31
S'GamepadVector?'
p104
sg12
Nsbasg12
Nsg13
Nsbsg30
Nsg12
Nsg29
S'GamepadPose'
p105
sg13
Nsbag1
(cmojom.parse.ast
Enum
p106
g3
NtRp107
(dp108
g30
NsS'enum_value_list'
p109
g1
(cmojom.parse.ast
EnumValueList
p110
g3
NtRp111
(dp112
g10
(lp113
g1
(cmojom.parse.ast
EnumValue
p114
g3
NtRp115
(dp116
g30
NsS'value'
p117
S'0'
sg12
I36
sg29
S'GamepadHandNone'
p118
sg13
S'../../device/gamepad/public/mojom/gamepad.mojom'
p119
sbag1
(g114
g3
NtRp120
(dp121
g30
Nsg117
S'1'
sg12
I37
sg29
S'GamepadHandLeft'
p122
sg13
g119
sbag1
(g114
g3
NtRp123
(dp124
g30
Nsg117
S'2'
sg12
I38
sg29
S'GamepadHandRight'
p125
sg13
g119
sbasg12
I36
sg13
g119
sbsg12
I35
sg29
S'GamepadHand'
p126
sg13
g119
sbag1
(g106
g3
NtRp127
(dp128
g30
Nsg109
g1
(g110
g3
NtRp129
(dp130
g10
(lp131
g1
(g114
g3
NtRp132
(dp133
g30
Nsg117
S'0'
sg12
I42
sg29
S'GamepadHapticActuatorTypeVibration'
p134
sg13
g119
sbag1
(g114
g3
NtRp135
(dp136
g30
Nsg117
S'1'
sg12
I43
sg29
S'GamepadHapticActuatorTypeDualRumble'
p137
sg13
g119
sbasg12
I42
sg13
g119
sbsg12
I41
sg29
S'GamepadHapticActuatorType'
p138
sg13
g119
sbag1
(g106
g3
NtRp139
(dp140
g30
Nsg109
g1
(g110
g3
NtRp141
(dp142
g10
(lp143
g1
(g114
g3
NtRp144
(dp145
g30
Nsg117
S'0'
sg12
I47
sg29
S'GamepadHapticEffectTypeDualRumble'
p146
sg13
g119
sbasg12
I47
sg13
g119
sbsg12
I46
sg29
S'GamepadHapticEffectType'
p147
sg13
g119
sbag1
(g16
g3
NtRp148
(dp149
g19
g1
(g20
g3
NtRp150
(dp151
g10
(lp152
g1
(g24
g3
NtRp153
(dp154
g27
Nsg28
Nsg29
S'type'
p155
sg30
Nsg13
Nsg31
S'GamepadHapticActuatorType'
p156
sg12
Nsbasg12
Nsg13
Nsbsg30
Nsg12
Nsg29
S'GamepadHapticActuator'
p157
sg13
Nsbag1
(g16
g3
NtRp158
(dp159
g19
g1
(g20
g3
NtRp160
(dp161
g10
(lp162
g1
(g24
g3
NtRp163
(dp164
g27
Nsg28
Nsg29
S'connected'
p165
sg30
Nsg13
Nsg31
S'bool'
p166
sg12
Nsbag1
(g24
g3
NtRp167
(dp168
g27
Nsg28
Nsg29
S'id'
p169
sg30
Nsg13
Nsg31
S'uint16[]'
p170
sg12
Nsbag1
(g24
g3
NtRp171
(dp172
g27
Nsg28
Nsg29
S'timestamp'
p173
sg30
Nsg13
Nsg31
S'uint64'
p174
sg12
Nsbag1
(g24
g3
NtRp175
(dp176
g27
Nsg28
Nsg29
S'axes'
p177
sg30
Nsg13
Nsg31
S'double[]'
p178
sg12
Nsbag1
(g24
g3
NtRp179
(dp180
g27
Nsg28
Nsg29
S'buttons'
p181
sg30
Nsg13
Nsg31
S'GamepadButton[]'
p182
sg12
Nsbag1
(g24
g3
NtRp183
(dp184
g27
Nsg28
Nsg29
S'vibration_actuator'
p185
sg30
Nsg13
Nsg31
S'GamepadHapticActuator?'
p186
sg12
Nsbag1
(g24
g3
NtRp187
(dp188
g27
Nsg28
Nsg29
S'mapping'
p189
sg30
Nsg13
Nsg31
S'uint16[]'
p190
sg12
Nsbag1
(g24
g3
NtRp191
(dp192
g27
Nsg28
Nsg29
S'pose'
p193
sg30
Nsg13
Nsg31
S'GamepadPose?'
p194
sg12
Nsbag1
(g24
g3
NtRp195
(dp196
g27
Nsg28
Nsg29
S'hand'
p197
sg30
Nsg13
Nsg31
S'GamepadHand'
p198
sg12
Nsbag1
(g24
g3
NtRp199
(dp200
g27
Nsg28
Nsg29
S'display_id'
p201
sg30
Nsg13
Nsg31
S'uint32'
p202
sg12
Nsbasg12
Nsg13
Nsbsg30
Nsg12
Nsg29
S'Gamepad'
p203
sg13
Nsbag1
(cmojom.parse.ast
Interface
p204
g3
NtRp205
(dp206
g19
g1
(cmojom.parse.ast
InterfaceBody
p207
g3
NtRp208
(dp209
g10
(lp210
g1
(cmojom.parse.ast
Method
p211
g3
NtRp212
(dp213
g27
Nsg29
S'GamepadConnected'
p214
sS'parameter_list'
p215
g1
(cmojom.parse.ast
ParameterList
p216
g3
NtRp217
(dp218
g10
(lp219
g1
(cmojom.parse.ast
Parameter
p220
g3
NtRp221
(dp222
g27
Nsg29
S'index'
p223
sg30
Nsg13
g119
sg31
S'int32'
p224
sg12
I68
sbag1
(g220
g3
NtRp225
(dp226
g27
Nsg29
S'gamepad'
p227
sg30
Nsg13
g119
sg31
S'Gamepad'
p228
sg12
I68
sbasg12
I68
sg13
g119
sbsg30
Nsg13
Nsg12
NsS'response_parameter_list'
p229
Nsbag1
(g211
g3
NtRp230
(dp231
g27
Nsg29
S'GamepadDisconnected'
p232
sg215
g1
(g216
g3
NtRp233
(dp234
g10
(lp235
g1
(g220
g3
NtRp236
(dp237
g27
Nsg29
S'index'
p238
sg30
Nsg13
g119
sg31
S'int32'
p239
sg12
I69
sbag1
(g220
g3
NtRp240
(dp241
g27
Nsg29
S'gamepad'
p242
sg30
Nsg13
g119
sg31
S'Gamepad'
p243
sg12
I69
sbasg12
I69
sg13
g119
sbsg30
Nsg13
Nsg12
Nsg229
Nsbasg12
Nsg13
Nsbsg30
Nsg12
Nsg29
S'GamepadObserver'
p244
sg13
Nsbag1
(g204
g3
NtRp245
(dp246
g19
g1
(g207
g3
NtRp247
(dp248
g10
(lp249
g1
(g211
g3
NtRp250
(dp251
g27
Nsg29
S'GamepadStartPolling'
p252
sg215
g1
(g216
g3
NtRp253
(dp254
g10
(lp255
sg12
Nsg13
Nsbsg30
g1
(cmojom.parse.ast
AttributeList
p256
g3
NtRp257
(dp258
g10
(lp259
g1
(cmojom.parse.ast
Attribute
p260
g3
NtRp261
(dp262
g117
I01
sg12
I77
sS'key'
p263
S'Sync'
p264
sg13
g119
sbasg12
I77
sg13
g119
sbsg13
Nsg12
Nsg229
g1
(g216
g3
NtRp265
(dp266
g10
(lp267
g1
(g220
g3
NtRp268
(dp269
g27
Nsg29
S'memory_handle'
p270
sg30
Nsg13
g119
sg31
S'handle<shared_buffer>'
p271
sg12
I78
sbasg12
I78
sg13
g119
sbsbag1
(g211
g3
NtRp272
(dp273
g27
Nsg29
S'GamepadStopPolling'
p274
sg215
g1
(g216
g3
NtRp275
(dp276
g10
(lp277
sg12
Nsg13
Nsbsg30
g1
(g256
g3
NtRp278
(dp279
g10
(lp280
g1
(g260
g3
NtRp281
(dp282
g117
I01
sg12
I80
sg263
S'Sync'
p283
sg13
g119
sbasg12
I80
sg13
g119
sbsg13
Nsg12
Nsg229
g1
(g216
g3
NtRp284
(dp285
g10
(lp286
sg12
Nsg13
Nsbsbag1
(g211
g3
NtRp287
(dp288
g27
Nsg29
S'SetObserver'
p289
sg215
g1
(g216
g3
NtRp290
(dp291
g10
(lp292
g1
(g220
g3
NtRp293
(dp294
g27
Nsg29
S'gamepad_observer'
p295
sg30
Nsg13
g119
sg31
S'GamepadObserver'
p296
sg12
I83
sbasg12
I83
sg13
g119
sbsg30
Nsg13
Nsg12
Nsg229
Nsbasg12
Nsg13
Nsbsg30
Nsg12
Nsg29
S'GamepadMonitor'
p297
sg13
Nsbag1
(g16
g3
NtRp298
(dp299
g19
g1
(g20
g3
NtRp300
(dp301
g10
(lp302
g1
(g24
g3
NtRp303
(dp304
g27
Nsg28
Nsg29
S'duration'
p305
sg30
Nsg13
Nsg31
S'double'
p306
sg12
Nsbag1
(g24
g3
NtRp307
(dp308
g27
Nsg28
Nsg29
S'start_delay'
p309
sg30
Nsg13
Nsg31
S'double'
p310
sg12
Nsbag1
(g24
g3
NtRp311
(dp312
g27
Nsg28
Nsg29
S'strong_magnitude'
p313
sg30
Nsg13
Nsg31
S'double'
p314
sg12
Nsbag1
(g24
g3
NtRp315
(dp316
g27
Nsg28
Nsg29
S'weak_magnitude'
p317
sg30
Nsg13
Nsg31
S'double'
p318
sg12
Nsbasg12
Nsg13
Nsbsg30
Nsg12
Nsg29
S'GamepadEffectParameters'
p319
sg13
Nsbag1
(g106
g3
NtRp320
(dp321
g30
Nsg109
g1
(g110
g3
NtRp322
(dp323
g10
(lp324
g1
(g114
g3
NtRp325
(dp326
g30
Nsg117
S'0'
sg12
I94
sg29
S'GamepadHapticsResultError'
p327
sg13
g119
sbag1
(g114
g3
NtRp328
(dp329
g30
Nsg117
S'1'
sg12
I95
sg29
S'GamepadHapticsResultComplete'
p330
sg13
g119
sbag1
(g114
g3
NtRp331
(dp332
g30
Nsg117
S'2'
sg12
I96
sg29
S'GamepadHapticsResultPreempted'
p333
sg13
g119
sbag1
(g114
g3
NtRp334
(dp335
g30
Nsg117
S'3'
sg12
I97
sg29
S'GamepadHapticsResultInvalidParameter'
p336
sg13
g119
sbag1
(g114
g3
NtRp337
(dp338
g30
Nsg117
S'4'
sg12
I98
sg29
S'GamepadHapticsResultNotSupported'
p339
sg13
g119
sbasg12
I94
sg13
g119
sbsg12
I93
sg29
S'GamepadHapticsResult'
p340
sg13
g119
sbag1
(g204
g3
NtRp341
(dp342
g19
g1
(g207
g3
NtRp343
(dp344
g10
(lp345
g1
(g211
g3
NtRp346
(dp347
g27
Nsg29
S'PlayVibrationEffectOnce'
p348
sg215
g1
(g216
g3
NtRp349
(dp350
g10
(lp351
g1
(g220
g3
NtRp352
(dp353
g27
Nsg29
S'pad_index'
p354
sg30
Nsg13
g119
sg31
S'int32'
p355
sg12
I102
sbag1
(g220
g3
NtRp356
(dp357
g27
Nsg29
S'type'
p358
sg30
Nsg13
g119
sg31
S'GamepadHapticEffectType'
p359
sg12
I103
sbag1
(g220
g3
NtRp360
(dp361
g27
Nsg29
S'params'
p362
sg30
Nsg13
g119
sg31
S'GamepadEffectParameters'
p363
sg12
I104
sbasg12
I102
sg13
g119
sbsg30
Nsg13
Nsg12
Nsg229
g1
(g216
g3
NtRp364
(dp365
g10
(lp366
g1
(g220
g3
NtRp367
(dp368
g27
Nsg29
S'result'
p369
sg30
Nsg13
g119
sg31
S'GamepadHapticsResult'
p370
sg12
I105
sbasg12
I105
sg13
g119
sbsbag1
(g211
g3
NtRp371
(dp372
g27
Nsg29
S'ResetVibrationActuator'
p373
sg215
g1
(g216
g3
NtRp374
(dp375
g10
(lp376
g1
(g220
g3
NtRp377
(dp378
g27
Nsg29
S'pad_index'
p379
sg30
Nsg13
g119
sg31
S'int32'
p380
sg12
I106
sbasg12
I106
sg13
g119
sbsg30
Nsg13
Nsg12
Nsg229
g1
(g216
g3
NtRp381
(dp382
g10
(lp383
g1
(g220
g3
NtRp384
(dp385
g27
Nsg29
S'result'
p386
sg30
Nsg13
g119
sg31
S'GamepadHapticsResult'
p387
sg12
I106
sbasg12
I106
sg13
g119
sbsbasg12
Nsg13
Nsbsg30
Nsg12
Nsg29
S'GamepadHapticsManager'
p388
sg13
Nsbasg12
NsS'module'
p389
g1
(cmojom.parse.ast
Module
p390
g3
NtRp391
(dp392
S'mojom_namespace'
p393
(S'IDENTIFIER'
p394
S'device.mojom'
tp395
sg12
I5
sg30
Nsg13
g119
sbsg13
Nsb.