ccopy_reg
_reconstructor
p1
(cmojom.parse.ast
Mojom
p2
c__builtin__
object
p3
NtRp4
(dp5
S'import_list'
p6
g1
(cmojom.parse.ast
ImportList
p7
g3
NtRp8
(dp9
S'items'
p10
(lp11
g1
(cmojom.parse.ast
Import
p12
g3
NtRp13
(dp14
S'attribute_list'
p15
NsS'lineno'
p16
I7
sS'import_filename'
p17
S'mojo/public/mojom/base/string16.mojom'
p18
sS'filename'
p19
S'../../chrome/common/chrome_render_frame.mojom'
p20
sbag1
(g12
g3
NtRp21
(dp22
g15
Nsg16
I8
sg17
S'third_party/blink/public/web/window_features.mojom'
p23
sg19
g20
sbag1
(g12
g3
NtRp24
(dp25
g15
Nsg16
I9
sg17
S'ui/gfx/geometry/mojo/geometry.mojom'
p26
sg19
g20
sbasg16
I7
sg19
g20
sbsS'definition_list'
p27
(lp28
g1
(cmojom.parse.ast
Enum
p29
g3
NtRp30
(dp31
g15
NsS'enum_value_list'
p32
g1
(cmojom.parse.ast
EnumValueList
p33
g3
NtRp34
(dp35
g10
(lp36
g1
(cmojom.parse.ast
EnumValue
p37
g3
NtRp38
(dp39
g15
NsS'value'
p40
Nsg16
I12
sS'mojom_name'
p41
S'JPEG'
p42
sg19
g20
sbag1
(g37
g3
NtRp43
(dp44
g15
Nsg40
Nsg16
I13
sg41
S'PNG'
p45
sg19
g20
sbasg16
I12
sg19
g20
sbsg16
I11
sg41
S'ImageFormat'
p46
sg19
g20
sbag1
(g29
g3
NtRp47
(dp48
g15
g1
(cmojom.parse.ast
AttributeList
p49
g3
NtRp50
(dp51
g10
(lp52
g1
(cmojom.parse.ast
Attribute
p53
g3
NtRp54
(dp55
g40
I01
sg16
I16
sS'key'
p56
S'Native'
p57
sg19
g20
sbasg16
I16
sg19
g20
sbsg32
Nsg16
I17
sg41
S'BrowserControlsState'
p58
sg19
g20
sbag1
(cmojom.parse.ast
Struct
p59
g3
NtRp60
(dp61
S'body'
p62
Nsg15
g1
(g49
g3
NtRp63
(dp64
g10
(lp65
g1
(g53
g3
NtRp66
(dp67
g40
I01
sg16
I19
sg56
S'Native'
p68
sg19
g20
sbasg16
I19
sg19
g20
sbsg16
Nsg41
S'WebApplicationInfo'
p69
sg19
Nsbag1
(cmojom.parse.ast
Interface
p70
g3
NtRp71
(dp72
g62
g1
(cmojom.parse.ast
InterfaceBody
p73
g3
NtRp74
(dp75
g10
(lp76
g1
(cmojom.parse.ast
Method
p77
g3
NtRp78
(dp79
S'ordinal'
p80
Nsg41
S'SetWindowFeatures'
p81
sS'parameter_list'
p82
g1
(cmojom.parse.ast
ParameterList
p83
g3
NtRp84
(dp85
g10
(lp86
g1
(cmojom.parse.ast
Parameter
p87
g3
NtRp88
(dp89
g80
Nsg41
S'window_features'
p90
sg15
Nsg19
g20
sS'typename'
p91
S'blink.mojom.WindowFeatures'
p92
sg16
I26
sbasg16
I26
sg19
g20
sbsg15
Nsg19
Nsg16
NsS'response_parameter_list'
p93
Nsbag1
(g77
g3
NtRp94
(dp95
g80
Nsg41
S'RequestReloadImageForContextNode'
p96
sg82
g1
(g83
g3
NtRp97
(dp98
g10
(lp99
sg16
Nsg19
Nsbsg15
Nsg19
Nsg16
Nsg93
Nsbag1
(g77
g3
NtRp100
(dp101
g80
Nsg41
S'RequestThumbnailForContextNode'
p102
sg82
g1
(g83
g3
NtRp103
(dp104
g10
(lp105
g1
(g87
g3
NtRp106
(dp107
g80
Nsg41
S'thumbnail_min_area_pixels'
p108
sg15
Nsg19
g20
sg91
S'int32'
p109
sg16
I38
sbag1
(g87
g3
NtRp110
(dp111
g80
Nsg41
S'thumbnail_max_size_pixels'
p112
sg15
Nsg19
g20
sg91
S'gfx.mojom.Size'
p113
sg16
I39
sbag1
(g87
g3
NtRp114
(dp115
g80
Nsg41
S'image_format'
p116
sg15
Nsg19
g20
sg91
S'ImageFormat'
p117
sg16
I40
sbasg16
I38
sg19
g20
sbsg15
Nsg19
Nsg16
Nsg93
g1
(g83
g3
NtRp118
(dp119
g10
(lp120
g1
(g87
g3
NtRp121
(dp122
g80
Nsg41
S'thumbnail_data'
p123
sg15
Nsg19
g20
sg91
S'uint8[]'
p124
sg16
I41
sbag1
(g87
g3
NtRp125
(dp126
g80
Nsg41
S'original_size'
p127
sg15
Nsg19
g20
sg91
S'gfx.mojom.Size'
p128
sg16
I41
sbasg16
I41
sg19
g20
sbsbag1
(g77
g3
NtRp129
(dp130
g80
Nsg41
S'ExecuteWebUIJavaScript'
p131
sg82
g1
(g83
g3
NtRp132
(dp133
g10
(lp134
g1
(g87
g3
NtRp135
(dp136
g80
Nsg41
S'javascript'
p137
sg15
Nsg19
g20
sg91
S'mojo_base.mojom.String16'
p138
sg16
I46
sbasg16
I46
sg19
g20
sbsg15
Nsg19
Nsg16
Nsg93
Nsbag1
(g77
g3
NtRp139
(dp140
g80
Nsg41
S'SetClientSidePhishingDetection'
p141
sg82
g1
(g83
g3
NtRp142
(dp143
g10
(lp144
g1
(g87
g3
NtRp145
(dp146
g80
Nsg41
S'enable_phishing_detection'
p147
sg15
Nsg19
g20
sg91
S'bool'
p148
sg16
I49
sbasg16
I49
sg19
g20
sbsg15
Nsg19
Nsg16
Nsg93
Nsbag1
(g77
g3
NtRp149
(dp150
g80
Nsg41
S'GetWebApplicationInfo'
p151
sg82
g1
(g83
g3
NtRp152
(dp153
g10
(lp154
sg16
Nsg19
Nsbsg15
Nsg19
Nsg16
Nsg93
g1
(g83
g3
NtRp155
(dp156
g10
(lp157
g1
(g87
g3
NtRp158
(dp159
g80
Nsg41
S'web_application_info'
p160
sg15
Nsg19
g20
sg91
S'WebApplicationInfo'
p161
sg16
I52
sbasg16
I52
sg19
g20
sbsbasg16
Nsg19
Nsbsg15
Nsg16
Nsg41
S'ChromeRenderFrame'
p162
sg19
Nsbasg16
NsS'module'
p163
g1
(cmojom.parse.ast
Module
p164
g3
NtRp165
(dp166
S'mojom_namespace'
p167
(S'IDENTIFIER'
p168
S'chrome.mojom'
tp169
sg16
I5
sg15
Nsg19
g20
sbsg19
Nsb.