ccopy_reg
_reconstructor
p1
(cmojom.parse.ast
Mojom
p2
c__builtin__
object
p3
NtRp4
(dp5
S'import_list'
p6
g1
(cmojom.parse.ast
ImportList
p7
g3
NtRp8
(dp9
S'items'
p10
(lp11
g1
(cmojom.parse.ast
Import
p12
g3
NtRp13
(dp14
S'attribute_list'
p15
NsS'lineno'
p16
I7
sS'import_filename'
p17
S'mojo/public/mojom/base/values.mojom'
p18
sS'filename'
p19
S'../../chrome/common/cloud_print.mojom'
p20
sbasg16
I7
sg19
g20
sbsS'definition_list'
p21
(lp22
g1
(cmojom.parse.ast
Interface
p23
g3
NtRp24
(dp25
S'body'
p26
g1
(cmojom.parse.ast
InterfaceBody
p27
g3
NtRp28
(dp29
g10
(lp30
g1
(cmojom.parse.ast
Method
p31
g3
NtRp32
(dp33
S'ordinal'
p34
NsS'mojom_name'
p35
S'EnableCloudPrintProxyWithRobot'
p36
sS'parameter_list'
p37
g1
(cmojom.parse.ast
ParameterList
p38
g3
NtRp39
(dp40
g10
(lp41
g1
(cmojom.parse.ast
Parameter
p42
g3
NtRp43
(dp44
g34
Nsg35
S'robot_auth_code'
p45
sg15
Nsg19
g20
sS'typename'
p46
S'string'
p47
sg16
I14
sbag1
(g42
g3
NtRp48
(dp49
g34
Nsg35
S'robot_email'
p50
sg15
Nsg19
g20
sg46
S'string'
p51
sg16
I15
sbag1
(g42
g3
NtRp52
(dp53
g34
Nsg35
S'user_email'
p54
sg15
Nsg19
g20
sg46
S'string'
p55
sg16
I16
sbag1
(g42
g3
NtRp56
(dp57
g34
Nsg35
S'user_settings'
p58
sg15
Nsg19
g20
sg46
S'mojo_base.mojom.DictionaryValue'
p59
sg16
I17
sbasg16
I14
sg19
g20
sbsg15
Nsg19
Nsg16
NsS'response_parameter_list'
p60
Nsbag1
(g31
g3
NtRp61
(dp62
g34
Nsg35
S'DisableCloudPrintProxy'
p63
sg37
g1
(g38
g3
NtRp64
(dp65
g10
(lp66
sg16
Nsg19
Nsbsg15
Nsg19
Nsg16
Nsg60
Nsbag1
(g31
g3
NtRp67
(dp68
g34
Nsg35
S'GetCloudPrintProxyInfo'
p69
sg37
g1
(g38
g3
NtRp70
(dp71
g10
(lp72
sg16
Nsg19
Nsbsg15
Nsg19
Nsg16
Nsg60
g1
(g38
g3
NtRp73
(dp74
g10
(lp75
g1
(g42
g3
NtRp76
(dp77
g34
Nsg35
S'enabled'
p78
sg15
Nsg19
g20
sg46
S'bool'
p79
sg16
I24
sbag1
(g42
g3
NtRp80
(dp81
g34
Nsg35
S'email'
p82
sg15
Nsg19
g20
sg46
S'string'
p83
sg16
I24
sbag1
(g42
g3
NtRp84
(dp85
g34
Nsg35
S'proxy_id'
p86
sg15
Nsg19
g20
sg46
S'string'
p87
sg16
I24
sbasg16
I24
sg19
g20
sbsbag1
(g31
g3
NtRp88
(dp89
g34
Nsg35
S'GetPrinters'
p90
sg37
g1
(g38
g3
NtRp91
(dp92
g10
(lp93
sg16
Nsg19
Nsbsg15
Nsg19
Nsg16
Nsg60
g1
(g38
g3
NtRp94
(dp95
g10
(lp96
g1
(g42
g3
NtRp97
(dp98
g34
Nsg35
S'printers'
p99
sg15
Nsg19
g20
sg46
S'string[]'
p100
sg16
I27
sbasg16
I27
sg19
g20
sbsbasg16
Nsg19
Nsbsg15
Nsg16
Nsg35
S'CloudPrint'
p101
sg19
Nsbasg16
NsS'module'
p102
g1
(cmojom.parse.ast
Module
p103
g3
NtRp104
(dp105
S'mojom_namespace'
p106
(S'IDENTIFIER'
p107
S'cloud_print.mojom'
tp108
sg16
I5
sg15
Nsg19
g20
sbsg19
Nsb.