ccopy_reg
_reconstructor
p1
(cmojom.parse.ast
Mojom
p2
c__builtin__
object
p3
NtRp4
(dp5
S'import_list'
p6
g1
(cmojom.parse.ast
ImportList
p7
g3
NtRp8
(dp9
S'items'
p10
(lp11
g1
(cmojom.parse.ast
Import
p12
g3
NtRp13
(dp14
S'attribute_list'
p15
NsS'lineno'
p16
I7
sS'import_filename'
p17
S'url/mojom/url.mojom'
p18
sS'filename'
p19
S'../../chrome/common/navigation_corrector.mojom'
p20
sbasg16
I7
sg19
g20
sbsS'definition_list'
p21
(lp22
g1
(cmojom.parse.ast
Interface
p23
g3
NtRp24
(dp25
S'body'
p26
g1
(cmojom.parse.ast
InterfaceBody
p27
g3
NtRp28
(dp29
g10
(lp30
g1
(cmojom.parse.ast
Method
p31
g3
NtRp32
(dp33
S'ordinal'
p34
NsS'mojom_name'
p35
S'SetNavigationCorrectionInfo'
p36
sS'parameter_list'
p37
g1
(cmojom.parse.ast
ParameterList
p38
g3
NtRp39
(dp40
g10
(lp41
g1
(cmojom.parse.ast
Parameter
p42
g3
NtRp43
(dp44
g34
Nsg35
S'navigation_correction_url'
p45
sg15
Nsg19
g20
sS'typename'
p46
S'url.mojom.Url'
p47
sg16
I12
sbag1
(g42
g3
NtRp48
(dp49
g34
Nsg35
S'language'
p50
sg15
Nsg19
g20
sg46
S'string'
p51
sg16
I13
sbag1
(g42
g3
NtRp52
(dp53
g34
Nsg35
S'country_code'
p54
sg15
Nsg19
g20
sg46
S'string'
p55
sg16
I14
sbag1
(g42
g3
NtRp56
(dp57
g34
Nsg35
S'api_key'
p58
sg15
Nsg19
g20
sg46
S'string'
p59
sg16
I15
sbag1
(g42
g3
NtRp60
(dp61
g34
Nsg35
S'search_url'
p62
sg15
Nsg19
g20
sg46
S'url.mojom.Url'
p63
sg16
I16
sbasg16
I12
sg19
g20
sbsg15
Nsg19
Nsg16
NsS'response_parameter_list'
p64
Nsbasg16
Nsg19
Nsbsg15
Nsg16
Nsg35
S'NavigationCorrector'
p65
sg19
Nsbasg16
NsS'module'
p66
g1
(cmojom.parse.ast
Module
p67
g3
NtRp68
(dp69
S'mojom_namespace'
p70
(S'IDENTIFIER'
p71
S'chrome.mojom'
tp72
sg16
I5
sg15
Nsg19
g20
sbsg19
Nsb.