ccopy_reg
_reconstructor
p1
(cmojom.parse.ast
Mojom
p2
c__builtin__
object
p3
NtRp4
(dp5
S'import_list'
p6
g1
(cmojom.parse.ast
ImportList
p7
g3
NtRp8
(dp9
S'items'
p10
(lp11
sS'lineno'
p12
NsS'filename'
p13
NsbsS'definition_list'
p14
(lp15
g1
(cmojom.parse.ast
Interface
p16
g3
NtRp17
(dp18
S'body'
p19
g1
(cmojom.parse.ast
InterfaceBody
p20
g3
NtRp21
(dp22
g10
(lp23
g1
(cmojom.parse.ast
Method
p24
g3
NtRp25
(dp26
S'ordinal'
p27
NsS'mojom_name'
p28
S'CloseCurrentConnections'
p29
sS'parameter_list'
p30
g1
(cmojom.parse.ast
ParameterList
p31
g3
NtRp32
(dp33
g10
(lp34
sg12
Nsg13
NsbsS'attribute_list'
p35
g1
(cmojom.parse.ast
AttributeList
p36
g3
NtRp37
(dp38
g10
(lp39
g1
(cmojom.parse.ast
Attribute
p40
g3
NtRp41
(dp42
S'value'
p43
I01
sg12
I10
sS'key'
p44
S'Sync'
p45
sg13
S'../../chrome/common/net_benchmarking.mojom'
p46
sbasg12
I10
sg13
g46
sbsg13
Nsg12
NsS'response_parameter_list'
p47
g1
(g31
g3
NtRp48
(dp49
g10
(lp50
sg12
Nsg13
Nsbsbag1
(g24
g3
NtRp51
(dp52
g27
Nsg28
S'ClearCache'
p53
sg30
g1
(g31
g3
NtRp54
(dp55
g10
(lp56
sg12
Nsg13
Nsbsg35
g1
(g36
g3
NtRp57
(dp58
g10
(lp59
g1
(g40
g3
NtRp60
(dp61
g43
I01
sg12
I16
sg44
S'Sync'
p62
sg13
g46
sbasg12
I16
sg13
g46
sbsg13
Nsg12
Nsg47
g1
(g31
g3
NtRp63
(dp64
g10
(lp65
g1
(cmojom.parse.ast
Parameter
p66
g3
NtRp67
(dp68
g27
Nsg28
S'result'
p69
sg35
Nsg13
g46
sS'typename'
p70
S'int32'
p71
sg12
I17
sbasg12
I17
sg13
g46
sbsbag1
(g24
g3
NtRp72
(dp73
g27
Nsg28
S'ClearHostResolverCache'
p74
sg30
g1
(g31
g3
NtRp75
(dp76
g10
(lp77
sg12
Nsg13
Nsbsg35
g1
(g36
g3
NtRp78
(dp79
g10
(lp80
g1
(g40
g3
NtRp81
(dp82
g43
I01
sg12
I21
sg44
S'Sync'
p83
sg13
g46
sbasg12
I21
sg13
g46
sbsg13
Nsg12
Nsg47
g1
(g31
g3
NtRp84
(dp85
g10
(lp86
sg12
Nsg13
Nsbsbag1
(g24
g3
NtRp87
(dp88
g27
Nsg28
S'ClearPredictorCache'
p89
sg30
g1
(g31
g3
NtRp90
(dp91
g10
(lp92
sg12
Nsg13
Nsbsg35
g1
(g36
g3
NtRp93
(dp94
g10
(lp95
g1
(g40
g3
NtRp96
(dp97
g43
I01
sg12
I26
sg44
S'Sync'
p98
sg13
g46
sbasg12
I26
sg13
g46
sbsg13
Nsg12
Nsg47
g1
(g31
g3
NtRp99
(dp100
g10
(lp101
sg12
Nsg13
Nsbsbasg12
Nsg13
Nsbsg35
Nsg12
Nsg28
S'NetBenchmarking'
p102
sg13
Nsbasg12
NsS'module'
p103
g1
(cmojom.parse.ast
Module
p104
g3
NtRp105
(dp106
S'mojom_namespace'
p107
(S'IDENTIFIER'
p108
S'chrome.mojom'
tp109
sg12
I5
sg35
Nsg13
g46
sbsg13
Nsb.