ccopy_reg
_reconstructor
p1
(cmojom.parse.ast
Mojom
p2
c__builtin__
object
p3
NtRp4
(dp5
S'import_list'
p6
g1
(cmojom.parse.ast
ImportList
p7
g3
NtRp8
(dp9
S'items'
p10
(lp11
g1
(cmojom.parse.ast
Import
p12
g3
NtRp13
(dp14
S'attribute_list'
p15
NsS'lineno'
p16
I7
sS'import_filename'
p17
S'content/public/common/webplugininfo.mojom'
p18
sS'filename'
p19
S'../../chrome/common/plugin.mojom'
p20
sbag1
(g12
g3
NtRp21
(dp22
g15
Nsg16
I8
sg17
S'mojo/public/mojom/base/file_path.mojom'
p23
sg19
g20
sbag1
(g12
g3
NtRp24
(dp25
g15
Nsg16
I9
sg17
S'mojo/public/mojom/base/string16.mojom'
p26
sg19
g20
sbag1
(g12
g3
NtRp27
(dp28
g15
Nsg16
I10
sg17
S'url/mojom/origin.mojom'
p29
sg19
g20
sbag1
(g12
g3
NtRp30
(dp31
g15
Nsg16
I11
sg17
S'url/mojom/url.mojom'
p32
sg19
g20
sbasg16
I7
sg19
g20
sbsS'definition_list'
p33
(lp34
g1
(cmojom.parse.ast
Interface
p35
g3
NtRp36
(dp37
S'body'
p38
g1
(cmojom.parse.ast
InterfaceBody
p39
g3
NtRp40
(dp41
g10
(lp42
g1
(cmojom.parse.ast
Method
p43
g3
NtRp44
(dp45
S'ordinal'
p46
NsS'mojom_name'
p47
S'ShowFlashPermissionBubble'
p48
sS'parameter_list'
p49
g1
(cmojom.parse.ast
ParameterList
p50
g3
NtRp51
(dp52
g10
(lp53
sg16
Nsg19
Nsbsg15
Nsg19
Nsg16
NsS'response_parameter_list'
p54
Nsbag1
(g43
g3
NtRp55
(dp56
g46
Nsg47
S'CouldNotLoadPlugin'
p57
sg49
g1
(g50
g3
NtRp58
(dp59
g10
(lp60
g1
(cmojom.parse.ast
Parameter
p61
g3
NtRp62
(dp63
g46
Nsg47
S'file_path'
p64
sg15
Nsg19
g20
sS'typename'
p65
S'mojo_base.mojom.FilePath'
p66
sg16
I20
sbasg16
I20
sg19
g20
sbsg15
Nsg19
Nsg16
Nsg54
Nsbag1
(g43
g3
NtRp67
(dp68
g46
Nsg47
S'BlockedOutdatedPlugin'
p69
sg49
g1
(g50
g3
NtRp70
(dp71
g10
(lp72
g1
(g61
g3
NtRp73
(dp74
g46
Nsg47
S'plugin_renderer'
p75
sg15
Nsg19
g20
sg65
S'PluginRenderer'
p76
sg16
I23
sbag1
(g61
g3
NtRp77
(dp78
g46
Nsg47
S'group_id'
p79
sg15
Nsg19
g20
sg65
S'string'
p80
sg16
I24
sbasg16
I23
sg19
g20
sbsg15
Nsg19
Nsg16
Nsg54
Nsbag1
(g43
g3
NtRp81
(dp82
g46
Nsg47
S'BlockedComponentUpdatedPlugin'
p83
sg49
g1
(g50
g3
NtRp84
(dp85
g10
(lp86
g1
(g61
g3
NtRp87
(dp88
g46
Nsg47
S'plugin_renderer'
p89
sg15
Nsg19
g20
sg65
S'PluginRenderer'
p90
sg16
I28
sbag1
(g61
g3
NtRp91
(dp92
g46
Nsg47
S'group_id'
p93
sg15
Nsg19
g20
sg65
S'string'
p94
sg16
I29
sbasg16
I28
sg19
g20
sbsg15
Nsg19
Nsg16
Nsg54
Nsbasg16
Nsg19
Nsbsg15
Nsg16
Nsg47
S'PluginHost'
p95
sg19
Nsbag1
(g35
g3
NtRp96
(dp97
g38
g1
(g39
g3
NtRp98
(dp99
g10
(lp100
g1
(g43
g3
NtRp101
(dp102
g46
Nsg47
S'BlockedUnauthorizedPlugin'
p103
sg49
g1
(g50
g3
NtRp104
(dp105
g10
(lp106
g1
(g61
g3
NtRp107
(dp108
g46
Nsg47
S'name'
p109
sg15
Nsg19
g20
sg65
S'mojo_base.mojom.String16'
p110
sg16
I37
sbag1
(g61
g3
NtRp111
(dp112
g46
Nsg47
S'group_id'
p113
sg15
Nsg19
g20
sg65
S'string'
p114
sg16
I37
sbasg16
I37
sg19
g20
sbsg15
Nsg19
Nsg16
Nsg54
Nsbasg16
Nsg19
Nsbsg15
Nsg16
Nsg47
S'PluginAuthHost'
p115
sg19
Nsbag1
(cmojom.parse.ast
Enum
p116
g3
NtRp117
(dp118
g15
NsS'enum_value_list'
p119
g1
(cmojom.parse.ast
EnumValueList
p120
g3
NtRp121
(dp122
g10
(lp123
g1
(cmojom.parse.ast
EnumValue
p124
g3
NtRp125
(dp126
g15
NsS'value'
p127
Nsg16
I42
sg47
S'kAllowed'
p128
sg19
g20
sbag1
(g124
g3
NtRp129
(dp130
g15
Nsg127
Nsg16
I44
sg47
S'kBlocked'
p131
sg19
g20
sbag1
(g124
g3
NtRp132
(dp133
g15
Nsg127
Nsg16
I46
sg47
S'kBlockedByPolicy'
p134
sg19
g20
sbag1
(g124
g3
NtRp135
(dp136
g15
Nsg127
Nsg16
I48
sg47
S'kBlockedNoLoading'
p137
sg19
g20
sbag1
(g124
g3
NtRp138
(dp139
g15
Nsg127
Nsg16
I49
sg47
S'kComponentUpdateRequired'
p140
sg19
g20
sbag1
(g124
g3
NtRp141
(dp142
g15
Nsg127
Nsg16
I50
sg47
S'kDisabled'
p143
sg19
g20
sbag1
(g124
g3
NtRp144
(dp145
g15
Nsg127
Nsg16
I53
sg47
S'kFlashHiddenPreferHtml'
p146
sg19
g20
sbag1
(g124
g3
NtRp147
(dp148
g15
Nsg127
Nsg16
I54
sg47
S'kNotFound'
p149
sg19
g20
sbag1
(g124
g3
NtRp150
(dp151
g15
Nsg127
Nsg16
I55
sg47
S'kOutdatedBlocked'
p152
sg19
g20
sbag1
(g124
g3
NtRp153
(dp154
g15
Nsg127
Nsg16
I56
sg47
S'kOutdatedDisallowed'
p155
sg19
g20
sbag1
(g124
g3
NtRp156
(dp157
g15
Nsg127
Nsg16
I57
sg47
S'kPlayImportantContent'
p158
sg19
g20
sbag1
(g124
g3
NtRp159
(dp160
g15
Nsg127
Nsg16
I58
sg47
S'kRestartRequired'
p161
sg19
g20
sbag1
(g124
g3
NtRp162
(dp163
g15
Nsg127
Nsg16
I59
sg47
S'kUnauthorized'
p164
sg19
g20
sbasg16
I42
sg19
g20
sbsg16
I41
sg47
S'PluginStatus'
p165
sg19
g20
sbag1
(cmojom.parse.ast
Struct
p166
g3
NtRp167
(dp168
g38
g1
(cmojom.parse.ast
StructBody
p169
g3
NtRp170
(dp171
g10
(lp172
g1
(cmojom.parse.ast
StructField
p173
g3
NtRp174
(dp175
g46
NsS'default_value'
p176
Nsg47
S'status'
p177
sg15
Nsg19
Nsg65
S'PluginStatus'
p178
sg16
Nsbag1
(g173
g3
NtRp179
(dp180
g46
Nsg176
Nsg47
S'plugin'
p181
sg15
Nsg19
Nsg65
S'content.mojom.WebPluginInfo'
p182
sg16
Nsbag1
(g173
g3
NtRp183
(dp184
g46
Nsg176
Nsg47
S'actual_mime_type'
p185
sg15
Nsg19
Nsg65
S'string'
p186
sg16
Nsbag1
(g173
g3
NtRp187
(dp188
g46
Nsg176
Nsg47
S'group_identifier'
p189
sg15
Nsg19
Nsg65
S'string'
p190
sg16
Nsbag1
(g173
g3
NtRp191
(dp192
g46
Nsg176
Nsg47
S'group_name'
p193
sg15
Nsg19
Nsg65
S'mojo_base.mojom.String16'
p194
sg16
Nsbasg16
Nsg19
Nsbsg15
Nsg16
Nsg47
S'PluginInfo'
p195
sg19
Nsbag1
(g166
g3
NtRp196
(dp197
g38
g1
(g169
g3
NtRp198
(dp199
g10
(lp200
g1
(g173
g3
NtRp201
(dp202
g46
Nsg176
Nsg47
S'name'
p203
sg15
Nsg19
Nsg65
S'mojo_base.mojom.String16'
p204
sg16
Nsbag1
(g173
g3
NtRp205
(dp206
g46
Nsg176
Nsg47
S'value'
p207
sg15
Nsg19
Nsg65
S'mojo_base.mojom.String16'
p208
sg16
Nsbasg16
Nsg19
Nsbsg15
Nsg16
Nsg47
S'PluginParam'
p209
sg19
Nsbag1
(g35
g3
NtRp210
(dp211
g38
g1
(g39
g3
NtRp212
(dp213
g10
(lp214
g1
(g43
g3
NtRp215
(dp216
g46
Nsg47
S'GetPluginInfo'
p217
sg49
g1
(g50
g3
NtRp218
(dp219
g10
(lp220
g1
(g61
g3
NtRp221
(dp222
g46
Nsg47
S'render_frame_id'
p223
sg15
Nsg19
g20
sg65
S'int32'
p224
sg16
I80
sbag1
(g61
g3
NtRp225
(dp226
g46
Nsg47
S'url'
p227
sg15
Nsg19
g20
sg65
S'url.mojom.Url'
p228
sg16
I81
sbag1
(g61
g3
NtRp229
(dp230
g46
Nsg47
S'origin'
p231
sg15
Nsg19
g20
sg65
S'url.mojom.Origin'
p232
sg16
I82
sbag1
(g61
g3
NtRp233
(dp234
g46
Nsg47
S'mime_type'
p235
sg15
Nsg19
g20
sg65
S'string'
p236
sg16
I83
sbasg16
I80
sg19
g20
sbsg15
g1
(cmojom.parse.ast
AttributeList
p237
g3
NtRp238
(dp239
g10
(lp240
g1
(cmojom.parse.ast
Attribute
p241
g3
NtRp242
(dp243
g127
I01
sg16
I79
sS'key'
p244
S'Sync'
p245
sg19
g20
sbasg16
I79
sg19
g20
sbsg19
Nsg16
Nsg54
g1
(g50
g3
NtRp246
(dp247
g10
(lp248
g1
(g61
g3
NtRp249
(dp250
g46
Nsg47
S'plugin_info'
p251
sg15
Nsg19
g20
sg65
S'PluginInfo'
p252
sg16
I83
sbasg16
I83
sg19
g20
sbsbasg16
Nsg19
Nsbsg15
Nsg16
Nsg47
S'PluginInfoHost'
p253
sg19
Nsbag1
(g35
g3
NtRp254
(dp255
g38
g1
(g39
g3
NtRp256
(dp257
g10
(lp258
g1
(g43
g3
NtRp259
(dp260
g46
Nsg47
S'FinishedDownloading'
p261
sg49
g1
(g50
g3
NtRp262
(dp263
g10
(lp264
sg16
Nsg19
Nsbsg15
Nsg19
Nsg16
Nsg54
Nsbag1
(g43
g3
NtRp265
(dp266
g46
Nsg47
S'UpdateSuccess'
p267
sg49
g1
(g50
g3
NtRp268
(dp269
g10
(lp270
sg16
Nsg19
Nsbsg15
Nsg19
Nsg16
Nsg54
Nsbag1
(g43
g3
NtRp271
(dp272
g46
Nsg47
S'UpdateFailure'
p273
sg49
g1
(g50
g3
NtRp274
(dp275
g10
(lp276
sg16
Nsg19
Nsbsg15
Nsg19
Nsg16
Nsg54
Nsbag1
(g43
g3
NtRp277
(dp278
g46
Nsg47
S'UpdateDownloading'
p279
sg49
g1
(g50
g3
NtRp280
(dp281
g10
(lp282
sg16
Nsg19
Nsbsg15
Nsg19
Nsg16
Nsg54
Nsbasg16
Nsg19
Nsbsg15
Nsg16
Nsg47
S'PluginRenderer'
p283
sg19
Nsbasg16
NsS'module'
p284
g1
(cmojom.parse.ast
Module
p285
g3
NtRp286
(dp287
S'mojom_namespace'
p288
(S'IDENTIFIER'
p289
S'chrome.mojom'
tp290
sg16
I5
sg15
Nsg19
g20
sbsg19
Nsb.