ccopy_reg
_reconstructor
p1
(cmojom.parse.ast
Mojom
p2
c__builtin__
object
p3
NtRp4
(dp5
S'import_list'
p6
g1
(cmojom.parse.ast
ImportList
p7
g3
NtRp8
(dp9
S'items'
p10
(lp11
g1
(cmojom.parse.ast
Import
p12
g3
NtRp13
(dp14
S'attribute_list'
p15
NsS'lineno'
p16
I7
sS'import_filename'
p17
S'url/mojom/url.mojom'
p18
sS'filename'
p19
S'../../chrome/common/prerender.mojom'
p20
sbasg16
I7
sg19
g20
sbsS'definition_list'
p21
(lp22
g1
(cmojom.parse.ast
Interface
p23
g3
NtRp24
(dp25
S'body'
p26
g1
(cmojom.parse.ast
InterfaceBody
p27
g3
NtRp28
(dp29
g10
(lp30
g1
(cmojom.parse.ast
Method
p31
g3
NtRp32
(dp33
S'ordinal'
p34
NsS'mojom_name'
p35
S'CancelPrerenderForPrinting'
p36
sS'parameter_list'
p37
g1
(cmojom.parse.ast
ParameterList
p38
g3
NtRp39
(dp40
g10
(lp41
sg16
Nsg19
Nsbsg15
Nsg19
Nsg16
NsS'response_parameter_list'
p42
Nsbag1
(g31
g3
NtRp43
(dp44
g34
Nsg35
S'CancelPrerenderForUnsupportedMethod'
p45
sg37
g1
(g38
g3
NtRp46
(dp47
g10
(lp48
sg16
Nsg19
Nsbsg15
Nsg19
Nsg16
Nsg42
Nsbag1
(g31
g3
NtRp49
(dp50
g34
Nsg35
S'CancelPrerenderForUnsupportedScheme'
p51
sg37
g1
(g38
g3
NtRp52
(dp53
g10
(lp54
g1
(cmojom.parse.ast
Parameter
p55
g3
NtRp56
(dp57
g34
Nsg35
S'url'
p58
sg15
Nsg19
g20
sS'typename'
p59
S'url.mojom.Url'
p60
sg16
I19
sbasg16
I19
sg19
g20
sbsg15
Nsg19
Nsg16
Nsg42
Nsbag1
(g31
g3
NtRp61
(dp62
g34
Nsg35
S'CancelPrerenderForSyncDeferredRedirect'
p63
sg37
g1
(g38
g3
NtRp64
(dp65
g10
(lp66
sg16
Nsg19
Nsbsg15
Nsg19
Nsg16
Nsg42
Nsbasg16
Nsg19
Nsbsg15
Nsg16
Nsg35
S'PrerenderCanceler'
p67
sg19
Nsbag1
(g23
g3
NtRp68
(dp69
g26
g1
(g27
g3
NtRp70
(dp71
g10
(lp72
g1
(g31
g3
NtRp73
(dp74
g34
Nsg35
S'PrerenderStart'
p75
sg37
g1
(g38
g3
NtRp76
(dp77
g10
(lp78
g1
(g55
g3
NtRp79
(dp80
g34
Nsg35
S'prerender_id'
p81
sg15
Nsg19
g20
sg59
S'int32'
p82
sg16
I30
sbasg16
I30
sg19
g20
sbsg15
Nsg19
Nsg16
Nsg42
Nsbag1
(g31
g3
NtRp83
(dp84
g34
Nsg35
S'PrerenderStopLoading'
p85
sg37
g1
(g38
g3
NtRp86
(dp87
g10
(lp88
g1
(g55
g3
NtRp89
(dp90
g34
Nsg35
S'prerender_id'
p91
sg15
Nsg19
g20
sg59
S'int32'
p92
sg16
I33
sbasg16
I33
sg19
g20
sbsg15
Nsg19
Nsg16
Nsg42
Nsbag1
(g31
g3
NtRp93
(dp94
g34
Nsg35
S'PrerenderDomContentLoaded'
p95
sg37
g1
(g38
g3
NtRp96
(dp97
g10
(lp98
g1
(g55
g3
NtRp99
(dp100
g34
Nsg35
S'prerender_id'
p101
sg15
Nsg19
g20
sg59
S'int32'
p102
sg16
I36
sbasg16
I36
sg19
g20
sbsg15
Nsg19
Nsg16
Nsg42
Nsbag1
(g31
g3
NtRp103
(dp104
g34
Nsg35
S'PrerenderAddAlias'
p105
sg37
g1
(g38
g3
NtRp106
(dp107
g10
(lp108
g1
(g55
g3
NtRp109
(dp110
g34
Nsg35
S'alias'
p111
sg15
Nsg19
g20
sg59
S'url.mojom.Url'
p112
sg16
I39
sbasg16
I39
sg19
g20
sbsg15
Nsg19
Nsg16
Nsg42
Nsbag1
(g31
g3
NtRp113
(dp114
g34
Nsg35
S'PrerenderRemoveAliases'
p115
sg37
g1
(g38
g3
NtRp116
(dp117
g10
(lp118
g1
(g55
g3
NtRp119
(dp120
g34
Nsg35
S'aliases'
p121
sg15
Nsg19
g20
sg59
S'url.mojom.Url[]'
p122
sg16
I42
sbasg16
I42
sg19
g20
sbsg15
Nsg19
Nsg16
Nsg42
Nsbag1
(g31
g3
NtRp123
(dp124
g34
Nsg35
S'PrerenderStop'
p125
sg37
g1
(g38
g3
NtRp126
(dp127
g10
(lp128
g1
(g55
g3
NtRp129
(dp130
g34
Nsg35
S'prerender_id'
p131
sg15
Nsg19
g20
sg59
S'int32'
p132
sg16
I45
sbasg16
I45
sg19
g20
sbsg15
Nsg19
Nsg16
Nsg42
Nsbasg16
Nsg19
Nsbsg15
Nsg16
Nsg35
S'PrerenderDispatcher'
p133
sg19
Nsbasg16
NsS'module'
p134
g1
(cmojom.parse.ast
Module
p135
g3
NtRp136
(dp137
S'mojom_namespace'
p138
(S'IDENTIFIER'
p139
S'chrome.mojom'
tp140
sg16
I5
sg15
Nsg19
g20
sbsg19
Nsb.