ccopy_reg
_reconstructor
p1
(cmojom.parse.ast
Mojom
p2
c__builtin__
object
p3
NtRp4
(dp5
S'import_list'
p6
g1
(cmojom.parse.ast
ImportList
p7
g3
NtRp8
(dp9
S'items'
p10
(lp11
g1
(cmojom.parse.ast
Import
p12
g3
NtRp13
(dp14
S'attribute_list'
p15
NsS'lineno'
p16
I7
sS'import_filename'
p17
S'mojo/public/mojom/base/string16.mojom'
p18
sS'filename'
p19
S'../../chrome/common/search.mojom'
p20
sbag1
(g12
g3
NtRp21
(dp22
g15
Nsg16
I8
sg17
S'mojo/public/mojom/base/time.mojom'
p23
sg19
g20
sbag1
(g12
g3
NtRp24
(dp25
g15
Nsg16
I9
sg17
S'url/mojom/url.mojom'
p26
sg19
g20
sbasg16
I7
sg19
g20
sbsS'definition_list'
p27
(lp28
g1
(cmojom.parse.ast
Enum
p29
g3
NtRp30
(dp31
g15
g1
(cmojom.parse.ast
AttributeList
p32
g3
NtRp33
(dp34
g10
(lp35
g1
(cmojom.parse.ast
Attribute
p36
g3
NtRp37
(dp38
S'value'
p39
I01
sg16
I11
sS'key'
p40
S'Native'
p41
sg19
g20
sbasg16
I11
sg19
g20
sbsS'enum_value_list'
p42
Nsg16
I12
sS'mojom_name'
p43
S'NTPLoggingEventType'
p44
sg19
g20
sbag1
(g29
g3
NtRp45
(dp46
g15
g1
(g32
g3
NtRp47
(dp48
g10
(lp49
g1
(g36
g3
NtRp50
(dp51
g39
I01
sg16
I14
sg40
S'Native'
p52
sg19
g20
sbasg16
I14
sg19
g20
sbsg42
Nsg16
I15
sg43
S'OmniboxFocusState'
p53
sg19
g20
sbag1
(cmojom.parse.ast
Struct
p54
g3
NtRp55
(dp56
S'body'
p57
Nsg15
g1
(g32
g3
NtRp58
(dp59
g10
(lp60
g1
(g36
g3
NtRp61
(dp62
g39
I01
sg16
I17
sg40
S'Native'
p63
sg19
g20
sbasg16
I17
sg19
g20
sbsg16
Nsg43
S'NTPTileImpression'
p64
sg19
Nsbag1
(cmojom.parse.ast
Interface
p65
g3
NtRp66
(dp67
g57
g1
(cmojom.parse.ast
InterfaceBody
p68
g3
NtRp69
(dp70
g10
(lp71
g1
(cmojom.parse.ast
Method
p72
g3
NtRp73
(dp74
S'ordinal'
p75
Nsg43
S'Connect'
p76
sS'parameter_list'
p77
g1
(cmojom.parse.ast
ParameterList
p78
g3
NtRp79
(dp80
g10
(lp81
g1
(cmojom.parse.ast
Parameter
p82
g3
NtRp83
(dp84
g75
Nsg43
S'embedded_search'
p85
sg15
Nsg19
g20
sS'typename'
p86
S'asso<EmbeddedSearch&>'
p87
sg16
I28
sbag1
(g82
g3
NtRp88
(dp89
g75
Nsg43
S'client'
p90
sg15
Nsg19
g20
sg86
S'asso<EmbeddedSearchClient>'
p91
sg16
I29
sbasg16
I28
sg19
g20
sbsg15
Nsg19
Nsg16
NsS'response_parameter_list'
p92
Nsbasg16
Nsg19
Nsbsg15
Nsg16
Nsg43
S'EmbeddedSearchConnector'
p93
sg19
Nsbag1
(g65
g3
NtRp94
(dp95
g57
g1
(g68
g3
NtRp96
(dp97
g10
(lp98
g1
(g72
g3
NtRp99
(dp100
g75
Nsg43
S'FocusOmnibox'
p101
sg77
g1
(g78
g3
NtRp102
(dp103
g10
(lp104
g1
(g82
g3
NtRp105
(dp106
g75
Nsg43
S'page_seq_no'
p107
sg15
Nsg19
g20
sg86
S'int32'
p108
sg16
I37
sbag1
(g82
g3
NtRp109
(dp110
g75
Nsg43
S'state'
p111
sg15
Nsg19
g20
sg86
S'OmniboxFocusState'
p112
sg16
I37
sbasg16
I37
sg19
g20
sbsg15
Nsg19
Nsg16
Nsg92
Nsbag1
(g72
g3
NtRp113
(dp114
g75
Nsg43
S'DeleteMostVisitedItem'
p115
sg77
g1
(g78
g3
NtRp116
(dp117
g10
(lp118
g1
(g82
g3
NtRp119
(dp120
g75
Nsg43
S'page_seq_no'
p121
sg15
Nsg19
g20
sg86
S'int32'
p122
sg16
I40
sbag1
(g82
g3
NtRp123
(dp124
g75
Nsg43
S'url'
p125
sg15
Nsg19
g20
sg86
S'url.mojom.Url'
p126
sg16
I40
sbasg16
I40
sg19
g20
sbsg15
Nsg19
Nsg16
Nsg92
Nsbag1
(g72
g3
NtRp127
(dp128
g75
Nsg43
S'UndoAllMostVisitedDeletions'
p129
sg77
g1
(g78
g3
NtRp130
(dp131
g10
(lp132
g1
(g82
g3
NtRp133
(dp134
g75
Nsg43
S'page_seq_no'
p135
sg15
Nsg19
g20
sg86
S'int32'
p136
sg16
I43
sbasg16
I43
sg19
g20
sbsg15
Nsg19
Nsg16
Nsg92
Nsbag1
(g72
g3
NtRp137
(dp138
g75
Nsg43
S'UndoMostVisitedDeletion'
p139
sg77
g1
(g78
g3
NtRp140
(dp141
g10
(lp142
g1
(g82
g3
NtRp143
(dp144
g75
Nsg43
S'page_seq_no'
p145
sg15
Nsg19
g20
sg86
S'int32'
p146
sg16
I46
sbag1
(g82
g3
NtRp147
(dp148
g75
Nsg43
S'url'
p149
sg15
Nsg19
g20
sg86
S'url.mojom.Url'
p150
sg16
I46
sbasg16
I46
sg19
g20
sbsg15
Nsg19
Nsg16
Nsg92
Nsbag1
(g72
g3
NtRp151
(dp152
g75
Nsg43
S'LogEvent'
p153
sg77
g1
(g78
g3
NtRp154
(dp155
g10
(lp156
g1
(g82
g3
NtRp157
(dp158
g75
Nsg43
S'page_seq_no'
p159
sg15
Nsg19
g20
sg86
S'int32'
p160
sg16
I49
sbag1
(g82
g3
NtRp161
(dp162
g75
Nsg43
S'event'
p163
sg15
Nsg19
g20
sg86
S'NTPLoggingEventType'
p164
sg16
I50
sbag1
(g82
g3
NtRp165
(dp166
g75
Nsg43
S'time'
p167
sg15
Nsg19
g20
sg86
S'mojo_base.mojom.TimeDelta'
p168
sg16
I51
sbasg16
I49
sg19
g20
sbsg15
Nsg19
Nsg16
Nsg92
Nsbag1
(g72
g3
NtRp169
(dp170
g75
Nsg43
S'LogMostVisitedImpression'
p171
sg77
g1
(g78
g3
NtRp172
(dp173
g10
(lp174
g1
(g82
g3
NtRp175
(dp176
g75
Nsg43
S'page_seq_no'
p177
sg15
Nsg19
g20
sg86
S'int32'
p178
sg16
I55
sbag1
(g82
g3
NtRp179
(dp180
g75
Nsg43
S'impression'
p181
sg15
Nsg19
g20
sg86
S'NTPTileImpression'
p182
sg16
I55
sbasg16
I55
sg19
g20
sbsg15
Nsg19
Nsg16
Nsg92
Nsbag1
(g72
g3
NtRp183
(dp184
g75
Nsg43
S'LogMostVisitedNavigation'
p185
sg77
g1
(g78
g3
NtRp186
(dp187
g10
(lp188
g1
(g82
g3
NtRp189
(dp190
g75
Nsg43
S'page_seq_no'
p191
sg15
Nsg19
g20
sg86
S'int32'
p192
sg16
I59
sbag1
(g82
g3
NtRp193
(dp194
g75
Nsg43
S'impression'
p195
sg15
Nsg19
g20
sg86
S'NTPTileImpression'
p196
sg16
I59
sbasg16
I59
sg19
g20
sbsg15
Nsg19
Nsg16
Nsg92
Nsbag1
(g72
g3
NtRp197
(dp198
g75
Nsg43
S'PasteAndOpenDropdown'
p199
sg77
g1
(g78
g3
NtRp200
(dp201
g10
(lp202
g1
(g82
g3
NtRp203
(dp204
g75
Nsg43
S'page_seq_no'
p205
sg15
Nsg19
g20
sg86
S'int32'
p206
sg16
I64
sbag1
(g82
g3
NtRp207
(dp208
g75
Nsg43
S'text_to_be_pasted'
p209
sg15
Nsg19
g20
sg86
S'mojo_base.mojom.String16'
p210
sg16
I65
sbasg16
I64
sg19
g20
sbsg15
Nsg19
Nsg16
Nsg92
Nsbag1
(g72
g3
NtRp211
(dp212
g75
Nsg43
S'HistorySyncCheck'
p213
sg77
g1
(g78
g3
NtRp214
(dp215
g10
(lp216
g1
(g82
g3
NtRp217
(dp218
g75
Nsg43
S'page_seq_no'
p219
sg15
Nsg19
g20
sg86
S'int32'
p220
sg16
I68
sbasg16
I68
sg19
g20
sbsg15
Nsg19
Nsg16
Nsg92
g1
(g78
g3
NtRp221
(dp222
g10
(lp223
g1
(g82
g3
NtRp224
(dp225
g75
Nsg43
S'sync_history'
p226
sg15
Nsg19
g20
sg86
S'bool'
p227
sg16
I68
sbasg16
I68
sg19
g20
sbsbag1
(g72
g3
NtRp228
(dp229
g75
Nsg43
S'ChromeIdentityCheck'
p230
sg77
g1
(g78
g3
NtRp231
(dp232
g10
(lp233
g1
(g82
g3
NtRp234
(dp235
g75
Nsg43
S'page_seq_no'
p236
sg15
Nsg19
g20
sg86
S'int32'
p237
sg16
I71
sbag1
(g82
g3
NtRp238
(dp239
g75
Nsg43
S'identity'
p240
sg15
Nsg19
g20
sg86
S'mojo_base.mojom.String16'
p241
sg16
I71
sbasg16
I71
sg19
g20
sbsg15
Nsg19
Nsg16
Nsg92
g1
(g78
g3
NtRp242
(dp243
g10
(lp244
g1
(g82
g3
NtRp245
(dp246
g75
Nsg43
S'identity_match'
p247
sg15
Nsg19
g20
sg86
S'bool'
p248
sg16
I72
sbasg16
I72
sg19
g20
sbsbasg16
Nsg19
Nsbsg15
Nsg16
Nsg43
S'EmbeddedSearch'
p249
sg19
Nsbag1
(g29
g3
NtRp250
(dp251
g15
g1
(g32
g3
NtRp252
(dp253
g10
(lp254
g1
(g36
g3
NtRp255
(dp256
g39
I01
sg16
I75
sg40
S'Native'
p257
sg19
g20
sbasg16
I75
sg19
g20
sbsg42
Nsg16
I76
sg43
S'OmniboxFocusChangeReason'
p258
sg19
g20
sbag1
(g54
g3
NtRp259
(dp260
g57
Nsg15
g1
(g32
g3
NtRp261
(dp262
g10
(lp263
g1
(g36
g3
NtRp264
(dp265
g39
I01
sg16
I78
sg40
S'Native'
p266
sg19
g20
sbasg16
I78
sg19
g20
sbsg16
Nsg43
S'InstantMostVisitedItem'
p267
sg19
Nsbag1
(g54
g3
NtRp268
(dp269
g57
Nsg15
g1
(g32
g3
NtRp270
(dp271
g10
(lp272
g1
(g36
g3
NtRp273
(dp274
g39
I01
sg16
I81
sg40
S'Native'
p275
sg19
g20
sbasg16
I81
sg19
g20
sbsg16
Nsg43
S'ThemeBackgroundInfo'
p276
sg19
Nsbag1
(g65
g3
NtRp277
(dp278
g57
g1
(g68
g3
NtRp279
(dp280
g10
(lp281
g1
(g72
g3
NtRp282
(dp283
g75
Nsg43
S'SetPageSequenceNumber'
p284
sg77
g1
(g78
g3
NtRp285
(dp286
g10
(lp287
g1
(g82
g3
NtRp288
(dp289
g75
Nsg43
S'page_seq_no'
p290
sg15
Nsg19
g20
sg86
S'int32'
p291
sg16
I87
sbasg16
I87
sg19
g20
sbsg15
Nsg19
Nsg16
Nsg92
Nsbag1
(g72
g3
NtRp292
(dp293
g75
Nsg43
S'FocusChanged'
p294
sg77
g1
(g78
g3
NtRp295
(dp296
g10
(lp297
g1
(g82
g3
NtRp298
(dp299
g75
Nsg43
S'new_focus_state'
p300
sg15
Nsg19
g20
sg86
S'OmniboxFocusState'
p301
sg16
I89
sbag1
(g82
g3
NtRp302
(dp303
g75
Nsg43
S'reason'
p304
sg15
Nsg19
g20
sg86
S'OmniboxFocusChangeReason'
p305
sg16
I90
sbasg16
I89
sg19
g20
sbsg15
Nsg19
Nsg16
Nsg92
Nsbag1
(g72
g3
NtRp306
(dp307
g75
Nsg43
S'MostVisitedChanged'
p308
sg77
g1
(g78
g3
NtRp309
(dp310
g10
(lp311
g1
(g82
g3
NtRp312
(dp313
g75
Nsg43
S'items'
p314
sg15
Nsg19
g20
sg86
S'InstantMostVisitedItem[]'
p315
sg16
I92
sbasg16
I92
sg19
g20
sbsg15
Nsg19
Nsg16
Nsg92
Nsbag1
(g72
g3
NtRp316
(dp317
g75
Nsg43
S'SetInputInProgress'
p318
sg77
g1
(g78
g3
NtRp319
(dp320
g10
(lp321
g1
(g82
g3
NtRp322
(dp323
g75
Nsg43
S'input_in_progress'
p324
sg15
Nsg19
g20
sg86
S'bool'
p325
sg16
I94
sbasg16
I94
sg19
g20
sbsg15
Nsg19
Nsg16
Nsg92
Nsbag1
(g72
g3
NtRp326
(dp327
g75
Nsg43
S'ThemeChanged'
p328
sg77
g1
(g78
g3
NtRp329
(dp330
g10
(lp331
g1
(g82
g3
NtRp332
(dp333
g75
Nsg43
S'value'
p334
sg15
Nsg19
g20
sg86
S'ThemeBackgroundInfo'
p335
sg16
I96
sbasg16
I96
sg19
g20
sbsg15
Nsg19
Nsg16
Nsg92
Nsbasg16
Nsg19
Nsbsg15
Nsg16
Nsg43
S'EmbeddedSearchClient'
p336
sg19
Nsbag1
(g65
g3
NtRp337
(dp338
g57
g1
(g68
g3
NtRp339
(dp340
g10
(lp341
g1
(g72
g3
NtRp342
(dp343
g75
Nsg43
S'SetNewTabPageURL'
p344
sg77
g1
(g78
g3
NtRp345
(dp346
g10
(lp347
g1
(g82
g3
NtRp348
(dp349
g75
Nsg43
S'new_tab_page_url'
p350
sg15
Nsg19
g20
sg86
S'url.mojom.Url'
p351
sg16
I103
sbasg16
I103
sg19
g20
sbsg15
Nsg19
Nsg16
Nsg92
Nsbasg16
Nsg19
Nsbsg15
Nsg16
Nsg43
S'SearchBouncer'
p352
sg19
Nsbasg16
NsS'module'
p353
g1
(cmojom.parse.ast
Module
p354
g3
NtRp355
(dp356
S'mojom_namespace'
p357
(S'IDENTIFIER'
p358
S'chrome.mojom'
tp359
sg16
I5
sg15
Nsg19
g20
sbsg19
Nsb.