ccopy_reg
_reconstructor
p1
(cmojom.parse.ast
Mojom
p2
c__builtin__
object
p3
NtRp4
(dp5
S'import_list'
p6
g1
(cmojom.parse.ast
ImportList
p7
g3
NtRp8
(dp9
S'items'
p10
(lp11
sS'lineno'
p12
NsS'filename'
p13
NsbsS'definition_list'
p14
(lp15
g1
(cmojom.parse.ast
Interface
p16
g3
NtRp17
(dp18
S'body'
p19
g1
(cmojom.parse.ast
InterfaceBody
p20
g3
NtRp21
(dp22
g10
(lp23
g1
(cmojom.parse.ast
Method
p24
g3
NtRp25
(dp26
S'ordinal'
p27
NsS'mojom_name'
p28
S'Hello'
p29
sS'parameter_list'
p30
g1
(cmojom.parse.ast
ParameterList
p31
g3
NtRp32
(dp33
g10
(lp34
sg12
Nsg13
NsbsS'attribute_list'
p35
Nsg13
Nsg12
NsS'response_parameter_list'
p36
g1
(g31
g3
NtRp37
(dp38
g10
(lp39
sg12
Nsg13
Nsbsbag1
(g24
g3
NtRp40
(dp41
g27
Nsg28
S'GetHistograms'
p42
sg30
g1
(g31
g3
NtRp43
(dp44
g10
(lp45
sg12
Nsg13
Nsbsg35
Nsg13
Nsg12
Nsg36
g1
(g31
g3
NtRp46
(dp47
g10
(lp48
g1
(cmojom.parse.ast
Parameter
p49
g3
NtRp50
(dp51
g27
Nsg28
S'histograms'
p52
sg35
Nsg13
S'../../chrome/common/service_process.mojom'
p53
sS'typename'
p54
S'string[]'
p55
sg12
I14
sbasg12
I14
sg13
g53
sbsbag1
(g24
g3
NtRp56
(dp57
g27
Nsg28
S'UpdateAvailable'
p58
sg30
g1
(g31
g3
NtRp59
(dp60
g10
(lp61
sg12
Nsg13
Nsbsg35
Nsg13
Nsg12
Nsg36
Nsbag1
(g24
g3
NtRp62
(dp63
g27
Nsg28
S'ShutDown'
p64
sg30
g1
(g31
g3
NtRp65
(dp66
g10
(lp67
sg12
Nsg13
Nsbsg35
Nsg13
Nsg12
Nsg36
Nsbasg12
Nsg13
Nsbsg35
Nsg12
Nsg28
S'ServiceProcess'
p68
sg13
Nsbasg12
NsS'module'
p69
g1
(cmojom.parse.ast
Module
p70
g3
NtRp71
(dp72
S'mojom_namespace'
p73
(S'IDENTIFIER'
p74
S'chrome.mojom'
tp75
sg12
I5
sg35
Nsg13
g53
sbsg13
Nsb.