ccopy_reg
_reconstructor
p1
(cmojom.parse.ast
Mojom
p2
c__builtin__
object
p3
NtRp4
(dp5
S'import_list'
p6
g1
(cmojom.parse.ast
ImportList
p7
g3
NtRp8
(dp9
S'items'
p10
(lp11
sS'lineno'
p12
NsS'filename'
p13
NsbsS'definition_list'
p14
(lp15
g1
(cmojom.parse.ast
Interface
p16
g3
NtRp17
(dp18
S'body'
p19
g1
(cmojom.parse.ast
InterfaceBody
p20
g3
NtRp21
(dp22
g10
(lp23
g1
(cmojom.parse.ast
Method
p24
g3
NtRp25
(dp26
S'ordinal'
p27
NsS'mojom_name'
p28
S'GoBack'
p29
sS'parameter_list'
p30
g1
(cmojom.parse.ast
ParameterList
p31
g3
NtRp32
(dp33
g10
(lp34
sg12
Nsg13
NsbsS'attribute_list'
p35
Nsg13
Nsg12
NsS'response_parameter_list'
p36
Nsbag1
(g24
g3
NtRp37
(dp38
g27
Nsg28
S'RequestPermission'
p39
sg30
g1
(g31
g3
NtRp40
(dp41
g10
(lp42
sg12
Nsg13
Nsbsg35
Nsg13
Nsg12
Nsg36
g1
(g31
g3
NtRp43
(dp44
g10
(lp45
g1
(cmojom.parse.ast
Parameter
p46
g3
NtRp47
(dp48
g27
Nsg28
S'success'
p49
sg35
Nsg13
S'../../chrome/common/supervised_user_commands.mojom'
p50
sS'typename'
p51
S'bool'
p52
sg12
I15
sbasg12
I15
sg13
g50
sbsbag1
(g24
g3
NtRp53
(dp54
g27
Nsg28
S'Feedback'
p55
sg30
g1
(g31
g3
NtRp56
(dp57
g10
(lp58
sg12
Nsg13
Nsbsg35
Nsg13
Nsg12
Nsg36
Nsbasg12
Nsg13
Nsbsg35
Nsg12
Nsg28
S'SupervisedUserCommands'
p59
sg13
Nsbasg12
NsS'module'
p60
g1
(cmojom.parse.ast
Module
p61
g3
NtRp62
(dp63
S'mojom_namespace'
p64
(S'IDENTIFIER'
p65
S'supervised_user.mojom'
tp66
sg12
I5
sg35
Nsg13
g50
sbsg13
Nsb.