ccopy_reg
_reconstructor
p1
(cmojom.parse.ast
Mojom
p2
c__builtin__
object
p3
NtRp4
(dp5
S'import_list'
p6
g1
(cmojom.parse.ast
ImportList
p7
g3
NtRp8
(dp9
S'items'
p10
(lp11
g1
(cmojom.parse.ast
Import
p12
g3
NtRp13
(dp14
S'attribute_list'
p15
NsS'lineno'
p16
I7
sS'import_filename'
p17
S'url/mojom/url.mojom'
p18
sS'filename'
p19
S'../../chrome/browser/media/media_engagement_score_details.mojom'
p20
sbasg16
I7
sg19
g20
sbsS'definition_list'
p21
(lp22
g1
(cmojom.parse.ast
Struct
p23
g3
NtRp24
(dp25
S'body'
p26
g1
(cmojom.parse.ast
StructBody
p27
g3
NtRp28
(dp29
g10
(lp30
g1
(cmojom.parse.ast
StructField
p31
g3
NtRp32
(dp33
S'ordinal'
p34
NsS'default_value'
p35
NsS'mojom_name'
p36
S'origin'
p37
sg15
Nsg19
NsS'typename'
p38
S'url.mojom.Url'
p39
sg16
Nsbag1
(g31
g3
NtRp40
(dp41
g34
Nsg35
Nsg36
S'total_score'
p42
sg15
Nsg19
Nsg38
S'double'
p43
sg16
Nsbag1
(g31
g3
NtRp44
(dp45
g34
Nsg35
Nsg36
S'visits'
p46
sg15
Nsg19
Nsg38
S'int32'
p47
sg16
Nsbag1
(g31
g3
NtRp48
(dp49
g34
Nsg35
Nsg36
S'media_playbacks'
p50
sg15
Nsg19
Nsg38
S'int32'
p51
sg16
Nsbag1
(g31
g3
NtRp52
(dp53
g34
Nsg35
Nsg36
S'last_media_playback_time'
p54
sg15
Nsg19
Nsg38
S'double'
p55
sg16
Nsbag1
(g31
g3
NtRp56
(dp57
g34
Nsg35
Nsg36
S'is_high'
p58
sg15
Nsg19
Nsg38
S'bool'
p59
sg16
Nsbag1
(g31
g3
NtRp60
(dp61
g34
Nsg35
Nsg36
S'audible_playbacks'
p62
sg15
Nsg19
Nsg38
S'int32'
p63
sg16
Nsbag1
(g31
g3
NtRp64
(dp65
g34
Nsg35
Nsg36
S'significant_playbacks'
p66
sg15
Nsg19
Nsg38
S'int32'
p67
sg16
Nsbag1
(g31
g3
NtRp68
(dp69
g34
Nsg35
Nsg36
S'high_score_changes'
p70
sg15
Nsg19
Nsg38
S'int32'
p71
sg16
Nsbasg16
Nsg19
Nsbsg15
Nsg16
Nsg36
S'MediaEngagementScoreDetails'
p72
sg19
Nsbag1
(g23
g3
NtRp73
(dp74
g26
g1
(g27
g3
NtRp75
(dp76
g10
(lp77
g1
(g31
g3
NtRp78
(dp79
g34
Nsg35
Nsg36
S'score_min_visits'
p80
sg15
Nsg19
Nsg38
S'int32'
p81
sg16
Nsbag1
(g31
g3
NtRp82
(dp83
g34
Nsg35
Nsg36
S'high_score_lower_threshold'
p84
sg15
Nsg19
Nsg38
S'double'
p85
sg16
Nsbag1
(g31
g3
NtRp86
(dp87
g34
Nsg35
Nsg36
S'high_score_upper_threshold'
p88
sg15
Nsg19
Nsg38
S'double'
p89
sg16
Nsbag1
(g31
g3
NtRp90
(dp91
g34
Nsg35
Nsg36
S'feature_record_data'
p92
sg15
Nsg19
Nsg38
S'bool'
p93
sg16
Nsbag1
(g31
g3
NtRp94
(dp95
g34
Nsg35
Nsg36
S'feature_bypass_autoplay'
p96
sg15
Nsg19
Nsg38
S'bool'
p97
sg16
Nsbag1
(g31
g3
NtRp98
(dp99
g34
Nsg35
Nsg36
S'feature_preload_data'
p100
sg15
Nsg19
Nsg38
S'bool'
p101
sg16
Nsbag1
(g31
g3
NtRp102
(dp103
g34
Nsg35
Nsg36
S'autoplay_policy'
p104
sg15
Nsg19
Nsg38
S'string'
p105
sg16
Nsbag1
(g31
g3
NtRp106
(dp107
g34
Nsg35
Nsg36
S'preload_version'
p108
sg15
Nsg19
Nsg38
S'string'
p109
sg16
Nsbasg16
Nsg19
Nsbsg15
Nsg16
Nsg36
S'MediaEngagementConfig'
p110
sg19
Nsbag1
(cmojom.parse.ast
Interface
p111
g3
NtRp112
(dp113
g26
g1
(cmojom.parse.ast
InterfaceBody
p114
g3
NtRp115
(dp116
g10
(lp117
g1
(cmojom.parse.ast
Method
p118
g3
NtRp119
(dp120
g34
Nsg36
S'GetMediaEngagementScoreDetails'
p121
sS'parameter_list'
p122
g1
(cmojom.parse.ast
ParameterList
p123
g3
NtRp124
(dp125
g10
(lp126
sg16
Nsg19
Nsbsg15
Nsg19
Nsg16
NsS'response_parameter_list'
p127
g1
(g123
g3
NtRp128
(dp129
g10
(lp130
g1
(cmojom.parse.ast
Parameter
p131
g3
NtRp132
(dp133
g34
Nsg36
S'info'
p134
sg15
Nsg19
g20
sg38
S'MediaEngagementScoreDetails[]'
p135
sg16
I52
sbasg16
I52
sg19
g20
sbsbag1
(g118
g3
NtRp136
(dp137
g34
Nsg36
S'GetMediaEngagementConfig'
p138
sg122
g1
(g123
g3
NtRp139
(dp140
g10
(lp141
sg16
Nsg19
Nsbsg15
Nsg19
Nsg16
Nsg127
g1
(g123
g3
NtRp142
(dp143
g10
(lp144
g1
(g131
g3
NtRp145
(dp146
g34
Nsg36
S'config'
p147
sg15
Nsg19
g20
sg38
S'MediaEngagementConfig'
p148
sg16
I53
sbasg16
I53
sg19
g20
sbsbasg16
Nsg19
Nsbsg15
Nsg16
Nsg36
S'MediaEngagementScoreDetailsProvider'
p149
sg19
Nsbasg16
NsS'module'
p150
g1
(cmojom.parse.ast
Module
p151
g3
NtRp152
(dp153
S'mojom_namespace'
p154
(S'IDENTIFIER'
p155
S'media.mojom'
tp156
sg16
I5
sg15
Nsg19
g20
sbsg19
Nsb.