ccopy_reg
_reconstructor
p1
(cmojom.parse.ast
Mojom
p2
c__builtin__
object
p3
NtRp4
(dp5
S'import_list'
p6
g1
(cmojom.parse.ast
ImportList
p7
g3
NtRp8
(dp9
S'items'
p10
(lp11
sS'lineno'
p12
NsS'filename'
p13
NsbsS'definition_list'
p14
(lp15
g1
(cmojom.parse.ast
Enum
p16
g3
NtRp17
(dp18
S'attribute_list'
p19
NsS'enum_value_list'
p20
g1
(cmojom.parse.ast
EnumValueList
p21
g3
NtRp22
(dp23
g10
(lp24
g1
(cmojom.parse.ast
EnumValue
p25
g3
NtRp26
(dp27
g19
NsS'value'
p28
Nsg12
I9
sS'mojom_name'
p29
S'NONE'
p30
sg13
S'../../ui/platform_window/mojo/text_input_state.mojom'
p31
sbag1
(g25
g3
NtRp32
(dp33
g19
Nsg28
Nsg12
I10
sg29
S'TEXT'
p34
sg13
g31
sbag1
(g25
g3
NtRp35
(dp36
g19
Nsg28
Nsg12
I11
sg29
S'PASSWORD'
p37
sg13
g31
sbag1
(g25
g3
NtRp38
(dp39
g19
Nsg28
Nsg12
I12
sg29
S'SEARCH'
p40
sg13
g31
sbag1
(g25
g3
NtRp41
(dp42
g19
Nsg28
Nsg12
I13
sg29
S'EMAIL'
p43
sg13
g31
sbag1
(g25
g3
NtRp44
(dp45
g19
Nsg28
Nsg12
I14
sg29
S'NUMBER'
p46
sg13
g31
sbag1
(g25
g3
NtRp47
(dp48
g19
Nsg28
Nsg12
I15
sg29
S'TELEPHONE'
p49
sg13
g31
sbag1
(g25
g3
NtRp50
(dp51
g19
Nsg28
Nsg12
I16
sg29
S'URL'
p52
sg13
g31
sbag1
(g25
g3
NtRp53
(dp54
g19
Nsg28
Nsg12
I17
sg29
S'DATE'
p55
sg13
g31
sbag1
(g25
g3
NtRp56
(dp57
g19
Nsg28
Nsg12
I18
sg29
S'DATE_TIME'
p58
sg13
g31
sbag1
(g25
g3
NtRp59
(dp60
g19
Nsg28
Nsg12
I19
sg29
S'DATE_TIME_LOCAL'
p61
sg13
g31
sbag1
(g25
g3
NtRp62
(dp63
g19
Nsg28
Nsg12
I20
sg29
S'MONTH'
p64
sg13
g31
sbag1
(g25
g3
NtRp65
(dp66
g19
Nsg28
Nsg12
I21
sg29
S'TIME'
p67
sg13
g31
sbag1
(g25
g3
NtRp68
(dp69
g19
Nsg28
Nsg12
I22
sg29
S'WEEK'
p70
sg13
g31
sbag1
(g25
g3
NtRp71
(dp72
g19
Nsg28
Nsg12
I23
sg29
S'TEXT_AREA'
p73
sg13
g31
sbag1
(g25
g3
NtRp74
(dp75
g19
Nsg28
Nsg12
I24
sg29
S'CONTENT_EDITABLE'
p76
sg13
g31
sbag1
(g25
g3
NtRp77
(dp78
g19
Nsg28
Nsg12
I25
sg29
S'DATE_TIME_FIELD'
p79
sg13
g31
sbag1
(g25
g3
NtRp80
(dp81
g19
Nsg28
(S'IDENTIFIER'
p82
S'DATE_TIME_FIELD'
tp83
sg12
I26
sg29
S'MAX'
p84
sg13
g31
sbasg12
I9
sg13
g31
sbsg12
I8
sg29
S'TextInputType'
p85
sg13
g31
sbag1
(g16
g3
NtRp86
(dp87
g19
Nsg20
g1
(g21
g3
NtRp88
(dp89
g10
(lp90
g1
(g25
g3
NtRp91
(dp92
g19
Nsg28
Nsg12
I31
sg29
S'NONE'
p93
sg13
g31
sbag1
(g25
g3
NtRp94
(dp95
g19
Nsg28
S'0x001'
p96
sg12
I32
sg29
S'AUTOCOMPLETE_ON'
p97
sg13
g31
sbag1
(g25
g3
NtRp98
(dp99
g19
Nsg28
S'0x002'
p100
sg12
I33
sg29
S'AUTOCOMPLETE_OFF'
p101
sg13
g31
sbag1
(g25
g3
NtRp102
(dp103
g19
Nsg28
S'0x004'
p104
sg12
I34
sg29
S'AUTOCORRECT_ON'
p105
sg13
g31
sbag1
(g25
g3
NtRp106
(dp107
g19
Nsg28
S'0x008'
p108
sg12
I35
sg29
S'AUTOCORRECT_OFF'
p109
sg13
g31
sbag1
(g25
g3
NtRp110
(dp111
g19
Nsg28
S'0x010'
p112
sg12
I36
sg29
S'SPELLCHECK_ON'
p113
sg13
g31
sbag1
(g25
g3
NtRp114
(dp115
g19
Nsg28
S'0x020'
p116
sg12
I37
sg29
S'SPELLCHECK_OFF'
p117
sg13
g31
sbag1
(g25
g3
NtRp118
(dp119
g19
Nsg28
S'0x040'
p120
sg12
I38
sg29
S'AUTOCAPITALIZE_NONE'
p121
sg13
g31
sbag1
(g25
g3
NtRp122
(dp123
g19
Nsg28
S'0x080'
p124
sg12
I39
sg29
S'AUTOCAPITALIZE_CHARACTERS'
p125
sg13
g31
sbag1
(g25
g3
NtRp126
(dp127
g19
Nsg28
S'0x100'
p128
sg12
I40
sg29
S'AUTOCAPITALIZE_WORDS'
p129
sg13
g31
sbag1
(g25
g3
NtRp130
(dp131
g19
Nsg28
S'0x200'
p132
sg12
I41
sg29
S'AUTOCAPITALIZE_SENTENCES'
p133
sg13
g31
sbag1
(g25
g3
NtRp134
(dp135
g19
Nsg28
S'0x3FF'
p136
sg12
I42
sg29
S'ALL'
p137
sg13
g31
sbasg12
I31
sg13
g31
sbsg12
I30
sg29
S'TextInputFlag'
p138
sg13
g31
sbag1
(cmojom.parse.ast
Struct
p139
g3
NtRp140
(dp141
S'body'
p142
g1
(cmojom.parse.ast
StructBody
p143
g3
NtRp144
(dp145
g10
(lp146
g1
(cmojom.parse.ast
StructField
p147
g3
NtRp148
(dp149
S'ordinal'
p150
NsS'default_value'
p151
Nsg29
S'type'
p152
sg19
Nsg13
NsS'typename'
p153
S'TextInputType'
p154
sg12
Nsbag1
(g147
g3
NtRp155
(dp156
g150
Nsg151
Nsg29
S'flags'
p157
sg19
Nsg13
Nsg153
S'int32'
p158
sg12
Nsbag1
(g147
g3
NtRp159
(dp160
g150
Nsg151
Nsg29
S'text'
p161
sg19
Nsg13
Nsg153
S'string?'
p162
sg12
Nsbag1
(g147
g3
NtRp163
(dp164
g150
Nsg151
Nsg29
S'selection_start'
p165
sg19
Nsg13
Nsg153
S'int32'
p166
sg12
Nsbag1
(g147
g3
NtRp167
(dp168
g150
Nsg151
Nsg29
S'selection_end'
p169
sg19
Nsg13
Nsg153
S'int32'
p170
sg12
Nsbag1
(g147
g3
NtRp171
(dp172
g150
Nsg151
Nsg29
S'composition_start'
p173
sg19
Nsg13
Nsg153
S'int32'
p174
sg12
Nsbag1
(g147
g3
NtRp175
(dp176
g150
Nsg151
Nsg29
S'composition_end'
p177
sg19
Nsg13
Nsg153
S'int32'
p178
sg12
Nsbag1
(g147
g3
NtRp179
(dp180
g150
Nsg151
Nsg29
S'can_compose_inline'
p181
sg19
Nsg13
Nsg153
S'bool'
p182
sg12
Nsbasg12
Nsg13
Nsbsg19
Nsg12
Nsg29
S'TextInputState'
p183
sg13
Nsbasg12
NsS'module'
p184
g1
(cmojom.parse.ast
Module
p185
g3
NtRp186
(dp187
S'mojom_namespace'
p188
(g82
S'ui.mojom'
tp189
sg12
I5
sg19
Nsg13
g31
sbsg13
Nsb.