ccopy_reg
_reconstructor
p1
(cmojom.parse.ast
Mojom
p2
c__builtin__
object
p3
NtRp4
(dp5
S'import_list'
p6
g1
(cmojom.parse.ast
ImportList
p7
g3
NtRp8
(dp9
S'items'
p10
(lp11
g1
(cmojom.parse.ast
Import
p12
g3
NtRp13
(dp14
S'attribute_list'
p15
NsS'lineno'
p16
I7
sS'import_filename'
p17
S'mojo/public/mojom/base/time.mojom'
p18
sS'filename'
p19
S'../../chrome/common/page_load_metrics/page_load_metrics.mojom'
p20
sbag1
(g12
g3
NtRp21
(dp22
g15
Nsg16
I8
sg17
S'third_party/blink/public/platform/web_feature.mojom'
p23
sg19
g20
sbasg16
I7
sg19
g20
sbsS'definition_list'
p24
(lp25
g1
(cmojom.parse.ast
Struct
p26
g3
NtRp27
(dp28
S'body'
p29
g1
(cmojom.parse.ast
StructBody
p30
g3
NtRp31
(dp32
g10
(lp33
g1
(cmojom.parse.ast
StructField
p34
g3
NtRp35
(dp36
S'ordinal'
p37
NsS'default_value'
p38
NsS'mojom_name'
p39
S'dom_content_loaded_event_start'
p40
sg15
Nsg19
NsS'typename'
p41
S'mojo_base.mojom.TimeDelta?'
p42
sg16
Nsbag1
(g34
g3
NtRp43
(dp44
g37
Nsg38
Nsg39
S'load_event_start'
p45
sg15
Nsg19
Nsg41
S'mojo_base.mojom.TimeDelta?'
p46
sg16
Nsbag1
(g34
g3
NtRp47
(dp48
g37
Nsg38
Nsg39
S'first_layout'
p49
sg15
Nsg19
Nsg41
S'mojo_base.mojom.TimeDelta?'
p50
sg16
Nsbasg16
Nsg19
Nsbsg15
Nsg16
Nsg39
S'DocumentTiming'
p51
sg19
Nsbag1
(g26
g3
NtRp52
(dp53
g29
g1
(g30
g3
NtRp54
(dp55
g10
(lp56
g1
(g34
g3
NtRp57
(dp58
g37
Nsg38
Nsg39
S'first_paint'
p59
sg15
Nsg19
Nsg41
S'mojo_base.mojom.TimeDelta?'
p60
sg16
Nsbag1
(g34
g3
NtRp61
(dp62
g37
Nsg38
Nsg39
S'first_text_paint'
p63
sg15
Nsg19
Nsg41
S'mojo_base.mojom.TimeDelta?'
p64
sg16
Nsbag1
(g34
g3
NtRp65
(dp66
g37
Nsg38
Nsg39
S'first_image_paint'
p67
sg15
Nsg19
Nsg41
S'mojo_base.mojom.TimeDelta?'
p68
sg16
Nsbag1
(g34
g3
NtRp69
(dp70
g37
Nsg38
Nsg39
S'first_contentful_paint'
p71
sg15
Nsg19
Nsg41
S'mojo_base.mojom.TimeDelta?'
p72
sg16
Nsbag1
(g34
g3
NtRp73
(dp74
g37
Nsg38
Nsg39
S'first_meaningful_paint'
p75
sg15
Nsg19
Nsg41
S'mojo_base.mojom.TimeDelta?'
p76
sg16
Nsbasg16
Nsg19
Nsbsg15
Nsg16
Nsg39
S'PaintTiming'
p77
sg19
Nsbag1
(g26
g3
NtRp78
(dp79
g29
g1
(g30
g3
NtRp80
(dp81
g10
(lp82
g1
(g34
g3
NtRp83
(dp84
g37
Nsg38
Nsg39
S'parse_start'
p85
sg15
Nsg19
Nsg41
S'mojo_base.mojom.TimeDelta?'
p86
sg16
Nsbag1
(g34
g3
NtRp87
(dp88
g37
Nsg38
Nsg39
S'parse_stop'
p89
sg15
Nsg19
Nsg41
S'mojo_base.mojom.TimeDelta?'
p90
sg16
Nsbag1
(g34
g3
NtRp91
(dp92
g37
Nsg38
Nsg39
S'parse_blocked_on_script_load_duration'
p93
sg15
Nsg19
Nsg41
S'mojo_base.mojom.TimeDelta?'
p94
sg16
Nsbag1
(g34
g3
NtRp95
(dp96
g37
Nsg38
Nsg39
S'parse_blocked_on_script_load_from_document_write_duration'
p97
sg15
Nsg19
Nsg41
S'mojo_base.mojom.TimeDelta?'
p98
sg16
Nsbag1
(g34
g3
NtRp99
(dp100
g37
Nsg38
Nsg39
S'parse_blocked_on_script_execution_duration'
p101
sg15
Nsg19
Nsg41
S'mojo_base.mojom.TimeDelta?'
p102
sg16
Nsbag1
(g34
g3
NtRp103
(dp104
g37
Nsg38
Nsg39
S'parse_blocked_on_script_execution_from_document_write_duration'
p105
sg15
Nsg19
Nsg41
S'mojo_base.mojom.TimeDelta?'
p106
sg16
Nsbasg16
Nsg19
Nsbsg15
Nsg16
Nsg39
S'ParseTiming'
p107
sg19
Nsbag1
(g26
g3
NtRp108
(dp109
g29
g1
(g30
g3
NtRp110
(dp111
g10
(lp112
g1
(g34
g3
NtRp113
(dp114
g37
Nsg38
Nsg39
S'author_style_sheet_parse_duration_before_fcp'
p115
sg15
Nsg19
Nsg41
S'mojo_base.mojom.TimeDelta?'
p116
sg16
Nsbag1
(g34
g3
NtRp117
(dp118
g37
Nsg38
Nsg39
S'update_style_duration_before_fcp'
p119
sg15
Nsg19
Nsg41
S'mojo_base.mojom.TimeDelta?'
p120
sg16
Nsbasg16
Nsg19
Nsbsg15
Nsg16
Nsg39
S'StyleSheetTiming'
p121
sg19
Nsbag1
(g26
g3
NtRp122
(dp123
g29
g1
(g30
g3
NtRp124
(dp125
g10
(lp126
g1
(g34
g3
NtRp127
(dp128
g37
Nsg38
Nsg39
S'interactive'
p129
sg15
Nsg19
Nsg41
S'mojo_base.mojom.TimeDelta?'
p130
sg16
Nsbag1
(g34
g3
NtRp131
(dp132
g37
Nsg38
Nsg39
S'interactive_detection'
p133
sg15
Nsg19
Nsg41
S'mojo_base.mojom.TimeDelta?'
p134
sg16
Nsbag1
(g34
g3
NtRp135
(dp136
g37
Nsg38
Nsg39
S'first_invalidating_input'
p137
sg15
Nsg19
Nsg41
S'mojo_base.mojom.TimeDelta?'
p138
sg16
Nsbag1
(g34
g3
NtRp139
(dp140
g37
Nsg38
Nsg39
S'first_input_delay'
p141
sg15
Nsg19
Nsg41
S'mojo_base.mojom.TimeDelta?'
p142
sg16
Nsbag1
(g34
g3
NtRp143
(dp144
g37
Nsg38
Nsg39
S'first_input_timestamp'
p145
sg15
Nsg19
Nsg41
S'mojo_base.mojom.TimeDelta?'
p146
sg16
Nsbasg16
Nsg19
Nsbsg15
Nsg16
Nsg39
S'InteractiveTiming'
p147
sg19
Nsbag1
(g26
g3
NtRp148
(dp149
g29
g1
(g30
g3
NtRp150
(dp151
g10
(lp152
g1
(g34
g3
NtRp153
(dp154
g37
Nsg38
Nsg39
S'navigation_start'
p155
sg15
Nsg19
Nsg41
S'mojo_base.mojom.Time'
p156
sg16
Nsbag1
(g34
g3
NtRp157
(dp158
g37
Nsg38
Nsg39
S'response_start'
p159
sg15
Nsg19
Nsg41
S'mojo_base.mojom.TimeDelta?'
p160
sg16
Nsbag1
(g34
g3
NtRp161
(dp162
g37
Nsg38
Nsg39
S'document_timing'
p163
sg15
Nsg19
Nsg41
S'DocumentTiming'
p164
sg16
Nsbag1
(g34
g3
NtRp165
(dp166
g37
Nsg38
Nsg39
S'interactive_timing'
p167
sg15
Nsg19
Nsg41
S'InteractiveTiming'
p168
sg16
Nsbag1
(g34
g3
NtRp169
(dp170
g37
Nsg38
Nsg39
S'paint_timing'
p171
sg15
Nsg19
Nsg41
S'PaintTiming'
p172
sg16
Nsbag1
(g34
g3
NtRp173
(dp174
g37
Nsg38
Nsg39
S'parse_timing'
p175
sg15
Nsg19
Nsg41
S'ParseTiming'
p176
sg16
Nsbag1
(g34
g3
NtRp177
(dp178
g37
Nsg38
Nsg39
S'style_sheet_timing'
p179
sg15
Nsg19
Nsg41
S'StyleSheetTiming'
p180
sg16
Nsbasg16
Nsg19
Nsbsg15
Nsg16
Nsg39
S'PageLoadTiming'
p181
sg19
Nsbag1
(g26
g3
NtRp182
(dp183
g29
g1
(g30
g3
NtRp184
(dp185
g10
(lp186
g1
(g34
g3
NtRp187
(dp188
g37
Nsg38
S'0'
sg39
S'behavior_flags'
p189
sg15
Nsg19
Nsg41
S'int32'
p190
sg16
Nsbasg16
Nsg19
Nsbsg15
Nsg16
Nsg39
S'PageLoadMetadata'
p191
sg19
Nsbag1
(g26
g3
NtRp192
(dp193
g29
g1
(g30
g3
NtRp194
(dp195
g10
(lp196
g1
(g34
g3
NtRp197
(dp198
g37
Nsg38
Nsg39
S'features'
p199
sg15
Nsg19
Nsg41
S'blink.mojom.WebFeature[]'
p200
sg16
Nsbag1
(g34
g3
NtRp201
(dp202
g37
Nsg38
Nsg39
S'css_properties'
p203
sg15
Nsg19
Nsg41
S'int32[]'
p204
sg16
Nsbag1
(g34
g3
NtRp205
(dp206
g37
Nsg38
Nsg39
S'animated_css_properties'
p207
sg15
Nsg19
Nsg41
S'int32[]'
p208
sg16
Nsbasg16
Nsg19
Nsbsg15
Nsg16
Nsg39
S'PageLoadFeatures'
p209
sg19
Nsbag1
(cmojom.parse.ast
Interface
p210
g3
NtRp211
(dp212
g29
g1
(cmojom.parse.ast
InterfaceBody
p213
g3
NtRp214
(dp215
g10
(lp216
g1
(cmojom.parse.ast
Method
p217
g3
NtRp218
(dp219
g37
Nsg39
S'UpdateTiming'
p220
sS'parameter_list'
p221
g1
(cmojom.parse.ast
ParameterList
p222
g3
NtRp223
(dp224
g10
(lp225
g1
(cmojom.parse.ast
Parameter
p226
g3
NtRp227
(dp228
g37
Nsg39
S'page_load_timing'
p229
sg15
Nsg19
g20
sg41
S'PageLoadTiming'
p230
sg16
I158
sbag1
(g226
g3
NtRp231
(dp232
g37
Nsg39
S'page_load_metadata'
p233
sg15
Nsg19
g20
sg41
S'PageLoadMetadata'
p234
sg16
I159
sbag1
(g226
g3
NtRp235
(dp236
g37
Nsg39
S'new_features'
p237
sg15
Nsg19
g20
sg41
S'PageLoadFeatures'
p238
sg16
I160
sbasg16
I158
sg19
g20
sbsg15
Nsg19
Nsg16
NsS'response_parameter_list'
p239
Nsbasg16
Nsg19
Nsbsg15
Nsg16
Nsg39
S'PageLoadMetrics'
p240
sg19
Nsbasg16
NsS'module'
p241
g1
(cmojom.parse.ast
Module
p242
g3
NtRp243
(dp244
S'mojom_namespace'
p245
(S'IDENTIFIER'
p246
S'page_load_metrics.mojom'
tp247
sg16
I5
sg15
Nsg19
g20
sbsg19
Nsb.