ccopy_reg
_reconstructor
p1
(cmojom.parse.ast
Mojom
p2
c__builtin__
object
p3
NtRp4
(dp5
S'import_list'
p6
g1
(cmojom.parse.ast
ImportList
p7
g3
NtRp8
(dp9
S'items'
p10
(lp11
g1
(cmojom.parse.ast
Import
p12
g3
NtRp13
(dp14
S'attribute_list'
p15
NsS'lineno'
p16
I7
sS'import_filename'
p17
S'url/mojom/url.mojom'
p18
sS'filename'
p19
S'../../components/contextual_search/common/contextual_search_js_api_service.mojom'
p20
sbasg16
I7
sg19
g20
sbsS'definition_list'
p21
(lp22
g1
(cmojom.parse.ast
Interface
p23
g3
NtRp24
(dp25
S'body'
p26
g1
(cmojom.parse.ast
InterfaceBody
p27
g3
NtRp28
(dp29
g10
(lp30
g1
(cmojom.parse.ast
Method
p31
g3
NtRp32
(dp33
S'ordinal'
p34
NsS'mojom_name'
p35
S'ShouldEnableJsApi'
p36
sS'parameter_list'
p37
g1
(cmojom.parse.ast
ParameterList
p38
g3
NtRp39
(dp40
g10
(lp41
g1
(cmojom.parse.ast
Parameter
p42
g3
NtRp43
(dp44
g34
Nsg35
S'url'
p45
sg15
Nsg19
g20
sS'typename'
p46
S'url.mojom.Url'
p47
sg16
I15
sbasg16
I15
sg19
g20
sbsg15
Nsg19
Nsg16
NsS'response_parameter_list'
p48
g1
(g38
g3
NtRp49
(dp50
g10
(lp51
g1
(g42
g3
NtRp52
(dp53
g34
Nsg35
S'should_enable'
p54
sg15
Nsg19
g20
sg46
S'bool'
p55
sg16
I15
sbasg16
I15
sg19
g20
sbsbag1
(g31
g3
NtRp56
(dp57
g34
Nsg35
S'HandleSetCaption'
p58
sg37
g1
(g38
g3
NtRp59
(dp60
g10
(lp61
g1
(g42
g3
NtRp62
(dp63
g34
Nsg35
S'message'
p64
sg15
Nsg19
g20
sg46
S'string'
p65
sg16
I20
sbag1
(g42
g3
NtRp66
(dp67
g34
Nsg35
S'does_answer'
p68
sg15
Nsg19
g20
sg46
S'bool'
p69
sg16
I20
sbasg16
I20
sg19
g20
sbsg15
Nsg19
Nsg16
Nsg48
Nsbasg16
Nsg19
Nsbsg15
Nsg16
Nsg35
S'ContextualSearchJsApiService'
p70
sg19
Nsbasg16
NsS'module'
p71
g1
(cmojom.parse.ast
Module
p72
g3
NtRp73
(dp74
S'mojom_namespace'
p75
(S'IDENTIFIER'
p76
S'contextual_search.mojom'
tp77
sg16
I5
sg15
Nsg19
g20
sbsg19
Nsb.