ccopy_reg
_reconstructor
p1
(cmojom.parse.ast
Mojom
p2
c__builtin__
object
p3
NtRp4
(dp5
S'import_list'
p6
g1
(cmojom.parse.ast
ImportList
p7
g3
NtRp8
(dp9
S'items'
p10
(lp11
g1
(cmojom.parse.ast
Import
p12
g3
NtRp13
(dp14
S'attribute_list'
p15
NsS'lineno'
p16
I7
sS'import_filename'
p17
S'mojo/public/mojom/base/read_only_buffer.mojom'
p18
sS'filename'
p19
S'../../ipc/ipc.mojom'
p20
sbag1
(g12
g3
NtRp21
(dp22
g15
Nsg16
I8
sg17
S'mojo/public/interfaces/bindings/native_struct.mojom'
p23
sg19
g20
sbasg16
I7
sg19
g20
sbsS'definition_list'
p24
(lp25
g1
(cmojom.parse.ast
Interface
p26
g3
NtRp27
(dp28
S'body'
p29
g1
(cmojom.parse.ast
InterfaceBody
p30
g3
NtRp31
(dp32
g10
(lp33
sg16
Nsg19
Nsbsg15
Nsg16
NsS'mojom_name'
p34
S'GenericInterface'
p35
sg19
Nsbag1
(g26
g3
NtRp36
(dp37
g29
g1
(g30
g3
NtRp38
(dp39
g10
(lp40
g1
(cmojom.parse.ast
Method
p41
g3
NtRp42
(dp43
S'ordinal'
p44
Nsg34
S'SetPeerPid'
p45
sS'parameter_list'
p46
g1
(cmojom.parse.ast
ParameterList
p47
g3
NtRp48
(dp49
g10
(lp50
g1
(cmojom.parse.ast
Parameter
p51
g3
NtRp52
(dp53
g44
Nsg34
S'pid'
p54
sg15
Nsg19
g20
sS'typename'
p55
S'int32'
p56
sg16
I17
sbasg16
I17
sg19
g20
sbsg15
Nsg19
Nsg16
NsS'response_parameter_list'
p57
Nsbag1
(g41
g3
NtRp58
(dp59
g44
Nsg34
S'Receive'
p60
sg46
g1
(g47
g3
NtRp61
(dp62
g10
(lp63
g1
(g51
g3
NtRp64
(dp65
g44
Nsg34
S'data'
p66
sg15
Nsg19
g20
sg55
S'mojo_base.mojom.ReadOnlyBuffer'
p67
sg16
I20
sbag1
(g51
g3
NtRp68
(dp69
g44
Nsg34
S'handles'
p70
sg15
Nsg19
g20
sg55
S'mojo.native.SerializedHandle[]?'
p71
sg16
I21
sbasg16
I20
sg19
g20
sbsg15
Nsg19
Nsg16
Nsg57
Nsbag1
(g41
g3
NtRp72
(dp73
g44
Nsg34
S'GetAssociatedInterface'
p74
sg46
g1
(g47
g3
NtRp75
(dp76
g10
(lp77
g1
(g51
g3
NtRp78
(dp79
g44
Nsg34
S'name'
p80
sg15
Nsg19
g20
sg55
S'string'
p81
sg16
I24
sbag1
(g51
g3
NtRp82
(dp83
g44
Nsg34
S'request'
p84
sg15
Nsg19
g20
sg55
S'asso<GenericInterface&>'
p85
sg16
I24
sbasg16
I24
sg19
g20
sbsg15
Nsg19
Nsg16
Nsg57
Nsbasg16
Nsg19
Nsbsg15
Nsg16
Nsg34
S'Channel'
p86
sg19
Nsbag1
(g26
g3
NtRp87
(dp88
g29
g1
(g30
g3
NtRp89
(dp90
g10
(lp91
sg16
Nsg19
Nsbsg15
Nsg16
Nsg34
S'ChannelBootstrap'
p92
sg19
Nsbasg16
NsS'module'
p93
g1
(cmojom.parse.ast
Module
p94
g3
NtRp95
(dp96
S'mojom_namespace'
p97
(S'IDENTIFIER'
p98
S'IPC.mojom'
tp99
sg16
I5
sg15
Nsg19
g20
sbsg19
Nsb.