ccopy_reg
_reconstructor
p1
(cmojom.parse.ast
Mojom
p2
c__builtin__
object
p3
NtRp4
(dp5
S'import_list'
p6
g1
(cmojom.parse.ast
ImportList
p7
g3
NtRp8
(dp9
S'items'
p10
(lp11
sS'lineno'
p12
NsS'filename'
p13
NsbsS'definition_list'
p14
(lp15
g1
(cmojom.parse.ast
Enum
p16
g3
NtRp17
(dp18
S'attribute_list'
p19
NsS'enum_value_list'
p20
g1
(cmojom.parse.ast
EnumValueList
p21
g3
NtRp22
(dp23
g10
(lp24
g1
(cmojom.parse.ast
EnumValue
p25
g3
NtRp26
(dp27
g19
NsS'value'
p28
Nsg12
I8
sS'mojom_name'
p29
S'NOT_INITIALIZED'
p30
sg13
S'../../media/midi/midi_service.mojom'
p31
sbag1
(g25
g3
NtRp32
(dp33
g19
Nsg28
Nsg12
I9
sg29
S'OK'
p34
sg13
g31
sbag1
(g25
g3
NtRp35
(dp36
g19
Nsg28
Nsg12
I10
sg29
S'NOT_SUPPORTED'
p37
sg13
g31
sbag1
(g25
g3
NtRp38
(dp39
g19
Nsg28
Nsg12
I11
sg29
S'INITIALIZATION_ERROR'
p40
sg13
g31
sbag1
(g25
g3
NtRp41
(dp42
g19
Nsg28
(S'IDENTIFIER'
p43
S'INITIALIZATION_ERROR'
tp44
sg12
I22
sg29
S'MAX'
p45
sg13
g31
sbasg12
I8
sg13
g31
sbsg12
I7
sg29
S'Result'
p46
sg13
g31
sbag1
(g16
g3
NtRp47
(dp48
g19
Nsg20
g1
(g21
g3
NtRp49
(dp50
g10
(lp51
g1
(g25
g3
NtRp52
(dp53
g19
Nsg28
Nsg12
I26
sg29
S'DISCONNECTED'
p54
sg13
g31
sbag1
(g25
g3
NtRp55
(dp56
g19
Nsg28
Nsg12
I27
sg29
S'CONNECTED'
p57
sg13
g31
sbag1
(g25
g3
NtRp58
(dp59
g19
Nsg28
Nsg12
I28
sg29
S'OPENED'
p60
sg13
g31
sbag1
(g25
g3
NtRp61
(dp62
g19
Nsg28
(g43
S'OPENED'
tp63
sg12
I31
sg29
S'LAST'
p64
sg13
g31
sbasg12
I26
sg13
g31
sbsg12
I25
sg29
S'PortState'
p65
sg13
g31
sbasg12
NsS'module'
p66
g1
(cmojom.parse.ast
Module
p67
g3
NtRp68
(dp69
S'mojom_namespace'
p70
(g43
S'midi.mojom'
tp71
sg12
I5
sg19
Nsg13
g31
sbsg13
Nsb.