ccopy_reg
_reconstructor
p1
(cmojom.parse.ast
Mojom
p2
c__builtin__
object
p3
NtRp4
(dp5
S'import_list'
p6
g1
(cmojom.parse.ast
ImportList
p7
g3
NtRp8
(dp9
S'items'
p10
(lp11
sS'lineno'
p12
NsS'filename'
p13
NsbsS'definition_list'
p14
(lp15
g1
(cmojom.parse.ast
Enum
p16
g3
NtRp17
(dp18
S'attribute_list'
p19
g1
(cmojom.parse.ast
AttributeList
p20
g3
NtRp21
(dp22
g10
(lp23
g1
(cmojom.parse.ast
Attribute
p24
g3
NtRp25
(dp26
S'value'
p27
I01
sg12
I7
sS'key'
p28
S'Native'
p29
sg13
S'../../components/nacl/common/nacl.mojom'
p30
sbasg12
I7
sg13
g30
sbsS'enum_value_list'
p31
Nsg12
I8
sS'mojom_name'
p32
S'NaClErrorCode'
p33
sg13
g30
sbag1
(cmojom.parse.ast
Interface
p34
g3
NtRp35
(dp36
S'body'
p37
g1
(cmojom.parse.ast
InterfaceBody
p38
g3
NtRp39
(dp40
g10
(lp41
g1
(cmojom.parse.ast
Method
p42
g3
NtRp43
(dp44
S'ordinal'
p45
Nsg32
S'ReportExitStatus'
p46
sS'parameter_list'
p47
g1
(cmojom.parse.ast
ParameterList
p48
g3
NtRp49
(dp50
g10
(lp51
g1
(cmojom.parse.ast
Parameter
p52
g3
NtRp53
(dp54
g45
Nsg32
S'exit_status'
p55
sg19
Nsg13
g30
sS'typename'
p56
S'int32'
p57
sg12
I14
sbasg12
I14
sg13
g30
sbsg19
g1
(g20
g3
NtRp58
(dp59
g10
(lp60
g1
(g24
g3
NtRp61
(dp62
g27
I01
sg12
I13
sg28
S'Sync'
p63
sg13
g30
sbasg12
I13
sg13
g30
sbsg13
Nsg12
NsS'response_parameter_list'
p64
g1
(g48
g3
NtRp65
(dp66
g10
(lp67
sg12
Nsg13
Nsbsbag1
(g42
g3
NtRp68
(dp69
g45
Nsg32
S'ReportLoadStatus'
p70
sg47
g1
(g48
g3
NtRp71
(dp72
g10
(lp73
g1
(g52
g3
NtRp74
(dp75
g45
Nsg32
S'load_status'
p76
sg19
Nsg13
g30
sg56
S'NaClErrorCode'
p77
sg12
I19
sbasg12
I19
sg13
g30
sbsg19
g1
(g20
g3
NtRp78
(dp79
g10
(lp80
g1
(g24
g3
NtRp81
(dp82
g27
I01
sg12
I18
sg28
S'Sync'
p83
sg13
g30
sbasg12
I18
sg13
g30
sbsg13
Nsg12
Nsg64
g1
(g48
g3
NtRp84
(dp85
g10
(lp86
sg12
Nsg13
Nsbsbag1
(g42
g3
NtRp87
(dp88
g45
Nsg32
S'ProvideExitControl'
p89
sg47
g1
(g48
g3
NtRp90
(dp91
g10
(lp92
g1
(g52
g3
NtRp93
(dp94
g45
Nsg32
S'exit_control'
p95
sg19
Nsg13
g30
sg56
S'NaClExitControl'
p96
sg12
I21
sbasg12
I21
sg13
g30
sbsg19
Nsg13
Nsg12
Nsg64
Nsbasg12
Nsg13
Nsbsg19
Nsg12
Nsg32
S'NaClRendererHost'
p97
sg13
Nsbag1
(g34
g3
NtRp98
(dp99
g37
g1
(g38
g3
NtRp100
(dp101
g10
(lp102
sg12
Nsg13
Nsbsg19
Nsg12
Nsg32
S'NaClExitControl'
p103
sg13
Nsbasg12
NsS'module'
p104
g1
(cmojom.parse.ast
Module
p105
g3
NtRp106
(dp107
S'mojom_namespace'
p108
(S'IDENTIFIER'
p109
S'nacl.mojom'
tp110
sg12
I5
sg19
Nsg13
g30
sbsg13
Nsb.