ccopy_reg
_reconstructor
p1
(cmojom.parse.ast
Mojom
p2
c__builtin__
object
p3
NtRp4
(dp5
S'import_list'
p6
g1
(cmojom.parse.ast
ImportList
p7
g3
NtRp8
(dp9
S'items'
p10
(lp11
g1
(cmojom.parse.ast
Import
p12
g3
NtRp13
(dp14
S'attribute_list'
p15
NsS'lineno'
p16
I7
sS'import_filename'
p17
S'mojo/public/mojom/base/time.mojom'
p18
sS'filename'
p19
S'../../ui/events/mojo/event.mojom'
p20
sbag1
(g12
g3
NtRp21
(dp22
g15
Nsg16
I8
sg17
S'ui/events/mojo/event_constants.mojom'
p23
sg19
g20
sbag1
(g12
g3
NtRp24
(dp25
g15
Nsg16
I9
sg17
S'ui/events/mojo/keyboard_codes.mojom'
p26
sg19
g20
sbag1
(g12
g3
NtRp27
(dp28
g15
Nsg16
I10
sg17
S'ui/latency/mojo/latency_info.mojom'
p29
sg19
g20
sbasg16
I7
sg19
g20
sbsS'definition_list'
p30
(lp31
g1
(cmojom.parse.ast
Struct
p32
g3
NtRp33
(dp34
S'body'
p35
g1
(cmojom.parse.ast
StructBody
p36
g3
NtRp37
(dp38
g10
(lp39
g1
(cmojom.parse.ast
StructField
p40
g3
NtRp41
(dp42
S'ordinal'
p43
NsS'default_value'
p44
NsS'mojom_name'
p45
S'key_code'
p46
sg15
Nsg19
NsS'typename'
p47
S'int32'
p48
sg16
Nsbag1
(g40
g3
NtRp49
(dp50
g43
Nsg44
Nsg45
S'is_char'
p51
sg15
Nsg19
Nsg47
S'bool'
p52
sg16
Nsbag1
(g40
g3
NtRp53
(dp54
g43
Nsg44
Nsg45
S'character'
p55
sg15
Nsg19
Nsg47
S'uint16'
p56
sg16
Nsbag1
(g40
g3
NtRp57
(dp58
g43
Nsg44
Nsg45
S'windows_key_code'
p59
sg15
Nsg19
Nsg47
S'KeyboardCode'
p60
sg16
Nsbag1
(g40
g3
NtRp61
(dp62
g43
Nsg44
Nsg45
S'native_key_code'
p63
sg15
Nsg19
Nsg47
S'int32'
p64
sg16
Nsbag1
(g40
g3
NtRp65
(dp66
g43
Nsg44
Nsg45
S'text'
p67
sg15
Nsg19
Nsg47
S'uint16'
p68
sg16
Nsbag1
(g40
g3
NtRp69
(dp70
g43
Nsg44
Nsg45
S'unmodified_text'
p71
sg15
Nsg19
Nsg47
S'uint16'
p72
sg16
Nsbag1
(g40
g3
NtRp73
(dp74
g43
Nsg44
Nsg45
S'properties'
p75
sg15
Nsg19
Nsg47
S'uint8[]{string}?'
p76
sg16
Nsbasg16
Nsg19
Nsbsg15
Nsg16
Nsg45
S'KeyData'
p77
sg19
Nsbag1
(g32
g3
NtRp78
(dp79
g35
g1
(g36
g3
NtRp80
(dp81
g10
(lp82
g1
(g40
g3
NtRp83
(dp84
g43
Nsg44
Nsg45
S'x'
sg15
Nsg19
Nsg47
S'float'
p85
sg16
Nsbag1
(g40
g3
NtRp86
(dp87
g43
Nsg44
Nsg45
S'y'
sg15
Nsg19
Nsg47
S'float'
p88
sg16
Nsbag1
(g40
g3
NtRp89
(dp90
g43
Nsg44
Nsg45
S'screen_x'
p91
sg15
Nsg19
Nsg47
S'float'
p92
sg16
Nsbag1
(g40
g3
NtRp93
(dp94
g43
Nsg44
Nsg45
S'screen_y'
p95
sg15
Nsg19
Nsg47
S'float'
p96
sg16
Nsbasg16
Nsg19
Nsbsg15
Nsg16
Nsg45
S'LocationData'
p97
sg19
Nsbag1
(g32
g3
NtRp98
(dp99
g35
g1
(g36
g3
NtRp100
(dp101
g10
(lp102
g1
(g40
g3
NtRp103
(dp104
g43
Nsg44
Nsg45
S'pointer_id'
p105
sg15
Nsg19
Nsg47
S'int32'
p106
sg16
Nsbag1
(g40
g3
NtRp107
(dp108
g43
Nsg44
Nsg45
S'changed_button_flags'
p109
sg15
Nsg19
Nsg47
S'int32'
p110
sg16
Nsbag1
(g40
g3
NtRp111
(dp112
g43
Nsg44
Nsg45
S'kind'
p113
sg15
Nsg19
Nsg47
S'PointerKind'
p114
sg16
Nsbag1
(g40
g3
NtRp115
(dp116
g43
Nsg44
Nsg45
S'location'
p117
sg15
Nsg19
Nsg47
S'LocationData'
p118
sg16
Nsbag1
(g40
g3
NtRp119
(dp120
g43
Nsg44
Nsg45
S'brush_data'
p121
sg15
Nsg19
Nsg47
S'BrushData?'
p122
sg16
Nsbag1
(g40
g3
NtRp123
(dp124
g43
Nsg44
Nsg45
S'wheel_data'
p125
sg15
Nsg19
Nsg47
S'WheelData?'
p126
sg16
Nsbasg16
Nsg19
Nsbsg15
Nsg16
Nsg45
S'PointerData'
p127
sg19
Nsbag1
(g32
g3
NtRp128
(dp129
g35
g1
(g36
g3
NtRp130
(dp131
g10
(lp132
g1
(g40
g3
NtRp133
(dp134
g43
Nsg44
Nsg45
S'mode'
p135
sg15
Nsg19
Nsg47
S'WheelMode'
p136
sg16
Nsbag1
(g40
g3
NtRp137
(dp138
g43
Nsg44
Nsg45
S'delta_x'
p139
sg15
Nsg19
Nsg47
S'float'
p140
sg16
Nsbag1
(g40
g3
NtRp141
(dp142
g43
Nsg44
Nsg45
S'delta_y'
p143
sg15
Nsg19
Nsg47
S'float'
p144
sg16
Nsbag1
(g40
g3
NtRp145
(dp146
g43
Nsg44
Nsg45
S'delta_z'
p147
sg15
Nsg19
Nsg47
S'float'
p148
sg16
Nsbasg16
Nsg19
Nsbsg15
Nsg16
Nsg45
S'WheelData'
p149
sg19
Nsbag1
(g32
g3
NtRp150
(dp151
g35
g1
(g36
g3
NtRp152
(dp153
g10
(lp154
g1
(g40
g3
NtRp155
(dp156
g43
Nsg44
Nsg45
S'width'
p157
sg15
Nsg19
Nsg47
S'float'
p158
sg16
Nsbag1
(g40
g3
NtRp159
(dp160
g43
Nsg44
Nsg45
S'height'
p161
sg15
Nsg19
Nsg47
S'float'
p162
sg16
Nsbag1
(g40
g3
NtRp163
(dp164
g43
Nsg44
Nsg45
S'pressure'
p165
sg15
Nsg19
Nsg47
S'float'
p166
sg16
Nsbag1
(g40
g3
NtRp167
(dp168
g43
Nsg44
Nsg45
S'tilt_x'
p169
sg15
Nsg19
Nsg47
S'float'
p170
sg16
Nsbag1
(g40
g3
NtRp171
(dp172
g43
Nsg44
Nsg45
S'tilt_y'
p173
sg15
Nsg19
Nsg47
S'float'
p174
sg16
Nsbag1
(g40
g3
NtRp175
(dp176
g43
Nsg44
Nsg45
S'tangential_pressure'
p177
sg15
Nsg19
Nsg47
S'float'
p178
sg16
Nsbag1
(g40
g3
NtRp179
(dp180
g43
Nsg44
Nsg45
S'twist'
p181
sg15
Nsg19
Nsg47
S'int32'
p182
sg16
Nsbasg16
Nsg19
Nsbsg15
Nsg16
Nsg45
S'BrushData'
p183
sg19
Nsbag1
(g32
g3
NtRp184
(dp185
g35
g1
(g36
g3
NtRp186
(dp187
g10
(lp188
g1
(g40
g3
NtRp189
(dp190
g43
Nsg44
Nsg45
S'location'
p191
sg15
Nsg19
Nsg47
S'LocationData'
p192
sg16
Nsbasg16
Nsg19
Nsbsg15
Nsg16
Nsg45
S'GestureData'
p193
sg19
Nsbag1
(g32
g3
NtRp194
(dp195
g35
g1
(g36
g3
NtRp196
(dp197
g10
(lp198
g1
(g40
g3
NtRp199
(dp200
g43
Nsg44
Nsg45
S'location'
p201
sg15
Nsg19
Nsg47
S'LocationData'
p202
sg16
Nsbag1
(g40
g3
NtRp203
(dp204
g43
Nsg44
Nsg45
S'x_offset'
p205
sg15
Nsg19
Nsg47
S'float'
p206
sg16
Nsbag1
(g40
g3
NtRp207
(dp208
g43
Nsg44
Nsg45
S'y_offset'
p209
sg15
Nsg19
Nsg47
S'float'
p210
sg16
Nsbag1
(g40
g3
NtRp211
(dp212
g43
Nsg44
Nsg45
S'x_offset_ordinal'
p213
sg15
Nsg19
Nsg47
S'float'
p214
sg16
Nsbag1
(g40
g3
NtRp215
(dp216
g43
Nsg44
Nsg45
S'y_offset_ordinal'
p217
sg15
Nsg19
Nsg47
S'float'
p218
sg16
Nsbag1
(g40
g3
NtRp219
(dp220
g43
Nsg44
Nsg45
S'finger_count'
p221
sg15
Nsg19
Nsg47
S'int32'
p222
sg16
Nsbag1
(g40
g3
NtRp223
(dp224
g43
Nsg44
Nsg45
S'momentum_phase'
p225
sg15
Nsg19
Nsg47
S'EventMomentumPhase'
p226
sg16
Nsbag1
(g40
g3
NtRp227
(dp228
g43
Nsg44
Nsg45
S'scroll_event_phase'
p229
sg15
Nsg19
Nsg47
S'ScrollEventPhase'
p230
sg16
Nsbasg16
Nsg19
Nsbsg15
Nsg16
Nsg45
S'ScrollData'
p231
sg19
Nsbag1
(g32
g3
NtRp232
(dp233
g35
g1
(g36
g3
NtRp234
(dp235
g10
(lp236
g1
(g40
g3
NtRp237
(dp238
g43
Nsg44
Nsg45
S'action'
p239
sg15
Nsg19
Nsg47
S'EventType'
p240
sg16
Nsbag1
(g40
g3
NtRp241
(dp242
g43
Nsg44
Nsg45
S'flags'
p243
sg15
Nsg19
Nsg47
S'int32'
p244
sg16
Nsbag1
(g40
g3
NtRp245
(dp246
g43
Nsg44
Nsg45
S'time_stamp'
p247
sg15
Nsg19
Nsg47
S'mojo_base.mojom.TimeTicks'
p248
sg16
Nsbag1
(g40
g3
NtRp249
(dp250
g43
Nsg44
Nsg45
S'latency'
p251
sg15
Nsg19
Nsg47
S'LatencyInfo'
p252
sg16
Nsbag1
(g40
g3
NtRp253
(dp254
g43
Nsg44
Nsg45
S'key_data'
p255
sg15
Nsg19
Nsg47
S'KeyData?'
p256
sg16
Nsbag1
(g40
g3
NtRp257
(dp258
g43
Nsg44
Nsg45
S'pointer_data'
p259
sg15
Nsg19
Nsg47
S'PointerData?'
p260
sg16
Nsbag1
(g40
g3
NtRp261
(dp262
g43
Nsg44
Nsg45
S'gesture_data'
p263
sg15
Nsg19
Nsg47
S'GestureData?'
p264
sg16
Nsbag1
(g40
g3
NtRp265
(dp266
g43
Nsg44
Nsg45
S'scroll_data'
p267
sg15
Nsg19
Nsg47
S'ScrollData?'
p268
sg16
Nsbasg16
Nsg19
Nsbsg15
Nsg16
Nsg45
S'Event'
p269
sg19
Nsbasg16
NsS'module'
p270
g1
(cmojom.parse.ast
Module
p271
g3
NtRp272
(dp273
S'mojom_namespace'
p274
(S'IDENTIFIER'
p275
S'ui.mojom'
tp276
sg16
I5
sg15
Nsg19
g20
sbsg19
Nsb.