ccopy_reg
_reconstructor
p1
(cmojom.parse.ast
Mojom
p2
c__builtin__
object
p3
NtRp4
(dp5
S'import_list'
p6
g1
(cmojom.parse.ast
ImportList
p7
g3
NtRp8
(dp9
S'items'
p10
(lp11
sS'lineno'
p12
NsS'filename'
p13
NsbsS'definition_list'
p14
(lp15
g1
(cmojom.parse.ast
Enum
p16
g3
NtRp17
(dp18
S'attribute_list'
p19
NsS'enum_value_list'
p20
g1
(cmojom.parse.ast
EnumValueList
p21
g3
NtRp22
(dp23
g10
(lp24
g1
(cmojom.parse.ast
EnumValue
p25
g3
NtRp26
(dp27
g19
NsS'value'
p28
Nsg12
I11
sS'mojom_name'
p29
S'PRE_TARGET'
p30
sg13
S'../../ui/events/mojo/event_constants.mojom'
p31
sbag1
(g25
g3
NtRp32
(dp33
g19
Nsg28
Nsg12
I12
sg29
S'POST_TARGET'
p34
sg13
g31
sbasg12
I11
sg13
g31
sbsg12
I10
sg29
S'AcceleratorPhase'
p35
sg13
g31
sbag1
(g16
g3
NtRp36
(dp37
g19
Nsg20
g1
(g21
g3
NtRp38
(dp39
g10
(lp40
g1
(g25
g3
NtRp41
(dp42
g19
Nsg28
Nsg12
I16
sg29
S'UNKNOWN'
p43
sg13
g31
sbag1
(g25
g3
NtRp44
(dp45
g19
Nsg28
Nsg12
I17
sg29
S'KEY_PRESSED'
p46
sg13
g31
sbag1
(g25
g3
NtRp47
(dp48
g19
Nsg28
Nsg12
I18
sg29
S'KEY_RELEASED'
p49
sg13
g31
sbag1
(g25
g3
NtRp50
(dp51
g19
Nsg28
Nsg12
I19
sg29
S'POINTER_DOWN'
p52
sg13
g31
sbag1
(g25
g3
NtRp53
(dp54
g19
Nsg28
Nsg12
I20
sg29
S'POINTER_MOVED'
p55
sg13
g31
sbag1
(g25
g3
NtRp56
(dp57
g19
Nsg28
Nsg12
I21
sg29
S'POINTER_UP'
p58
sg13
g31
sbag1
(g25
g3
NtRp59
(dp60
g19
Nsg28
Nsg12
I22
sg29
S'POINTER_CANCELLED'
p61
sg13
g31
sbag1
(g25
g3
NtRp62
(dp63
g19
Nsg28
Nsg12
I23
sg29
S'POINTER_ENTERED'
p64
sg13
g31
sbag1
(g25
g3
NtRp65
(dp66
g19
Nsg28
Nsg12
I24
sg29
S'POINTER_EXITED'
p67
sg13
g31
sbag1
(g25
g3
NtRp68
(dp69
g19
Nsg28
Nsg12
I25
sg29
S'POINTER_WHEEL_CHANGED'
p70
sg13
g31
sbag1
(g25
g3
NtRp71
(dp72
g19
Nsg28
Nsg12
I26
sg29
S'POINTER_CAPTURE_CHANGED'
p73
sg13
g31
sbag1
(g25
g3
NtRp74
(dp75
g19
Nsg28
Nsg12
I27
sg29
S'GESTURE_TAP'
p76
sg13
g31
sbag1
(g25
g3
NtRp77
(dp78
g19
Nsg28
Nsg12
I28
sg29
S'SCROLL'
p79
sg13
g31
sbag1
(g25
g3
NtRp80
(dp81
g19
Nsg28
Nsg12
I29
sg29
S'SCROLL_FLING_START'
p82
sg13
g31
sbag1
(g25
g3
NtRp83
(dp84
g19
Nsg28
Nsg12
I30
sg29
S'SCROLL_FLING_CANCEL'
p85
sg13
g31
sbasg12
I16
sg13
g31
sbsg12
I15
sg29
S'EventType'
p86
sg13
g31
sbag1
(cmojom.parse.ast
Const
p87
g3
NtRp88
(dp89
g29
S'kEventFlagNone'
p90
sg19
Nsg28
S'0x00000'
p91
sg13
NsS'typename'
p92
S'int32'
p93
sg12
Nsbag1
(g87
g3
NtRp94
(dp95
g29
S'kEventFlagIsSynthesized'
p96
sg19
Nsg28
S'0x00001'
p97
sg13
Nsg92
S'int32'
p98
sg12
Nsbag1
(g87
g3
NtRp99
(dp100
g29
S'kEventFlagShiftDown'
p101
sg19
Nsg28
S'0x00002'
p102
sg13
Nsg92
S'int32'
p103
sg12
Nsbag1
(g87
g3
NtRp104
(dp105
g29
S'kEventFlagControlDown'
p106
sg19
Nsg28
S'0x00004'
p107
sg13
Nsg92
S'int32'
p108
sg12
Nsbag1
(g87
g3
NtRp109
(dp110
g29
S'kEventFlagAltDown'
p111
sg19
Nsg28
S'0x00008'
p112
sg13
Nsg92
S'int32'
p113
sg12
Nsbag1
(g87
g3
NtRp114
(dp115
g29
S'kEventFlagCommandDown'
p116
sg19
Nsg28
S'0x00010'
p117
sg13
Nsg92
S'int32'
p118
sg12
Nsbag1
(g87
g3
NtRp119
(dp120
g29
S'kEventFlagAltgrDown'
p121
sg19
Nsg28
S'0x00020'
p122
sg13
Nsg92
S'int32'
p123
sg12
Nsbag1
(g87
g3
NtRp124
(dp125
g29
S'kEventFlagMod3Down'
p126
sg19
Nsg28
S'0x00040'
p127
sg13
Nsg92
S'int32'
p128
sg12
Nsbag1
(g87
g3
NtRp129
(dp130
g29
S'kEventFlagNumLockOn'
p131
sg19
Nsg28
S'0x00080'
p132
sg13
Nsg92
S'int32'
p133
sg12
Nsbag1
(g87
g3
NtRp134
(dp135
g29
S'kEventFlagCapsLockOn'
p136
sg19
Nsg28
S'0x00100'
p137
sg13
Nsg92
S'int32'
p138
sg12
Nsbag1
(g87
g3
NtRp139
(dp140
g29
S'kEventFlagScrollLockOn'
p141
sg19
Nsg28
S'0x00200'
p142
sg13
Nsg92
S'int32'
p143
sg12
Nsbag1
(g87
g3
NtRp144
(dp145
g29
S'kEventFlagLeftMouseButton'
p146
sg19
Nsg28
S'0x00400'
p147
sg13
Nsg92
S'int32'
p148
sg12
Nsbag1
(g87
g3
NtRp149
(dp150
g29
S'kEventFlagMiddleMouseButton'
p151
sg19
Nsg28
S'0x00800'
p152
sg13
Nsg92
S'int32'
p153
sg12
Nsbag1
(g87
g3
NtRp154
(dp155
g29
S'kEventFlagRightMouseButton'
p156
sg19
Nsg28
S'0x01000'
p157
sg13
Nsg92
S'int32'
p158
sg12
Nsbag1
(g87
g3
NtRp159
(dp160
g29
S'kEventFlagBackMouseButton'
p161
sg19
Nsg28
S'0x02000'
p162
sg13
Nsg92
S'int32'
p163
sg12
Nsbag1
(g87
g3
NtRp164
(dp165
g29
S'kEventFlagForwardMouseButton'
p166
sg19
Nsg28
S'0x04000'
p167
sg13
Nsg92
S'int32'
p168
sg12
Nsbag1
(g87
g3
NtRp169
(dp170
g29
S'kMouseEventFlagIsDoubleClick'
p171
sg19
Nsg28
S'0x08000'
p172
sg13
Nsg92
S'int32'
p173
sg12
Nsbag1
(g87
g3
NtRp174
(dp175
g29
S'kMouseEventFlagIsTripleClick'
p176
sg19
Nsg28
S'0x10000'
p177
sg13
Nsg92
S'int32'
p178
sg12
Nsbag1
(g87
g3
NtRp179
(dp180
g29
S'kMouseEventFlagIsNonClient'
p181
sg19
Nsg28
S'0x20000'
p182
sg13
Nsg92
S'int32'
p183
sg12
Nsbag1
(g16
g3
NtRp184
(dp185
g19
Nsg20
g1
(g21
g3
NtRp186
(dp187
g10
(lp188
g1
(g25
g3
NtRp189
(dp190
g19
Nsg28
Nsg12
I59
sg29
S'MOUSE'
p191
sg13
g31
sbag1
(g25
g3
NtRp192
(dp193
g19
Nsg28
Nsg12
I60
sg29
S'PEN'
p194
sg13
g31
sbag1
(g25
g3
NtRp195
(dp196
g19
Nsg28
Nsg12
I61
sg29
S'TOUCH'
p197
sg13
g31
sbag1
(g25
g3
NtRp198
(dp199
g19
Nsg28
Nsg12
I62
sg29
S'ERASER'
p200
sg13
g31
sbasg12
I59
sg13
g31
sbsg12
I58
sg29
S'PointerKind'
p201
sg13
g31
sbag1
(g16
g3
NtRp202
(dp203
g19
Nsg20
g1
(g21
g3
NtRp204
(dp205
g10
(lp206
g1
(g25
g3
NtRp207
(dp208
g19
Nsg28
Nsg12
I66
sg29
S'PIXEL'
p209
sg13
g31
sbag1
(g25
g3
NtRp210
(dp211
g19
Nsg28
Nsg12
I67
sg29
S'LINE'
p212
sg13
g31
sbag1
(g25
g3
NtRp213
(dp214
g19
Nsg28
Nsg12
I68
sg29
S'PAGE'
p215
sg13
g31
sbag1
(g25
g3
NtRp216
(dp217
g19
Nsg28
Nsg12
I69
sg29
S'SCALING'
p218
sg13
g31
sbasg12
I66
sg13
g31
sbsg12
I65
sg29
S'WheelMode'
p219
sg13
g31
sbag1
(g16
g3
NtRp220
(dp221
g19
Nsg20
g1
(g21
g3
NtRp222
(dp223
g10
(lp224
g1
(g25
g3
NtRp225
(dp226
g19
Nsg28
Nsg12
I75
sg29
S'kNone'
p227
sg13
g31
sbag1
(g25
g3
NtRp228
(dp229
g19
Nsg28
Nsg12
I76
sg29
S'kBegan'
p230
sg13
g31
sbag1
(g25
g3
NtRp231
(dp232
g19
Nsg28
Nsg12
I77
sg29
S'kUpdate'
p233
sg13
g31
sbag1
(g25
g3
NtRp234
(dp235
g19
Nsg28
Nsg12
I78
sg29
S'kEnd'
p236
sg13
g31
sbasg12
I75
sg13
g31
sbsg12
I74
sg29
S'ScrollEventPhase'
p237
sg13
g31
sbag1
(g16
g3
NtRp238
(dp239
g19
Nsg20
g1
(g21
g3
NtRp240
(dp241
g10
(lp242
g1
(g25
g3
NtRp243
(dp244
g19
Nsg28
Nsg12
I84
sg29
S'NONE'
p245
sg13
g31
sbag1
(g25
g3
NtRp246
(dp247
g19
Nsg28
Nsg12
I85
sg29
S'BEGAN'
p248
sg13
g31
sbag1
(g25
g3
NtRp249
(dp250
g19
Nsg28
Nsg12
I86
sg29
S'MAY_BEGIN'
p251
sg13
g31
sbag1
(g25
g3
NtRp252
(dp253
g19
Nsg28
Nsg12
I87
sg29
S'INERTIAL_UPDATE'
p254
sg13
g31
sbag1
(g25
g3
NtRp255
(dp256
g19
Nsg28
Nsg12
I88
sg29
S'END'
p257
sg13
g31
sbasg12
I84
sg13
g31
sbsg12
I83
sg29
S'EventMomentumPhase'
p258
sg13
g31
sbasg12
NsS'module'
p259
g1
(cmojom.parse.ast
Module
p260
g3
NtRp261
(dp262
S'mojom_namespace'
p263
(S'IDENTIFIER'
p264
S'ui.mojom'
tp265
sg12
I5
sg19
Nsg13
g31
sbsg13
Nsb.