ccopy_reg
_reconstructor
p1
(cmojom.parse.ast
Mojom
p2
c__builtin__
object
p3
NtRp4
(dp5
S'import_list'
p6
g1
(cmojom.parse.ast
ImportList
p7
g3
NtRp8
(dp9
S'items'
p10
(lp11
g1
(cmojom.parse.ast
Import
p12
g3
NtRp13
(dp14
S'attribute_list'
p15
NsS'lineno'
p16
I7
sS'import_filename'
p17
S'mojo/public/mojom/base/time.mojom'
p18
sS'filename'
p19
S'../../services/viz/privileged/interfaces/compositing/display_private.mojom'
p20
sbag1
(g12
g3
NtRp21
(dp22
g15
Nsg16
I8
sg17
S'ui/gfx/mojo/ca_layer_params.mojom'
p23
sg19
g20
sbag1
(g12
g3
NtRp24
(dp25
g15
Nsg16
I9
sg17
S'ui/gfx/mojo/color_space.mojom'
p26
sg19
g20
sbag1
(g12
g3
NtRp27
(dp28
g15
Nsg16
I10
sg17
S'ui/gfx/mojo/transform.mojom'
p29
sg19
g20
sbag1
(g12
g3
NtRp30
(dp31
g15
Nsg16
I11
sg17
S'ui/latency/mojo/latency_info.mojom'
p32
sg19
g20
sbag1
(g12
g3
NtRp33
(dp34
g15
Nsg16
I12
sg17
S'services/viz/privileged/interfaces/compositing/layered_window_updater.mojom'
p35
sg19
g20
sbasg16
I7
sg19
g20
sbsS'definition_list'
p36
(lp37
g1
(cmojom.parse.ast
Interface
p38
g3
NtRp39
(dp40
S'body'
p41
g1
(cmojom.parse.ast
InterfaceBody
p42
g3
NtRp43
(dp44
g10
(lp45
g1
(cmojom.parse.ast
Method
p46
g3
NtRp47
(dp48
S'ordinal'
p49
NsS'mojom_name'
p50
S'SetDisplayVisible'
p51
sS'parameter_list'
p52
g1
(cmojom.parse.ast
ParameterList
p53
g3
NtRp54
(dp55
g10
(lp56
g1
(cmojom.parse.ast
Parameter
p57
g3
NtRp58
(dp59
g49
Nsg50
S'visible'
p60
sg15
Nsg19
g20
sS'typename'
p61
S'bool'
p62
sg16
I18
sbasg16
I18
sg19
g20
sbsg15
Nsg19
Nsg16
NsS'response_parameter_list'
p63
Nsbag1
(g46
g3
NtRp64
(dp65
g49
Nsg50
S'SetDisplayColorMatrix'
p66
sg52
g1
(g53
g3
NtRp67
(dp68
g10
(lp69
g1
(g57
g3
NtRp70
(dp71
g49
Nsg50
S'color_matrix'
p72
sg15
Nsg19
g20
sg61
S'gfx.mojom.Transform'
p73
sg16
I22
sbasg16
I22
sg19
g20
sbsg15
Nsg19
Nsg16
Nsg63
Nsbag1
(g46
g3
NtRp74
(dp75
g49
Nsg50
S'SetDisplayColorSpace'
p76
sg52
g1
(g53
g3
NtRp77
(dp78
g10
(lp79
g1
(g57
g3
NtRp80
(dp81
g49
Nsg50
S'blending_color_space'
p82
sg15
Nsg19
g20
sg61
S'gfx.mojom.ColorSpace'
p83
sg16
I24
sbag1
(g57
g3
NtRp84
(dp85
g49
Nsg50
S'device_color_space'
p86
sg15
Nsg19
g20
sg61
S'gfx.mojom.ColorSpace'
p87
sg16
I25
sbasg16
I24
sg19
g20
sbsg15
Nsg19
Nsg16
Nsg63
Nsbag1
(g46
g3
NtRp88
(dp89
g49
Nsg50
S'SetOutputIsSecure'
p90
sg52
g1
(g53
g3
NtRp91
(dp92
g10
(lp93
g1
(g57
g3
NtRp94
(dp95
g49
Nsg50
S'secure'
p96
sg15
Nsg19
g20
sg61
S'bool'
p97
sg16
I26
sbasg16
I26
sg19
g20
sbsg15
Nsg19
Nsg16
Nsg63
Nsbag1
(g46
g3
NtRp98
(dp99
g49
Nsg50
S'SetAuthoritativeVSyncInterval'
p100
sg52
g1
(g53
g3
NtRp101
(dp102
g10
(lp103
g1
(g57
g3
NtRp104
(dp105
g49
Nsg50
S'interval'
p106
sg15
Nsg19
g20
sg61
S'mojo_base.mojom.TimeDelta'
p107
sg16
I31
sbasg16
I31
sg19
g20
sbsg15
Nsg19
Nsg16
Nsg63
Nsbag1
(g46
g3
NtRp108
(dp109
g49
Nsg50
S'SetDisplayVSyncParameters'
p110
sg52
g1
(g53
g3
NtRp111
(dp112
g10
(lp113
g1
(g57
g3
NtRp114
(dp115
g49
Nsg50
S'timebase'
p116
sg15
Nsg19
g20
sg61
S'mojo_base.mojom.TimeTicks'
p117
sg16
I36
sbag1
(g57
g3
NtRp118
(dp119
g49
Nsg50
S'interval'
p120
sg15
Nsg19
g20
sg61
S'mojo_base.mojom.TimeDelta'
p121
sg16
I37
sbasg16
I36
sg19
g20
sbsg15
Nsg19
Nsg16
Nsg63
Nsbasg16
Nsg19
Nsbsg15
Nsg16
Nsg50
S'DisplayPrivate'
p122
sg19
Nsbag1
(g38
g3
NtRp123
(dp124
g41
g1
(g42
g3
NtRp125
(dp126
g10
(lp127
g1
(g46
g3
NtRp128
(dp129
g49
Nsg50
S'OnDisplayReceivedCALayerParams'
p130
sg52
g1
(g53
g3
NtRp131
(dp132
g10
(lp133
g1
(g57
g3
NtRp134
(dp135
g49
Nsg50
S'ca_layer_params'
p136
sg15
Nsg19
g20
sg61
S'gfx.mojom.CALayerParams'
p137
sg16
I41
sbasg16
I41
sg19
g20
sbsg15
Nsg19
Nsg16
Nsg63
Nsbag1
(g46
g3
NtRp138
(dp139
g49
Nsg50
S'DidSwapAfterSnapshotRequestReceived'
p140
sg52
g1
(g53
g3
NtRp141
(dp142
g10
(lp143
g1
(g57
g3
NtRp144
(dp145
g49
Nsg50
S'latency_info'
p146
sg15
Nsg19
g20
sg61
S'ui.mojom.LatencyInfo[]'
p147
sg16
I45
sbasg16
I45
sg19
g20
sbsg15
Nsg19
Nsg16
Nsg63
Nsbag1
(g46
g3
NtRp148
(dp149
g49
Nsg50
S'CreateLayeredWindowUpdater'
p150
sg52
g1
(g53
g3
NtRp151
(dp152
g10
(lp153
g1
(g57
g3
NtRp154
(dp155
g49
Nsg50
S'layered_window_updater'
p156
sg15
Nsg19
g20
sg61
S'LayeredWindowUpdater&'
p157
sg16
I51
sbasg16
I51
sg19
g20
sbsg15
Nsg19
Nsg16
Nsg63
Nsbasg16
Nsg19
Nsbsg15
Nsg16
Nsg50
S'DisplayClient'
p158
sg19
Nsbasg16
NsS'module'
p159
g1
(cmojom.parse.ast
Module
p160
g3
NtRp161
(dp162
S'mojom_namespace'
p163
(S'IDENTIFIER'
p164
S'viz.mojom'
tp165
sg16
I5
sg15
Nsg19
g20
sbsg19
Nsb.