ccopy_reg
_reconstructor
p1
(cmojom.parse.ast
Mojom
p2
c__builtin__
object
p3
NtRp4
(dp5
S'import_list'
p6
g1
(cmojom.parse.ast
ImportList
p7
g3
NtRp8
(dp9
S'items'
p10
(lp11
g1
(cmojom.parse.ast
Import
p12
g3
NtRp13
(dp14
S'attribute_list'
p15
NsS'lineno'
p16
I7
sS'import_filename'
p17
S'gpu/ipc/common/surface_handle.mojom'
p18
sS'filename'
p19
S'../../services/viz/privileged/interfaces/compositing/frame_sink_manager.mojom'
p20
sbag1
(g12
g3
NtRp21
(dp22
g15
Nsg16
I8
sg17
S'mojo/public/mojom/base/time.mojom'
p23
sg19
g20
sbag1
(g12
g3
NtRp24
(dp25
g15
Nsg16
I9
sg17
S'services/viz/privileged/interfaces/compositing/display_private.mojom'
p26
sg19
g20
sbag1
(g12
g3
NtRp27
(dp28
g15
Nsg16
I10
sg17
S'services/viz/privileged/interfaces/compositing/external_begin_frame_controller.mojom'
p29
sg19
g20
sbag1
(g12
g3
NtRp30
(dp31
g15
Nsg16
I11
sg17
S'services/viz/privileged/interfaces/compositing/frame_sink_video_capture.mojom'
p32
sg19
g20
sbag1
(g12
g3
NtRp33
(dp34
g15
Nsg16
I12
sg17
S'services/viz/privileged/interfaces/compositing/renderer_settings.mojom'
p35
sg19
g20
sbag1
(g12
g3
NtRp36
(dp37
g15
Nsg16
I13
sg17
S'services/viz/public/interfaces/compositing/compositor_frame_sink.mojom'
p38
sg19
g20
sbag1
(g12
g3
NtRp39
(dp40
g15
Nsg16
I14
sg17
S'services/viz/public/interfaces/compositing/copy_output_request.mojom'
p41
sg19
g20
sbag1
(g12
g3
NtRp42
(dp43
g15
Nsg16
I15
sg17
S'services/viz/public/interfaces/compositing/frame_sink_id.mojom'
p44
sg19
g20
sbag1
(g12
g3
NtRp45
(dp46
g15
Nsg16
I16
sg17
S'services/viz/public/interfaces/compositing/local_surface_id.mojom'
p47
sg19
g20
sbag1
(g12
g3
NtRp48
(dp49
g15
Nsg16
I17
sg17
S'services/viz/public/interfaces/compositing/surface_id.mojom'
p50
sg19
g20
sbag1
(g12
g3
NtRp51
(dp52
g15
Nsg16
I18
sg17
S'services/viz/public/interfaces/compositing/surface_info.mojom'
p53
sg19
g20
sbag1
(g12
g3
NtRp54
(dp55
g15
Nsg16
I19
sg17
S'services/viz/public/interfaces/hit_test/aggregated_hit_test_region.mojom'
p56
sg19
g20
sbag1
(g12
g3
NtRp57
(dp58
g15
Nsg16
I20
sg17
S'ui/gfx/geometry/mojo/geometry.mojom'
p59
sg19
g20
sbag1
(g12
g3
NtRp60
(dp61
g15
Nsg16
I21
sg17
S'services/viz/public/interfaces/compositing/video_detector_observer.mojom'
p62
sg19
g20
sbasg16
I7
sg19
g20
sbsS'definition_list'
p63
(lp64
g1
(cmojom.parse.ast
Struct
p65
g3
NtRp66
(dp67
S'body'
p68
g1
(cmojom.parse.ast
StructBody
p69
g3
NtRp70
(dp71
g10
(lp72
g1
(cmojom.parse.ast
StructField
p73
g3
NtRp74
(dp75
S'ordinal'
p76
NsS'default_value'
p77
NsS'mojom_name'
p78
S'frame_sink_id'
p79
sg15
Nsg19
NsS'typename'
p80
S'FrameSinkId'
p81
sg16
Nsbag1
(g73
g3
NtRp82
(dp83
g76
Nsg77
Nsg78
S'widget'
p84
sg15
Nsg19
Nsg80
S'gpu.mojom.SurfaceHandle'
p85
sg16
Nsbag1
(g73
g3
NtRp86
(dp87
g76
Nsg77
S'true'
p88
sg78
S'gpu_compositing'
p89
sg15
Nsg19
Nsg80
S'bool'
p90
sg16
Nsbag1
(g73
g3
NtRp91
(dp92
g76
Nsg77
Nsg78
S'renderer_settings'
p93
sg15
Nsg19
Nsg80
S'RendererSettings'
p94
sg16
Nsbag1
(g73
g3
NtRp95
(dp96
g76
Nsg77
Nsg78
S'compositor_frame_sink'
p97
sg15
Nsg19
Nsg80
S'asso<CompositorFrameSink&>'
p98
sg16
Nsbag1
(g73
g3
NtRp99
(dp100
g76
Nsg77
Nsg78
S'compositor_frame_sink_client'
p101
sg15
Nsg19
Nsg80
S'CompositorFrameSinkClient'
p102
sg16
Nsbag1
(g73
g3
NtRp103
(dp104
g76
Nsg77
Nsg78
S'display_private'
p105
sg15
Nsg19
Nsg80
S'asso<DisplayPrivate&>'
p106
sg16
Nsbag1
(g73
g3
NtRp107
(dp108
g76
Nsg77
Nsg78
S'display_client'
p109
sg15
Nsg19
Nsg80
S'DisplayClient'
p110
sg16
Nsbag1
(g73
g3
NtRp111
(dp112
g76
Nsg77
Nsg78
S'external_begin_frame_controller'
p113
sg15
Nsg19
Nsg80
S'asso<ExternalBeginFrameController&>?'
p114
sg16
Nsbag1
(g73
g3
NtRp115
(dp116
g76
Nsg77
Nsg78
S'external_begin_frame_controller_client'
p117
sg15
Nsg19
Nsg80
S'ExternalBeginFrameControllerClient?'
p118
sg16
Nsbasg16
Nsg19
Nsbsg15
Nsg16
Nsg78
S'RootCompositorFrameSinkParams'
p119
sg19
Nsbag1
(cmojom.parse.ast
Interface
p120
g3
NtRp121
(dp122
g68
g1
(cmojom.parse.ast
InterfaceBody
p123
g3
NtRp124
(dp125
g10
(lp126
g1
(cmojom.parse.ast
Method
p127
g3
NtRp128
(dp129
g76
Nsg78
S'RegisterFrameSinkId'
p130
sS'parameter_list'
p131
g1
(cmojom.parse.ast
ParameterList
p132
g3
NtRp133
(dp134
g10
(lp135
g1
(cmojom.parse.ast
Parameter
p136
g3
NtRp137
(dp138
g76
Nsg78
S'frame_sink_id'
p139
sg15
Nsg19
g20
sg80
S'FrameSinkId'
p140
sg16
I57
sbasg16
I57
sg19
g20
sbsg15
Nsg19
Nsg16
NsS'response_parameter_list'
p141
Nsbag1
(g127
g3
NtRp142
(dp143
g76
Nsg78
S'InvalidateFrameSinkId'
p144
sg131
g1
(g132
g3
NtRp145
(dp146
g10
(lp147
g1
(g136
g3
NtRp148
(dp149
g76
Nsg78
S'frame_sink_id'
p150
sg15
Nsg19
g20
sg80
S'FrameSinkId'
p151
sg16
I63
sbasg16
I63
sg19
g20
sbsg15
Nsg19
Nsg16
Nsg141
Nsbag1
(g127
g3
NtRp152
(dp153
g76
Nsg78
S'EnableSynchronizationReporting'
p154
sg131
g1
(g132
g3
NtRp155
(dp156
g10
(lp157
g1
(g136
g3
NtRp158
(dp159
g76
Nsg78
S'frame_sink_id'
p160
sg15
Nsg19
g20
sg80
S'FrameSinkId'
p161
sg16
I70
sbag1
(g136
g3
NtRp162
(dp163
g76
Nsg78
S'reporting_label'
p164
sg15
Nsg19
g20
sg80
S'string'
p165
sg16
I71
sbasg16
I70
sg19
g20
sbsg15
Nsg19
Nsg16
Nsg141
Nsbag1
(g127
g3
NtRp166
(dp167
g76
Nsg78
S'SetFrameSinkDebugLabel'
p168
sg131
g1
(g132
g3
NtRp169
(dp170
g10
(lp171
g1
(g136
g3
NtRp172
(dp173
g76
Nsg78
S'frame_sink_id'
p174
sg15
Nsg19
g20
sg80
S'FrameSinkId'
p175
sg16
I75
sbag1
(g136
g3
NtRp176
(dp177
g76
Nsg78
S'debug_label'
p178
sg15
Nsg19
g20
sg80
S'string'
p179
sg16
I75
sbasg16
I75
sg19
g20
sbsg15
Nsg19
Nsg16
Nsg141
Nsbag1
(g127
g3
NtRp180
(dp181
g76
Nsg78
S'CreateRootCompositorFrameSink'
p182
sg131
g1
(g132
g3
NtRp183
(dp184
g10
(lp185
g1
(g136
g3
NtRp186
(dp187
g76
Nsg78
S'params'
p188
sg15
Nsg19
g20
sg80
S'RootCompositorFrameSinkParams'
p189
sg16
I86
sbasg16
I86
sg19
g20
sbsg15
Nsg19
Nsg16
Nsg141
Nsbag1
(g127
g3
NtRp190
(dp191
g76
Nsg78
S'CreateCompositorFrameSink'
p192
sg131
g1
(g132
g3
NtRp193
(dp194
g10
(lp195
g1
(g136
g3
NtRp196
(dp197
g76
Nsg78
S'frame_sink_id'
p198
sg15
Nsg19
g20
sg80
S'FrameSinkId'
p199
sg16
I92
sbag1
(g136
g3
NtRp200
(dp201
g76
Nsg78
S'compositor_frame_sink'
p202
sg15
Nsg19
g20
sg80
S'CompositorFrameSink&'
p203
sg16
I93
sbag1
(g136
g3
NtRp204
(dp205
g76
Nsg78
S'compositor_frame_sink_client'
p206
sg15
Nsg19
g20
sg80
S'CompositorFrameSinkClient'
p207
sg16
I94
sbasg16
I92
sg19
g20
sbsg15
Nsg19
Nsg16
Nsg141
Nsbag1
(g127
g3
NtRp208
(dp209
g76
Nsg78
S'DestroyCompositorFrameSink'
p210
sg131
g1
(g132
g3
NtRp211
(dp212
g10
(lp213
g1
(g136
g3
NtRp214
(dp215
g76
Nsg78
S'frame_sink_id'
p216
sg15
Nsg19
g20
sg80
S'FrameSinkId'
p217
sg16
I101
sbasg16
I101
sg19
g20
sbsg15
g1
(cmojom.parse.ast
AttributeList
p218
g3
NtRp219
(dp220
g10
(lp221
g1
(cmojom.parse.ast
Attribute
p222
g3
NtRp223
(dp224
S'value'
p225
I01
sg16
I100
sS'key'
p226
S'Sync'
p227
sg19
g20
sbasg16
I100
sg19
g20
sbsg19
Nsg16
Nsg141
g1
(g132
g3
NtRp228
(dp229
g10
(lp230
sg16
Nsg19
Nsbsbag1
(g127
g3
NtRp231
(dp232
g76
Nsg78
S'RegisterFrameSinkHierarchy'
p233
sg131
g1
(g132
g3
NtRp234
(dp235
g10
(lp236
g1
(g136
g3
NtRp237
(dp238
g76
Nsg78
S'parent_frame_sink_id'
p239
sg15
Nsg19
g20
sg80
S'FrameSinkId'
p240
sg16
I106
sbag1
(g136
g3
NtRp241
(dp242
g76
Nsg78
S'child_frame_sink_id'
p243
sg15
Nsg19
g20
sg80
S'FrameSinkId'
p244
sg16
I107
sbasg16
I106
sg19
g20
sbsg15
Nsg19
Nsg16
Nsg141
Nsbag1
(g127
g3
NtRp245
(dp246
g76
Nsg78
S'UnregisterFrameSinkHierarchy'
p247
sg131
g1
(g132
g3
NtRp248
(dp249
g10
(lp250
g1
(g136
g3
NtRp251
(dp252
g76
Nsg78
S'parent_frame_sink_id'
p253
sg15
Nsg19
g20
sg80
S'FrameSinkId'
p254
sg16
I110
sbag1
(g136
g3
NtRp255
(dp256
g76
Nsg78
S'child_frame_sink_id'
p257
sg15
Nsg19
g20
sg80
S'FrameSinkId'
p258
sg16
I111
sbasg16
I110
sg19
g20
sbsg15
Nsg19
Nsg16
Nsg141
Nsbag1
(g127
g3
NtRp259
(dp260
g76
Nsg78
S'AssignTemporaryReference'
p261
sg131
g1
(g132
g3
NtRp262
(dp263
g10
(lp264
g1
(g136
g3
NtRp265
(dp266
g76
Nsg78
S'surface_id'
p267
sg15
Nsg19
g20
sg80
S'SurfaceId'
p268
sg16
I116
sbag1
(g136
g3
NtRp269
(dp270
g76
Nsg78
S'owner'
p271
sg15
Nsg19
g20
sg80
S'FrameSinkId'
p272
sg16
I117
sbasg16
I116
sg19
g20
sbsg15
Nsg19
Nsg16
Nsg141
Nsbag1
(g127
g3
NtRp273
(dp274
g76
Nsg78
S'DropTemporaryReference'
p275
sg131
g1
(g132
g3
NtRp276
(dp277
g10
(lp278
g1
(g136
g3
NtRp279
(dp280
g76
Nsg78
S'surface_id'
p281
sg15
Nsg19
g20
sg80
S'SurfaceId'
p282
sg16
I121
sbasg16
I121
sg19
g20
sbsg15
Nsg19
Nsg16
Nsg141
Nsbag1
(g127
g3
NtRp283
(dp284
g76
Nsg78
S'AddVideoDetectorObserver'
p285
sg131
g1
(g132
g3
NtRp286
(dp287
g10
(lp288
g1
(g136
g3
NtRp289
(dp290
g76
Nsg78
S'observer'
p291
sg15
Nsg19
g20
sg80
S'VideoDetectorObserver'
p292
sg16
I125
sbasg16
I125
sg19
g20
sbsg15
Nsg19
Nsg16
Nsg141
Nsbag1
(g127
g3
NtRp293
(dp294
g76
Nsg78
S'CreateVideoCapturer'
p295
sg131
g1
(g132
g3
NtRp296
(dp297
g10
(lp298
g1
(g136
g3
NtRp299
(dp300
g76
Nsg78
S'request'
p301
sg15
Nsg19
g20
sg80
S'FrameSinkVideoCapturer&'
p302
sg16
I128
sbasg16
I128
sg19
g20
sbsg15
Nsg19
Nsg16
Nsg141
Nsbag1
(g127
g3
NtRp303
(dp304
g76
Nsg78
S'EvictSurfaces'
p305
sg131
g1
(g132
g3
NtRp306
(dp307
g10
(lp308
g1
(g136
g3
NtRp309
(dp310
g76
Nsg78
S'surface_ids'
p311
sg15
Nsg19
g20
sg80
S'SurfaceId[]'
p312
sg16
I131
sbasg16
I131
sg19
g20
sbsg15
Nsg19
Nsg16
Nsg141
Nsbag1
(g127
g3
NtRp313
(dp314
g76
Nsg78
S'RequestCopyOfOutput'
p315
sg131
g1
(g132
g3
NtRp316
(dp317
g10
(lp318
g1
(g136
g3
NtRp319
(dp320
g76
Nsg78
S'surface_id'
p321
sg15
Nsg19
g20
sg80
S'SurfaceId'
p322
sg16
I136
sbag1
(g136
g3
NtRp323
(dp324
g76
Nsg78
S'request'
p325
sg15
Nsg19
g20
sg80
S'CopyOutputRequest'
p326
sg16
I136
sbasg16
I136
sg19
g20
sbsg15
Nsg19
Nsg16
Nsg141
Nsbasg16
Nsg19
Nsbsg15
Nsg16
Nsg78
S'FrameSinkManager'
p327
sg19
Nsbag1
(g120
g3
NtRp328
(dp329
g68
g1
(g123
g3
NtRp330
(dp331
g10
(lp332
g1
(g127
g3
NtRp333
(dp334
g76
Nsg78
S'OnSurfaceCreated'
p335
sg131
g1
(g132
g3
NtRp336
(dp337
g10
(lp338
g1
(g136
g3
NtRp339
(dp340
g76
Nsg78
S'surface_id'
p341
sg15
Nsg19
g20
sg80
S'SurfaceId'
p342
sg16
I145
sbasg16
I145
sg19
g20
sbsg15
Nsg19
Nsg16
Nsg141
Nsbag1
(g127
g3
NtRp343
(dp344
g76
Nsg78
S'OnFirstSurfaceActivation'
p345
sg131
g1
(g132
g3
NtRp346
(dp347
g10
(lp348
g1
(g136
g3
NtRp349
(dp350
g76
Nsg78
S'surface_info'
p351
sg15
Nsg19
g20
sg80
S'SurfaceInfo'
p352
sg16
I149
sbasg16
I149
sg19
g20
sbsg15
Nsg19
Nsg16
Nsg141
Nsbag1
(g127
g3
NtRp353
(dp354
g76
Nsg78
S'OnAggregatedHitTestRegionListUpdated'
p355
sg131
g1
(g132
g3
NtRp356
(dp357
g10
(lp358
g1
(g136
g3
NtRp359
(dp360
g76
Nsg78
S'frame_sink_id'
p361
sg15
Nsg19
g20
sg80
S'FrameSinkId'
p362
sg16
I153
sbag1
(g136
g3
NtRp363
(dp364
g76
Nsg78
S'hit_test_data'
p365
sg15
Nsg19
g20
sg80
S'AggregatedHitTestRegion[]'
p366
sg16
I153
sbasg16
I153
sg19
g20
sbsg15
Nsg19
Nsg16
Nsg141
Nsbag1
(g127
g3
NtRp367
(dp368
g76
Nsg78
S'OnFrameTokenChanged'
p369
sg131
g1
(g132
g3
NtRp370
(dp371
g10
(lp372
g1
(g136
g3
NtRp373
(dp374
g76
Nsg78
S'frame_sink_id'
p375
sg15
Nsg19
g20
sg80
S'FrameSinkId'
p376
sg16
I157
sbag1
(g136
g3
NtRp377
(dp378
g76
Nsg78
S'frame_token'
p379
sg15
Nsg19
g20
sg80
S'uint32'
p380
sg16
I157
sbasg16
I157
sg19
g20
sbsg15
Nsg19
Nsg16
Nsg141
Nsbasg16
Nsg19
Nsbsg15
Nsg16
Nsg78
S'FrameSinkManagerClient'
p381
sg19
Nsbasg16
NsS'module'
p382
g1
(cmojom.parse.ast
Module
p383
g3
NtRp384
(dp385
S'mojom_namespace'
p386
(S'IDENTIFIER'
p387
S'viz.mojom'
tp388
sg16
I5
sg15
Nsg19
g20
sbsg19
Nsb.