ccopy_reg
_reconstructor
p1
(cmojom.parse.ast
Mojom
p2
c__builtin__
object
p3
NtRp4
(dp5
S'import_list'
p6
g1
(cmojom.parse.ast
ImportList
p7
g3
NtRp8
(dp9
S'items'
p10
(lp11
g1
(cmojom.parse.ast
Import
p12
g3
NtRp13
(dp14
S'attribute_list'
p15
NsS'lineno'
p16
I7
sS'import_filename'
p17
S'media/capture/mojom/video_capture_types.mojom'
p18
sS'filename'
p19
S'../../services/viz/privileged/interfaces/compositing/frame_sink_video_capture.mojom'
p20
sbag1
(g12
g3
NtRp21
(dp22
g15
Nsg16
I8
sg17
S'media/mojo/interfaces/media_types.mojom'
p23
sg19
g20
sbag1
(g12
g3
NtRp24
(dp25
g15
Nsg16
I9
sg17
S'mojo/public/mojom/base/time.mojom'
p26
sg19
g20
sbag1
(g12
g3
NtRp27
(dp28
g15
Nsg16
I10
sg17
S'services/viz/public/interfaces/compositing/frame_sink_id.mojom'
p29
sg19
g20
sbag1
(g12
g3
NtRp30
(dp31
g15
Nsg16
I11
sg17
S'ui/gfx/geometry/mojo/geometry.mojom'
p32
sg19
g20
sbasg16
I7
sg19
g20
sbsS'definition_list'
p33
(lp34
g1
(cmojom.parse.ast
Interface
p35
g3
NtRp36
(dp37
S'body'
p38
g1
(cmojom.parse.ast
InterfaceBody
p39
g3
NtRp40
(dp41
g10
(lp42
g1
(cmojom.parse.ast
Method
p43
g3
NtRp44
(dp45
S'ordinal'
p46
NsS'mojom_name'
p47
S'Done'
p48
sS'parameter_list'
p49
g1
(cmojom.parse.ast
ParameterList
p50
g3
NtRp51
(dp52
g10
(lp53
sg16
Nsg19
Nsbsg15
Nsg19
Nsg16
NsS'response_parameter_list'
p54
Nsbag1
(g43
g3
NtRp55
(dp56
g46
Nsg47
S'ProvideFeedback'
p57
sg49
g1
(g50
g3
NtRp58
(dp59
g10
(lp60
g1
(cmojom.parse.ast
Parameter
p61
g3
NtRp62
(dp63
g46
Nsg47
S'utilization'
p64
sg15
Nsg19
g20
sS'typename'
p65
S'double'
p66
sg16
I26
sbasg16
I26
sg19
g20
sbsg15
Nsg19
Nsg16
Nsg54
Nsbasg16
Nsg19
Nsbsg15
Nsg16
Nsg47
S'FrameSinkVideoConsumerFrameCallbacks'
p67
sg19
Nsbag1
(g35
g3
NtRp68
(dp69
g38
g1
(g39
g3
NtRp70
(dp71
g10
(lp72
g1
(g43
g3
NtRp73
(dp74
g46
Nsg47
S'OnFrameCaptured'
p75
sg49
g1
(g50
g3
NtRp76
(dp77
g10
(lp78
g1
(g61
g3
NtRp79
(dp80
g46
Nsg47
S'buffer'
p81
sg15
Nsg19
g20
sg65
S'handle<shared_buffer>'
p82
sg16
I42
sbag1
(g61
g3
NtRp83
(dp84
g46
Nsg47
S'buffer_size'
p85
sg15
Nsg19
g20
sg65
S'uint32'
p86
sg16
I43
sbag1
(g61
g3
NtRp87
(dp88
g46
Nsg47
S'info'
p89
sg15
Nsg19
g20
sg65
S'media.mojom.VideoFrameInfo'
p90
sg16
I44
sbag1
(g61
g3
NtRp91
(dp92
g46
Nsg47
S'update_rect'
p93
sg15
Nsg19
g20
sg65
S'gfx.mojom.Rect'
p94
sg16
I45
sbag1
(g61
g3
NtRp95
(dp96
g46
Nsg47
S'content_rect'
p97
sg15
Nsg19
g20
sg65
S'gfx.mojom.Rect'
p98
sg16
I46
sbag1
(g61
g3
NtRp99
(dp100
g46
Nsg47
S'callbacks'
p101
sg15
Nsg19
g20
sg65
S'FrameSinkVideoConsumerFrameCallbacks'
p102
sg16
I47
sbasg16
I42
sg19
g20
sbsg15
Nsg19
Nsg16
Nsg54
Nsbag1
(g43
g3
NtRp103
(dp104
g46
Nsg47
S'OnTargetLost'
p105
sg49
g1
(g50
g3
NtRp106
(dp107
g10
(lp108
g1
(g61
g3
NtRp109
(dp110
g46
Nsg47
S'frame_sink_id'
p111
sg15
Nsg19
g20
sg65
S'FrameSinkId'
p112
sg16
I52
sbasg16
I52
sg19
g20
sbsg15
Nsg19
Nsg16
Nsg54
Nsbag1
(g43
g3
NtRp113
(dp114
g46
Nsg47
S'OnStopped'
p115
sg49
g1
(g50
g3
NtRp116
(dp117
g10
(lp118
sg16
Nsg19
Nsbsg15
Nsg19
Nsg16
Nsg54
Nsbasg16
Nsg19
Nsbsg15
Nsg16
Nsg47
S'FrameSinkVideoConsumer'
p119
sg19
Nsbag1
(g35
g3
NtRp120
(dp121
g38
g1
(g39
g3
NtRp122
(dp123
g10
(lp124
g1
(g43
g3
NtRp125
(dp126
g46
Nsg47
S'SetFormat'
p127
sg49
g1
(g50
g3
NtRp128
(dp129
g10
(lp130
g1
(g61
g3
NtRp131
(dp132
g46
Nsg47
S'format'
p133
sg15
Nsg19
g20
sg65
S'media.mojom.VideoPixelFormat'
p134
sg16
I78
sbag1
(g61
g3
NtRp135
(dp136
g46
Nsg47
S'color_space'
p137
sg15
Nsg19
g20
sg65
S'media.mojom.ColorSpace'
p138
sg16
I79
sbasg16
I78
sg19
g20
sbsg15
Nsg19
Nsg16
Nsg54
Nsbag1
(g43
g3
NtRp139
(dp140
g46
Nsg47
S'SetMinCapturePeriod'
p141
sg49
g1
(g50
g3
NtRp142
(dp143
g10
(lp144
g1
(g61
g3
NtRp145
(dp146
g46
Nsg47
S'min_period'
p147
sg15
Nsg19
g20
sg65
S'mojo_base.mojom.TimeDelta'
p148
sg16
I87
sbasg16
I87
sg19
g20
sbsg15
Nsg19
Nsg16
Nsg54
Nsbag1
(g43
g3
NtRp149
(dp150
g46
Nsg47
S'SetMinSizeChangePeriod'
p151
sg49
g1
(g50
g3
NtRp152
(dp153
g10
(lp154
g1
(g61
g3
NtRp155
(dp156
g46
Nsg47
S'min_period'
p157
sg15
Nsg19
g20
sg65
S'mojo_base.mojom.TimeDelta'
p158
sg16
I96
sbasg16
I96
sg19
g20
sbsg15
Nsg19
Nsg16
Nsg54
Nsbag1
(g43
g3
NtRp159
(dp160
g46
Nsg47
S'SetResolutionConstraints'
p161
sg49
g1
(g50
g3
NtRp162
(dp163
g10
(lp164
g1
(g61
g3
NtRp165
(dp166
g46
Nsg47
S'min_size'
p167
sg15
Nsg19
g20
sg65
S'gfx.mojom.Size'
p168
sg16
I109
sbag1
(g61
g3
NtRp169
(dp170
g46
Nsg47
S'max_size'
p171
sg15
Nsg19
g20
sg65
S'gfx.mojom.Size'
p172
sg16
I109
sbag1
(g61
g3
NtRp173
(dp174
g46
Nsg47
S'use_fixed_aspect_ratio'
p175
sg15
Nsg19
g20
sg65
S'bool'
p176
sg16
I110
sbasg16
I109
sg19
g20
sbsg15
Nsg19
Nsg16
Nsg54
Nsbag1
(g43
g3
NtRp177
(dp178
g46
Nsg47
S'SetAutoThrottlingEnabled'
p179
sg49
g1
(g50
g3
NtRp180
(dp181
g10
(lp182
g1
(g61
g3
NtRp183
(dp184
g46
Nsg47
S'enabled'
p185
sg15
Nsg19
g20
sg65
S'bool'
p186
sg16
I119
sbasg16
I119
sg19
g20
sbsg15
Nsg19
Nsg16
Nsg54
Nsbag1
(g43
g3
NtRp187
(dp188
g46
Nsg47
S'ChangeTarget'
p189
sg49
g1
(g50
g3
NtRp190
(dp191
g10
(lp192
g1
(g61
g3
NtRp193
(dp194
g46
Nsg47
S'frame_sink_id'
p195
sg15
Nsg19
g20
sg65
S'FrameSinkId'
p196
sg16
I123
sbasg16
I123
sg19
g20
sbsg15
Nsg19
Nsg16
Nsg54
Nsbag1
(g43
g3
NtRp197
(dp198
g46
Nsg47
S'Start'
p199
sg49
g1
(g50
g3
NtRp200
(dp201
g10
(lp202
g1
(g61
g3
NtRp203
(dp204
g46
Nsg47
S'consumer'
p205
sg15
Nsg19
g20
sg65
S'FrameSinkVideoConsumer'
p206
sg16
I126
sbasg16
I126
sg19
g20
sbsg15
Nsg19
Nsg16
Nsg54
Nsbag1
(g43
g3
NtRp207
(dp208
g46
Nsg47
S'Stop'
p209
sg49
g1
(g50
g3
NtRp210
(dp211
g10
(lp212
sg16
Nsg19
Nsbsg15
Nsg19
Nsg16
Nsg54
Nsbag1
(g43
g3
NtRp213
(dp214
g46
Nsg47
S'RequestRefreshFrame'
p215
sg49
g1
(g50
g3
NtRp216
(dp217
g10
(lp218
sg16
Nsg19
Nsbsg15
Nsg19
Nsg16
Nsg54
Nsbasg16
Nsg19
Nsbsg15
Nsg16
Nsg47
S'FrameSinkVideoCapturer'
p219
sg19
Nsbasg16
NsS'module'
p220
g1
(cmojom.parse.ast
Module
p221
g3
NtRp222
(dp223
S'mojom_namespace'
p224
(S'IDENTIFIER'
p225
S'viz.mojom'
tp226
sg16
I5
sg15
Nsg19
g20
sbsg19
Nsb.