ccopy_reg
_reconstructor
p1
(cmojom.parse.ast
Mojom
p2
c__builtin__
object
p3
NtRp4
(dp5
S'import_list'
p6
g1
(cmojom.parse.ast
ImportList
p7
g3
NtRp8
(dp9
S'items'
p10
(lp11
sS'lineno'
p12
NsS'filename'
p13
NsbsS'definition_list'
p14
(lp15
g1
(cmojom.parse.ast
Struct
p16
g3
NtRp17
(dp18
S'body'
p19
g1
(cmojom.parse.ast
StructBody
p20
g3
NtRp21
(dp22
g10
(lp23
g1
(cmojom.parse.ast
StructField
p24
g3
NtRp25
(dp26
S'ordinal'
p27
NsS'default_value'
p28
NsS'mojom_name'
p29
S'allow_antialiasing'
p30
sS'attribute_list'
p31
Nsg13
NsS'typename'
p32
S'bool'
p33
sg12
Nsbag1
(g24
g3
NtRp34
(dp35
g27
Nsg28
Nsg29
S'finish_rendering_on_resize'
p36
sg31
Nsg13
Nsg32
S'bool'
p37
sg12
Nsbag1
(g24
g3
NtRp38
(dp39
g27
Nsg28
Nsg29
S'force_antialiasing'
p40
sg31
Nsg13
Nsg32
S'bool'
p41
sg12
Nsbag1
(g24
g3
NtRp42
(dp43
g27
Nsg28
Nsg29
S'force_blending_with_shaders'
p44
sg31
Nsg13
Nsg32
S'bool'
p45
sg12
Nsbag1
(g24
g3
NtRp46
(dp47
g27
Nsg28
Nsg29
S'tint_gl_composited_content'
p48
sg31
Nsg13
Nsg32
S'bool'
p49
sg12
Nsbag1
(g24
g3
NtRp50
(dp51
g27
Nsg28
Nsg29
S'highp_threshold_min'
p52
sg31
Nsg13
Nsg32
S'int32'
p53
sg12
Nsbag1
(g24
g3
NtRp54
(dp55
g27
Nsg28
Nsg29
S'partial_swap_enabled'
p56
sg31
Nsg13
Nsg32
S'bool'
p57
sg12
Nsbag1
(g24
g3
NtRp58
(dp59
g27
Nsg28
Nsg29
S'release_overlay_resources_after_gpu_query'
p60
sg31
Nsg13
Nsg32
S'bool'
p61
sg12
Nsbag1
(g24
g3
NtRp62
(dp63
g27
Nsg28
Nsg29
S'should_clear_root_render_pass'
p64
sg31
Nsg13
Nsg32
S'bool'
p65
sg12
Nsbag1
(g24
g3
NtRp66
(dp67
g27
Nsg28
Nsg29
S'show_overdraw_feedback'
p68
sg31
Nsg13
Nsg32
S'bool'
p69
sg12
Nsbag1
(g24
g3
NtRp70
(dp71
g27
Nsg28
Nsg29
S'enable_draw_occlusion'
p72
sg31
Nsg13
Nsg32
S'bool'
p73
sg12
Nsbag1
(g24
g3
NtRp74
(dp75
g27
Nsg28
Nsg29
S'slow_down_compositing_scale_factor'
p76
sg31
Nsg13
Nsg32
S'int32'
p77
sg12
Nsbag1
(g24
g3
NtRp78
(dp79
g27
Nsg28
Nsg29
S'use_skia_renderer'
p80
sg31
Nsg13
Nsg32
S'bool'
p81
sg12
Nsbag1
(g24
g3
NtRp82
(dp83
g27
Nsg28
Nsg29
S'use_skia_deferred_display_list'
p84
sg31
Nsg13
Nsg32
S'bool'
p85
sg12
Nsbag1
(g24
g3
NtRp86
(dp87
g27
Nsg28
Nsg29
S'allow_overlays'
p88
sg31
Nsg13
Nsg32
S'bool'
p89
sg12
Nsbasg12
Nsg13
Nsbsg31
Nsg12
Nsg29
S'RendererSettings'
p90
sg13
Nsbasg12
NsS'module'
p91
g1
(cmojom.parse.ast
Module
p92
g3
NtRp93
(dp94
S'mojom_namespace'
p95
(S'IDENTIFIER'
p96
S'viz.mojom'
tp97
sg12
I5
sg31
Nsg13
S'../../services/viz/privileged/interfaces/compositing/renderer_settings.mojom'
p98
sbsg13
Nsb.