ccopy_reg
_reconstructor
p1
(cmojom.parse.ast
Mojom
p2
c__builtin__
object
p3
NtRp4
(dp5
S'import_list'
p6
g1
(cmojom.parse.ast
ImportList
p7
g3
NtRp8
(dp9
S'items'
p10
(lp11
sS'lineno'
p12
NsS'filename'
p13
NsbsS'definition_list'
p14
(lp15
g1
(cmojom.parse.ast
Struct
p16
g3
NtRp17
(dp18
S'body'
p19
g1
(cmojom.parse.ast
StructBody
p20
g3
NtRp21
(dp22
g10
(lp23
g1
(cmojom.parse.ast
StructField
p24
g3
NtRp25
(dp26
S'ordinal'
p27
NsS'default_value'
p28
NsS'mojom_name'
p29
S'the_handle'
p30
sS'attribute_list'
p31
Nsg13
NsS'typename'
p32
S'handle'
p33
sg12
Nsbag1
(cmojom.parse.ast
Enum
p34
g3
NtRp35
(dp36
g31
NsS'enum_value_list'
p37
g1
(cmojom.parse.ast
EnumValueList
p38
g3
NtRp39
(dp40
g10
(lp41
g1
(cmojom.parse.ast
EnumValue
p42
g3
NtRp43
(dp44
g31
NsS'value'
p45
Nsg12
I12
sg29
S'MOJO_HANDLE'
p46
sg13
S'../../mojo/public/interfaces/bindings/native_struct.mojom'
p47
sbag1
(g42
g3
NtRp48
(dp49
g31
Nsg45
Nsg12
I13
sg29
S'PLATFORM_FILE'
p50
sg13
g47
sbag1
(g42
g3
NtRp51
(dp52
g31
Nsg45
Nsg12
I14
sg29
S'WIN_HANDLE'
p53
sg13
g47
sbag1
(g42
g3
NtRp54
(dp55
g31
Nsg45
Nsg12
I15
sg29
S'MACH_PORT'
p56
sg13
g47
sbag1
(g42
g3
NtRp57
(dp58
g31
Nsg45
Nsg12
I16
sg29
S'FUCHSIA_HANDLE'
p59
sg13
g47
sbasg12
I12
sg13
g47
sbsg12
I11
sg29
S'Type'
p60
sg13
g47
sbag1
(g24
g3
NtRp61
(dp62
g27
Nsg28
Nsg29
S'type'
p63
sg31
Nsg13
Nsg32
S'Type'
p64
sg12
Nsbasg12
Nsg13
Nsbsg31
Nsg12
Nsg29
S'SerializedHandle'
p65
sg13
Nsbag1
(g16
g3
NtRp66
(dp67
g19
g1
(g20
g3
NtRp68
(dp69
g10
(lp70
g1
(g24
g3
NtRp71
(dp72
g27
Nsg28
Nsg29
S'data'
p73
sg31
Nsg13
Nsg32
S'uint8[]'
p74
sg12
Nsbag1
(g24
g3
NtRp75
(dp76
g27
Nsg28
Nsg29
S'handles'
p77
sg31
Nsg13
Nsg32
S'SerializedHandle[]?'
p78
sg12
Nsbasg12
Nsg13
Nsbsg31
g1
(cmojom.parse.ast
AttributeList
p79
g3
NtRp80
(dp81
g10
(lp82
g1
(cmojom.parse.ast
Attribute
p83
g3
NtRp84
(dp85
g45
I01
sg12
I22
sS'key'
p86
S'CustomSerializer'
p87
sg13
g47
sbasg12
I22
sg13
g47
sbsg12
Nsg29
S'NativeStruct'
p88
sg13
Nsbasg12
NsS'module'
p89
g1
(cmojom.parse.ast
Module
p90
g3
NtRp91
(dp92
S'mojom_namespace'
p93
(S'IDENTIFIER'
p94
S'mojo.native'
tp95
sg12
I6
sg31
g1
(g79
g3
NtRp96
(dp97
g10
(lp98
g1
(g83
g3
NtRp99
(dp100
g45
S'org.chromium.mojo.native_types'
p101
sg12
I5
sg86
S'JavaPackage'
p102
sg13
g47
sbasg12
I5
sg13
g47
sbsg13
g47
sbsg13
Nsb.