ccopy_reg
_reconstructor
p1
(cmojom.parse.ast
Mojom
p2
c__builtin__
object
p3
NtRp4
(dp5
S'import_list'
p6
g1
(cmojom.parse.ast
ImportList
p7
g3
NtRp8
(dp9
S'items'
p10
(lp11
g1
(cmojom.parse.ast
Import
p12
g3
NtRp13
(dp14
S'attribute_list'
p15
NsS'lineno'
p16
I7
sS'import_filename'
p17
S'media/mojo/interfaces/audio_parameters.mojom'
p18
sS'filename'
p19
S'../../media/mojo/interfaces/audio_logging.mojom'
p20
sbasg16
I7
sg19
g20
sbsS'definition_list'
p21
(lp22
g1
(cmojom.parse.ast
Interface
p23
g3
NtRp24
(dp25
S'body'
p26
g1
(cmojom.parse.ast
InterfaceBody
p27
g3
NtRp28
(dp29
g10
(lp30
g1
(cmojom.parse.ast
Method
p31
g3
NtRp32
(dp33
S'ordinal'
p34
NsS'mojom_name'
p35
S'OnCreated'
p36
sS'parameter_list'
p37
g1
(cmojom.parse.ast
ParameterList
p38
g3
NtRp39
(dp40
g10
(lp41
g1
(cmojom.parse.ast
Parameter
p42
g3
NtRp43
(dp44
g34
Nsg35
S'params'
p45
sg15
Nsg19
g20
sS'typename'
p46
S'media.mojom.AudioParameters'
p47
sg16
I15
sbag1
(g42
g3
NtRp48
(dp49
g34
Nsg35
S'device_id'
p50
sg15
Nsg19
g20
sg46
S'string'
p51
sg16
I16
sbasg16
I15
sg19
g20
sbsg15
Nsg19
Nsg16
NsS'response_parameter_list'
p52
Nsbag1
(g31
g3
NtRp53
(dp54
g34
Nsg35
S'OnStarted'
p55
sg37
g1
(g38
g3
NtRp56
(dp57
g10
(lp58
sg16
Nsg19
Nsbsg15
Nsg19
Nsg16
Nsg52
Nsbag1
(g31
g3
NtRp59
(dp60
g34
Nsg35
S'OnStopped'
p61
sg37
g1
(g38
g3
NtRp62
(dp63
g10
(lp64
sg16
Nsg19
Nsbsg15
Nsg19
Nsg16
Nsg52
Nsbag1
(g31
g3
NtRp65
(dp66
g34
Nsg35
S'OnClosed'
p67
sg37
g1
(g38
g3
NtRp68
(dp69
g10
(lp70
sg16
Nsg19
Nsbsg15
Nsg19
Nsg16
Nsg52
Nsbag1
(g31
g3
NtRp71
(dp72
g34
Nsg35
S'OnError'
p73
sg37
g1
(g38
g3
NtRp74
(dp75
g10
(lp76
sg16
Nsg19
Nsbsg15
Nsg19
Nsg16
Nsg52
Nsbag1
(g31
g3
NtRp77
(dp78
g34
Nsg35
S'OnSetVolume'
p79
sg37
g1
(g38
g3
NtRp80
(dp81
g10
(lp82
g1
(g42
g3
NtRp83
(dp84
g34
Nsg35
S'volume'
p85
sg15
Nsg19
g20
sg46
S'double'
p86
sg16
I34
sbasg16
I34
sg19
g20
sbsg15
Nsg19
Nsg16
Nsg52
Nsbag1
(g31
g3
NtRp87
(dp88
g34
Nsg35
S'OnLogMessage'
p89
sg37
g1
(g38
g3
NtRp90
(dp91
g10
(lp92
g1
(g42
g3
NtRp93
(dp94
g34
Nsg35
S'message'
p95
sg15
Nsg19
g20
sg46
S'string'
p96
sg16
I37
sbasg16
I37
sg19
g20
sbsg15
Nsg19
Nsg16
Nsg52
Nsbasg16
Nsg19
Nsbsg15
Nsg16
Nsg35
S'AudioLog'
p97
sg19
Nsbasg16
NsS'module'
p98
g1
(cmojom.parse.ast
Module
p99
g3
NtRp100
(dp101
S'mojom_namespace'
p102
(S'IDENTIFIER'
p103
S'media.mojom'
tp104
sg16
I5
sg15
Nsg19
g20
sbsg19
Nsb.