ccopy_reg
_reconstructor
p1
(cmojom.parse.ast
Mojom
p2
c__builtin__
object
p3
NtRp4
(dp5
S'import_list'
p6
g1
(cmojom.parse.ast
ImportList
p7
g3
NtRp8
(dp9
S'items'
p10
(lp11
g1
(cmojom.parse.ast
Import
p12
g3
NtRp13
(dp14
S'attribute_list'
p15
NsS'lineno'
p16
I7
sS'import_filename'
p17
S'media/mojo/interfaces/audio_data_pipe.mojom'
p18
sS'filename'
p19
S'../../media/mojo/interfaces/audio_output_stream.mojom'
p20
sbag1
(g12
g3
NtRp21
(dp22
g15
Nsg16
I8
sg17
S'media/mojo/interfaces/audio_parameters.mojom'
p23
sg19
g20
sbag1
(g12
g3
NtRp24
(dp25
g15
Nsg16
I9
sg17
S'media/mojo/interfaces/media_types.mojom'
p26
sg19
g20
sbasg16
I7
sg19
g20
sbsS'definition_list'
p27
(lp28
g1
(cmojom.parse.ast
Interface
p29
g3
NtRp30
(dp31
S'body'
p32
g1
(cmojom.parse.ast
InterfaceBody
p33
g3
NtRp34
(dp35
g10
(lp36
g1
(cmojom.parse.ast
Method
p37
g3
NtRp38
(dp39
S'ordinal'
p40
NsS'mojom_name'
p41
S'Play'
p42
sS'parameter_list'
p43
g1
(cmojom.parse.ast
ParameterList
p44
g3
NtRp45
(dp46
g10
(lp47
sg16
Nsg19
Nsbsg15
Nsg19
Nsg16
NsS'response_parameter_list'
p48
Nsbag1
(g37
g3
NtRp49
(dp50
g40
Nsg41
S'Pause'
p51
sg43
g1
(g44
g3
NtRp52
(dp53
g10
(lp54
sg16
Nsg19
Nsbsg15
Nsg19
Nsg16
Nsg48
Nsbag1
(g37
g3
NtRp55
(dp56
g40
Nsg41
S'SetVolume'
p57
sg43
g1
(g44
g3
NtRp58
(dp59
g10
(lp60
g1
(cmojom.parse.ast
Parameter
p61
g3
NtRp62
(dp63
g40
Nsg41
S'volume'
p64
sg15
Nsg19
g20
sS'typename'
p65
S'double'
p66
sg16
I25
sbasg16
I25
sg19
g20
sbsg15
Nsg19
Nsg16
Nsg48
Nsbasg16
Nsg19
Nsbsg15
Nsg16
Nsg41
S'AudioOutputStream'
p67
sg19
Nsbag1
(g29
g3
NtRp68
(dp69
g32
g1
(g33
g3
NtRp70
(dp71
g10
(lp72
g1
(cmojom.parse.ast
Const
p73
g3
NtRp74
(dp75
g41
S'kPlatformErrorDisconnectReason'
p76
sg15
NsS'value'
p77
S'1'
sg19
Nsg65
S'uint32'
p78
sg16
Nsbag1
(g37
g3
NtRp79
(dp80
g40
Nsg41
S'DidStartPlaying'
p81
sg43
g1
(g44
g3
NtRp82
(dp83
g10
(lp84
sg16
Nsg19
Nsbsg15
Nsg19
Nsg16
Nsg48
Nsbag1
(g37
g3
NtRp85
(dp86
g40
Nsg41
S'DidStopPlaying'
p87
sg43
g1
(g44
g3
NtRp88
(dp89
g10
(lp90
sg16
Nsg19
Nsbsg15
Nsg19
Nsg16
Nsg48
Nsbag1
(g37
g3
NtRp91
(dp92
g40
Nsg41
S'DidChangeAudibleState'
p93
sg43
g1
(g44
g3
NtRp94
(dp95
g10
(lp96
g1
(g61
g3
NtRp97
(dp98
g40
Nsg41
S'is_audible'
p99
sg15
Nsg19
g20
sg65
S'bool'
p100
sg16
I56
sbasg16
I56
sg19
g20
sbsg15
Nsg19
Nsg16
Nsg48
Nsbasg16
Nsg19
Nsbsg15
Nsg16
Nsg41
S'AudioOutputStreamObserver'
p101
sg19
Nsbag1
(g29
g3
NtRp102
(dp103
g32
g1
(g33
g3
NtRp104
(dp105
g10
(lp106
g1
(g37
g3
NtRp107
(dp108
g40
Nsg41
S'Acquire'
p109
sg43
g1
(g44
g3
NtRp110
(dp111
g10
(lp112
g1
(g61
g3
NtRp113
(dp114
g40
Nsg41
S'params'
p115
sg15
Nsg19
g20
sg65
S'AudioParameters'
p116
sg16
I65
sbag1
(g61
g3
NtRp117
(dp118
g40
Nsg41
S'client'
p119
sg15
Nsg19
g20
sg65
S'AudioOutputStreamProviderClient'
p120
sg16
I65
sbasg16
I65
sg19
g20
sbsg15
Nsg19
Nsg16
Nsg48
Nsbasg16
Nsg19
Nsbsg15
Nsg16
Nsg41
S'AudioOutputStreamProvider'
p121
sg19
Nsbag1
(g29
g3
NtRp122
(dp123
g32
g1
(g33
g3
NtRp124
(dp125
g10
(lp126
g1
(g73
g3
NtRp127
(dp128
g41
S'kPlatformErrorDisconnectReason'
p129
sg15
Nsg77
S'1'
sg19
Nsg65
S'uint32'
p130
sg16
Nsbag1
(g37
g3
NtRp131
(dp132
g40
Nsg41
S'Created'
p133
sg43
g1
(g44
g3
NtRp134
(dp135
g10
(lp136
g1
(g61
g3
NtRp137
(dp138
g40
Nsg41
S'stream'
p139
sg15
Nsg19
g20
sg65
S'AudioOutputStream'
p140
sg16
I80
sbag1
(g61
g3
NtRp141
(dp142
g40
Nsg41
S'data_pipe'
p143
sg15
Nsg19
g20
sg65
S'AudioDataPipe'
p144
sg16
I80
sbasg16
I80
sg19
g20
sbsg15
Nsg19
Nsg16
Nsg48
Nsbasg16
Nsg19
Nsbsg15
Nsg16
Nsg41
S'AudioOutputStreamProviderClient'
p145
sg19
Nsbasg16
NsS'module'
p146
g1
(cmojom.parse.ast
Module
p147
g3
NtRp148
(dp149
S'mojom_namespace'
p150
(S'IDENTIFIER'
p151
S'media.mojom'
tp152
sg16
I5
sg15
Nsg19
g20
sbsg19
Nsb.