ccopy_reg
_reconstructor
p1
(cmojom.parse.ast
Mojom
p2
c__builtin__
object
p3
NtRp4
(dp5
S'import_list'
p6
g1
(cmojom.parse.ast
ImportList
p7
g3
NtRp8
(dp9
S'items'
p10
(lp11
sS'lineno'
p12
NsS'filename'
p13
NsbsS'definition_list'
p14
(lp15
g1
(cmojom.parse.ast
Interface
p16
g3
NtRp17
(dp18
S'body'
p19
g1
(cmojom.parse.ast
InterfaceBody
p20
g3
NtRp21
(dp22
g10
(lp23
g1
(cmojom.parse.ast
Enum
p24
g3
NtRp25
(dp26
S'attribute_list'
p27
g1
(cmojom.parse.ast
AttributeList
p28
g3
NtRp29
(dp30
g10
(lp31
g1
(cmojom.parse.ast
Attribute
p32
g3
NtRp33
(dp34
S'value'
p35
I01
sg12
I14
sS'key'
p36
S'Native'
p37
sg13
S'../../media/mojo/interfaces/cdm_proxy.mojom'
p38
sbasg12
I14
sg13
g38
sbsS'enum_value_list'
p39
Nsg12
I15
sS'mojom_name'
p40
S'Status'
p41
sg13
g38
sbag1
(g24
g3
NtRp42
(dp43
g27
g1
(g28
g3
NtRp44
(dp45
g10
(lp46
g1
(g32
g3
NtRp47
(dp48
g35
I01
sg12
I18
sg36
S'Native'
p49
sg13
g38
sbasg12
I18
sg13
g38
sbsg39
Nsg12
I19
sg40
S'Protocol'
p50
sg13
g38
sbag1
(g24
g3
NtRp51
(dp52
g27
g1
(g28
g3
NtRp53
(dp54
g10
(lp55
g1
(g32
g3
NtRp56
(dp57
g35
I01
sg12
I22
sg36
S'Native'
p58
sg13
g38
sbasg12
I22
sg13
g38
sbsg39
Nsg12
I23
sg40
S'Function'
p59
sg13
g38
sbag1
(cmojom.parse.ast
Method
p60
g3
NtRp61
(dp62
S'ordinal'
p63
Nsg40
S'Initialize'
p64
sS'parameter_list'
p65
g1
(cmojom.parse.ast
ParameterList
p66
g3
NtRp67
(dp68
g10
(lp69
g1
(cmojom.parse.ast
Parameter
p70
g3
NtRp71
(dp72
g63
Nsg40
S'client'
p73
sg27
Nsg13
g38
sS'typename'
p74
S'asso<CdmProxyClient>'
p75
sg12
I29
sbasg12
I29
sg13
g38
sbsg27
Nsg13
Nsg12
NsS'response_parameter_list'
p76
g1
(g66
g3
NtRp77
(dp78
g10
(lp79
g1
(g70
g3
NtRp80
(dp81
g63
Nsg40
S'status'
p82
sg27
Nsg13
g38
sg74
S'Status'
p83
sg12
I29
sbag1
(g70
g3
NtRp84
(dp85
g63
Nsg40
S'protocol'
p86
sg27
Nsg13
g38
sg74
S'Protocol'
p87
sg12
I30
sbag1
(g70
g3
NtRp88
(dp89
g63
Nsg40
S'crypto_session_id'
p90
sg27
Nsg13
g38
sg74
S'uint32'
p91
sg12
I31
sbag1
(g70
g3
NtRp92
(dp93
g63
Nsg40
S'cdm_id'
p94
sg27
Nsg13
g38
sg74
S'int32'
p95
sg12
I32
sbasg12
I29
sg13
g38
sbsbag1
(g60
g3
NtRp96
(dp97
g63
Nsg40
S'Process'
p98
sg65
g1
(g66
g3
NtRp99
(dp100
g10
(lp101
g1
(g70
g3
NtRp102
(dp103
g63
Nsg40
S'function'
p104
sg27
Nsg13
g38
sg74
S'Function'
p105
sg12
I43
sbag1
(g70
g3
NtRp106
(dp107
g63
Nsg40
S'crypto_session_id'
p108
sg27
Nsg13
g38
sg74
S'uint32'
p109
sg12
I44
sbag1
(g70
g3
NtRp110
(dp111
g63
Nsg40
S'input_data'
p112
sg27
Nsg13
g38
sg74
S'uint8[]'
p113
sg12
I45
sbag1
(g70
g3
NtRp114
(dp115
g63
Nsg40
S'output_data_size'
p116
sg27
Nsg13
g38
sg74
S'uint32'
p117
sg12
I46
sbasg12
I43
sg13
g38
sbsg27
Nsg13
Nsg12
Nsg76
g1
(g66
g3
NtRp118
(dp119
g10
(lp120
g1
(g70
g3
NtRp121
(dp122
g63
Nsg40
S'status'
p123
sg27
Nsg13
g38
sg74
S'Status'
p124
sg12
I46
sbag1
(g70
g3
NtRp125
(dp126
g63
Nsg40
S'output_data'
p127
sg27
Nsg13
g38
sg74
S'uint8[]'
p128
sg12
I47
sbasg12
I46
sg13
g38
sbsbag1
(g60
g3
NtRp129
(dp130
g63
Nsg40
S'CreateMediaCryptoSession'
p131
sg65
g1
(g66
g3
NtRp132
(dp133
g10
(lp134
g1
(g70
g3
NtRp135
(dp136
g63
Nsg40
S'input_data'
p137
sg27
Nsg13
g38
sg74
S'uint8[]'
p138
sg12
I54
sbasg12
I54
sg13
g38
sbsg27
Nsg13
Nsg12
Nsg76
g1
(g66
g3
NtRp139
(dp140
g10
(lp141
g1
(g70
g3
NtRp142
(dp143
g63
Nsg40
S'status'
p144
sg27
Nsg13
g38
sg74
S'Status'
p145
sg12
I55
sbag1
(g70
g3
NtRp146
(dp147
g63
Nsg40
S'crypto_session_id'
p148
sg27
Nsg13
g38
sg74
S'uint32'
p149
sg12
I55
sbag1
(g70
g3
NtRp150
(dp151
g63
Nsg40
S'output_data'
p152
sg27
Nsg13
g38
sg74
S'uint64'
p153
sg12
I55
sbasg12
I55
sg13
g38
sbsbag1
(g60
g3
NtRp154
(dp155
g63
Nsg40
S'SetKey'
p156
sg65
g1
(g66
g3
NtRp157
(dp158
g10
(lp159
g1
(g70
g3
NtRp160
(dp161
g63
Nsg40
S'crypto_session_id'
p162
sg27
Nsg13
g38
sg74
S'uint32'
p163
sg12
I61
sbag1
(g70
g3
NtRp164
(dp165
g63
Nsg40
S'key_id'
p166
sg27
Nsg13
g38
sg74
S'uint8[]'
p167
sg12
I61
sbag1
(g70
g3
NtRp168
(dp169
g63
Nsg40
S'key_blob'
p170
sg27
Nsg13
g38
sg74
S'uint8[]'
p171
sg12
I61
sbasg12
I61
sg13
g38
sbsg27
Nsg13
Nsg12
Nsg76
Nsbag1
(g60
g3
NtRp172
(dp173
g63
Nsg40
S'RemoveKey'
p174
sg65
g1
(g66
g3
NtRp175
(dp176
g10
(lp177
g1
(g70
g3
NtRp178
(dp179
g63
Nsg40
S'crypto_session_id'
p180
sg27
Nsg13
g38
sg74
S'uint32'
p181
sg12
I66
sbag1
(g70
g3
NtRp182
(dp183
g63
Nsg40
S'key_id'
p184
sg27
Nsg13
g38
sg74
S'uint8[]'
p185
sg12
I66
sbasg12
I66
sg13
g38
sbsg27
Nsg13
Nsg12
Nsg76
Nsbasg12
I15
sg13
g38
sbsg27
Nsg12
Nsg40
S'CdmProxy'
p186
sg13
Nsbag1
(g16
g3
NtRp187
(dp188
g19
g1
(g20
g3
NtRp189
(dp190
g10
(lp191
g1
(g60
g3
NtRp192
(dp193
g63
Nsg40
S'NotifyHardwareReset'
p194
sg65
g1
(g66
g3
NtRp195
(dp196
g10
(lp197
sg12
Nsg13
Nsbsg27
Nsg13
Nsg12
Nsg76
Nsbasg12
Nsg13
Nsbsg27
Nsg12
Nsg40
S'CdmProxyClient'
p198
sg13
Nsbasg12
NsS'module'
p199
g1
(cmojom.parse.ast
Module
p200
g3
NtRp201
(dp202
S'mojom_namespace'
p203
(S'IDENTIFIER'
p204
S'media.mojom'
tp205
sg12
I5
sg27
Nsg13
g38
sbsg13
Nsb.