ccopy_reg
_reconstructor
p1
(cmojom.parse.ast
Mojom
p2
c__builtin__
object
p3
NtRp4
(dp5
S'import_list'
p6
g1
(cmojom.parse.ast
ImportList
p7
g3
NtRp8
(dp9
S'items'
p10
(lp11
g1
(cmojom.parse.ast
Import
p12
g3
NtRp13
(dp14
S'attribute_list'
p15
NsS'lineno'
p16
I7
sS'import_filename'
p17
S'media/mojo/interfaces/decryptor.mojom'
p18
sS'filename'
p19
S'../../media/mojo/interfaces/content_decryption_module.mojom'
p20
sbag1
(g12
g3
NtRp21
(dp22
g15
Nsg16
I8
sg17
S'url/mojom/origin.mojom'
p23
sg19
g20
sbag1
(g12
g3
NtRp24
(dp25
g15
Nsg16
I9
sg17
S'url/mojom/url.mojom'
p26
sg19
g20
sbasg16
I7
sg19
g20
sbsS'definition_list'
p27
(lp28
g1
(cmojom.parse.ast
Enum
p29
g3
NtRp30
(dp31
g15
g1
(cmojom.parse.ast
AttributeList
p32
g3
NtRp33
(dp34
g10
(lp35
g1
(cmojom.parse.ast
Attribute
p36
g3
NtRp37
(dp38
S'value'
p39
I01
sg16
I12
sS'key'
p40
S'Native'
p41
sg19
g20
sbasg16
I12
sg19
g20
sbsS'enum_value_list'
p42
Nsg16
I13
sS'mojom_name'
p43
S'EmeInitDataType'
p44
sg19
g20
sbag1
(g29
g3
NtRp45
(dp46
g15
g1
(g32
g3
NtRp47
(dp48
g10
(lp49
g1
(g36
g3
NtRp50
(dp51
g39
I01
sg16
I16
sg40
S'Native'
p52
sg19
g20
sbasg16
I16
sg19
g20
sbsg42
Nsg16
I17
sg43
S'CdmSessionType'
p53
sg19
g20
sbag1
(g29
g3
NtRp54
(dp55
g15
g1
(g32
g3
NtRp56
(dp57
g10
(lp58
g1
(g36
g3
NtRp59
(dp60
g39
I01
sg16
I20
sg40
S'Native'
p61
sg19
g20
sbasg16
I20
sg19
g20
sbsg42
Nsg16
I21
sg43
S'CdmMessageType'
p62
sg19
g20
sbag1
(g29
g3
NtRp63
(dp64
g15
g1
(g32
g3
NtRp65
(dp66
g10
(lp67
g1
(g36
g3
NtRp68
(dp69
g39
I01
sg16
I24
sg40
S'Native'
p70
sg19
g20
sbasg16
I24
sg19
g20
sbsg42
Nsg16
I25
sg43
S'CdmKeyStatus'
p71
sg19
g20
sbag1
(g29
g3
NtRp72
(dp73
g15
g1
(g32
g3
NtRp74
(dp75
g10
(lp76
g1
(g36
g3
NtRp77
(dp78
g39
I01
sg16
I28
sg40
S'Native'
p79
sg19
g20
sbasg16
I28
sg19
g20
sbsg42
Nsg16
I29
sg43
S'HdcpVersion'
p80
sg19
g20
sbag1
(cmojom.parse.ast
Struct
p81
g3
NtRp82
(dp83
S'body'
p84
Nsg15
g1
(g32
g3
NtRp85
(dp86
g10
(lp87
g1
(g36
g3
NtRp88
(dp89
g39
I01
sg16
I32
sg40
S'Native'
p90
sg19
g20
sbasg16
I32
sg19
g20
sbsg16
Nsg43
S'CdmConfig'
p91
sg19
Nsbag1
(g81
g3
NtRp92
(dp93
g84
g1
(cmojom.parse.ast
StructBody
p94
g3
NtRp95
(dp96
g10
(lp97
g1
(g29
g3
NtRp98
(dp99
g15
g1
(g32
g3
NtRp100
(dp101
g10
(lp102
g1
(g36
g3
NtRp103
(dp104
g39
I01
sg16
I42
sg40
S'Native'
p105
sg19
g20
sbasg16
I42
sg19
g20
sbsg42
Nsg16
I43
sg43
S'Exception'
p106
sg19
g20
sbag1
(cmojom.parse.ast
StructField
p107
g3
NtRp108
(dp109
S'ordinal'
p110
NsS'default_value'
p111
Nsg43
S'success'
p112
sg15
Nsg19
NsS'typename'
p113
S'bool'
p114
sg16
Nsbag1
(g107
g3
NtRp115
(dp116
g110
Nsg111
Nsg43
S'exception'
p117
sg15
Nsg19
Nsg113
S'Exception'
p118
sg16
Nsbag1
(g107
g3
NtRp119
(dp120
g110
Nsg111
Nsg43
S'system_code'
p121
sg15
Nsg19
Nsg113
S'uint32'
p122
sg16
Nsbag1
(g107
g3
NtRp123
(dp124
g110
Nsg111
Nsg43
S'error_message'
p125
sg15
Nsg19
Nsg113
S'string'
p126
sg16
Nsbasg16
I43
sg19
g20
sbsg15
Nsg16
Nsg43
S'CdmPromiseResult'
p127
sg19
Nsbag1
(g81
g3
NtRp128
(dp129
g84
g1
(g94
g3
NtRp130
(dp131
g10
(lp132
g1
(g107
g3
NtRp133
(dp134
g110
Nsg111
Nsg43
S'key_id'
p135
sg15
Nsg19
Nsg113
S'uint8[]'
p136
sg16
Nsbag1
(g107
g3
NtRp137
(dp138
g110
Nsg111
Nsg43
S'status'
p139
sg15
Nsg19
Nsg113
S'CdmKeyStatus'
p140
sg16
Nsbag1
(g107
g3
NtRp141
(dp142
g110
Nsg111
Nsg43
S'system_code'
p143
sg15
Nsg19
Nsg113
S'uint32'
p144
sg16
Nsbasg16
Nsg19
Nsbsg15
Nsg16
Nsg43
S'CdmKeyInformation'
p145
sg19
Nsbag1
(cmojom.parse.ast
Interface
p146
g3
NtRp147
(dp148
g84
g1
(cmojom.parse.ast
InterfaceBody
p149
g3
NtRp150
(dp151
g10
(lp152
g1
(cmojom.parse.ast
Method
p153
g3
NtRp154
(dp155
g110
Nsg43
S'SetClient'
p156
sS'parameter_list'
p157
g1
(cmojom.parse.ast
ParameterList
p158
g3
NtRp159
(dp160
g10
(lp161
g1
(cmojom.parse.ast
Parameter
p162
g3
NtRp163
(dp164
g110
Nsg43
S'client'
p165
sg15
Nsg19
g20
sg113
S'ContentDecryptionModuleClient'
p166
sg16
I66
sbasg16
I66
sg19
g20
sbsg15
Nsg19
Nsg16
NsS'response_parameter_list'
p167
Nsbag1
(g153
g3
NtRp168
(dp169
g110
Nsg43
S'Initialize'
p170
sg157
g1
(g158
g3
NtRp171
(dp172
g10
(lp173
g1
(g162
g3
NtRp174
(dp175
g110
Nsg43
S'key_system'
p176
sg15
Nsg19
g20
sg113
S'string'
p177
sg16
I73
sbag1
(g162
g3
NtRp178
(dp179
g110
Nsg43
S'security_origin'
p180
sg15
Nsg19
g20
sg113
S'url.mojom.Origin'
p181
sg16
I74
sbag1
(g162
g3
NtRp182
(dp183
g110
Nsg43
S'cdm_config'
p184
sg15
Nsg19
g20
sg113
S'CdmConfig'
p185
sg16
I75
sbasg16
I73
sg19
g20
sbsg15
Nsg19
Nsg16
Nsg167
g1
(g158
g3
NtRp186
(dp187
g10
(lp188
g1
(g162
g3
NtRp189
(dp190
g110
Nsg43
S'result'
p191
sg15
Nsg19
g20
sg113
S'CdmPromiseResult'
p192
sg16
I76
sbag1
(g162
g3
NtRp193
(dp194
g110
Nsg43
S'cdm_id'
p195
sg15
Nsg19
g20
sg113
S'int32'
p196
sg16
I76
sbag1
(g162
g3
NtRp197
(dp198
g110
Nsg43
S'decryptor'
p199
sg15
Nsg19
g20
sg113
S'Decryptor?'
p200
sg16
I76
sbasg16
I76
sg19
g20
sbsbag1
(g153
g3
NtRp201
(dp202
g110
Nsg43
S'SetServerCertificate'
p203
sg157
g1
(g158
g3
NtRp204
(dp205
g10
(lp206
g1
(g162
g3
NtRp207
(dp208
g110
Nsg43
S'certificate_data'
p209
sg15
Nsg19
g20
sg113
S'uint8[]'
p210
sg16
I80
sbasg16
I80
sg19
g20
sbsg15
Nsg19
Nsg16
Nsg167
g1
(g158
g3
NtRp211
(dp212
g10
(lp213
g1
(g162
g3
NtRp214
(dp215
g110
Nsg43
S'result'
p216
sg15
Nsg19
g20
sg113
S'CdmPromiseResult'
p217
sg16
I81
sbasg16
I81
sg19
g20
sbsbag1
(g153
g3
NtRp218
(dp219
g110
Nsg43
S'GetStatusForPolicy'
p220
sg157
g1
(g158
g3
NtRp221
(dp222
g10
(lp223
g1
(g162
g3
NtRp224
(dp225
g110
Nsg43
S'min_hdcp_version'
p226
sg15
Nsg19
g20
sg113
S'HdcpVersion'
p227
sg16
I87
sbasg16
I87
sg19
g20
sbsg15
Nsg19
Nsg16
Nsg167
g1
(g158
g3
NtRp228
(dp229
g10
(lp230
g1
(g162
g3
NtRp231
(dp232
g110
Nsg43
S'result'
p233
sg15
Nsg19
g20
sg113
S'CdmPromiseResult'
p234
sg16
I88
sbag1
(g162
g3
NtRp235
(dp236
g110
Nsg43
S'key_status'
p237
sg15
Nsg19
g20
sg113
S'CdmKeyStatus'
p238
sg16
I88
sbasg16
I88
sg19
g20
sbsbag1
(g153
g3
NtRp239
(dp240
g110
Nsg43
S'CreateSessionAndGenerateRequest'
p241
sg157
g1
(g158
g3
NtRp242
(dp243
g10
(lp244
g1
(g162
g3
NtRp245
(dp246
g110
Nsg43
S'session_type'
p247
sg15
Nsg19
g20
sg113
S'CdmSessionType'
p248
sg16
I93
sbag1
(g162
g3
NtRp249
(dp250
g110
Nsg43
S'init_data_type'
p251
sg15
Nsg19
g20
sg113
S'EmeInitDataType'
p252
sg16
I94
sbag1
(g162
g3
NtRp253
(dp254
g110
Nsg43
S'init_data'
p255
sg15
Nsg19
g20
sg113
S'uint8[]'
p256
sg16
I95
sbasg16
I93
sg19
g20
sbsg15
Nsg19
Nsg16
Nsg167
g1
(g158
g3
NtRp257
(dp258
g10
(lp259
g1
(g162
g3
NtRp260
(dp261
g110
Nsg43
S'result'
p262
sg15
Nsg19
g20
sg113
S'CdmPromiseResult'
p263
sg16
I96
sbag1
(g162
g3
NtRp264
(dp265
g110
Nsg43
S'session_id'
p266
sg15
Nsg19
g20
sg113
S'string'
p267
sg16
I96
sbasg16
I96
sg19
g20
sbsbag1
(g153
g3
NtRp268
(dp269
g110
Nsg43
S'LoadSession'
p270
sg157
g1
(g158
g3
NtRp271
(dp272
g10
(lp273
g1
(g162
g3
NtRp274
(dp275
g110
Nsg43
S'session_type'
p276
sg15
Nsg19
g20
sg113
S'CdmSessionType'
p277
sg16
I104
sbag1
(g162
g3
NtRp278
(dp279
g110
Nsg43
S'session_id'
p280
sg15
Nsg19
g20
sg113
S'string'
p281
sg16
I104
sbasg16
I104
sg19
g20
sbsg15
Nsg19
Nsg16
Nsg167
g1
(g158
g3
NtRp282
(dp283
g10
(lp284
g1
(g162
g3
NtRp285
(dp286
g110
Nsg43
S'result'
p287
sg15
Nsg19
g20
sg113
S'CdmPromiseResult'
p288
sg16
I105
sbag1
(g162
g3
NtRp289
(dp290
g110
Nsg43
S'session_id'
p291
sg15
Nsg19
g20
sg113
S'string'
p292
sg16
I105
sbasg16
I105
sg19
g20
sbsbag1
(g153
g3
NtRp293
(dp294
g110
Nsg43
S'UpdateSession'
p295
sg157
g1
(g158
g3
NtRp296
(dp297
g10
(lp298
g1
(g162
g3
NtRp299
(dp300
g110
Nsg43
S'session_id'
p301
sg15
Nsg19
g20
sg113
S'string'
p302
sg16
I108
sbag1
(g162
g3
NtRp303
(dp304
g110
Nsg43
S'response'
p305
sg15
Nsg19
g20
sg113
S'uint8[]'
p306
sg16
I108
sbasg16
I108
sg19
g20
sbsg15
Nsg19
Nsg16
Nsg167
g1
(g158
g3
NtRp307
(dp308
g10
(lp309
g1
(g162
g3
NtRp310
(dp311
g110
Nsg43
S'result'
p312
sg15
Nsg19
g20
sg113
S'CdmPromiseResult'
p313
sg16
I109
sbasg16
I109
sg19
g20
sbsbag1
(g153
g3
NtRp314
(dp315
g110
Nsg43
S'CloseSession'
p316
sg157
g1
(g158
g3
NtRp317
(dp318
g10
(lp319
g1
(g162
g3
NtRp320
(dp321
g110
Nsg43
S'session_id'
p322
sg15
Nsg19
g20
sg113
S'string'
p323
sg16
I112
sbasg16
I112
sg19
g20
sbsg15
Nsg19
Nsg16
Nsg167
g1
(g158
g3
NtRp324
(dp325
g10
(lp326
g1
(g162
g3
NtRp327
(dp328
g110
Nsg43
S'result'
p329
sg15
Nsg19
g20
sg113
S'CdmPromiseResult'
p330
sg16
I112
sbasg16
I112
sg19
g20
sbsbag1
(g153
g3
NtRp331
(dp332
g110
Nsg43
S'RemoveSession'
p333
sg157
g1
(g158
g3
NtRp334
(dp335
g10
(lp336
g1
(g162
g3
NtRp337
(dp338
g110
Nsg43
S'session_id'
p339
sg15
Nsg19
g20
sg113
S'string'
p340
sg16
I116
sbasg16
I116
sg19
g20
sbsg15
Nsg19
Nsg16
Nsg167
g1
(g158
g3
NtRp341
(dp342
g10
(lp343
g1
(g162
g3
NtRp344
(dp345
g110
Nsg43
S'result'
p346
sg15
Nsg19
g20
sg113
S'CdmPromiseResult'
p347
sg16
I116
sbasg16
I116
sg19
g20
sbsbasg16
Nsg19
Nsbsg15
Nsg16
Nsg43
S'ContentDecryptionModule'
p348
sg19
Nsbag1
(g146
g3
NtRp349
(dp350
g84
g1
(g149
g3
NtRp351
(dp352
g10
(lp353
g1
(g153
g3
NtRp354
(dp355
g110
Nsg43
S'OnSessionMessage'
p356
sg157
g1
(g158
g3
NtRp357
(dp358
g10
(lp359
g1
(g162
g3
NtRp360
(dp361
g110
Nsg43
S'session_id'
p362
sg15
Nsg19
g20
sg113
S'string'
p363
sg16
I121
sbag1
(g162
g3
NtRp364
(dp365
g110
Nsg43
S'message_type'
p366
sg15
Nsg19
g20
sg113
S'CdmMessageType'
p367
sg16
I121
sbag1
(g162
g3
NtRp368
(dp369
g110
Nsg43
S'message'
p370
sg15
Nsg19
g20
sg113
S'uint8[]'
p371
sg16
I122
sbasg16
I121
sg19
g20
sbsg15
Nsg19
Nsg16
Nsg167
Nsbag1
(g153
g3
NtRp372
(dp373
g110
Nsg43
S'OnSessionClosed'
p374
sg157
g1
(g158
g3
NtRp375
(dp376
g10
(lp377
g1
(g162
g3
NtRp378
(dp379
g110
Nsg43
S'session_id'
p380
sg15
Nsg19
g20
sg113
S'string'
p381
sg16
I124
sbasg16
I124
sg19
g20
sbsg15
Nsg19
Nsg16
Nsg167
Nsbag1
(g153
g3
NtRp382
(dp383
g110
Nsg43
S'OnSessionKeysChange'
p384
sg157
g1
(g158
g3
NtRp385
(dp386
g10
(lp387
g1
(g162
g3
NtRp388
(dp389
g110
Nsg43
S'session_id'
p390
sg15
Nsg19
g20
sg113
S'string'
p391
sg16
I126
sbag1
(g162
g3
NtRp392
(dp393
g110
Nsg43
S'has_additional_usable_key'
p394
sg15
Nsg19
g20
sg113
S'bool'
p395
sg16
I126
sbag1
(g162
g3
NtRp396
(dp397
g110
Nsg43
S'keys_info'
p398
sg15
Nsg19
g20
sg113
S'CdmKeyInformation[]'
p399
sg16
I127
sbasg16
I126
sg19
g20
sbsg15
Nsg19
Nsg16
Nsg167
Nsbag1
(g153
g3
NtRp400
(dp401
g110
Nsg43
S'OnSessionExpirationUpdate'
p402
sg157
g1
(g158
g3
NtRp403
(dp404
g10
(lp405
g1
(g162
g3
NtRp406
(dp407
g110
Nsg43
S'session_id'
p408
sg15
Nsg19
g20
sg113
S'string'
p409
sg16
I131
sbag1
(g162
g3
NtRp410
(dp411
g110
Nsg43
S'new_expiry_time_sec'
p412
sg15
Nsg19
g20
sg113
S'double'
p413
sg16
I131
sbasg16
I131
sg19
g20
sbsg15
Nsg19
Nsg16
Nsg167
Nsbasg16
Nsg19
Nsbsg15
Nsg16
Nsg43
S'ContentDecryptionModuleClient'
p414
sg19
Nsbag1
(g146
g3
NtRp415
(dp416
g84
g1
(g149
g3
NtRp417
(dp418
g10
(lp419
g1
(g153
g3
NtRp420
(dp421
g110
Nsg43
S'CreateCdm'
p422
sg157
g1
(g158
g3
NtRp423
(dp424
g10
(lp425
g1
(g162
g3
NtRp426
(dp427
g110
Nsg43
S'key_system'
p428
sg15
Nsg19
g20
sg113
S'string'
p429
sg16
I140
sbag1
(g162
g3
NtRp430
(dp431
g110
Nsg43
S'cdm'
p432
sg15
Nsg19
g20
sg113
S'ContentDecryptionModule&'
p433
sg16
I140
sbasg16
I140
sg19
g20
sbsg15
Nsg19
Nsg16
Nsg167
Nsbasg16
Nsg19
Nsbsg15
Nsg16
Nsg43
S'CdmFactory'
p434
sg19
Nsbasg16
NsS'module'
p435
g1
(cmojom.parse.ast
Module
p436
g3
NtRp437
(dp438
S'mojom_namespace'
p439
(S'IDENTIFIER'
p440
S'media.mojom'
tp441
sg16
I5
sg15
Nsg19
g20
sbsg19
Nsb.