ccopy_reg
_reconstructor
p1
(cmojom.parse.ast
Mojom
p2
c__builtin__
object
p3
NtRp4
(dp5
S'import_list'
p6
g1
(cmojom.parse.ast
ImportList
p7
g3
NtRp8
(dp9
S'items'
p10
(lp11
g1
(cmojom.parse.ast
Import
p12
g3
NtRp13
(dp14
S'attribute_list'
p15
NsS'lineno'
p16
I7
sS'import_filename'
p17
S'media/mojo/interfaces/audio_decoder.mojom'
p18
sS'filename'
p19
S'../../media/mojo/interfaces/interface_factory.mojom'
p20
sbag1
(g12
g3
NtRp21
(dp22
g15
Nsg16
I8
sg17
S'media/mojo/interfaces/cdm_proxy.mojom'
p23
sg19
g20
sbag1
(g12
g3
NtRp24
(dp25
g15
Nsg16
I9
sg17
S'media/mojo/interfaces/decryptor.mojom'
p26
sg19
g20
sbag1
(g12
g3
NtRp27
(dp28
g15
Nsg16
I10
sg17
S'media/mojo/interfaces/content_decryption_module.mojom'
p29
sg19
g20
sbag1
(g12
g3
NtRp30
(dp31
g15
Nsg16
I11
sg17
S'media/mojo/interfaces/renderer.mojom'
p32
sg19
g20
sbag1
(g12
g3
NtRp33
(dp34
g15
Nsg16
I12
sg17
S'media/mojo/interfaces/video_decoder.mojom'
p35
sg19
g20
sbasg16
I7
sg19
g20
sbsS'definition_list'
p36
(lp37
g1
(cmojom.parse.ast
Enum
p38
g3
NtRp39
(dp40
g15
NsS'enum_value_list'
p41
g1
(cmojom.parse.ast
EnumValueList
p42
g3
NtRp43
(dp44
g10
(lp45
g1
(cmojom.parse.ast
EnumValue
p46
g3
NtRp47
(dp48
g15
NsS'value'
p49
Nsg16
I18
sS'mojom_name'
p50
S'kDefault'
p51
sg19
g20
sbasg16
I18
sg19
g20
sbsg16
I15
sg50
S'HostedRendererType'
p52
sg19
g20
sbag1
(cmojom.parse.ast
Interface
p53
g3
NtRp54
(dp55
S'body'
p56
g1
(cmojom.parse.ast
InterfaceBody
p57
g3
NtRp58
(dp59
g10
(lp60
g1
(cmojom.parse.ast
Method
p61
g3
NtRp62
(dp63
S'ordinal'
p64
Nsg50
S'CreateAudioDecoder'
p65
sS'parameter_list'
p66
g1
(cmojom.parse.ast
ParameterList
p67
g3
NtRp68
(dp69
g10
(lp70
g1
(cmojom.parse.ast
Parameter
p71
g3
NtRp72
(dp73
g64
Nsg50
S'audio_decoder'
p74
sg15
Nsg19
g20
sS'typename'
p75
S'AudioDecoder&'
p76
sg16
I38
sbasg16
I38
sg19
g20
sbsg15
Nsg19
Nsg16
NsS'response_parameter_list'
p77
Nsbag1
(g61
g3
NtRp78
(dp79
g64
Nsg50
S'CreateVideoDecoder'
p80
sg66
g1
(g67
g3
NtRp81
(dp82
g10
(lp83
g1
(g71
g3
NtRp84
(dp85
g64
Nsg50
S'video_decoder'
p86
sg15
Nsg19
g20
sg75
S'VideoDecoder&'
p87
sg16
I39
sbasg16
I39
sg19
g20
sbsg15
Nsg19
Nsg16
Nsg77
Nsbag1
(g61
g3
NtRp88
(dp89
g64
Nsg50
S'CreateRenderer'
p90
sg66
g1
(g67
g3
NtRp91
(dp92
g10
(lp93
g1
(g71
g3
NtRp94
(dp95
g64
Nsg50
S'type'
p96
sg15
Nsg19
g20
sg75
S'HostedRendererType'
p97
sg16
I54
sbag1
(g71
g3
NtRp98
(dp99
g64
Nsg50
S'type_specific_id'
p100
sg15
Nsg19
g20
sg75
S'string'
p101
sg16
I54
sbag1
(g71
g3
NtRp102
(dp103
g64
Nsg50
S'renderer'
p104
sg15
Nsg19
g20
sg75
S'Renderer&'
p105
sg16
I55
sbasg16
I54
sg19
g20
sbsg15
Nsg19
Nsg16
Nsg77
Nsbag1
(g61
g3
NtRp106
(dp107
g64
Nsg50
S'CreateCdm'
p108
sg66
g1
(g67
g3
NtRp109
(dp110
g10
(lp111
g1
(g71
g3
NtRp112
(dp113
g64
Nsg50
S'key_system'
p114
sg15
Nsg19
g20
sg75
S'string'
p115
sg16
I62
sbag1
(g71
g3
NtRp116
(dp117
g64
Nsg50
S'cdm'
p118
sg15
Nsg19
g20
sg75
S'ContentDecryptionModule&'
p119
sg16
I62
sbasg16
I62
sg19
g20
sbsg15
Nsg19
Nsg16
Nsg77
Nsbag1
(g61
g3
NtRp120
(dp121
g64
Nsg50
S'CreateDecryptor'
p122
sg66
g1
(g67
g3
NtRp123
(dp124
g10
(lp125
g1
(g71
g3
NtRp126
(dp127
g64
Nsg50
S'cdm_id'
p128
sg15
Nsg19
g20
sg75
S'int32'
p129
sg16
I65
sbag1
(g71
g3
NtRp130
(dp131
g64
Nsg50
S'decryptor'
p132
sg15
Nsg19
g20
sg75
S'Decryptor&'
p133
sg16
I65
sbasg16
I65
sg19
g20
sbsg15
Nsg19
Nsg16
Nsg77
Nsbag1
(g61
g3
NtRp134
(dp135
g64
Nsg50
S'CreateCdmProxy'
p136
sg66
g1
(g67
g3
NtRp137
(dp138
g10
(lp139
g1
(g71
g3
NtRp140
(dp141
g64
Nsg50
S'cdm_guid'
p142
sg15
Nsg19
g20
sg75
S'string'
p143
sg16
I73
sbag1
(g71
g3
NtRp144
(dp145
g64
Nsg50
S'cdm_proxy'
p146
sg15
Nsg19
g20
sg75
S'CdmProxy&'
p147
sg16
I73
sbasg16
I73
sg19
g20
sbsg15
Nsg19
Nsg16
Nsg77
Nsbasg16
Nsg19
Nsbsg15
Nsg16
Nsg50
S'InterfaceFactory'
p148
sg19
Nsbasg16
NsS'module'
p149
g1
(cmojom.parse.ast
Module
p150
g3
NtRp151
(dp152
S'mojom_namespace'
p153
(S'IDENTIFIER'
p154
S'media.mojom'
tp155
sg16
I5
sg15
Nsg19
g20
sbsg19
Nsb.