ccopy_reg
_reconstructor
p1
(cmojom.parse.ast
Mojom
p2
c__builtin__
object
p3
NtRp4
(dp5
S'import_list'
p6
g1
(cmojom.parse.ast
ImportList
p7
g3
NtRp8
(dp9
S'items'
p10
(lp11
g1
(cmojom.parse.ast
Import
p12
g3
NtRp13
(dp14
S'attribute_list'
p15
NsS'lineno'
p16
I7
sS'import_filename'
p17
S'media/mojo/interfaces/media_types.mojom'
p18
sS'filename'
p19
S'../../media/mojo/interfaces/jpeg_decode_accelerator.mojom'
p20
sbag1
(g12
g3
NtRp21
(dp22
g15
Nsg16
I8
sg17
S'mojo/public/mojom/base/time.mojom'
p23
sg19
g20
sbag1
(g12
g3
NtRp24
(dp25
g15
Nsg16
I9
sg17
S'ui/gfx/geometry/mojo/geometry.mojom'
p26
sg19
g20
sbasg16
I7
sg19
g20
sbsS'definition_list'
p27
(lp28
g1
(cmojom.parse.ast
Enum
p29
g3
NtRp30
(dp31
g15
NsS'enum_value_list'
p32
g1
(cmojom.parse.ast
EnumValueList
p33
g3
NtRp34
(dp35
g10
(lp36
g1
(cmojom.parse.ast
EnumValue
p37
g3
NtRp38
(dp39
g15
NsS'value'
p40
Nsg16
I13
sS'mojom_name'
p41
S'NO_ERRORS'
p42
sg19
g20
sbag1
(g37
g3
NtRp43
(dp44
g15
Nsg40
Nsg16
I14
sg41
S'INVALID_ARGUMENT'
p45
sg19
g20
sbag1
(g37
g3
NtRp46
(dp47
g15
Nsg40
Nsg16
I15
sg41
S'UNREADABLE_INPUT'
p48
sg19
g20
sbag1
(g37
g3
NtRp49
(dp50
g15
Nsg40
Nsg16
I16
sg41
S'PARSE_JPEG_FAILED'
p51
sg19
g20
sbag1
(g37
g3
NtRp52
(dp53
g15
Nsg40
Nsg16
I17
sg41
S'UNSUPPORTED_JPEG'
p54
sg19
g20
sbag1
(g37
g3
NtRp55
(dp56
g15
Nsg40
Nsg16
I18
sg41
S'PLATFORM_FAILURE'
p57
sg19
g20
sbasg16
I13
sg19
g20
sbsg16
I12
sg41
S'DecodeError'
p58
sg19
g20
sbag1
(cmojom.parse.ast
Struct
p59
g3
NtRp60
(dp61
S'body'
p62
g1
(cmojom.parse.ast
StructBody
p63
g3
NtRp64
(dp65
g10
(lp66
g1
(cmojom.parse.ast
StructField
p67
g3
NtRp68
(dp69
S'ordinal'
p70
NsS'default_value'
p71
Nsg41
S'id'
p72
sg15
Nsg19
NsS'typename'
p73
S'int32'
p74
sg16
Nsbag1
(g67
g3
NtRp75
(dp76
g70
Nsg71
Nsg41
S'memory_handle'
p77
sg15
Nsg19
Nsg73
S'handle<shared_buffer>'
p78
sg16
Nsbag1
(g67
g3
NtRp79
(dp80
g70
Nsg71
Nsg41
S'size'
p81
sg15
Nsg19
Nsg73
S'uint32'
p82
sg16
Nsbag1
(g67
g3
NtRp83
(dp84
g70
Nsg71
Nsg41
S'offset'
p85
sg15
Nsg19
Nsg73
S'int64'
p86
sg16
Nsbag1
(g67
g3
NtRp87
(dp88
g70
Nsg71
Nsg41
S'timestamp'
p89
sg15
Nsg19
Nsg73
S'mojo_base.mojom.TimeDelta'
p90
sg16
Nsbag1
(g67
g3
NtRp91
(dp92
g70
Nsg71
Nsg41
S'key_id'
p93
sg15
Nsg19
Nsg73
S'string'
p94
sg16
Nsbag1
(g67
g3
NtRp95
(dp96
g70
Nsg71
Nsg41
S'iv'
p97
sg15
Nsg19
Nsg73
S'string'
p98
sg16
Nsbag1
(g67
g3
NtRp99
(dp100
g70
Nsg71
Nsg41
S'subsamples'
p101
sg15
Nsg19
Nsg73
S'SubsampleEntry[]'
p102
sg16
Nsbasg16
Nsg19
Nsbsg15
Nsg16
Nsg41
S'BitstreamBuffer'
p103
sg19
Nsbag1
(cmojom.parse.ast
Interface
p104
g3
NtRp105
(dp106
g62
g1
(cmojom.parse.ast
InterfaceBody
p107
g3
NtRp108
(dp109
g10
(lp110
g1
(cmojom.parse.ast
Method
p111
g3
NtRp112
(dp113
g70
Nsg41
S'Initialize'
p114
sS'parameter_list'
p115
g1
(cmojom.parse.ast
ParameterList
p116
g3
NtRp117
(dp118
g10
(lp119
sg16
Nsg19
Nsbsg15
Nsg19
Nsg16
NsS'response_parameter_list'
p120
g1
(g116
g3
NtRp121
(dp122
g10
(lp123
g1
(cmojom.parse.ast
Parameter
p124
g3
NtRp125
(dp126
g70
Nsg41
S'success'
p127
sg15
Nsg19
g20
sg73
S'bool'
p128
sg16
I39
sbasg16
I39
sg19
g20
sbsbag1
(g111
g3
NtRp129
(dp130
g70
Nsg41
S'Decode'
p131
sg115
g1
(g116
g3
NtRp132
(dp133
g10
(lp134
g1
(g124
g3
NtRp135
(dp136
g70
Nsg41
S'input_buffer'
p137
sg15
Nsg19
g20
sg73
S'BitstreamBuffer'
p138
sg16
I50
sbag1
(g124
g3
NtRp139
(dp140
g70
Nsg41
S'coded_size'
p141
sg15
Nsg19
g20
sg73
S'gfx.mojom.Size'
p142
sg16
I50
sbag1
(g124
g3
NtRp143
(dp144
g70
Nsg41
S'output_handle'
p145
sg15
Nsg19
g20
sg73
S'handle<shared_buffer>'
p146
sg16
I51
sbag1
(g124
g3
NtRp147
(dp148
g70
Nsg41
S'output_buffer_size'
p149
sg15
Nsg19
g20
sg73
S'uint32'
p150
sg16
I51
sbasg16
I50
sg19
g20
sbsg15
Nsg19
Nsg16
Nsg120
g1
(g116
g3
NtRp151
(dp152
g10
(lp153
g1
(g124
g3
NtRp154
(dp155
g70
Nsg41
S'bitstream_buffer_id'
p156
sg15
Nsg19
g20
sg73
S'int32'
p157
sg16
I52
sbag1
(g124
g3
NtRp158
(dp159
g70
Nsg41
S'error'
p160
sg15
Nsg19
g20
sg73
S'DecodeError'
p161
sg16
I52
sbasg16
I52
sg19
g20
sbsbag1
(g111
g3
NtRp162
(dp163
g70
Nsg41
S'DecodeWithFD'
p164
sg115
g1
(g116
g3
NtRp165
(dp166
g10
(lp167
g1
(g124
g3
NtRp168
(dp169
g70
Nsg41
S'buffer_id'
p170
sg15
Nsg19
g20
sg73
S'int32'
p171
sg16
I64
sbag1
(g124
g3
NtRp172
(dp173
g70
Nsg41
S'input_fd'
p174
sg15
Nsg19
g20
sg73
S'handle'
p175
sg16
I64
sbag1
(g124
g3
NtRp176
(dp177
g70
Nsg41
S'input_buffer_size'
p178
sg15
Nsg19
g20
sg73
S'uint32'
p179
sg16
I64
sbag1
(g124
g3
NtRp180
(dp181
g70
Nsg41
S'coded_size_width'
p182
sg15
Nsg19
g20
sg73
S'int32'
p183
sg16
I65
sbag1
(g124
g3
NtRp184
(dp185
g70
Nsg41
S'coded_size_height'
p186
sg15
Nsg19
g20
sg73
S'int32'
p187
sg16
I65
sbag1
(g124
g3
NtRp188
(dp189
g70
Nsg41
S'output_fd'
p190
sg15
Nsg19
g20
sg73
S'handle'
p191
sg16
I66
sbag1
(g124
g3
NtRp192
(dp193
g70
Nsg41
S'output_buffer_size'
p194
sg15
Nsg19
g20
sg73
S'uint32'
p195
sg16
I66
sbasg16
I64
sg19
g20
sbsg15
Nsg19
Nsg16
Nsg120
g1
(g116
g3
NtRp196
(dp197
g10
(lp198
g1
(g124
g3
NtRp199
(dp200
g70
Nsg41
S'buffer_id'
p201
sg15
Nsg19
g20
sg73
S'int32'
p202
sg16
I67
sbag1
(g124
g3
NtRp203
(dp204
g70
Nsg41
S'error'
p205
sg15
Nsg19
g20
sg73
S'DecodeError'
p206
sg16
I67
sbasg16
I67
sg19
g20
sbsbag1
(g111
g3
NtRp207
(dp208
g70
Nsg41
S'Uninitialize'
p209
sg115
g1
(g116
g3
NtRp210
(dp211
g10
(lp212
sg16
Nsg19
Nsbsg15
Nsg19
Nsg16
Nsg120
Nsbasg16
Nsg19
Nsbsg15
Nsg16
Nsg41
S'JpegDecodeAccelerator'
p213
sg19
Nsbasg16
NsS'module'
p214
g1
(cmojom.parse.ast
Module
p215
g3
NtRp216
(dp217
S'mojom_namespace'
p218
(S'IDENTIFIER'
p219
S'media.mojom'
tp220
sg16
I5
sg15
Nsg19
g20
sbsg19
Nsb.