ccopy_reg
_reconstructor
p1
(cmojom.parse.ast
Mojom
p2
c__builtin__
object
p3
NtRp4
(dp5
S'import_list'
p6
g1
(cmojom.parse.ast
ImportList
p7
g3
NtRp8
(dp9
S'items'
p10
(lp11
g1
(cmojom.parse.ast
Import
p12
g3
NtRp13
(dp14
S'attribute_list'
p15
NsS'lineno'
p16
I7
sS'import_filename'
p17
S'media/mojo/interfaces/media_types.mojom'
p18
sS'filename'
p19
S'../../media/mojo/interfaces/jpeg_encode_accelerator.mojom'
p20
sbasg16
I7
sg19
g20
sbsS'definition_list'
p21
(lp22
g1
(cmojom.parse.ast
Enum
p23
g3
NtRp24
(dp25
g15
NsS'enum_value_list'
p26
g1
(cmojom.parse.ast
EnumValueList
p27
g3
NtRp28
(dp29
g10
(lp30
g1
(cmojom.parse.ast
EnumValue
p31
g3
NtRp32
(dp33
g15
NsS'value'
p34
Nsg16
I11
sS'mojom_name'
p35
S'ENCODE_OK'
p36
sg19
g20
sbag1
(g31
g3
NtRp37
(dp38
g15
Nsg34
Nsg16
I12
sg35
S'HW_JPEG_ENCODE_NOT_SUPPORTED'
p39
sg19
g20
sbag1
(g31
g3
NtRp40
(dp41
g15
Nsg34
Nsg16
I13
sg35
S'THREAD_CREATION_FAILED'
p42
sg19
g20
sbag1
(g31
g3
NtRp43
(dp44
g15
Nsg34
Nsg16
I14
sg35
S'INVALID_ARGUMENT'
p45
sg19
g20
sbag1
(g31
g3
NtRp46
(dp47
g15
Nsg34
Nsg16
I15
sg35
S'INACCESSIBLE_OUTPUT_BUFFER'
p48
sg19
g20
sbag1
(g31
g3
NtRp49
(dp50
g15
Nsg34
Nsg16
I16
sg35
S'PARSE_IMAGE_FAILED'
p51
sg19
g20
sbag1
(g31
g3
NtRp52
(dp53
g15
Nsg34
Nsg16
I17
sg35
S'PLATFORM_FAILURE'
p54
sg19
g20
sbasg16
I11
sg19
g20
sbsg16
I10
sg35
S'EncodeStatus'
p55
sg19
g20
sbag1
(cmojom.parse.ast
Interface
p56
g3
NtRp57
(dp58
S'body'
p59
g1
(cmojom.parse.ast
InterfaceBody
p60
g3
NtRp61
(dp62
g10
(lp63
g1
(cmojom.parse.ast
Method
p64
g3
NtRp65
(dp66
S'ordinal'
p67
Nsg35
S'Initialize'
p68
sS'parameter_list'
p69
g1
(cmojom.parse.ast
ParameterList
p70
g3
NtRp71
(dp72
g10
(lp73
sg16
Nsg19
Nsbsg15
Nsg19
Nsg16
NsS'response_parameter_list'
p74
g1
(g70
g3
NtRp75
(dp76
g10
(lp77
g1
(cmojom.parse.ast
Parameter
p78
g3
NtRp79
(dp80
g67
Nsg35
S'success'
p81
sg15
Nsg19
g20
sS'typename'
p82
S'bool'
p83
sg16
I25
sbasg16
I25
sg19
g20
sbsbag1
(g64
g3
NtRp84
(dp85
g67
Nsg35
S'EncodeWithFD'
p86
sg69
g1
(g70
g3
NtRp87
(dp88
g10
(lp89
g1
(g78
g3
NtRp90
(dp91
g67
Nsg35
S'buffer_id'
p92
sg15
Nsg19
g20
sg82
S'int32'
p93
sg16
I41
sbag1
(g78
g3
NtRp94
(dp95
g67
Nsg35
S'input_fd'
p96
sg15
Nsg19
g20
sg82
S'handle'
p97
sg16
I41
sbag1
(g78
g3
NtRp98
(dp99
g67
Nsg35
S'input_buffer_size'
p100
sg15
Nsg19
g20
sg82
S'uint32'
p101
sg16
I41
sbag1
(g78
g3
NtRp102
(dp103
g67
Nsg35
S'coded_size_width'
p104
sg15
Nsg19
g20
sg82
S'int32'
p105
sg16
I42
sbag1
(g78
g3
NtRp106
(dp107
g67
Nsg35
S'coded_size_height'
p108
sg15
Nsg19
g20
sg82
S'int32'
p109
sg16
I42
sbag1
(g78
g3
NtRp110
(dp111
g67
Nsg35
S'exif_fd'
p112
sg15
Nsg19
g20
sg82
S'handle'
p113
sg16
I43
sbag1
(g78
g3
NtRp114
(dp115
g67
Nsg35
S'exif_buffer_size'
p116
sg15
Nsg19
g20
sg82
S'uint32'
p117
sg16
I43
sbag1
(g78
g3
NtRp118
(dp119
g67
Nsg35
S'output_fd'
p120
sg15
Nsg19
g20
sg82
S'handle'
p121
sg16
I44
sbag1
(g78
g3
NtRp122
(dp123
g67
Nsg35
S'output_buffer_size'
p124
sg15
Nsg19
g20
sg82
S'uint32'
p125
sg16
I44
sbasg16
I41
sg19
g20
sbsg15
Nsg19
Nsg16
Nsg74
g1
(g70
g3
NtRp126
(dp127
g10
(lp128
g1
(g78
g3
NtRp129
(dp130
g67
Nsg35
S'buffer_id'
p131
sg15
Nsg19
g20
sg82
S'int32'
p132
sg16
I45
sbag1
(g78
g3
NtRp133
(dp134
g67
Nsg35
S'encoded_buffer_size'
p135
sg15
Nsg19
g20
sg82
S'uint32'
p136
sg16
I45
sbag1
(g78
g3
NtRp137
(dp138
g67
Nsg35
S'status'
p139
sg15
Nsg19
g20
sg82
S'EncodeStatus'
p140
sg16
I45
sbasg16
I45
sg19
g20
sbsbasg16
Nsg19
Nsbsg15
Nsg16
Nsg35
S'JpegEncodeAccelerator'
p141
sg19
Nsbasg16
NsS'module'
p142
g1
(cmojom.parse.ast
Module
p143
g3
NtRp144
(dp145
S'mojom_namespace'
p146
(S'IDENTIFIER'
p147
S'media.mojom'
tp148
sg16
I5
sg15
Nsg19
g20
sbsg19
Nsb.