ccopy_reg
_reconstructor
p1
(cmojom.parse.ast
Mojom
p2
c__builtin__
object
p3
NtRp4
(dp5
S'import_list'
p6
g1
(cmojom.parse.ast
ImportList
p7
g3
NtRp8
(dp9
S'items'
p10
(lp11
g1
(cmojom.parse.ast
Import
p12
g3
NtRp13
(dp14
S'attribute_list'
p15
NsS'lineno'
p16
I7
sS'import_filename'
p17
S'media/mojo/interfaces/media_types.mojom'
p18
sS'filename'
p19
S'../../media/mojo/interfaces/key_system_support.mojom'
p20
sbasg16
I7
sg19
g20
sbsS'definition_list'
p21
(lp22
g1
(cmojom.parse.ast
Interface
p23
g3
NtRp24
(dp25
S'body'
p26
g1
(cmojom.parse.ast
InterfaceBody
p27
g3
NtRp28
(dp29
g10
(lp30
g1
(cmojom.parse.ast
Method
p31
g3
NtRp32
(dp33
S'ordinal'
p34
NsS'mojom_name'
p35
S'IsKeySystemSupported'
p36
sS'parameter_list'
p37
g1
(cmojom.parse.ast
ParameterList
p38
g3
NtRp39
(dp40
g10
(lp41
g1
(cmojom.parse.ast
Parameter
p42
g3
NtRp43
(dp44
g34
Nsg35
S'key_system'
p45
sg15
Nsg19
g20
sS'typename'
p46
S'string'
p47
sg16
I19
sbasg16
I19
sg19
g20
sbsg15
g1
(cmojom.parse.ast
AttributeList
p48
g3
NtRp49
(dp50
g10
(lp51
g1
(cmojom.parse.ast
Attribute
p52
g3
NtRp53
(dp54
S'value'
p55
I01
sg16
I18
sS'key'
p56
S'Sync'
p57
sg19
g20
sbasg16
I18
sg19
g20
sbsg19
Nsg16
NsS'response_parameter_list'
p58
g1
(g38
g3
NtRp59
(dp60
g10
(lp61
g1
(g42
g3
NtRp62
(dp63
g34
Nsg35
S'is_supported'
p64
sg15
Nsg19
g20
sg46
S'bool'
p65
sg16
I20
sbag1
(g42
g3
NtRp66
(dp67
g34
Nsg35
S'supported_video_codecs'
p68
sg15
Nsg19
g20
sg46
S'VideoCodec[]'
p69
sg16
I21
sbag1
(g42
g3
NtRp70
(dp71
g34
Nsg35
S'supports_persistent_license'
p72
sg15
Nsg19
g20
sg46
S'bool'
p73
sg16
I22
sbag1
(g42
g3
NtRp74
(dp75
g34
Nsg35
S'supported_encryption_schemes'
p76
sg15
Nsg19
g20
sg46
S'EncryptionMode[]'
p77
sg16
I23
sbasg16
I20
sg19
g20
sbsbasg16
Nsg19
Nsbsg15
Nsg16
Nsg35
S'KeySystemSupport'
p78
sg19
Nsbasg16
NsS'module'
p79
g1
(cmojom.parse.ast
Module
p80
g3
NtRp81
(dp82
S'mojom_namespace'
p83
(S'IDENTIFIER'
p84
S'media.mojom'
tp85
sg16
I5
sg15
Nsg19
g20
sbsg19
Nsb.