ccopy_reg
_reconstructor
p1
(cmojom.parse.ast
Mojom
p2
c__builtin__
object
p3
NtRp4
(dp5
S'import_list'
p6
g1
(cmojom.parse.ast
ImportList
p7
g3
NtRp8
(dp9
S'items'
p10
(lp11
g1
(cmojom.parse.ast
Import
p12
g3
NtRp13
(dp14
S'attribute_list'
p15
NsS'lineno'
p16
I7
sS'import_filename'
p17
S'media/mojo/interfaces/media_types.mojom'
p18
sS'filename'
p19
S'../../media/mojo/interfaces/media_metrics_provider.mojom'
p20
sbag1
(g12
g3
NtRp21
(dp22
g15
Nsg16
I8
sg17
S'media/mojo/interfaces/video_decode_stats_recorder.mojom'
p23
sg19
g20
sbag1
(g12
g3
NtRp24
(dp25
g15
Nsg16
I9
sg17
S'media/mojo/interfaces/watch_time_recorder.mojom'
p26
sg19
g20
sbag1
(g12
g3
NtRp27
(dp28
g15
Nsg16
I10
sg17
S'mojo/public/mojom/base/time.mojom'
p29
sg19
g20
sbag1
(g12
g3
NtRp30
(dp31
g15
Nsg16
I11
sg17
S'ui/gfx/geometry/mojo/geometry.mojom'
p32
sg19
g20
sbag1
(g12
g3
NtRp33
(dp34
g15
Nsg16
I12
sg17
S'url/mojom/origin.mojom'
p35
sg19
g20
sbasg16
I7
sg19
g20
sbsS'definition_list'
p36
(lp37
g1
(cmojom.parse.ast
Interface
p38
g3
NtRp39
(dp40
S'body'
p41
g1
(cmojom.parse.ast
InterfaceBody
p42
g3
NtRp43
(dp44
g10
(lp45
g1
(cmojom.parse.ast
Method
p46
g3
NtRp47
(dp48
S'ordinal'
p49
NsS'mojom_name'
p50
S'Initialize'
p51
sS'parameter_list'
p52
g1
(cmojom.parse.ast
ParameterList
p53
g3
NtRp54
(dp55
g10
(lp56
g1
(cmojom.parse.ast
Parameter
p57
g3
NtRp58
(dp59
g49
Nsg50
S'is_mse'
p60
sg15
Nsg19
g20
sS'typename'
p61
S'bool'
p62
sg16
I22
sbag1
(g57
g3
NtRp63
(dp64
g49
Nsg50
S'is_top_frame'
p65
sg15
Nsg19
g20
sg61
S'bool'
p66
sg16
I22
sbag1
(g57
g3
NtRp67
(dp68
g49
Nsg50
S'untrusted_top_origin'
p69
sg15
Nsg19
g20
sg61
S'url.mojom.Origin'
p70
sg16
I23
sbasg16
I22
sg19
g20
sbsg15
Nsg19
Nsg16
NsS'response_parameter_list'
p71
Nsbag1
(g46
g3
NtRp72
(dp73
g49
Nsg50
S'OnError'
p74
sg52
g1
(g53
g3
NtRp75
(dp76
g10
(lp77
g1
(g57
g3
NtRp78
(dp79
g49
Nsg50
S'status'
p80
sg15
Nsg19
g20
sg61
S'PipelineStatus'
p81
sg16
I27
sbasg16
I27
sg19
g20
sbsg15
Nsg19
Nsg16
Nsg71
Nsbag1
(g46
g3
NtRp82
(dp83
g49
Nsg50
S'SetIsEME'
p84
sg52
g1
(g53
g3
NtRp85
(dp86
g10
(lp87
sg16
Nsg19
Nsbsg15
Nsg19
Nsg16
Nsg71
Nsbag1
(g46
g3
NtRp88
(dp89
g49
Nsg50
S'SetTimeToMetadata'
p90
sg52
g1
(g53
g3
NtRp91
(dp92
g10
(lp93
g1
(g57
g3
NtRp94
(dp95
g49
Nsg50
S'elapsed'
p96
sg15
Nsg19
g20
sg61
S'mojo_base.mojom.TimeDelta'
p97
sg16
I31
sbasg16
I31
sg19
g20
sbsg15
Nsg19
Nsg16
Nsg71
Nsbag1
(g46
g3
NtRp98
(dp99
g49
Nsg50
S'SetTimeToFirstFrame'
p100
sg52
g1
(g53
g3
NtRp101
(dp102
g10
(lp103
g1
(g57
g3
NtRp104
(dp105
g49
Nsg50
S'elapsed'
p106
sg15
Nsg19
g20
sg61
S'mojo_base.mojom.TimeDelta'
p107
sg16
I32
sbasg16
I32
sg19
g20
sbsg15
Nsg19
Nsg16
Nsg71
Nsbag1
(g46
g3
NtRp108
(dp109
g49
Nsg50
S'SetTimeToPlayReady'
p110
sg52
g1
(g53
g3
NtRp111
(dp112
g10
(lp113
g1
(g57
g3
NtRp114
(dp115
g49
Nsg50
S'elapsed'
p116
sg15
Nsg19
g20
sg61
S'mojo_base.mojom.TimeDelta'
p117
sg16
I33
sbasg16
I33
sg19
g20
sbsg15
Nsg19
Nsg16
Nsg71
Nsbag1
(g46
g3
NtRp118
(dp119
g49
Nsg50
S'AcquireWatchTimeRecorder'
p120
sg52
g1
(g53
g3
NtRp121
(dp122
g10
(lp123
g1
(g57
g3
NtRp124
(dp125
g49
Nsg50
S'properties'
p126
sg15
Nsg19
g20
sg61
S'PlaybackProperties'
p127
sg16
I37
sbag1
(g57
g3
NtRp128
(dp129
g49
Nsg50
S'recorder'
p130
sg15
Nsg19
g20
sg61
S'WatchTimeRecorder&'
p131
sg16
I38
sbasg16
I37
sg19
g20
sbsg15
Nsg19
Nsg16
Nsg71
Nsbag1
(g46
g3
NtRp132
(dp133
g49
Nsg50
S'AcquireVideoDecodeStatsRecorder'
p134
sg52
g1
(g53
g3
NtRp135
(dp136
g10
(lp137
g1
(g57
g3
NtRp138
(dp139
g49
Nsg50
S'recorder'
p140
sg15
Nsg19
g20
sg61
S'VideoDecodeStatsRecorder&'
p141
sg16
I45
sbasg16
I45
sg19
g20
sbsg15
Nsg19
Nsg16
Nsg71
Nsbasg16
Nsg19
Nsbsg15
Nsg16
Nsg50
S'MediaMetricsProvider'
p142
sg19
Nsbasg16
NsS'module'
p143
g1
(cmojom.parse.ast
Module
p144
g3
NtRp145
(dp146
S'mojom_namespace'
p147
(S'IDENTIFIER'
p148
S'media.mojom'
tp149
sg16
I5
sg15
Nsg19
g20
sbsg19
Nsb.