ccopy_reg
_reconstructor
p1
(cmojom.parse.ast
Mojom
p2
c__builtin__
object
p3
NtRp4
(dp5
S'import_list'
p6
g1
(cmojom.parse.ast
ImportList
p7
g3
NtRp8
(dp9
S'items'
p10
(lp11
g1
(cmojom.parse.ast
Import
p12
g3
NtRp13
(dp14
S'attribute_list'
p15
NsS'lineno'
p16
I7
sS'import_filename'
p17
S'gpu/ipc/common/mailbox_holder.mojom'
p18
sS'filename'
p19
S'../../media/mojo/interfaces/media_types.mojom'
p20
sbag1
(g12
g3
NtRp21
(dp22
g15
Nsg16
I8
sg17
S'mojo/public/mojom/base/time.mojom'
p23
sg19
g20
sbag1
(g12
g3
NtRp24
(dp25
g15
Nsg16
I9
sg17
S'mojo/public/mojom/base/values.mojom'
p26
sg19
g20
sbag1
(g12
g3
NtRp27
(dp28
g15
Nsg16
I10
sg17
S'ui/gfx/geometry/mojo/geometry.mojom'
p29
sg19
g20
sbasg16
I7
sg19
g20
sbsS'definition_list'
p30
(lp31
g1
(cmojom.parse.ast
Enum
p32
g3
NtRp33
(dp34
g15
g1
(cmojom.parse.ast
AttributeList
p35
g3
NtRp36
(dp37
g10
(lp38
g1
(cmojom.parse.ast
Attribute
p39
g3
NtRp40
(dp41
S'value'
p42
I01
sg16
I13
sS'key'
p43
S'Native'
p44
sg19
g20
sbasg16
I13
sg19
g20
sbsS'enum_value_list'
p45
Nsg16
I14
sS'mojom_name'
p46
S'AudioCodec'
p47
sg19
g20
sbag1
(g32
g3
NtRp48
(dp49
g15
g1
(g35
g3
NtRp50
(dp51
g10
(lp52
g1
(g39
g3
NtRp53
(dp54
g42
I01
sg16
I17
sg43
S'Native'
p55
sg19
g20
sbasg16
I17
sg19
g20
sbsg45
Nsg16
I18
sg46
S'BufferingState'
p56
sg19
g20
sbag1
(g32
g3
NtRp57
(dp58
g15
g1
(g35
g3
NtRp59
(dp60
g10
(lp61
g1
(g39
g3
NtRp62
(dp63
g42
I01
sg16
I21
sg43
S'Native'
p64
sg19
g20
sbasg16
I21
sg19
g20
sbsg45
Nsg16
I22
sg46
S'ChannelLayout'
p65
sg19
g20
sbag1
(g32
g3
NtRp66
(dp67
g15
g1
(g35
g3
NtRp68
(dp69
g10
(lp70
g1
(g39
g3
NtRp71
(dp72
g42
I01
sg16
I25
sg43
S'Native'
p73
sg19
g20
sbasg16
I25
sg19
g20
sbsg45
Nsg16
I26
sg46
S'ColorSpace'
p74
sg19
g20
sbag1
(g32
g3
NtRp75
(dp76
g15
g1
(g35
g3
NtRp77
(dp78
g10
(lp79
g1
(g39
g3
NtRp80
(dp81
g42
I01
sg16
I29
sg43
S'Native'
p82
sg19
g20
sbasg16
I29
sg19
g20
sbsg45
Nsg16
I30
sg46
S'DecodeStatus'
p83
sg19
g20
sbag1
(cmojom.parse.ast
Struct
p84
g3
NtRp85
(dp86
S'body'
p87
Nsg15
g1
(g35
g3
NtRp88
(dp89
g10
(lp90
g1
(g39
g3
NtRp91
(dp92
g42
I01
sg16
I33
sg43
S'Native'
p93
sg19
g20
sbasg16
I33
sg19
g20
sbsg16
Nsg46
S'MediaLogEvent'
p94
sg19
Nsbag1
(g32
g3
NtRp95
(dp96
g15
g1
(g35
g3
NtRp97
(dp98
g10
(lp99
g1
(g39
g3
NtRp100
(dp101
g42
I01
sg16
I37
sg43
S'Native'
p102
sg19
g20
sbasg16
I37
sg19
g20
sbsg45
Nsg16
I38
sg46
S'OutputDeviceStatus'
p103
sg19
g20
sbag1
(g32
g3
NtRp104
(dp105
g15
g1
(g35
g3
NtRp106
(dp107
g10
(lp108
g1
(g39
g3
NtRp109
(dp110
g42
I01
sg16
I41
sg43
S'Native'
p111
sg19
g20
sbasg16
I41
sg19
g20
sbsg45
Nsg16
I42
sg46
S'PipelineStatus'
p112
sg19
g20
sbag1
(g32
g3
NtRp113
(dp114
g15
g1
(g35
g3
NtRp115
(dp116
g10
(lp117
g1
(g39
g3
NtRp118
(dp119
g42
I01
sg16
I45
sg43
S'Native'
p120
sg19
g20
sbasg16
I45
sg19
g20
sbsg45
Nsg16
I46
sg46
S'SampleFormat'
p121
sg19
g20
sbag1
(g32
g3
NtRp122
(dp123
g15
g1
(g35
g3
NtRp124
(dp125
g10
(lp126
g1
(g39
g3
NtRp127
(dp128
g42
I01
sg16
I49
sg43
S'Native'
p129
sg19
g20
sbasg16
I49
sg19
g20
sbsg45
Nsg16
I50
sg46
S'VideoCodec'
p130
sg19
g20
sbag1
(g32
g3
NtRp131
(dp132
g15
g1
(g35
g3
NtRp133
(dp134
g10
(lp135
g1
(g39
g3
NtRp136
(dp137
g42
I01
sg16
I53
sg43
S'Native'
p138
sg19
g20
sbasg16
I53
sg19
g20
sbsg45
Nsg16
I54
sg46
S'VideoCodecProfile'
p139
sg19
g20
sbag1
(g32
g3
NtRp140
(dp141
g15
g1
(g35
g3
NtRp142
(dp143
g10
(lp144
g1
(g39
g3
NtRp145
(dp146
g42
I01
sg16
I57
sg43
S'Native'
p147
sg19
g20
sbasg16
I57
sg19
g20
sbsg45
Nsg16
I58
sg46
S'VideoPixelFormat'
p148
sg19
g20
sbag1
(g32
g3
NtRp149
(dp150
g15
g1
(g35
g3
NtRp151
(dp152
g10
(lp153
g1
(g39
g3
NtRp154
(dp155
g42
I01
sg16
I61
sg43
S'Native'
p156
sg19
g20
sbasg16
I61
sg19
g20
sbsg45
Nsg16
I62
sg46
S'VideoRotation'
p157
sg19
g20
sbag1
(g32
g3
NtRp158
(dp159
g15
g1
(g35
g3
NtRp160
(dp161
g10
(lp162
g1
(g39
g3
NtRp163
(dp164
g42
I01
sg16
I65
sg43
S'Native'
p165
sg19
g20
sbasg16
I65
sg19
g20
sbsg45
Nsg16
I66
sg46
S'WatchTimeKey'
p166
sg19
g20
sbag1
(g32
g3
NtRp167
(dp168
g15
g1
(g35
g3
NtRp169
(dp170
g10
(lp171
g1
(g39
g3
NtRp172
(dp173
g42
I01
sg16
I69
sg43
S'Native'
p174
sg19
g20
sbasg16
I69
sg19
g20
sbsg45
Nsg16
I70
sg46
S'EncryptionMode'
p175
sg19
g20
sbag1
(g84
g3
NtRp176
(dp177
g87
g1
(cmojom.parse.ast
StructBody
p178
g3
NtRp179
(dp180
g10
(lp181
g1
(cmojom.parse.ast
StructField
p182
g3
NtRp183
(dp184
S'ordinal'
p185
NsS'default_value'
p186
Nsg46
S'crypt_byte_block'
p187
sg15
Nsg19
NsS'typename'
p188
S'uint32'
p189
sg16
Nsbag1
(g182
g3
NtRp190
(dp191
g185
Nsg186
Nsg46
S'skip_byte_block'
p192
sg15
Nsg19
Nsg188
S'uint32'
p193
sg16
Nsbasg16
Nsg19
Nsbsg15
Nsg16
Nsg46
S'EncryptionPattern'
p194
sg19
Nsbag1
(g84
g3
NtRp195
(dp196
g87
g1
(g178
g3
NtRp197
(dp198
g10
(lp199
g1
(g32
g3
NtRp200
(dp201
g15
g1
(g35
g3
NtRp202
(dp203
g10
(lp204
g1
(g39
g3
NtRp205
(dp206
g42
I01
sg16
I82
sg43
S'Native'
p207
sg19
g20
sbasg16
I82
sg19
g20
sbsg45
Nsg16
I83
sg46
S'CipherMode'
p208
sg19
g20
sbag1
(g182
g3
NtRp209
(dp210
g185
Nsg186
Nsg46
S'mode'
p211
sg15
Nsg19
Nsg188
S'CipherMode'
p212
sg16
Nsbag1
(g182
g3
NtRp213
(dp214
g185
Nsg186
Nsg46
S'pattern'
p215
sg15
Nsg19
Nsg188
S'EncryptionPattern'
p216
sg16
Nsbasg16
I83
sg19
g20
sbsg15
Nsg16
Nsg46
S'EncryptionScheme'
p217
sg19
Nsbag1
(g84
g3
NtRp218
(dp219
g87
g1
(g178
g3
NtRp220
(dp221
g10
(lp222
g1
(g32
g3
NtRp223
(dp224
g15
g1
(g35
g3
NtRp225
(dp226
g10
(lp227
g1
(g39
g3
NtRp228
(dp229
g42
I01
sg16
I92
sg43
S'Native'
p230
sg19
g20
sbasg16
I92
sg19
g20
sbsg45
Nsg16
I93
sg46
S'PrimaryID'
p231
sg19
g20
sbag1
(g32
g3
NtRp232
(dp233
g15
g1
(g35
g3
NtRp234
(dp235
g10
(lp236
g1
(g39
g3
NtRp237
(dp238
g42
I01
sg16
I95
sg43
S'Native'
p239
sg19
g20
sbasg16
I95
sg19
g20
sbsg45
Nsg16
I96
sg46
S'TransferID'
p240
sg19
g20
sbag1
(g32
g3
NtRp241
(dp242
g15
g1
(g35
g3
NtRp243
(dp244
g10
(lp245
g1
(g39
g3
NtRp246
(dp247
g42
I01
sg16
I98
sg43
S'Native'
p248
sg19
g20
sbasg16
I98
sg19
g20
sbsg45
Nsg16
I99
sg46
S'MatrixID'
p249
sg19
g20
sbag1
(g32
g3
NtRp250
(dp251
g15
g1
(g35
g3
NtRp252
(dp253
g10
(lp254
g1
(g39
g3
NtRp255
(dp256
g42
I01
sg16
I101
sg43
S'Native'
p257
sg19
g20
sbasg16
I101
sg19
g20
sbsg45
Nsg16
I102
sg46
S'RangeID'
p258
sg19
g20
sbag1
(g182
g3
NtRp259
(dp260
g185
Nsg186
Nsg46
S'primaries'
p261
sg15
Nsg19
Nsg188
S'PrimaryID'
p262
sg16
Nsbag1
(g182
g3
NtRp263
(dp264
g185
Nsg186
Nsg46
S'transfer'
p265
sg15
Nsg19
Nsg188
S'TransferID'
p266
sg16
Nsbag1
(g182
g3
NtRp267
(dp268
g185
Nsg186
Nsg46
S'matrix'
p269
sg15
Nsg19
Nsg188
S'MatrixID'
p270
sg16
Nsbag1
(g182
g3
NtRp271
(dp272
g185
Nsg186
Nsg46
S'range'
p273
sg15
Nsg19
Nsg188
S'RangeID'
p274
sg16
Nsbasg16
I93
sg19
g20
sbsg15
Nsg16
Nsg46
S'VideoColorSpace'
p275
sg19
Nsbag1
(g84
g3
NtRp276
(dp277
g87
g1
(g178
g3
NtRp278
(dp279
g10
(lp280
g1
(g182
g3
NtRp281
(dp282
g185
Nsg186
Nsg46
S'primary_r'
p283
sg15
Nsg19
Nsg188
S'gfx.mojom.PointF'
p284
sg16
Nsbag1
(g182
g3
NtRp285
(dp286
g185
Nsg186
Nsg46
S'primary_g'
p287
sg15
Nsg19
Nsg188
S'gfx.mojom.PointF'
p288
sg16
Nsbag1
(g182
g3
NtRp289
(dp290
g185
Nsg186
Nsg46
S'primary_b'
p291
sg15
Nsg19
Nsg188
S'gfx.mojom.PointF'
p292
sg16
Nsbag1
(g182
g3
NtRp293
(dp294
g185
Nsg186
Nsg46
S'white_point'
p295
sg15
Nsg19
Nsg188
S'gfx.mojom.PointF'
p296
sg16
Nsbag1
(g182
g3
NtRp297
(dp298
g185
Nsg186
Nsg46
S'luminance_max'
p299
sg15
Nsg19
Nsg188
S'float'
p300
sg16
Nsbag1
(g182
g3
NtRp301
(dp302
g185
Nsg186
Nsg46
S'luminance_min'
p303
sg15
Nsg19
Nsg188
S'float'
p304
sg16
Nsbasg16
Nsg19
Nsbsg15
Nsg16
Nsg46
S'MasteringMetadata'
p305
sg19
Nsbag1
(g84
g3
NtRp306
(dp307
g87
g1
(g178
g3
NtRp308
(dp309
g10
(lp310
g1
(g182
g3
NtRp311
(dp312
g185
Nsg186
Nsg46
S'mastering_metadata'
p313
sg15
Nsg19
Nsg188
S'MasteringMetadata'
p314
sg16
Nsbag1
(g182
g3
NtRp315
(dp316
g185
Nsg186
Nsg46
S'max_content_light_level'
p317
sg15
Nsg19
Nsg188
S'uint32'
p318
sg16
Nsbag1
(g182
g3
NtRp319
(dp320
g185
Nsg186
Nsg46
S'max_frame_average_light_level'
p321
sg15
Nsg19
Nsg188
S'uint32'
p322
sg16
Nsbasg16
Nsg19
Nsbsg15
Nsg16
Nsg46
S'HDRMetadata'
p323
sg19
Nsbag1
(g84
g3
NtRp324
(dp325
g87
g1
(g178
g3
NtRp326
(dp327
g10
(lp328
g1
(g182
g3
NtRp329
(dp330
g185
Nsg186
Nsg46
S'codec'
p331
sg15
Nsg19
Nsg188
S'AudioCodec'
p332
sg16
Nsbag1
(g182
g3
NtRp333
(dp334
g185
Nsg186
Nsg46
S'sample_format'
p335
sg15
Nsg19
Nsg188
S'SampleFormat'
p336
sg16
Nsbag1
(g182
g3
NtRp337
(dp338
g185
Nsg186
Nsg46
S'channel_layout'
p339
sg15
Nsg19
Nsg188
S'ChannelLayout'
p340
sg16
Nsbag1
(g182
g3
NtRp341
(dp342
g185
Nsg186
Nsg46
S'samples_per_second'
p343
sg15
Nsg19
Nsg188
S'int32'
p344
sg16
Nsbag1
(g182
g3
NtRp345
(dp346
g185
Nsg186
Nsg46
S'extra_data'
p347
sg15
Nsg19
Nsg188
S'uint8[]'
p348
sg16
Nsbag1
(g182
g3
NtRp349
(dp350
g185
Nsg186
Nsg46
S'seek_preroll'
p351
sg15
Nsg19
Nsg188
S'mojo_base.mojom.TimeDelta'
p352
sg16
Nsbag1
(g182
g3
NtRp353
(dp354
g185
Nsg186
Nsg46
S'codec_delay'
p355
sg15
Nsg19
Nsg188
S'int32'
p356
sg16
Nsbag1
(g182
g3
NtRp357
(dp358
g185
Nsg186
Nsg46
S'encryption_scheme'
p359
sg15
Nsg19
Nsg188
S'EncryptionScheme'
p360
sg16
Nsbasg16
Nsg19
Nsbsg15
Nsg16
Nsg46
S'AudioDecoderConfig'
p361
sg19
Nsbag1
(g84
g3
NtRp362
(dp363
g87
g1
(g178
g3
NtRp364
(dp365
g10
(lp366
g1
(g182
g3
NtRp367
(dp368
g185
Nsg186
Nsg46
S'codec'
p369
sg15
Nsg19
Nsg188
S'VideoCodec'
p370
sg16
Nsbag1
(g182
g3
NtRp371
(dp372
g185
Nsg186
Nsg46
S'profile'
p373
sg15
Nsg19
Nsg188
S'VideoCodecProfile'
p374
sg16
Nsbag1
(g182
g3
NtRp375
(dp376
g185
Nsg186
Nsg46
S'format'
p377
sg15
Nsg19
Nsg188
S'VideoPixelFormat'
p378
sg16
Nsbag1
(g182
g3
NtRp379
(dp380
g185
Nsg186
Nsg46
S'color_space'
p381
sg15
Nsg19
Nsg188
S'ColorSpace'
p382
sg16
Nsbag1
(g182
g3
NtRp383
(dp384
g185
Nsg186
Nsg46
S'video_rotation'
p385
sg15
Nsg19
Nsg188
S'VideoRotation'
p386
sg16
Nsbag1
(g182
g3
NtRp387
(dp388
g185
Nsg186
Nsg46
S'coded_size'
p389
sg15
Nsg19
Nsg188
S'gfx.mojom.Size'
p390
sg16
Nsbag1
(g182
g3
NtRp391
(dp392
g185
Nsg186
Nsg46
S'visible_rect'
p393
sg15
Nsg19
Nsg188
S'gfx.mojom.Rect'
p394
sg16
Nsbag1
(g182
g3
NtRp395
(dp396
g185
Nsg186
Nsg46
S'natural_size'
p397
sg15
Nsg19
Nsg188
S'gfx.mojom.Size'
p398
sg16
Nsbag1
(g182
g3
NtRp399
(dp400
g185
Nsg186
Nsg46
S'extra_data'
p401
sg15
Nsg19
Nsg188
S'uint8[]'
p402
sg16
Nsbag1
(g182
g3
NtRp403
(dp404
g185
Nsg186
Nsg46
S'encryption_scheme'
p405
sg15
Nsg19
Nsg188
S'EncryptionScheme'
p406
sg16
Nsbag1
(g182
g3
NtRp407
(dp408
g185
Nsg186
Nsg46
S'color_space_info'
p409
sg15
Nsg19
Nsg188
S'VideoColorSpace'
p410
sg16
Nsbag1
(g182
g3
NtRp411
(dp412
g185
Nsg186
Nsg46
S'hdr_metadata'
p413
sg15
Nsg19
Nsg188
S'HDRMetadata?'
p414
sg16
Nsbasg16
Nsg19
Nsbsg15
Nsg16
Nsg46
S'VideoDecoderConfig'
p415
sg19
Nsbag1
(g84
g3
NtRp416
(dp417
g87
Nsg15
g1
(g35
g3
NtRp418
(dp419
g10
(lp420
g1
(g39
g3
NtRp421
(dp422
g42
I01
sg16
I158
sg43
S'Native'
p423
sg19
g20
sbasg16
I158
sg19
g20
sbsg16
Nsg46
S'SubsampleEntry'
p424
sg19
Nsbag1
(g84
g3
NtRp425
(dp426
g87
g1
(g178
g3
NtRp427
(dp428
g10
(lp429
g1
(g182
g3
NtRp430
(dp431
g185
Nsg186
Nsg46
S'encryption_mode'
p432
sg15
Nsg19
Nsg188
S'EncryptionMode'
p433
sg16
Nsbag1
(g182
g3
NtRp434
(dp435
g185
Nsg186
Nsg46
S'key_id'
p436
sg15
Nsg19
Nsg188
S'string'
p437
sg16
Nsbag1
(g182
g3
NtRp438
(dp439
g185
Nsg186
Nsg46
S'iv'
p440
sg15
Nsg19
Nsg188
S'string'
p441
sg16
Nsbag1
(g182
g3
NtRp442
(dp443
g185
Nsg186
Nsg46
S'subsamples'
p444
sg15
Nsg19
Nsg188
S'SubsampleEntry[]'
p445
sg16
Nsbag1
(g182
g3
NtRp446
(dp447
g185
Nsg186
Nsg46
S'encryption_pattern'
p448
sg15
Nsg19
Nsg188
S'EncryptionPattern?'
p449
sg16
Nsbasg16
Nsg19
Nsbsg15
Nsg16
Nsg46
S'DecryptConfig'
p450
sg19
Nsbag1
(g84
g3
NtRp451
(dp452
g87
g1
(g178
g3
NtRp453
(dp454
g10
(lp455
g1
(g182
g3
NtRp456
(dp457
g185
Nsg186
Nsg46
S'timestamp'
p458
sg15
Nsg19
Nsg188
S'mojo_base.mojom.TimeDelta'
p459
sg16
Nsbag1
(g182
g3
NtRp460
(dp461
g185
Nsg186
Nsg46
S'duration'
p462
sg15
Nsg19
Nsg188
S'mojo_base.mojom.TimeDelta'
p463
sg16
Nsbag1
(g182
g3
NtRp464
(dp465
g185
Nsg186
Nsg46
S'is_end_of_stream'
p466
sg15
Nsg19
Nsg188
S'bool'
p467
sg16
Nsbag1
(g182
g3
NtRp468
(dp469
g185
Nsg186
Nsg46
S'data_size'
p470
sg15
Nsg19
Nsg188
S'uint32'
p471
sg16
Nsbag1
(g182
g3
NtRp472
(dp473
g185
Nsg186
Nsg46
S'is_key_frame'
p474
sg15
Nsg19
Nsg188
S'bool'
p475
sg16
Nsbag1
(g182
g3
NtRp476
(dp477
g185
Nsg186
Nsg46
S'side_data'
p478
sg15
Nsg19
Nsg188
S'uint8[]'
p479
sg16
Nsbag1
(g182
g3
NtRp480
(dp481
g185
Nsg186
Nsg46
S'decrypt_config'
p482
sg15
Nsg19
Nsg188
S'DecryptConfig?'
p483
sg16
Nsbag1
(g182
g3
NtRp484
(dp485
g185
Nsg186
Nsg46
S'front_discard'
p486
sg15
Nsg19
Nsg188
S'mojo_base.mojom.TimeDelta'
p487
sg16
Nsbag1
(g182
g3
NtRp488
(dp489
g185
Nsg186
Nsg46
S'back_discard'
p490
sg15
Nsg19
Nsg188
S'mojo_base.mojom.TimeDelta'
p491
sg16
Nsbasg16
Nsg19
Nsbsg15
Nsg16
Nsg46
S'DecoderBuffer'
p492
sg19
Nsbag1
(g84
g3
NtRp493
(dp494
g87
g1
(g178
g3
NtRp495
(dp496
g10
(lp497
g1
(g182
g3
NtRp498
(dp499
g185
Nsg186
Nsg46
S'sample_format'
p500
sg15
Nsg19
Nsg188
S'SampleFormat'
p501
sg16
Nsbag1
(g182
g3
NtRp502
(dp503
g185
Nsg186
Nsg46
S'channel_layout'
p504
sg15
Nsg19
Nsg188
S'ChannelLayout'
p505
sg16
Nsbag1
(g182
g3
NtRp506
(dp507
g185
Nsg186
Nsg46
S'channel_count'
p508
sg15
Nsg19
Nsg188
S'int32'
p509
sg16
Nsbag1
(g182
g3
NtRp510
(dp511
g185
Nsg186
Nsg46
S'sample_rate'
p512
sg15
Nsg19
Nsg188
S'int32'
p513
sg16
Nsbag1
(g182
g3
NtRp514
(dp515
g185
Nsg186
Nsg46
S'frame_count'
p516
sg15
Nsg19
Nsg188
S'int32'
p517
sg16
Nsbag1
(g182
g3
NtRp518
(dp519
g185
Nsg186
Nsg46
S'end_of_stream'
p520
sg15
Nsg19
Nsg188
S'bool'
p521
sg16
Nsbag1
(g182
g3
NtRp522
(dp523
g185
Nsg186
Nsg46
S'timestamp'
p524
sg15
Nsg19
Nsg188
S'mojo_base.mojom.TimeDelta'
p525
sg16
Nsbag1
(g182
g3
NtRp526
(dp527
g185
Nsg186
Nsg46
S'data'
p528
sg15
Nsg19
Nsg188
S'uint8[]'
p529
sg16
Nsbasg16
Nsg19
Nsbsg15
Nsg16
Nsg46
S'AudioBuffer'
p530
sg19
Nsbag1
(g84
g3
NtRp531
(dp532
g87
g1
(g178
g3
NtRp533
(dp534
g10
(lp535
g1
(g182
g3
NtRp536
(dp537
g185
Nsg186
Nsg46
S'format'
p538
sg15
Nsg19
Nsg188
S'VideoPixelFormat'
p539
sg16
Nsbag1
(g182
g3
NtRp540
(dp541
g185
Nsg186
Nsg46
S'coded_size'
p542
sg15
Nsg19
Nsg188
S'gfx.mojom.Size'
p543
sg16
Nsbag1
(g182
g3
NtRp544
(dp545
g185
Nsg186
Nsg46
S'visible_rect'
p546
sg15
Nsg19
Nsg188
S'gfx.mojom.Rect'
p547
sg16
Nsbag1
(g182
g3
NtRp548
(dp549
g185
Nsg186
Nsg46
S'natural_size'
p550
sg15
Nsg19
Nsg188
S'gfx.mojom.Size'
p551
sg16
Nsbag1
(g182
g3
NtRp552
(dp553
g185
Nsg186
Nsg46
S'timestamp'
p554
sg15
Nsg19
Nsg188
S'mojo_base.mojom.TimeDelta'
p555
sg16
Nsbag1
(g182
g3
NtRp556
(dp557
g185
Nsg186
Nsg46
S'data'
p558
sg15
Nsg19
Nsg188
S'VideoFrameData'
p559
sg16
Nsbag1
(g182
g3
NtRp560
(dp561
g185
Nsg186
Nsg46
S'metadata'
p562
sg15
Nsg19
Nsg188
S'mojo_base.mojom.DictionaryValue'
p563
sg16
Nsbasg16
Nsg19
Nsbsg15
Nsg16
Nsg46
S'VideoFrame'
p564
sg19
Nsbag1
(cmojom.parse.ast
Union
p565
g3
NtRp566
(dp567
g87
g1
(cmojom.parse.ast
UnionBody
p568
g3
NtRp569
(dp570
g10
(lp571
g1
(cmojom.parse.ast
UnionField
p572
g3
NtRp573
(dp574
g185
Nsg46
S'eos_data'
p575
sg15
Nsg19
Nsg188
S'EosVideoFrameData'
p576
sg16
Nsbag1
(g572
g3
NtRp577
(dp578
g185
Nsg46
S'shared_buffer_data'
p579
sg15
Nsg19
Nsg188
S'SharedBufferVideoFrameData'
p580
sg16
Nsbag1
(g572
g3
NtRp581
(dp582
g185
Nsg46
S'mailbox_data'
p583
sg15
Nsg19
Nsg188
S'MailboxVideoFrameData'
p584
sg16
Nsbasg16
Nsg19
Nsbsg15
Nsg16
Nsg46
S'VideoFrameData'
p585
sg19
Nsbag1
(g84
g3
NtRp586
(dp587
g87
g1
(g178
g3
NtRp588
(dp589
g10
(lp590
sg16
Nsg19
Nsbsg15
Nsg16
Nsg46
S'EosVideoFrameData'
p591
sg19
Nsbag1
(g84
g3
NtRp592
(dp593
g87
g1
(g178
g3
NtRp594
(dp595
g10
(lp596
g1
(g182
g3
NtRp597
(dp598
g185
Nsg186
Nsg46
S'frame_data'
p599
sg15
Nsg19
Nsg188
S'handle<shared_buffer>'
p600
sg16
Nsbag1
(g182
g3
NtRp601
(dp602
g185
Nsg186
Nsg46
S'frame_data_size'
p603
sg15
Nsg19
Nsg188
S'uint64'
p604
sg16
Nsbag1
(g182
g3
NtRp605
(dp606
g185
Nsg186
Nsg46
S'y_stride'
p607
sg15
Nsg19
Nsg188
S'int32'
p608
sg16
Nsbag1
(g182
g3
NtRp609
(dp610
g185
Nsg186
Nsg46
S'u_stride'
p611
sg15
Nsg19
Nsg188
S'int32'
p612
sg16
Nsbag1
(g182
g3
NtRp613
(dp614
g185
Nsg186
Nsg46
S'v_stride'
p615
sg15
Nsg19
Nsg188
S'int32'
p616
sg16
Nsbag1
(g182
g3
NtRp617
(dp618
g185
Nsg186
Nsg46
S'y_offset'
p619
sg15
Nsg19
Nsg188
S'uint64'
p620
sg16
Nsbag1
(g182
g3
NtRp621
(dp622
g185
Nsg186
Nsg46
S'u_offset'
p623
sg15
Nsg19
Nsg188
S'uint64'
p624
sg16
Nsbag1
(g182
g3
NtRp625
(dp626
g185
Nsg186
Nsg46
S'v_offset'
p627
sg15
Nsg19
Nsg188
S'uint64'
p628
sg16
Nsbasg16
Nsg19
Nsbsg15
Nsg16
Nsg46
S'SharedBufferVideoFrameData'
p629
sg19
Nsbag1
(g84
g3
NtRp630
(dp631
g87
g1
(g178
g3
NtRp632
(dp633
g10
(lp634
g1
(g182
g3
NtRp635
(dp636
g185
Nsg186
Nsg46
S'mailbox_holder'
p637
sg15
Nsg19
Nsg188
S'gpu.mojom.MailboxHolder[4]'
p638
sg16
Nsbasg16
Nsg19
Nsbsg15
Nsg16
Nsg46
S'MailboxVideoFrameData'
p639
sg19
Nsbag1
(g84
g3
NtRp640
(dp641
g87
g1
(g178
g3
NtRp642
(dp643
g10
(lp644
g1
(g182
g3
NtRp645
(dp646
g185
Nsg186
Nsg46
S'audio_bytes_decoded'
p647
sg15
Nsg19
Nsg188
S'uint64'
p648
sg16
Nsbag1
(g182
g3
NtRp649
(dp650
g185
Nsg186
Nsg46
S'video_bytes_decoded'
p651
sg15
Nsg19
Nsg188
S'uint64'
p652
sg16
Nsbag1
(g182
g3
NtRp653
(dp654
g185
Nsg186
Nsg46
S'video_frames_decoded'
p655
sg15
Nsg19
Nsg188
S'uint32'
p656
sg16
Nsbag1
(g182
g3
NtRp657
(dp658
g185
Nsg186
Nsg46
S'video_frames_dropped'
p659
sg15
Nsg19
Nsg188
S'uint32'
p660
sg16
Nsbag1
(g182
g3
NtRp661
(dp662
g185
Nsg186
Nsg46
S'audio_memory_usage'
p663
sg15
Nsg19
Nsg188
S'int64'
p664
sg16
Nsbag1
(g182
g3
NtRp665
(dp666
g185
Nsg186
Nsg46
S'video_memory_usage'
p667
sg15
Nsg19
Nsg188
S'int64'
p668
sg16
Nsbasg16
Nsg19
Nsbsg15
Nsg16
Nsg46
S'PipelineStatistics'
p669
sg19
Nsbag1
(g84
g3
NtRp670
(dp671
g87
g1
(g178
g3
NtRp672
(dp673
g10
(lp674
g1
(g182
g3
NtRp675
(dp676
g185
Nsg186
Nsg46
S'profile'
p677
sg15
Nsg19
Nsg188
S'VideoCodecProfile'
p678
sg16
Nsbag1
(g182
g3
NtRp679
(dp680
g185
Nsg186
Nsg46
S'video_size'
p681
sg15
Nsg19
Nsg188
S'gfx.mojom.Size'
p682
sg16
Nsbag1
(g182
g3
NtRp683
(dp684
g185
Nsg186
S'0'
sg46
S'frames_per_sec'
p685
sg15
Nsg19
Nsg188
S'int32'
p686
sg16
Nsbasg16
Nsg19
Nsbsg15
Nsg16
Nsg46
S'PredictionFeatures'
p687
sg19
Nsbag1
(g84
g3
NtRp688
(dp689
g87
g1
(g178
g3
NtRp690
(dp691
g10
(lp692
g1
(g182
g3
NtRp693
(dp694
g185
Nsg186
S'0'
sg46
S'frames_decoded'
p695
sg15
Nsg19
Nsg188
S'uint32'
p696
sg16
Nsbag1
(g182
g3
NtRp697
(dp698
g185
Nsg186
S'0'
sg46
S'frames_dropped'
p699
sg15
Nsg19
Nsg188
S'uint32'
p700
sg16
Nsbag1
(g182
g3
NtRp701
(dp702
g185
Nsg186
S'0'
sg46
S'frames_decoded_power_efficient'
p703
sg15
Nsg19
Nsg188
S'uint32'
p704
sg16
Nsbasg16
Nsg19
Nsbsg15
Nsg16
Nsg46
S'PredictionTargets'
p705
sg19
Nsbasg16
NsS'module'
p706
g1
(cmojom.parse.ast
Module
p707
g3
NtRp708
(dp709
S'mojom_namespace'
p710
(S'IDENTIFIER'
p711
S'media.mojom'
tp712
sg16
I5
sg15
Nsg19
g20
sbsg19
Nsb.