ccopy_reg
_reconstructor
p1
(cmojom.parse.ast
Mojom
p2
c__builtin__
object
p3
NtRp4
(dp5
S'import_list'
p6
g1
(cmojom.parse.ast
ImportList
p7
g3
NtRp8
(dp9
S'items'
p10
(lp11
g1
(cmojom.parse.ast
Import
p12
g3
NtRp13
(dp14
S'attribute_list'
p15
NsS'lineno'
p16
I7
sS'import_filename'
p17
S'media/mojo/interfaces/remoting_common.mojom'
p18
sS'filename'
p19
S'../../media/mojo/interfaces/mirror_service_remoting.mojom'
p20
sbasg16
I7
sg19
g20
sbsS'definition_list'
p21
(lp22
g1
(cmojom.parse.ast
Interface
p23
g3
NtRp24
(dp25
S'body'
p26
g1
(cmojom.parse.ast
InterfaceBody
p27
g3
NtRp28
(dp29
g10
(lp30
g1
(cmojom.parse.ast
Method
p31
g3
NtRp32
(dp33
S'ordinal'
p34
NsS'mojom_name'
p35
S'Start'
p36
sS'parameter_list'
p37
g1
(cmojom.parse.ast
ParameterList
p38
g3
NtRp39
(dp40
g10
(lp41
sg16
Nsg19
Nsbsg15
Nsg19
Nsg16
NsS'response_parameter_list'
p42
Nsbag1
(g31
g3
NtRp43
(dp44
g34
Nsg35
S'StartDataStreams'
p45
sg37
g1
(g38
g3
NtRp46
(dp47
g10
(lp48
g1
(cmojom.parse.ast
Parameter
p49
g3
NtRp50
(dp51
g34
Nsg35
S'has_audio'
p52
sg15
Nsg19
g20
sS'typename'
p53
S'bool'
p54
sg16
I22
sbag1
(g49
g3
NtRp55
(dp56
g34
Nsg35
S'has_video'
p57
sg15
Nsg19
g20
sg53
S'bool'
p58
sg16
I22
sbasg16
I22
sg19
g20
sbsg15
Nsg19
Nsg16
Nsg42
g1
(g38
g3
NtRp59
(dp60
g10
(lp61
g1
(g49
g3
NtRp62
(dp63
g34
Nsg35
S'audio_stream_id'
p64
sg15
Nsg19
g20
sg53
S'int32'
p65
sg16
I23
sbag1
(g49
g3
NtRp66
(dp67
g34
Nsg35
S'video_stream_id'
p68
sg15
Nsg19
g20
sg53
S'int32'
p69
sg16
I23
sbasg16
I23
sg19
g20
sbsbag1
(g31
g3
NtRp70
(dp71
g34
Nsg35
S'Stop'
p72
sg37
g1
(g38
g3
NtRp73
(dp74
g10
(lp75
g1
(g49
g3
NtRp76
(dp77
g34
Nsg35
S'reason'
p78
sg15
Nsg19
g20
sg53
S'RemotingStopReason'
p79
sg16
I27
sbasg16
I27
sg19
g20
sbsg15
Nsg19
Nsg16
Nsg42
Nsbag1
(g31
g3
NtRp80
(dp81
g34
Nsg35
S'SendMessageToSink'
p82
sg37
g1
(g38
g3
NtRp83
(dp84
g10
(lp85
g1
(g49
g3
NtRp86
(dp87
g34
Nsg35
S'message'
p88
sg15
Nsg19
g20
sg53
S'uint8[]'
p89
sg16
I31
sbasg16
I31
sg19
g20
sbsg15
Nsg19
Nsg16
Nsg42
Nsbag1
(g31
g3
NtRp90
(dp91
g34
Nsg35
S'EstimateTransmissionCapacity'
p92
sg37
g1
(g38
g3
NtRp93
(dp94
g10
(lp95
sg16
Nsg19
Nsbsg15
Nsg19
Nsg16
Nsg42
g1
(g38
g3
NtRp96
(dp97
g10
(lp98
g1
(g49
g3
NtRp99
(dp100
g34
Nsg35
S'rate'
p101
sg15
Nsg19
g20
sg53
S'double'
p102
sg16
I35
sbasg16
I35
sg19
g20
sbsbasg16
Nsg19
Nsbsg15
Nsg16
Nsg35
S'MirrorServiceRemoter'
p103
sg19
Nsbag1
(g23
g3
NtRp104
(dp105
g26
g1
(g27
g3
NtRp106
(dp107
g10
(lp108
g1
(g31
g3
NtRp109
(dp110
g34
Nsg35
S'OnSinkAvailable'
p111
sg37
g1
(g38
g3
NtRp112
(dp113
g10
(lp114
g1
(g49
g3
NtRp115
(dp116
g34
Nsg35
S'metadata'
p117
sg15
Nsg19
g20
sg53
S'RemotingSinkMetadata'
p118
sg16
I44
sbasg16
I44
sg19
g20
sbsg15
Nsg19
Nsg16
Nsg42
Nsbag1
(g31
g3
NtRp119
(dp120
g34
Nsg35
S'OnMessageFromSink'
p121
sg37
g1
(g38
g3
NtRp122
(dp123
g10
(lp124
g1
(g49
g3
NtRp125
(dp126
g34
Nsg35
S'message'
p127
sg15
Nsg19
g20
sg53
S'uint8[]'
p128
sg16
I49
sbasg16
I49
sg19
g20
sbsg15
Nsg19
Nsg16
Nsg42
Nsbag1
(g31
g3
NtRp129
(dp130
g34
Nsg35
S'OnStopped'
p131
sg37
g1
(g38
g3
NtRp132
(dp133
g10
(lp134
g1
(g49
g3
NtRp135
(dp136
g34
Nsg35
S'reason'
p137
sg15
Nsg19
g20
sg53
S'RemotingStopReason'
p138
sg16
I54
sbasg16
I54
sg19
g20
sbsg15
Nsg19
Nsg16
Nsg42
Nsbag1
(g31
g3
NtRp139
(dp140
g34
Nsg35
S'OnError'
p141
sg37
g1
(g38
g3
NtRp142
(dp143
g10
(lp144
sg16
Nsg19
Nsbsg15
Nsg19
Nsg16
Nsg42
Nsbasg16
Nsg19
Nsbsg15
Nsg16
Nsg35
S'MirrorServiceRemotingSource'
p145
sg19
Nsbasg16
NsS'module'
p146
g1
(cmojom.parse.ast
Module
p147
g3
NtRp148
(dp149
S'mojom_namespace'
p150
(S'IDENTIFIER'
p151
S'media.mojom'
tp152
sg16
I5
sg15
Nsg19
g20
sbsg19
Nsb.