ccopy_reg
_reconstructor
p1
(cmojom.parse.ast
Mojom
p2
c__builtin__
object
p3
NtRp4
(dp5
S'import_list'
p6
g1
(cmojom.parse.ast
ImportList
p7
g3
NtRp8
(dp9
S'items'
p10
(lp11
g1
(cmojom.parse.ast
Import
p12
g3
NtRp13
(dp14
S'attribute_list'
p15
NsS'lineno'
p16
I7
sS'import_filename'
p17
S'media/mojo/interfaces/demuxer_stream.mojom'
p18
sS'filename'
p19
S'../../media/mojo/interfaces/renderer.mojom'
p20
sbag1
(g12
g3
NtRp21
(dp22
g15
Nsg16
I8
sg17
S'media/mojo/interfaces/media_types.mojom'
p23
sg19
g20
sbag1
(g12
g3
NtRp24
(dp25
g15
Nsg16
I9
sg17
S'mojo/public/mojom/base/time.mojom'
p26
sg19
g20
sbag1
(g12
g3
NtRp27
(dp28
g15
Nsg16
I10
sg17
S'mojo/public/mojom/base/unguessable_token.mojom'
p29
sg19
g20
sbag1
(g12
g3
NtRp30
(dp31
g15
Nsg16
I11
sg17
S'ui/gfx/geometry/mojo/geometry.mojom'
p32
sg19
g20
sbag1
(g12
g3
NtRp33
(dp34
g15
Nsg16
I12
sg17
S'url/mojom/url.mojom'
p35
sg19
g20
sbasg16
I7
sg19
g20
sbsS'definition_list'
p36
(lp37
g1
(cmojom.parse.ast
Interface
p38
g3
NtRp39
(dp40
S'body'
p41
g1
(cmojom.parse.ast
InterfaceBody
p42
g3
NtRp43
(dp44
g10
(lp45
g1
(cmojom.parse.ast
Method
p46
g3
NtRp47
(dp48
S'ordinal'
p49
NsS'mojom_name'
p50
S'Initialize'
p51
sS'parameter_list'
p52
g1
(cmojom.parse.ast
ParameterList
p53
g3
NtRp54
(dp55
g10
(lp56
g1
(cmojom.parse.ast
Parameter
p57
g3
NtRp58
(dp59
g49
Nsg50
S'client'
p60
sg15
Nsg19
g20
sS'typename'
p61
S'asso<RendererClient>'
p62
sg16
I18
sbag1
(g57
g3
NtRp63
(dp64
g49
Nsg50
S'streams'
p65
sg15
Nsg19
g20
sg61
S'DemuxerStream[]?'
p66
sg16
I19
sbag1
(g57
g3
NtRp67
(dp68
g49
Nsg50
S'media_url'
p69
sg15
Nsg19
g20
sg61
S'url.mojom.Url?'
p70
sg16
I20
sbag1
(g57
g3
NtRp71
(dp72
g49
Nsg50
S'first_party_for_cookies'
p73
sg15
Nsg19
g20
sg61
S'url.mojom.Url?'
p74
sg16
I21
sbasg16
I18
sg19
g20
sbsg15
Nsg19
Nsg16
NsS'response_parameter_list'
p75
g1
(g53
g3
NtRp76
(dp77
g10
(lp78
g1
(g57
g3
NtRp79
(dp80
g49
Nsg50
S'success'
p81
sg15
Nsg19
g20
sg61
S'bool'
p82
sg16
I21
sbasg16
I21
sg19
g20
sbsbag1
(g46
g3
NtRp83
(dp84
g49
Nsg50
S'Flush'
p85
sg52
g1
(g53
g3
NtRp86
(dp87
g10
(lp88
sg16
Nsg19
Nsbsg15
Nsg19
Nsg16
Nsg75
g1
(g53
g3
NtRp89
(dp90
g10
(lp91
sg16
Nsg19
Nsbsbag1
(g46
g3
NtRp92
(dp93
g49
Nsg50
S'StartPlayingFrom'
p94
sg52
g1
(g53
g3
NtRp95
(dp96
g10
(lp97
g1
(g57
g3
NtRp98
(dp99
g49
Nsg50
S'time'
p100
sg15
Nsg19
g20
sg61
S'mojo_base.mojom.TimeDelta'
p101
sg16
I29
sbasg16
I29
sg19
g20
sbsg15
Nsg19
Nsg16
Nsg75
Nsbag1
(g46
g3
NtRp102
(dp103
g49
Nsg50
S'SetPlaybackRate'
p104
sg52
g1
(g53
g3
NtRp105
(dp106
g10
(lp107
g1
(g57
g3
NtRp108
(dp109
g49
Nsg50
S'playback_rate'
p110
sg15
Nsg19
g20
sg61
S'double'
p111
sg16
I32
sbasg16
I32
sg19
g20
sbsg15
Nsg19
Nsg16
Nsg75
Nsbag1
(g46
g3
NtRp112
(dp113
g49
Nsg50
S'SetVolume'
p114
sg52
g1
(g53
g3
NtRp115
(dp116
g10
(lp117
g1
(g57
g3
NtRp118
(dp119
g49
Nsg50
S'volume'
p120
sg15
Nsg19
g20
sg61
S'float'
p121
sg16
I35
sbasg16
I35
sg19
g20
sbsg15
Nsg19
Nsg16
Nsg75
Nsbag1
(g46
g3
NtRp122
(dp123
g49
Nsg50
S'SetCdm'
p124
sg52
g1
(g53
g3
NtRp125
(dp126
g10
(lp127
g1
(g57
g3
NtRp128
(dp129
g49
Nsg50
S'cdm_id'
p130
sg15
Nsg19
g20
sg61
S'int32'
p131
sg16
I39
sbasg16
I39
sg19
g20
sbsg15
Nsg19
Nsg16
Nsg75
g1
(g53
g3
NtRp132
(dp133
g10
(lp134
g1
(g57
g3
NtRp135
(dp136
g49
Nsg50
S'success'
p137
sg15
Nsg19
g20
sg61
S'bool'
p138
sg16
I39
sbasg16
I39
sg19
g20
sbsbag1
(g46
g3
NtRp139
(dp140
g49
Nsg50
S'InitiateScopedSurfaceRequest'
p141
sg52
g1
(g53
g3
NtRp142
(dp143
g10
(lp144
sg16
Nsg19
Nsbsg15
Nsg19
Nsg16
Nsg75
g1
(g53
g3
NtRp145
(dp146
g10
(lp147
g1
(g57
g3
NtRp148
(dp149
g49
Nsg50
S'request_token'
p150
sg15
Nsg19
g20
sg61
S'mojo_base.mojom.UnguessableToken'
p151
sg16
I49
sbasg16
I49
sg19
g20
sbsbasg16
Nsg19
Nsbsg15
Nsg16
Nsg50
S'Renderer'
p152
sg19
Nsbag1
(g38
g3
NtRp153
(dp154
g41
g1
(g42
g3
NtRp155
(dp156
g10
(lp157
g1
(g46
g3
NtRp158
(dp159
g49
Nsg50
S'OnTimeUpdate'
p160
sg52
g1
(g53
g3
NtRp161
(dp162
g10
(lp163
g1
(g57
g3
NtRp164
(dp165
g49
Nsg50
S'time'
p166
sg15
Nsg19
g20
sg61
S'mojo_base.mojom.TimeDelta'
p167
sg16
I60
sbag1
(g57
g3
NtRp168
(dp169
g49
Nsg50
S'max_time'
p170
sg15
Nsg19
g20
sg61
S'mojo_base.mojom.TimeDelta'
p171
sg16
I61
sbag1
(g57
g3
NtRp172
(dp173
g49
Nsg50
S'capture_time'
p174
sg15
Nsg19
g20
sg61
S'mojo_base.mojom.TimeTicks'
p175
sg16
I62
sbasg16
I60
sg19
g20
sbsg15
Nsg19
Nsg16
Nsg75
Nsbag1
(g46
g3
NtRp176
(dp177
g49
Nsg50
S'OnBufferingStateChange'
p178
sg52
g1
(g53
g3
NtRp179
(dp180
g10
(lp181
g1
(g57
g3
NtRp182
(dp183
g49
Nsg50
S'state'
p184
sg15
Nsg19
g20
sg61
S'BufferingState'
p185
sg16
I65
sbasg16
I65
sg19
g20
sbsg15
Nsg19
Nsg16
Nsg75
Nsbag1
(g46
g3
NtRp186
(dp187
g49
Nsg50
S'OnEnded'
p188
sg52
g1
(g53
g3
NtRp189
(dp190
g10
(lp191
sg16
Nsg19
Nsbsg15
Nsg19
Nsg16
Nsg75
Nsbag1
(g46
g3
NtRp192
(dp193
g49
Nsg50
S'OnError'
p194
sg52
g1
(g53
g3
NtRp195
(dp196
g10
(lp197
sg16
Nsg19
Nsbsg15
Nsg19
Nsg16
Nsg75
Nsbag1
(g46
g3
NtRp198
(dp199
g49
Nsg50
S'OnAudioConfigChange'
p200
sg52
g1
(g53
g3
NtRp201
(dp202
g10
(lp203
g1
(g57
g3
NtRp204
(dp205
g49
Nsg50
S'config'
p206
sg15
Nsg19
g20
sg61
S'AudioDecoderConfig'
p207
sg16
I77
sbasg16
I77
sg19
g20
sbsg15
Nsg19
Nsg16
Nsg75
Nsbag1
(g46
g3
NtRp208
(dp209
g49
Nsg50
S'OnVideoConfigChange'
p210
sg52
g1
(g53
g3
NtRp211
(dp212
g10
(lp213
g1
(g57
g3
NtRp214
(dp215
g49
Nsg50
S'config'
p216
sg15
Nsg19
g20
sg61
S'VideoDecoderConfig'
p217
sg16
I78
sbasg16
I78
sg19
g20
sbsg15
Nsg19
Nsg16
Nsg75
Nsbag1
(g46
g3
NtRp218
(dp219
g49
Nsg50
S'OnVideoNaturalSizeChange'
p220
sg52
g1
(g53
g3
NtRp221
(dp222
g10
(lp223
g1
(g57
g3
NtRp224
(dp225
g49
Nsg50
S'size'
p226
sg15
Nsg19
g20
sg61
S'gfx.mojom.Size'
p227
sg16
I81
sbasg16
I81
sg19
g20
sbsg15
Nsg19
Nsg16
Nsg75
Nsbag1
(g46
g3
NtRp228
(dp229
g49
Nsg50
S'OnVideoOpacityChange'
p230
sg52
g1
(g53
g3
NtRp231
(dp232
g10
(lp233
g1
(g57
g3
NtRp234
(dp235
g49
Nsg50
S'opaque'
p236
sg15
Nsg19
g20
sg61
S'bool'
p237
sg16
I84
sbasg16
I84
sg19
g20
sbsg15
Nsg19
Nsg16
Nsg75
Nsbag1
(g46
g3
NtRp238
(dp239
g49
Nsg50
S'OnStatisticsUpdate'
p240
sg52
g1
(g53
g3
NtRp241
(dp242
g10
(lp243
g1
(g57
g3
NtRp244
(dp245
g49
Nsg50
S'stats'
p246
sg15
Nsg19
g20
sg61
S'PipelineStatistics'
p247
sg16
I88
sbasg16
I88
sg19
g20
sbsg15
Nsg19
Nsg16
Nsg75
Nsbag1
(g46
g3
NtRp248
(dp249
g49
Nsg50
S'OnWaitingForDecryptionKey'
p250
sg52
g1
(g53
g3
NtRp251
(dp252
g10
(lp253
sg16
Nsg19
Nsbsg15
Nsg19
Nsg16
Nsg75
Nsbag1
(g46
g3
NtRp254
(dp255
g49
Nsg50
S'OnDurationChange'
p256
sg52
g1
(g53
g3
NtRp257
(dp258
g10
(lp259
g1
(g57
g3
NtRp260
(dp261
g49
Nsg50
S'duration'
p262
sg15
Nsg19
g20
sg61
S'mojo_base.mojom.TimeDelta'
p263
sg16
I96
sbasg16
I96
sg19
g20
sbsg15
Nsg19
Nsg16
Nsg75
Nsbasg16
Nsg19
Nsbsg15
Nsg16
Nsg50
S'RendererClient'
p264
sg19
Nsbasg16
NsS'module'
p265
g1
(cmojom.parse.ast
Module
p266
g3
NtRp267
(dp268
S'mojom_namespace'
p269
(S'IDENTIFIER'
p270
S'media.mojom'
tp271
sg16
I5
sg15
Nsg19
g20
sbsg19
Nsb.