ccopy_reg
_reconstructor
p1
(cmojom.parse.ast
Mojom
p2
c__builtin__
object
p3
NtRp4
(dp5
S'import_list'
p6
g1
(cmojom.parse.ast
ImportList
p7
g3
NtRp8
(dp9
S'items'
p10
(lp11
g1
(cmojom.parse.ast
Import
p12
g3
NtRp13
(dp14
S'attribute_list'
p15
NsS'lineno'
p16
I7
sS'import_filename'
p17
S'gpu/ipc/common/sync_token.mojom'
p18
sS'filename'
p19
S'../../media/mojo/interfaces/video_decoder.mojom'
p20
sbag1
(g12
g3
NtRp21
(dp22
g15
Nsg16
I8
sg17
S'media/mojo/interfaces/media_log.mojom'
p23
sg19
g20
sbag1
(g12
g3
NtRp24
(dp25
g15
Nsg16
I9
sg17
S'media/mojo/interfaces/media_types.mojom'
p26
sg19
g20
sbag1
(g12
g3
NtRp27
(dp28
g15
Nsg16
I10
sg17
S'mojo/public/mojom/base/unguessable_token.mojom'
p29
sg19
g20
sbag1
(g12
g3
NtRp30
(dp31
g15
Nsg16
I11
sg17
S'ui/gfx/mojo/color_space.mojom'
p32
sg19
g20
sbasg16
I7
sg19
g20
sbsS'definition_list'
p33
(lp34
g1
(cmojom.parse.ast
Struct
p35
g3
NtRp36
(dp37
S'body'
p38
g1
(cmojom.parse.ast
StructBody
p39
g3
NtRp40
(dp41
g10
(lp42
g1
(cmojom.parse.ast
StructField
p43
g3
NtRp44
(dp45
S'ordinal'
p46
NsS'default_value'
p47
NsS'mojom_name'
p48
S'channel_token'
p49
sg15
Nsg19
NsS'typename'
p50
S'mojo_base.mojom.UnguessableToken'
p51
sg16
Nsbag1
(g43
g3
NtRp52
(dp53
g46
Nsg47
Nsg48
S'route_id'
p54
sg15
Nsg19
Nsg50
S'int32'
p55
sg16
Nsbasg16
Nsg19
Nsbsg15
Nsg16
Nsg48
S'CommandBufferId'
p56
sg19
Nsbag1
(cmojom.parse.ast
Interface
p57
g3
NtRp58
(dp59
g38
g1
(cmojom.parse.ast
InterfaceBody
p60
g3
NtRp61
(dp62
g10
(lp63
g1
(cmojom.parse.ast
Method
p64
g3
NtRp65
(dp66
g46
Nsg48
S'ReleaseVideoFrame'
p67
sS'parameter_list'
p68
g1
(cmojom.parse.ast
ParameterList
p69
g3
NtRp70
(dp71
g10
(lp72
g1
(cmojom.parse.ast
Parameter
p73
g3
NtRp74
(dp75
g46
Nsg48
S'release_token'
p76
sg15
Nsg19
g20
sg50
S'mojo_base.mojom.UnguessableToken'
p77
sg16
I27
sbag1
(g73
g3
NtRp78
(dp79
g46
Nsg48
S'release_sync_token'
p80
sg15
Nsg19
g20
sg50
S'gpu.mojom.SyncToken'
p81
sg16
I28
sbasg16
I27
sg19
g20
sbsg15
Nsg19
Nsg16
NsS'response_parameter_list'
p82
Nsbasg16
Nsg19
Nsbsg15
Nsg16
Nsg48
S'VideoFrameHandleReleaser'
p83
sg19
Nsbag1
(g35
g3
NtRp84
(dp85
g38
Nsg15
g1
(cmojom.parse.ast
AttributeList
p86
g3
NtRp87
(dp88
g10
(lp89
g1
(cmojom.parse.ast
Attribute
p90
g3
NtRp91
(dp92
S'value'
p93
I01
sg16
I31
sS'key'
p94
S'Native'
p95
sg19
g20
sbasg16
I31
sg19
g20
sbsg16
Nsg48
S'OverlayInfo'
p96
sg19
Nsbag1
(g57
g3
NtRp97
(dp98
g38
g1
(g60
g3
NtRp99
(dp100
g10
(lp101
g1
(g64
g3
NtRp102
(dp103
g46
Nsg48
S'Construct'
p104
sg68
g1
(g69
g3
NtRp105
(dp106
g10
(lp107
g1
(g73
g3
NtRp108
(dp109
g46
Nsg48
S'client'
p110
sg15
Nsg19
g20
sg50
S'asso<VideoDecoderClient>'
p111
sg16
I60
sbag1
(g73
g3
NtRp112
(dp113
g46
Nsg48
S'media_log'
p114
sg15
Nsg19
g20
sg50
S'asso<MediaLog>'
p115
sg16
I61
sbag1
(g73
g3
NtRp116
(dp117
g46
Nsg48
S'video_frame_handle_releaser'
p118
sg15
Nsg19
g20
sg50
S'VideoFrameHandleReleaser&'
p119
sg16
I62
sbag1
(g73
g3
NtRp120
(dp121
g46
Nsg48
S'decoder_buffer_pipe'
p122
sg15
Nsg19
g20
sg50
S'handle<data_pipe_consumer>'
p123
sg16
I63
sbag1
(g73
g3
NtRp124
(dp125
g46
Nsg48
S'command_buffer_id'
p126
sg15
Nsg19
g20
sg50
S'CommandBufferId?'
p127
sg16
I64
sbag1
(g73
g3
NtRp128
(dp129
g46
Nsg48
S'target_color_space'
p130
sg15
Nsg19
g20
sg50
S'gfx.mojom.ColorSpace'
p131
sg16
I65
sbasg16
I60
sg19
g20
sbsg15
Nsg19
Nsg16
Nsg82
Nsbag1
(g64
g3
NtRp132
(dp133
g46
Nsg48
S'Initialize'
p134
sg68
g1
(g69
g3
NtRp135
(dp136
g10
(lp137
g1
(g73
g3
NtRp138
(dp139
g46
Nsg48
S'config'
p140
sg15
Nsg19
g20
sg50
S'VideoDecoderConfig'
p141
sg16
I83
sbag1
(g73
g3
NtRp142
(dp143
g46
Nsg48
S'low_delay'
p144
sg15
Nsg19
g20
sg50
S'bool'
p145
sg16
I83
sbag1
(g73
g3
NtRp146
(dp147
g46
Nsg48
S'cdm_id'
p148
sg15
Nsg19
g20
sg50
S'int32'
p149
sg16
I83
sbasg16
I83
sg19
g20
sbsg15
Nsg19
Nsg16
Nsg82
g1
(g69
g3
NtRp150
(dp151
g10
(lp152
g1
(g73
g3
NtRp153
(dp154
g46
Nsg48
S'success'
p155
sg15
Nsg19
g20
sg50
S'bool'
p156
sg16
I84
sbag1
(g73
g3
NtRp157
(dp158
g46
Nsg48
S'needs_bitstream_conversion'
p159
sg15
Nsg19
g20
sg50
S'bool'
p160
sg16
I84
sbag1
(g73
g3
NtRp161
(dp162
g46
Nsg48
S'max_decode_requests'
p163
sg15
Nsg19
g20
sg50
S'int32'
p164
sg16
I85
sbasg16
I84
sg19
g20
sbsbag1
(g64
g3
NtRp165
(dp166
g46
Nsg48
S'Decode'
p167
sg68
g1
(g69
g3
NtRp168
(dp169
g10
(lp170
g1
(g73
g3
NtRp171
(dp172
g46
Nsg48
S'buffer'
p173
sg15
Nsg19
g20
sg50
S'DecoderBuffer'
p174
sg16
I99
sbasg16
I99
sg19
g20
sbsg15
Nsg19
Nsg16
Nsg82
g1
(g69
g3
NtRp175
(dp176
g10
(lp177
g1
(g73
g3
NtRp178
(dp179
g46
Nsg48
S'status'
p180
sg15
Nsg19
g20
sg50
S'DecodeStatus'
p181
sg16
I99
sbasg16
I99
sg19
g20
sbsbag1
(g64
g3
NtRp182
(dp183
g46
Nsg48
S'Reset'
p184
sg68
g1
(g69
g3
NtRp185
(dp186
g10
(lp187
sg16
Nsg19
Nsbsg15
Nsg19
Nsg16
Nsg82
g1
(g69
g3
NtRp188
(dp189
g10
(lp190
sg16
Nsg19
Nsbsbag1
(g64
g3
NtRp191
(dp192
g46
Nsg48
S'OnOverlayInfoChanged'
p193
sg68
g1
(g69
g3
NtRp194
(dp195
g10
(lp196
g1
(g73
g3
NtRp197
(dp198
g46
Nsg48
S'overlay_info'
p199
sg15
Nsg19
g20
sg50
S'OverlayInfo'
p200
sg16
I107
sbasg16
I107
sg19
g20
sbsg15
Nsg19
Nsg16
Nsg82
Nsbasg16
Nsg19
Nsbsg15
Nsg16
Nsg48
S'VideoDecoder'
p201
sg19
Nsbag1
(g57
g3
NtRp202
(dp203
g38
g1
(g60
g3
NtRp204
(dp205
g10
(lp206
g1
(g64
g3
NtRp207
(dp208
g46
Nsg48
S'OnVideoFrameDecoded'
p209
sg68
g1
(g69
g3
NtRp210
(dp211
g10
(lp212
g1
(g73
g3
NtRp213
(dp214
g46
Nsg48
S'frame'
p215
sg15
Nsg19
g20
sg50
S'VideoFrame'
p216
sg16
I120
sbag1
(g73
g3
NtRp217
(dp218
g46
Nsg48
S'can_read_without_stalling'
p219
sg15
Nsg19
g20
sg50
S'bool'
p220
sg16
I121
sbag1
(g73
g3
NtRp221
(dp222
g46
Nsg48
S'release_token'
p223
sg15
Nsg19
g20
sg50
S'mojo_base.mojom.UnguessableToken?'
p224
sg16
I122
sbasg16
I120
sg19
g20
sbsg15
Nsg19
Nsg16
Nsg82
Nsbag1
(g64
g3
NtRp225
(dp226
g46
Nsg48
S'RequestOverlayInfo'
p227
sg68
g1
(g69
g3
NtRp228
(dp229
g10
(lp230
g1
(g73
g3
NtRp231
(dp232
g46
Nsg48
S'restart_for_transitions'
p233
sg15
Nsg19
g20
sg50
S'bool'
p234
sg16
I128
sbasg16
I128
sg19
g20
sbsg15
Nsg19
Nsg16
Nsg82
Nsbasg16
Nsg19
Nsbsg15
Nsg16
Nsg48
S'VideoDecoderClient'
p235
sg19
Nsbasg16
NsS'module'
p236
g1
(cmojom.parse.ast
Module
p237
g3
NtRp238
(dp239
S'mojom_namespace'
p240
(S'IDENTIFIER'
p241
S'media.mojom'
tp242
sg16
I5
sg15
Nsg19
g20
sbsg19
Nsb.