ccopy_reg
_reconstructor
p1
(cmojom.parse.ast
Mojom
p2
c__builtin__
object
p3
NtRp4
(dp5
S'import_list'
p6
g1
(cmojom.parse.ast
ImportList
p7
g3
NtRp8
(dp9
S'items'
p10
(lp11
g1
(cmojom.parse.ast
Import
p12
g3
NtRp13
(dp14
S'attribute_list'
p15
NsS'lineno'
p16
I7
sS'import_filename'
p17
S'media/mojo/interfaces/media_types.mojom'
p18
sS'filename'
p19
S'../../media/mojo/interfaces/video_encode_accelerator.mojom'
p20
sbag1
(g12
g3
NtRp21
(dp22
g15
Nsg16
I8
sg17
S'mojo/public/mojom/base/time.mojom'
p23
sg19
g20
sbag1
(g12
g3
NtRp24
(dp25
g15
Nsg16
I9
sg17
S'ui/gfx/geometry/mojo/geometry.mojom'
p26
sg19
g20
sbasg16
I7
sg19
g20
sbsS'definition_list'
p27
(lp28
g1
(cmojom.parse.ast
Interface
p29
g3
NtRp30
(dp31
S'body'
p32
g1
(cmojom.parse.ast
InterfaceBody
p33
g3
NtRp34
(dp35
g10
(lp36
g1
(cmojom.parse.ast
Method
p37
g3
NtRp38
(dp39
S'ordinal'
p40
NsS'mojom_name'
p41
S'CreateVideoEncodeAccelerator'
p42
sS'parameter_list'
p43
g1
(cmojom.parse.ast
ParameterList
p44
g3
NtRp45
(dp46
g10
(lp47
g1
(cmojom.parse.ast
Parameter
p48
g3
NtRp49
(dp50
g40
Nsg41
S'request'
p51
sg15
Nsg19
g20
sS'typename'
p52
S'VideoEncodeAccelerator&'
p53
sg16
I36
sbasg16
I36
sg19
g20
sbsg15
Nsg19
Nsg16
NsS'response_parameter_list'
p54
Nsbasg16
Nsg19
Nsbsg15
Nsg16
Nsg41
S'VideoEncodeAcceleratorProvider'
p55
sg19
Nsbag1
(g29
g3
NtRp56
(dp57
g32
g1
(g33
g3
NtRp58
(dp59
g10
(lp60
g1
(cmojom.parse.ast
Enum
p61
g3
NtRp62
(dp63
g15
NsS'enum_value_list'
p64
g1
(cmojom.parse.ast
EnumValueList
p65
g3
NtRp66
(dp67
g10
(lp68
g1
(cmojom.parse.ast
EnumValue
p69
g3
NtRp70
(dp71
g15
NsS'value'
p72
Nsg16
I42
sg41
S'ILLEGAL_STATE'
p73
sg19
g20
sbag1
(g69
g3
NtRp74
(dp75
g15
Nsg72
Nsg16
I43
sg41
S'INVALID_ARGUMENT'
p76
sg19
g20
sbag1
(g69
g3
NtRp77
(dp78
g15
Nsg72
Nsg16
I44
sg41
S'PLATFORM_FAILURE'
p79
sg19
g20
sbasg16
I42
sg19
g20
sbsg16
I41
sg41
S'Error'
p80
sg19
g20
sbag1
(g37
g3
NtRp81
(dp82
g40
Nsg41
S'Initialize'
p83
sg43
g1
(g44
g3
NtRp84
(dp85
g10
(lp86
g1
(g48
g3
NtRp87
(dp88
g40
Nsg41
S'input_format'
p89
sg15
Nsg19
g20
sg52
S'VideoPixelFormat'
p90
sg16
I50
sbag1
(g48
g3
NtRp91
(dp92
g40
Nsg41
S'input_visible_size'
p93
sg15
Nsg19
g20
sg52
S'gfx.mojom.Size'
p94
sg16
I51
sbag1
(g48
g3
NtRp95
(dp96
g40
Nsg41
S'output_profile'
p97
sg15
Nsg19
g20
sg52
S'VideoCodecProfile'
p98
sg16
I52
sbag1
(g48
g3
NtRp99
(dp100
g40
Nsg41
S'initial_bitrate'
p101
sg15
Nsg19
g20
sg52
S'uint32'
p102
sg16
I53
sbag1
(g48
g3
NtRp103
(dp104
g40
Nsg41
S'client'
p105
sg15
Nsg19
g20
sg52
S'VideoEncodeAcceleratorClient'
p106
sg16
I54
sbasg16
I50
sg19
g20
sbsg15
g1
(cmojom.parse.ast
AttributeList
p107
g3
NtRp108
(dp109
g10
(lp110
g1
(cmojom.parse.ast
Attribute
p111
g3
NtRp112
(dp113
g72
I01
sg16
I49
sS'key'
p114
S'Sync'
p115
sg19
g20
sbasg16
I49
sg19
g20
sbsg19
Nsg16
Nsg54
g1
(g44
g3
NtRp116
(dp117
g10
(lp118
g1
(g48
g3
NtRp119
(dp120
g40
Nsg41
S'result'
p121
sg15
Nsg19
g20
sg52
S'bool'
p122
sg16
I55
sbasg16
I55
sg19
g20
sbsbag1
(g37
g3
NtRp123
(dp124
g40
Nsg41
S'Encode'
p125
sg43
g1
(g44
g3
NtRp126
(dp127
g10
(lp128
g1
(g48
g3
NtRp129
(dp130
g40
Nsg41
S'frame'
p131
sg15
Nsg19
g20
sg52
S'VideoFrame'
p132
sg16
I58
sbag1
(g48
g3
NtRp133
(dp134
g40
Nsg41
S'force_keyframe'
p135
sg15
Nsg19
g20
sg52
S'bool'
p136
sg16
I58
sbasg16
I58
sg19
g20
sbsg15
Nsg19
Nsg16
Nsg54
g1
(g44
g3
NtRp137
(dp138
g10
(lp139
sg16
Nsg19
Nsbsbag1
(g37
g3
NtRp140
(dp141
g40
Nsg41
S'UseOutputBitstreamBuffer'
p142
sg43
g1
(g44
g3
NtRp143
(dp144
g10
(lp145
g1
(g48
g3
NtRp146
(dp147
g40
Nsg41
S'bitstream_buffer_id'
p148
sg15
Nsg19
g20
sg52
S'int32'
p149
sg16
I60
sbag1
(g48
g3
NtRp150
(dp151
g40
Nsg41
S'buffer'
p152
sg15
Nsg19
g20
sg52
S'handle<shared_buffer>'
p153
sg16
I61
sbasg16
I60
sg19
g20
sbsg15
Nsg19
Nsg16
Nsg54
Nsbag1
(g37
g3
NtRp154
(dp155
g40
Nsg41
S'RequestEncodingParametersChange'
p156
sg43
g1
(g44
g3
NtRp157
(dp158
g10
(lp159
g1
(g48
g3
NtRp160
(dp161
g40
Nsg41
S'bitrate'
p162
sg15
Nsg19
g20
sg52
S'uint32'
p163
sg16
I63
sbag1
(g48
g3
NtRp164
(dp165
g40
Nsg41
S'framerate'
p166
sg15
Nsg19
g20
sg52
S'uint32'
p167
sg16
I63
sbasg16
I63
sg19
g20
sbsg15
Nsg19
Nsg16
Nsg54
Nsbasg16
I41
sg19
g20
sbsg15
Nsg16
Nsg41
S'VideoEncodeAccelerator'
p168
sg19
Nsbag1
(g29
g3
NtRp169
(dp170
g32
g1
(g33
g3
NtRp171
(dp172
g10
(lp173
g1
(g37
g3
NtRp174
(dp175
g40
Nsg41
S'RequireBitstreamBuffers'
p176
sg43
g1
(g44
g3
NtRp177
(dp178
g10
(lp179
g1
(g48
g3
NtRp180
(dp181
g40
Nsg41
S'input_count'
p182
sg15
Nsg19
g20
sg52
S'uint32'
p183
sg16
I68
sbag1
(g48
g3
NtRp184
(dp185
g40
Nsg41
S'input_coded_size'
p186
sg15
Nsg19
g20
sg52
S'gfx.mojom.Size'
p187
sg16
I69
sbag1
(g48
g3
NtRp188
(dp189
g40
Nsg41
S'output_buffer_size'
p190
sg15
Nsg19
g20
sg52
S'uint32'
p191
sg16
I70
sbasg16
I68
sg19
g20
sbsg15
Nsg19
Nsg16
Nsg54
Nsbag1
(g37
g3
NtRp192
(dp193
g40
Nsg41
S'BitstreamBufferReady'
p194
sg43
g1
(g44
g3
NtRp195
(dp196
g10
(lp197
g1
(g48
g3
NtRp198
(dp199
g40
Nsg41
S'bitstream_buffer_id'
p200
sg15
Nsg19
g20
sg52
S'int32'
p201
sg16
I72
sbag1
(g48
g3
NtRp202
(dp203
g40
Nsg41
S'payload_size'
p204
sg15
Nsg19
g20
sg52
S'uint32'
p205
sg16
I72
sbag1
(g48
g3
NtRp206
(dp207
g40
Nsg41
S'key_frame'
p208
sg15
Nsg19
g20
sg52
S'bool'
p209
sg16
I73
sbag1
(g48
g3
NtRp210
(dp211
g40
Nsg41
S'timestamp'
p212
sg15
Nsg19
g20
sg52
S'mojo_base.mojom.TimeDelta'
p213
sg16
I73
sbasg16
I72
sg19
g20
sbsg15
Nsg19
Nsg16
Nsg54
Nsbag1
(g37
g3
NtRp214
(dp215
g40
Nsg41
S'NotifyError'
p216
sg43
g1
(g44
g3
NtRp217
(dp218
g10
(lp219
g1
(g48
g3
NtRp220
(dp221
g40
Nsg41
S'error'
p222
sg15
Nsg19
g20
sg52
S'VideoEncodeAccelerator.Error'
p223
sg16
I75
sbasg16
I75
sg19
g20
sbsg15
Nsg19
Nsg16
Nsg54
Nsbasg16
Nsg19
Nsbsg15
Nsg16
Nsg41
S'VideoEncodeAcceleratorClient'
p224
sg19
Nsbasg16
NsS'module'
p225
g1
(cmojom.parse.ast
Module
p226
g3
NtRp227
(dp228
S'mojom_namespace'
p229
(S'IDENTIFIER'
p230
S'media.mojom'
tp231
sg16
I5
sg15
Nsg19
g20
sbsg19
Nsb.