ccopy_reg
_reconstructor
p1
(cmojom.parse.ast
Mojom
p2
c__builtin__
object
p3
NtRp4
(dp5
S'import_list'
p6
g1
(cmojom.parse.ast
ImportList
p7
g3
NtRp8
(dp9
S'items'
p10
(lp11
g1
(cmojom.parse.ast
Import
p12
g3
NtRp13
(dp14
S'attribute_list'
p15
NsS'lineno'
p16
I7
sS'import_filename'
p17
S'media/mojo/interfaces/media_types.mojom'
p18
sS'filename'
p19
S'../../media/mojo/interfaces/watch_time_recorder.mojom'
p20
sbag1
(g12
g3
NtRp21
(dp22
g15
Nsg16
I8
sg17
S'mojo/public/mojom/base/time.mojom'
p23
sg19
g20
sbag1
(g12
g3
NtRp24
(dp25
g15
Nsg16
I9
sg17
S'ui/gfx/geometry/mojo/geometry.mojom'
p26
sg19
g20
sbag1
(g12
g3
NtRp27
(dp28
g15
Nsg16
I10
sg17
S'url/mojom/origin.mojom'
p29
sg19
g20
sbasg16
I7
sg19
g20
sbsS'definition_list'
p30
(lp31
g1
(cmojom.parse.ast
Struct
p32
g3
NtRp33
(dp34
S'body'
p35
g1
(cmojom.parse.ast
StructBody
p36
g3
NtRp37
(dp38
g10
(lp39
g1
(cmojom.parse.ast
StructField
p40
g3
NtRp41
(dp42
S'ordinal'
p43
NsS'default_value'
p44
NsS'mojom_name'
p45
S'audio_codec'
p46
sg15
Nsg19
NsS'typename'
p47
S'AudioCodec'
p48
sg16
Nsbag1
(g40
g3
NtRp49
(dp50
g43
Nsg44
Nsg45
S'video_codec'
p51
sg15
Nsg19
Nsg47
S'VideoCodec'
p52
sg16
Nsbag1
(g40
g3
NtRp53
(dp54
g43
Nsg44
Nsg45
S'has_audio'
p55
sg15
Nsg19
Nsg47
S'bool'
p56
sg16
Nsbag1
(g40
g3
NtRp57
(dp58
g43
Nsg44
Nsg45
S'has_video'
p59
sg15
Nsg19
Nsg47
S'bool'
p60
sg16
Nsbag1
(g40
g3
NtRp61
(dp62
g43
Nsg44
Nsg45
S'is_background'
p63
sg15
Nsg19
Nsg47
S'bool'
p64
sg16
Nsbag1
(g40
g3
NtRp65
(dp66
g43
Nsg44
Nsg45
S'is_muted'
p67
sg15
Nsg19
Nsg47
S'bool'
p68
sg16
Nsbag1
(g40
g3
NtRp69
(dp70
g43
Nsg44
Nsg45
S'is_mse'
p71
sg15
Nsg19
Nsg47
S'bool'
p72
sg16
Nsbag1
(g40
g3
NtRp73
(dp74
g43
Nsg44
Nsg45
S'is_eme'
p75
sg15
Nsg19
Nsg47
S'bool'
p76
sg16
Nsbag1
(g40
g3
NtRp77
(dp78
g43
Nsg44
Nsg45
S'is_embedded_media_experience'
p79
sg15
Nsg19
Nsg47
S'bool'
p80
sg16
Nsbag1
(g40
g3
NtRp81
(dp82
g43
Nsg44
Nsg45
S'natural_size'
p83
sg15
Nsg19
Nsg47
S'gfx.mojom.Size'
p84
sg16
Nsbasg16
Nsg19
Nsbsg15
Nsg16
Nsg45
S'PlaybackProperties'
p85
sg19
Nsbag1
(cmojom.parse.ast
Interface
p86
g3
NtRp87
(dp88
g35
g1
(cmojom.parse.ast
InterfaceBody
p89
g3
NtRp90
(dp91
g10
(lp92
g1
(cmojom.parse.ast
Method
p93
g3
NtRp94
(dp95
g43
Nsg45
S'RecordWatchTime'
p96
sS'parameter_list'
p97
g1
(cmojom.parse.ast
ParameterList
p98
g3
NtRp99
(dp100
g10
(lp101
g1
(cmojom.parse.ast
Parameter
p102
g3
NtRp103
(dp104
g43
Nsg45
S'key'
p105
sg15
Nsg19
g20
sg47
S'WatchTimeKey'
p106
sg16
I48
sbag1
(g102
g3
NtRp107
(dp108
g43
Nsg45
S'watch_time'
p109
sg15
Nsg19
g20
sg47
S'mojo_base.mojom.TimeDelta'
p110
sg16
I48
sbasg16
I48
sg19
g20
sbsg15
Nsg19
Nsg16
NsS'response_parameter_list'
p111
Nsbag1
(g93
g3
NtRp112
(dp113
g43
Nsg45
S'FinalizeWatchTime'
p114
sg97
g1
(g98
g3
NtRp115
(dp116
g10
(lp117
g1
(g102
g3
NtRp118
(dp119
g43
Nsg45
S'watch_time_keys'
p120
sg15
Nsg19
g20
sg47
S'WatchTimeKey[]'
p121
sg16
I52
sbasg16
I52
sg19
g20
sbsg15
Nsg19
Nsg16
Nsg111
Nsbag1
(g93
g3
NtRp122
(dp123
g43
Nsg45
S'OnError'
p124
sg97
g1
(g98
g3
NtRp125
(dp126
g10
(lp127
g1
(g102
g3
NtRp128
(dp129
g43
Nsg45
S'status'
p130
sg15
Nsg19
g20
sg47
S'PipelineStatus'
p131
sg16
I56
sbasg16
I56
sg19
g20
sbsg15
Nsg19
Nsg16
Nsg111
Nsbag1
(g93
g3
NtRp132
(dp133
g43
Nsg45
S'SetAudioDecoderName'
p134
sg97
g1
(g98
g3
NtRp135
(dp136
g10
(lp137
g1
(g102
g3
NtRp138
(dp139
g43
Nsg45
S'name'
p140
sg15
Nsg19
g20
sg47
S'string'
p141
sg16
I64
sbasg16
I64
sg19
g20
sbsg15
Nsg19
Nsg16
Nsg111
Nsbag1
(g93
g3
NtRp142
(dp143
g43
Nsg45
S'SetVideoDecoderName'
p144
sg97
g1
(g98
g3
NtRp145
(dp146
g10
(lp147
g1
(g102
g3
NtRp148
(dp149
g43
Nsg45
S'name'
p150
sg15
Nsg19
g20
sg47
S'string'
p151
sg16
I65
sbasg16
I65
sg19
g20
sbsg15
Nsg19
Nsg16
Nsg111
Nsbag1
(g93
g3
NtRp152
(dp153
g43
Nsg45
S'SetAutoplayInitiated'
p154
sg97
g1
(g98
g3
NtRp155
(dp156
g10
(lp157
g1
(g102
g3
NtRp158
(dp159
g43
Nsg45
S'value'
p160
sg15
Nsg19
g20
sg47
S'bool'
p161
sg16
I72
sbasg16
I72
sg19
g20
sbsg15
Nsg19
Nsg16
Nsg111
Nsbag1
(g93
g3
NtRp162
(dp163
g43
Nsg45
S'UpdateUnderflowCount'
p164
sg97
g1
(g98
g3
NtRp165
(dp166
g10
(lp167
g1
(g102
g3
NtRp168
(dp169
g43
Nsg45
S'count'
p170
sg15
Nsg19
g20
sg47
S'int32'
p171
sg16
I77
sbasg16
I77
sg19
g20
sbsg15
Nsg19
Nsg16
Nsg111
Nsbasg16
Nsg19
Nsbsg15
Nsg16
Nsg45
S'WatchTimeRecorder'
p172
sg19
Nsbasg16
NsS'module'
p173
g1
(cmojom.parse.ast
Module
p174
g3
NtRp175
(dp176
S'mojom_namespace'
p177
(S'IDENTIFIER'
p178
S'media.mojom'
tp179
sg16
I5
sg15
Nsg19
g20
sbsg19
Nsb.