ccopy_reg
_reconstructor
p1
(cmojom.parse.ast
Mojom
p2
c__builtin__
object
p3
NtRp4
(dp5
S'import_list'
p6
g1
(cmojom.parse.ast
ImportList
p7
g3
NtRp8
(dp9
S'items'
p10
(lp11
g1
(cmojom.parse.ast
Import
p12
g3
NtRp13
(dp14
S'attribute_list'
p15
NsS'lineno'
p16
I7
sS'import_filename'
p17
S'url/mojom/url.mojom'
p18
sS'filename'
p19
S'../../chrome/browser/ui/webui/interventions_internals/interventions_internals.mojom'
p20
sbasg16
I7
sg19
g20
sbsS'definition_list'
p21
(lp22
g1
(cmojom.parse.ast
Struct
p23
g3
NtRp24
(dp25
S'body'
p26
g1
(cmojom.parse.ast
StructBody
p27
g3
NtRp28
(dp29
g10
(lp30
g1
(cmojom.parse.ast
StructField
p31
g3
NtRp32
(dp33
S'ordinal'
p34
NsS'default_value'
p35
NsS'mojom_name'
p36
S'description'
p37
sg15
Nsg19
NsS'typename'
p38
S'string'
p39
sg16
Nsbag1
(g31
g3
NtRp40
(dp41
g34
Nsg35
Nsg36
S'enabled'
p42
sg15
Nsg19
Nsg38
S'bool'
p43
sg16
Nsbag1
(g31
g3
NtRp44
(dp45
g34
Nsg35
Nsg36
S'htmlId'
p46
sg15
Nsg19
Nsg38
S'string'
p47
sg16
Nsbasg16
Nsg19
Nsbsg15
Nsg16
Nsg36
S'PreviewsStatus'
p48
sg19
Nsbag1
(g23
g3
NtRp49
(dp50
g26
g1
(g27
g3
NtRp51
(dp52
g10
(lp53
g1
(g31
g3
NtRp54
(dp55
g34
Nsg35
Nsg36
S'description'
p56
sg15
Nsg19
Nsg38
S'string'
p57
sg16
Nsbag1
(g31
g3
NtRp58
(dp59
g34
Nsg35
Nsg36
S'link'
p60
sg15
Nsg19
Nsg38
S'string'
p61
sg16
Nsbag1
(g31
g3
NtRp62
(dp63
g34
Nsg35
Nsg36
S'value'
p64
sg15
Nsg19
Nsg38
S'string'
p65
sg16
Nsbag1
(g31
g3
NtRp66
(dp67
g34
Nsg35
Nsg36
S'htmlId'
p68
sg15
Nsg19
Nsg38
S'string'
p69
sg16
Nsbasg16
Nsg19
Nsbsg15
Nsg16
Nsg36
S'PreviewsFlag'
p70
sg19
Nsbag1
(g23
g3
NtRp71
(dp72
g26
g1
(g27
g3
NtRp73
(dp74
g10
(lp75
g1
(g31
g3
NtRp76
(dp77
g34
Nsg35
Nsg36
S'type'
p78
sg15
Nsg19
Nsg38
S'string'
p79
sg16
Nsbag1
(g31
g3
NtRp80
(dp81
g34
Nsg35
Nsg36
S'description'
p82
sg15
Nsg19
Nsg38
S'string'
p83
sg16
Nsbag1
(g31
g3
NtRp84
(dp85
g34
Nsg35
Nsg36
S'url'
p86
sg15
Nsg19
Nsg38
S'url.mojom.Url'
p87
sg16
Nsbag1
(g31
g3
NtRp88
(dp89
g34
Nsg35
Nsg36
S'time'
p90
sg15
Nsg19
Nsg38
S'int64'
p91
sg16
Nsbag1
(g31
g3
NtRp92
(dp93
g34
Nsg35
Nsg36
S'page_id'
p94
sg15
Nsg19
Nsg38
S'uint64'
p95
sg16
Nsbasg16
Nsg19
Nsbsg15
Nsg16
Nsg36
S'MessageLog'
p96
sg19
Nsbag1
(cmojom.parse.ast
Interface
p97
g3
NtRp98
(dp99
g26
g1
(cmojom.parse.ast
InterfaceBody
p100
g3
NtRp101
(dp102
g10
(lp103
g1
(cmojom.parse.ast
Method
p104
g3
NtRp105
(dp106
g34
Nsg36
S'GetPreviewsEnabled'
p107
sS'parameter_list'
p108
g1
(cmojom.parse.ast
ParameterList
p109
g3
NtRp110
(dp111
g10
(lp112
sg16
Nsg19
Nsbsg15
Nsg19
Nsg16
NsS'response_parameter_list'
p113
g1
(g109
g3
NtRp114
(dp115
g10
(lp116
g1
(cmojom.parse.ast
Parameter
p117
g3
NtRp118
(dp119
g34
Nsg36
S'statuses'
p120
sg15
Nsg19
g20
sg38
S'PreviewsStatus[]'
p121
sg16
I55
sbasg16
I55
sg19
g20
sbsbag1
(g104
g3
NtRp122
(dp123
g34
Nsg36
S'GetPreviewsFlagsDetails'
p124
sg108
g1
(g109
g3
NtRp125
(dp126
g10
(lp127
sg16
Nsg19
Nsbsg15
Nsg19
Nsg16
Nsg113
g1
(g109
g3
NtRp128
(dp129
g10
(lp130
g1
(g117
g3
NtRp131
(dp132
g34
Nsg36
S'flags'
p133
sg15
Nsg19
g20
sg38
S'PreviewsFlag[]'
p134
sg16
I58
sbasg16
I58
sg19
g20
sbsbag1
(g104
g3
NtRp135
(dp136
g34
Nsg36
S'SetClientPage'
p137
sg108
g1
(g109
g3
NtRp138
(dp139
g10
(lp140
g1
(g117
g3
NtRp141
(dp142
g34
Nsg36
S'page'
p143
sg15
Nsg19
g20
sg38
S'InterventionsInternalsPage'
p144
sg16
I61
sbasg16
I61
sg19
g20
sbsg15
Nsg19
Nsg16
Nsg113
Nsbag1
(g104
g3
NtRp145
(dp146
g34
Nsg36
S'SetIgnorePreviewsBlacklistDecision'
p147
sg108
g1
(g109
g3
NtRp148
(dp149
g10
(lp150
g1
(g117
g3
NtRp151
(dp152
g34
Nsg36
S'ignored'
p153
sg15
Nsg19
g20
sg38
S'bool'
p154
sg16
I66
sbasg16
I66
sg19
g20
sbsg15
Nsg19
Nsg16
Nsg113
Nsbasg16
Nsg19
Nsbsg15
Nsg16
Nsg36
S'InterventionsInternalsPageHandler'
p155
sg19
Nsbag1
(g97
g3
NtRp156
(dp157
g26
g1
(g100
g3
NtRp158
(dp159
g10
(lp160
g1
(g104
g3
NtRp161
(dp162
g34
Nsg36
S'LogNewMessage'
p163
sg108
g1
(g109
g3
NtRp164
(dp165
g10
(lp166
g1
(g117
g3
NtRp167
(dp168
g34
Nsg36
S'log'
p169
sg15
Nsg19
g20
sg38
S'MessageLog'
p170
sg16
I73
sbasg16
I73
sg19
g20
sbsg15
Nsg19
Nsg16
Nsg113
Nsbag1
(g104
g3
NtRp171
(dp172
g34
Nsg36
S'OnBlacklistedHost'
p173
sg108
g1
(g109
g3
NtRp174
(dp175
g10
(lp176
g1
(g117
g3
NtRp177
(dp178
g34
Nsg36
S'host'
p179
sg15
Nsg19
g20
sg38
S'string'
p180
sg16
I78
sbag1
(g117
g3
NtRp181
(dp182
g34
Nsg36
S'time'
p183
sg15
Nsg19
g20
sg38
S'int64'
p184
sg16
I78
sbasg16
I78
sg19
g20
sbsg15
Nsg19
Nsg16
Nsg113
Nsbag1
(g104
g3
NtRp185
(dp186
g34
Nsg36
S'OnUserBlacklistedStatusChange'
p187
sg108
g1
(g109
g3
NtRp188
(dp189
g10
(lp190
g1
(g117
g3
NtRp191
(dp192
g34
Nsg36
S'blacklisted'
p193
sg15
Nsg19
g20
sg38
S'bool'
p194
sg16
I83
sbasg16
I83
sg19
g20
sbsg15
Nsg19
Nsg16
Nsg113
Nsbag1
(g104
g3
NtRp195
(dp196
g34
Nsg36
S'OnBlacklistCleared'
p197
sg108
g1
(g109
g3
NtRp198
(dp199
g10
(lp200
g1
(g117
g3
NtRp201
(dp202
g34
Nsg36
S'time'
p203
sg15
Nsg19
g20
sg38
S'int64'
p204
sg16
I88
sbasg16
I88
sg19
g20
sbsg15
Nsg19
Nsg16
Nsg113
Nsbag1
(g104
g3
NtRp205
(dp206
g34
Nsg36
S'OnEffectiveConnectionTypeChanged'
p207
sg108
g1
(g109
g3
NtRp208
(dp209
g10
(lp210
g1
(g117
g3
NtRp211
(dp212
g34
Nsg36
S'type'
p213
sg15
Nsg19
g20
sg38
S'string'
p214
sg16
I93
sbasg16
I93
sg19
g20
sbsg15
Nsg19
Nsg16
Nsg113
Nsbag1
(g104
g3
NtRp215
(dp216
g34
Nsg36
S'OnIgnoreBlacklistDecisionStatusChanged'
p217
sg108
g1
(g109
g3
NtRp218
(dp219
g10
(lp220
g1
(g117
g3
NtRp221
(dp222
g34
Nsg36
S'ignored'
p223
sg15
Nsg19
g20
sg38
S'bool'
p224
sg16
I98
sbasg16
I98
sg19
g20
sbsg15
Nsg19
Nsg16
Nsg113
Nsbasg16
Nsg19
Nsbsg15
Nsg16
Nsg36
S'InterventionsInternalsPage'
p225
sg19
Nsbasg16
NsS'module'
p226
g1
(cmojom.parse.ast
Module
p227
g3
NtRp228
(dp229
S'mojom_namespace'
p230
(S'IDENTIFIER'
p231
S'mojom'
tp232
sg16
I5
sg15
Nsg19
g20
sbsg19
Nsb.